ARM GAS  /tmp/ccU23Djm.s 			page 1


   1              		.cpu cortex-m4
   2              		.eabi_attribute 27, 1
   3              		.eabi_attribute 28, 1
   4              		.eabi_attribute 20, 1
   5              		.eabi_attribute 21, 1
   6              		.eabi_attribute 23, 3
   7              		.eabi_attribute 24, 1
   8              		.eabi_attribute 25, 1
   9              		.eabi_attribute 26, 1
  10              		.eabi_attribute 30, 6
  11              		.eabi_attribute 34, 1
  12              		.eabi_attribute 18, 4
  13              		.file	"main.cpp"
  14              		.text
  15              	.Ltext0:
  16              		.cfi_sections	.debug_frame
  17              		.section	.text._ZN4otto3mcu7GpioPin4initENS1_4ModeENS1_4PullENS1_5SpeedE,"axG",%progbits,_ZN4otto3
  18              		.align	1
  19              		.weak	_ZN4otto3mcu7GpioPin4initENS1_4ModeENS1_4PullENS1_5SpeedE
  20              		.arch armv7e-m
  21              		.syntax unified
  22              		.thumb
  23              		.thumb_func
  24              		.fpu fpv4-sp-d16
  26              	_ZN4otto3mcu7GpioPin4initENS1_4ModeENS1_4PullENS1_5SpeedE:
  27              	.LFB219:
  28              		.file 1 "Cpp/gpio.hpp"
   1:Cpp/gpio.hpp  **** #pragma once
   2:Cpp/gpio.hpp  **** 
   3:Cpp/gpio.hpp  **** #include <cstdint>
   4:Cpp/gpio.hpp  **** #include <utility>
   5:Cpp/gpio.hpp  **** 
   6:Cpp/gpio.hpp  **** #include "otto.h"
   7:Cpp/gpio.hpp  **** #include <stm32f4xx_hal.h>
   8:Cpp/gpio.hpp  **** 
   9:Cpp/gpio.hpp  **** namespace otto::mcu {
  10:Cpp/gpio.hpp  **** 
  11:Cpp/gpio.hpp  ****   template<typename T>
  12:Cpp/gpio.hpp  ****   struct function_ptr_impl;
  13:Cpp/gpio.hpp  **** 
  14:Cpp/gpio.hpp  ****   template<typename Ret, typename... Args>
  15:Cpp/gpio.hpp  ****   struct function_ptr_impl<Ret(Args...)> {
  16:Cpp/gpio.hpp  ****     using type = Ret(*)(Args...);
  17:Cpp/gpio.hpp  ****   };
  18:Cpp/gpio.hpp  **** 
  19:Cpp/gpio.hpp  ****   template<typename F>
  20:Cpp/gpio.hpp  ****   using function_ptr = typename function_ptr_impl<F>::type;
  21:Cpp/gpio.hpp  **** 
  22:Cpp/gpio.hpp  ****   struct GpioPin {
  23:Cpp/gpio.hpp  ****     enum struct Mode : std::uint32_t {
  24:Cpp/gpio.hpp  ****       input = GPIO_MODE_INPUT,
  25:Cpp/gpio.hpp  ****       output_pp = GPIO_MODE_OUTPUT_PP,
  26:Cpp/gpio.hpp  ****       output_od = GPIO_MODE_OUTPUT_OD,
  27:Cpp/gpio.hpp  ****       af_pp = GPIO_MODE_AF_PP,
  28:Cpp/gpio.hpp  ****       af_od = GPIO_MODE_AF_OD,
  29:Cpp/gpio.hpp  ****       analog = GPIO_MODE_ANALOG,
  30:Cpp/gpio.hpp  ****       it_rising = GPIO_MODE_IT_RISING,
ARM GAS  /tmp/ccU23Djm.s 			page 2


  31:Cpp/gpio.hpp  ****       it_falling = GPIO_MODE_IT_FALLING,
  32:Cpp/gpio.hpp  ****       it_rising_falling = GPIO_MODE_IT_RISING_FALLING,
  33:Cpp/gpio.hpp  ****       evt_rising = GPIO_MODE_EVT_RISING,
  34:Cpp/gpio.hpp  ****       evt_falling = GPIO_MODE_EVT_FALLING,
  35:Cpp/gpio.hpp  ****       evt_rising_falling = GPIO_MODE_EVT_RISING_FALLING,
  36:Cpp/gpio.hpp  ****     };
  37:Cpp/gpio.hpp  **** 
  38:Cpp/gpio.hpp  ****     enum struct Pull : std::uint32_t { none, up, down };
  39:Cpp/gpio.hpp  **** 
  40:Cpp/gpio.hpp  ****     enum struct Speed : std::uint32_t {
  41:Cpp/gpio.hpp  ****       /// IO works at 2 MHz, please refer to the product datasheet
  42:Cpp/gpio.hpp  ****       freq_low = GPIO_SPEED_FREQ_LOW,
  43:Cpp/gpio.hpp  ****       /// range 12,5 MHz to 50 MHz, please refer to the product datasheet
  44:Cpp/gpio.hpp  ****       freq_medium = GPIO_SPEED_FREQ_MEDIUM,
  45:Cpp/gpio.hpp  ****       /// range 25 MHz to 100 MHz, please refer to the product datasheet
  46:Cpp/gpio.hpp  ****       freq_high = GPIO_SPEED_FREQ_HIGH,
  47:Cpp/gpio.hpp  ****       /// range 50 MHz to 200 MHz, please refer to the product datasheet
  48:Cpp/gpio.hpp  ****       freq_very_high = GPIO_SPEED_FREQ_VERY_HIGH,
  49:Cpp/gpio.hpp  ****     };
  50:Cpp/gpio.hpp  **** 
  51:Cpp/gpio.hpp  ****     void init(Mode mode, Pull pull = Pull::none, Speed speed = Speed::freq_low)
  29              		.loc 1 51 10
  30              		.cfi_startproc
  31              		@ args = 0, pretend = 0, frame = 40
  32              		@ frame_needed = 1, uses_anonymous_args = 0
  33 0000 80B5     		push	{r7, lr}
  34              	.LCFI0:
  35              		.cfi_def_cfa_offset 8
  36              		.cfi_offset 7, -8
  37              		.cfi_offset 14, -4
  38 0002 8AB0     		sub	sp, sp, #40
  39              	.LCFI1:
  40              		.cfi_def_cfa_offset 48
  41 0004 00AF     		add	r7, sp, #0
  42              	.LCFI2:
  43              		.cfi_def_cfa_register 7
  44 0006 F860     		str	r0, [r7, #12]
  45 0008 B960     		str	r1, [r7, #8]
  46 000a 7A60     		str	r2, [r7, #4]
  47 000c 3B60     		str	r3, [r7]
  52:Cpp/gpio.hpp  ****     {
  53:Cpp/gpio.hpp  ****       GPIO_InitTypeDef data = {
  48              		.loc 1 53 24
  49 000e 07F11403 		add	r3, r7, #20
  50 0012 0022     		movs	r2, #0
  51 0014 1A60     		str	r2, [r3]
  52 0016 5A60     		str	r2, [r3, #4]
  53 0018 9A60     		str	r2, [r3, #8]
  54 001a DA60     		str	r2, [r3, #12]
  55 001c 1A61     		str	r2, [r3, #16]
  54:Cpp/gpio.hpp  ****         .Pin = pin,
  56              		.loc 1 54 16
  57 001e FB68     		ldr	r3, [r7, #12]
  58 0020 5B68     		ldr	r3, [r3, #4]
  55:Cpp/gpio.hpp  ****         .Mode = static_cast<std::uint32_t>(mode),
  56:Cpp/gpio.hpp  ****         .Pull = static_cast<std::uint32_t>(pull),
  57:Cpp/gpio.hpp  ****         .Speed = static_cast<std::uint32_t>(speed),
ARM GAS  /tmp/ccU23Djm.s 			page 3


  58:Cpp/gpio.hpp  ****         .Alternate = 0,
  59:Cpp/gpio.hpp  ****       };
  59              		.loc 1 59 7
  60 0022 7B61     		str	r3, [r7, #20]
  61 0024 BB68     		ldr	r3, [r7, #8]
  62 0026 BB61     		str	r3, [r7, #24]
  63 0028 7B68     		ldr	r3, [r7, #4]
  64 002a FB61     		str	r3, [r7, #28]
  65 002c 3B68     		ldr	r3, [r7]
  66 002e 3B62     		str	r3, [r7, #32]
  60:Cpp/gpio.hpp  ****       HAL_GPIO_Init(port, &data);
  67              		.loc 1 60 20
  68 0030 FB68     		ldr	r3, [r7, #12]
  69 0032 1B68     		ldr	r3, [r3]
  70 0034 07F11402 		add	r2, r7, #20
  71 0038 1146     		mov	r1, r2
  72 003a 1846     		mov	r0, r3
  73 003c FFF7FEFF 		bl	HAL_GPIO_Init
  61:Cpp/gpio.hpp  ****     }
  74              		.loc 1 61 5
  75 0040 00BF     		nop
  76 0042 2837     		adds	r7, r7, #40
  77              	.LCFI3:
  78              		.cfi_def_cfa_offset 8
  79 0044 BD46     		mov	sp, r7
  80              	.LCFI4:
  81              		.cfi_def_cfa_register 13
  82              		@ sp needed
  83 0046 80BD     		pop	{r7, pc}
  84              		.cfi_endproc
  85              	.LFE219:
  87              		.section	.text._ZNK4otto3mcu7GpioPin4readEv,"axG",%progbits,_ZNK4otto3mcu7GpioPin4readEv,comdat
  88              		.align	1
  89              		.weak	_ZNK4otto3mcu7GpioPin4readEv
  90              		.syntax unified
  91              		.thumb
  92              		.thumb_func
  93              		.fpu fpv4-sp-d16
  95              	_ZNK4otto3mcu7GpioPin4readEv:
  96              	.LFB220:
  62:Cpp/gpio.hpp  **** 
  63:Cpp/gpio.hpp  ****     bool read() const
  97              		.loc 1 63 10
  98              		.cfi_startproc
  99              		@ args = 0, pretend = 0, frame = 16
 100              		@ frame_needed = 1, uses_anonymous_args = 0
 101 0000 80B5     		push	{r7, lr}
 102              	.LCFI5:
 103              		.cfi_def_cfa_offset 8
 104              		.cfi_offset 7, -8
 105              		.cfi_offset 14, -4
 106 0002 84B0     		sub	sp, sp, #16
 107              	.LCFI6:
 108              		.cfi_def_cfa_offset 24
 109 0004 00AF     		add	r7, sp, #0
 110              	.LCFI7:
 111              		.cfi_def_cfa_register 7
ARM GAS  /tmp/ccU23Djm.s 			page 4


 112 0006 7860     		str	r0, [r7, #4]
  64:Cpp/gpio.hpp  ****     {
  65:Cpp/gpio.hpp  ****       auto res = HAL_GPIO_ReadPin(port, pin) == GPIO_PIN_SET;
 113              		.loc 1 65 35
 114 0008 7B68     		ldr	r3, [r7, #4]
 115 000a 1A68     		ldr	r2, [r3]
 116              		.loc 1 65 41
 117 000c 7B68     		ldr	r3, [r7, #4]
 118 000e 5B68     		ldr	r3, [r3, #4]
 119              		.loc 1 65 34
 120 0010 9BB2     		uxth	r3, r3
 121 0012 1946     		mov	r1, r3
 122 0014 1046     		mov	r0, r2
 123 0016 FFF7FEFF 		bl	HAL_GPIO_ReadPin
 124 001a 0346     		mov	r3, r0
 125              		.loc 1 65 49
 126 001c 012B     		cmp	r3, #1
 127 001e 0CBF     		ite	eq
 128 0020 0123     		moveq	r3, #1
 129 0022 0023     		movne	r3, #0
 130 0024 FB73     		strb	r3, [r7, #15]
  66:Cpp/gpio.hpp  ****       return invert ? !res : res;
 131              		.loc 1 66 14
 132 0026 7B68     		ldr	r3, [r7, #4]
 133 0028 1B7A     		ldrb	r3, [r3, #8]	@ zero_extendqisi2
 134              		.loc 1 66 21
 135 002a 002B     		cmp	r3, #0
 136 002c 04D0     		beq	.L3
 137              		.loc 1 66 21 is_stmt 0 discriminator 1
 138 002e FB7B     		ldrb	r3, [r7, #15]
 139 0030 83F00103 		eor	r3, r3, #1
 140 0034 DBB2     		uxtb	r3, r3
 141 0036 05E0     		b	.L4
 142              	.L3:
 143              		.loc 1 66 30 is_stmt 1 discriminator 2
 144 0038 FB7B     		ldrb	r3, [r7, #15]	@ zero_extendqisi2
 145              		.loc 1 66 21 discriminator 2
 146 003a 002B     		cmp	r3, #0
 147 003c 14BF     		ite	ne
 148 003e 0123     		movne	r3, #1
 149 0040 0023     		moveq	r3, #0
 150 0042 DBB2     		uxtb	r3, r3
 151              	.L4:
  67:Cpp/gpio.hpp  ****     }
 152              		.loc 1 67 5 discriminator 4
 153 0044 1846     		mov	r0, r3
 154 0046 1037     		adds	r7, r7, #16
 155              	.LCFI8:
 156              		.cfi_def_cfa_offset 8
 157 0048 BD46     		mov	sp, r7
 158              	.LCFI9:
 159              		.cfi_def_cfa_register 13
 160              		@ sp needed
 161 004a 80BD     		pop	{r7, pc}
 162              		.cfi_endproc
 163              	.LFE220:
 165              		.section	.text._ZNK4otto3mcu7GpioPin5writeEb,"axG",%progbits,_ZNK4otto3mcu7GpioPin5writeEb,comdat
ARM GAS  /tmp/ccU23Djm.s 			page 5


 166              		.align	1
 167              		.weak	_ZNK4otto3mcu7GpioPin5writeEb
 168              		.syntax unified
 169              		.thumb
 170              		.thumb_func
 171              		.fpu fpv4-sp-d16
 173              	_ZNK4otto3mcu7GpioPin5writeEb:
 174              	.LFB221:
  68:Cpp/gpio.hpp  **** 
  69:Cpp/gpio.hpp  ****     void write(bool state) const
 175              		.loc 1 69 10
 176              		.cfi_startproc
 177              		@ args = 0, pretend = 0, frame = 8
 178              		@ frame_needed = 1, uses_anonymous_args = 0
 179 0000 80B5     		push	{r7, lr}
 180              	.LCFI10:
 181              		.cfi_def_cfa_offset 8
 182              		.cfi_offset 7, -8
 183              		.cfi_offset 14, -4
 184 0002 82B0     		sub	sp, sp, #8
 185              	.LCFI11:
 186              		.cfi_def_cfa_offset 16
 187 0004 00AF     		add	r7, sp, #0
 188              	.LCFI12:
 189              		.cfi_def_cfa_register 7
 190 0006 7860     		str	r0, [r7, #4]
 191 0008 0B46     		mov	r3, r1
 192 000a FB70     		strb	r3, [r7, #3]
  70:Cpp/gpio.hpp  ****     {
  71:Cpp/gpio.hpp  ****       if (invert) state = !state;
 193              		.loc 1 71 11
 194 000c 7B68     		ldr	r3, [r7, #4]
 195 000e 1B7A     		ldrb	r3, [r3, #8]	@ zero_extendqisi2
 196              		.loc 1 71 7
 197 0010 002B     		cmp	r3, #0
 198 0012 03D0     		beq	.L7
 199              		.loc 1 71 25 discriminator 1
 200 0014 FB78     		ldrb	r3, [r7, #3]
 201 0016 83F00103 		eor	r3, r3, #1
 202 001a FB70     		strb	r3, [r7, #3]
 203              	.L7:
  72:Cpp/gpio.hpp  ****       HAL_GPIO_WritePin(port, pin, state ? GPIO_PIN_SET : GPIO_PIN_RESET);
 204              		.loc 1 72 25
 205 001c 7B68     		ldr	r3, [r7, #4]
 206 001e 1868     		ldr	r0, [r3]
 207              		.loc 1 72 31
 208 0020 7B68     		ldr	r3, [r7, #4]
 209 0022 5B68     		ldr	r3, [r3, #4]
 210              		.loc 1 72 24
 211 0024 99B2     		uxth	r1, r3
 212 0026 FB78     		ldrb	r3, [r7, #3]	@ zero_extendqisi2
 213 0028 002B     		cmp	r3, #0
 214 002a 01D0     		beq	.L8
 215              		.loc 1 72 24 is_stmt 0 discriminator 1
 216 002c 0123     		movs	r3, #1
 217 002e 00E0     		b	.L9
 218              	.L8:
ARM GAS  /tmp/ccU23Djm.s 			page 6


 219              		.loc 1 72 24 discriminator 2
 220 0030 0023     		movs	r3, #0
 221              	.L9:
 222              		.loc 1 72 24 discriminator 4
 223 0032 1A46     		mov	r2, r3
 224 0034 FFF7FEFF 		bl	HAL_GPIO_WritePin
  73:Cpp/gpio.hpp  ****     }
 225              		.loc 1 73 5 is_stmt 1 discriminator 4
 226 0038 00BF     		nop
 227 003a 0837     		adds	r7, r7, #8
 228              	.LCFI13:
 229              		.cfi_def_cfa_offset 8
 230 003c BD46     		mov	sp, r7
 231              	.LCFI14:
 232              		.cfi_def_cfa_register 13
 233              		@ sp needed
 234 003e 80BD     		pop	{r7, pc}
 235              		.cfi_endproc
 236              	.LFE221:
 238              		.section	.rodata._ZN4otto3mcuL10status_ledE,"a"
 239              		.align	2
 242              	_ZN4otto3mcuL10status_ledE:
 243 0000 00080240 		.word	1073874944
 244 0004 40000000 		.word	64
 245 0008 01       		.byte	1
 246 0009 000000   		.space	3
 247              		.section	.text._ZN4otto3mcu7EncoderC2ENS0_7GpioPinES2_,"axG",%progbits,_ZN4otto3mcu7EncoderC5ENS0_
 248              		.align	1
 249              		.weak	_ZN4otto3mcu7EncoderC2ENS0_7GpioPinES2_
 250              		.syntax unified
 251              		.thumb
 252              		.thumb_func
 253              		.fpu fpv4-sp-d16
 255              	_ZN4otto3mcu7EncoderC2ENS0_7GpioPinES2_:
 256              	.LFB224:
 257              		.file 2 "Cpp/encoder.hpp"
   1:Cpp/encoder.hpp **** #pragma once
   2:Cpp/encoder.hpp **** 
   3:Cpp/encoder.hpp **** #include "gpio.hpp"
   4:Cpp/encoder.hpp **** 
   5:Cpp/encoder.hpp **** namespace otto::mcu {
   6:Cpp/encoder.hpp **** 
   7:Cpp/encoder.hpp ****   struct Encoder {
   8:Cpp/encoder.hpp ****     GpioPin pin_a;
   9:Cpp/encoder.hpp ****     GpioPin pin_b;
  10:Cpp/encoder.hpp **** 
  11:Cpp/encoder.hpp ****     Encoder(GpioPin a, GpioPin b) : pin_a(a), pin_b(b) {}
 258              		.loc 2 11 5
 259              		.cfi_startproc
 260              		@ args = 12, pretend = 0, frame = 16
 261              		@ frame_needed = 1, uses_anonymous_args = 0
 262              		@ link register save eliminated.
 263 0000 90B4     		push	{r4, r7}
 264              	.LCFI15:
 265              		.cfi_def_cfa_offset 8
 266              		.cfi_offset 4, -8
 267              		.cfi_offset 7, -4
ARM GAS  /tmp/ccU23Djm.s 			page 7


 268 0002 84B0     		sub	sp, sp, #16
 269              	.LCFI16:
 270              		.cfi_def_cfa_offset 24
 271 0004 00AF     		add	r7, sp, #0
 272              	.LCFI17:
 273              		.cfi_def_cfa_register 7
 274 0006 F860     		str	r0, [r7, #12]
 275 0008 3846     		mov	r0, r7
 276 000a 80E80E00 		stm	r0, {r1, r2, r3}
 277              	.LBB2:
 278              		.loc 2 11 54
 279 000e FB68     		ldr	r3, [r7, #12]
 280 0010 1C46     		mov	r4, r3
 281 0012 3B46     		mov	r3, r7
 282 0014 93E80700 		ldm	r3, {r0, r1, r2}
 283 0018 84E80700 		stm	r4, {r0, r1, r2}
 284 001c FB68     		ldr	r3, [r7, #12]
 285 001e 0C33     		adds	r3, r3, #12
 286 0020 07F11802 		add	r2, r7, #24
 287 0024 07CA     		ldm	r2, {r0, r1, r2}
 288 0026 83E80700 		stm	r3, {r0, r1, r2}
 289 002a FB68     		ldr	r3, [r7, #12]
 290 002c 0022     		movs	r2, #0
 291 002e 1A76     		strb	r2, [r3, #24]
 292 0030 FB68     		ldr	r3, [r7, #12]
 293 0032 0022     		movs	r2, #0
 294 0034 DA61     		str	r2, [r3, #28]
 295 0036 FB68     		ldr	r3, [r7, #12]
 296 0038 0022     		movs	r2, #0
 297 003a 83F82020 		strb	r2, [r3, #32]
 298              	.LBE2:
 299              		.loc 2 11 57
 300 003e FB68     		ldr	r3, [r7, #12]
 301 0040 1846     		mov	r0, r3
 302 0042 1037     		adds	r7, r7, #16
 303              	.LCFI18:
 304              		.cfi_def_cfa_offset 8
 305 0044 BD46     		mov	sp, r7
 306              	.LCFI19:
 307              		.cfi_def_cfa_register 13
 308              		@ sp needed
 309 0046 90BC     		pop	{r4, r7}
 310              	.LCFI20:
 311              		.cfi_restore 7
 312              		.cfi_restore 4
 313              		.cfi_def_cfa_offset 0
 314 0048 7047     		bx	lr
 315              		.cfi_endproc
 316              	.LFE224:
 318              		.weak	_ZN4otto3mcu7EncoderC1ENS0_7GpioPinES2_
 319              		.thumb_set _ZN4otto3mcu7EncoderC1ENS0_7GpioPinES2_,_ZN4otto3mcu7EncoderC2ENS0_7GpioPinES2_
 320              		.section	.text._ZN4otto3mcu7Encoder4initEv,"axG",%progbits,_ZN4otto3mcu7Encoder4initEv,comdat
 321              		.align	1
 322              		.weak	_ZN4otto3mcu7Encoder4initEv
 323              		.syntax unified
 324              		.thumb
 325              		.thumb_func
ARM GAS  /tmp/ccU23Djm.s 			page 8


 326              		.fpu fpv4-sp-d16
 328              	_ZN4otto3mcu7Encoder4initEv:
 329              	.LFB226:
  12:Cpp/encoder.hpp **** 
  13:Cpp/encoder.hpp ****     void init()
 330              		.loc 2 13 10
 331              		.cfi_startproc
 332              		@ args = 0, pretend = 0, frame = 8
 333              		@ frame_needed = 1, uses_anonymous_args = 0
 334 0000 80B5     		push	{r7, lr}
 335              	.LCFI21:
 336              		.cfi_def_cfa_offset 8
 337              		.cfi_offset 7, -8
 338              		.cfi_offset 14, -4
 339 0002 82B0     		sub	sp, sp, #8
 340              	.LCFI22:
 341              		.cfi_def_cfa_offset 16
 342 0004 00AF     		add	r7, sp, #0
 343              	.LCFI23:
 344              		.cfi_def_cfa_register 7
 345 0006 7860     		str	r0, [r7, #4]
  14:Cpp/encoder.hpp ****     {
  15:Cpp/encoder.hpp ****       pin_a.init(GpioPin::Mode::it_rising_falling, GpioPin::Pull::up);
 346              		.loc 2 15 17
 347 0008 7868     		ldr	r0, [r7, #4]
 348 000a 0023     		movs	r3, #0
 349 000c 0122     		movs	r2, #1
 350 000e 0749     		ldr	r1, .L13
 351 0010 FFF7FEFF 		bl	_ZN4otto3mcu7GpioPin4initENS1_4ModeENS1_4PullENS1_5SpeedE
  16:Cpp/encoder.hpp ****       pin_b.init(GpioPin::Mode::input, GpioPin::Pull::up);
 352              		.loc 2 16 17
 353 0014 7B68     		ldr	r3, [r7, #4]
 354 0016 03F10C00 		add	r0, r3, #12
 355 001a 0023     		movs	r3, #0
 356 001c 0122     		movs	r2, #1
 357 001e 0021     		movs	r1, #0
 358 0020 FFF7FEFF 		bl	_ZN4otto3mcu7GpioPin4initENS1_4ModeENS1_4PullENS1_5SpeedE
  17:Cpp/encoder.hpp ****     }
 359              		.loc 2 17 5
 360 0024 00BF     		nop
 361 0026 0837     		adds	r7, r7, #8
 362              	.LCFI24:
 363              		.cfi_def_cfa_offset 8
 364 0028 BD46     		mov	sp, r7
 365              	.LCFI25:
 366              		.cfi_def_cfa_register 13
 367              		@ sp needed
 368 002a 80BD     		pop	{r7, pc}
 369              	.L14:
 370              		.align	2
 371              	.L13:
 372 002c 00003110 		.word	271646720
 373              		.cfi_endproc
 374              	.LFE226:
 376              		.section	.text._ZN4otto3mcu7Encoder11irq_checkedEt,"axG",%progbits,_ZN4otto3mcu7Encoder11irq_check
 377              		.align	1
 378              		.weak	_ZN4otto3mcu7Encoder11irq_checkedEt
ARM GAS  /tmp/ccU23Djm.s 			page 9


 379              		.syntax unified
 380              		.thumb
 381              		.thumb_func
 382              		.fpu fpv4-sp-d16
 384              	_ZN4otto3mcu7Encoder11irq_checkedEt:
 385              	.LFB227:
  18:Cpp/encoder.hpp **** 
  19:Cpp/encoder.hpp ****     void irq_checked(std::uint16_t pin)
 386              		.loc 2 19 10
 387              		.cfi_startproc
 388              		@ args = 0, pretend = 0, frame = 8
 389              		@ frame_needed = 1, uses_anonymous_args = 0
 390 0000 80B5     		push	{r7, lr}
 391              	.LCFI26:
 392              		.cfi_def_cfa_offset 8
 393              		.cfi_offset 7, -8
 394              		.cfi_offset 14, -4
 395 0002 82B0     		sub	sp, sp, #8
 396              	.LCFI27:
 397              		.cfi_def_cfa_offset 16
 398 0004 00AF     		add	r7, sp, #0
 399              	.LCFI28:
 400              		.cfi_def_cfa_register 7
 401 0006 7860     		str	r0, [r7, #4]
 402 0008 0B46     		mov	r3, r1
 403 000a 7B80     		strh	r3, [r7, #2]	@ movhi
  20:Cpp/encoder.hpp ****     {
  21:Cpp/encoder.hpp ****       if (pin != pin_a.pin) return;
 404              		.loc 2 21 11
 405 000c 7A88     		ldrh	r2, [r7, #2]
 406              		.loc 2 21 24
 407 000e 7B68     		ldr	r3, [r7, #4]
 408 0010 5B68     		ldr	r3, [r3, #4]
 409              		.loc 2 21 7
 410 0012 9A42     		cmp	r2, r3
 411 0014 03D1     		bne	.L18
  22:Cpp/encoder.hpp ****       irq();
 412              		.loc 2 22 10
 413 0016 7868     		ldr	r0, [r7, #4]
 414 0018 FFF7FEFF 		bl	_ZN4otto3mcu7Encoder3irqEv
 415 001c 00E0     		b	.L15
 416              	.L18:
  21:Cpp/encoder.hpp ****       irq();
 417              		.loc 2 21 29
 418 001e 00BF     		nop
 419              	.L15:
  23:Cpp/encoder.hpp ****     }
 420              		.loc 2 23 5
 421 0020 0837     		adds	r7, r7, #8
 422              	.LCFI29:
 423              		.cfi_def_cfa_offset 8
 424 0022 BD46     		mov	sp, r7
 425              	.LCFI30:
 426              		.cfi_def_cfa_register 13
 427              		@ sp needed
 428 0024 80BD     		pop	{r7, pc}
 429              		.cfi_endproc
ARM GAS  /tmp/ccU23Djm.s 			page 10


 430              	.LFE227:
 432              		.section	.text._ZN4otto3mcu7Encoder3irqEv,"axG",%progbits,_ZN4otto3mcu7Encoder3irqEv,comdat
 433              		.align	1
 434              		.weak	_ZN4otto3mcu7Encoder3irqEv
 435              		.syntax unified
 436              		.thumb
 437              		.thumb_func
 438              		.fpu fpv4-sp-d16
 440              	_ZN4otto3mcu7Encoder3irqEv:
 441              	.LFB228:
  24:Cpp/encoder.hpp **** 
  25:Cpp/encoder.hpp ****     void irq()
 442              		.loc 2 25 10
 443              		.cfi_startproc
 444              		@ args = 0, pretend = 0, frame = 16
 445              		@ frame_needed = 1, uses_anonymous_args = 0
 446 0000 80B5     		push	{r7, lr}
 447              	.LCFI31:
 448              		.cfi_def_cfa_offset 8
 449              		.cfi_offset 7, -8
 450              		.cfi_offset 14, -4
 451 0002 84B0     		sub	sp, sp, #16
 452              	.LCFI32:
 453              		.cfi_def_cfa_offset 24
 454 0004 00AF     		add	r7, sp, #0
 455              	.LCFI33:
 456              		.cfi_def_cfa_register 7
 457 0006 7860     		str	r0, [r7, #4]
  26:Cpp/encoder.hpp ****     {
  27:Cpp/encoder.hpp ****       bool a_now = pin_a.read();
 458              		.loc 2 27 30
 459 0008 7B68     		ldr	r3, [r7, #4]
 460 000a 1846     		mov	r0, r3
 461 000c FFF7FEFF 		bl	_ZNK4otto3mcu7GpioPin4readEv
 462 0010 0346     		mov	r3, r0
 463 0012 FB73     		strb	r3, [r7, #15]
  28:Cpp/encoder.hpp ****       bool b_now = pin_b.read();
 464              		.loc 2 28 30
 465 0014 7B68     		ldr	r3, [r7, #4]
 466 0016 0C33     		adds	r3, r3, #12
 467 0018 1846     		mov	r0, r3
 468 001a FFF7FEFF 		bl	_ZNK4otto3mcu7GpioPin4readEv
 469 001e 0346     		mov	r3, r0
 470 0020 BB73     		strb	r3, [r7, #14]
  29:Cpp/encoder.hpp ****       if (a_now != a_prev) {
 471              		.loc 2 29 20
 472 0022 7B68     		ldr	r3, [r7, #4]
 473 0024 93F82030 		ldrb	r3, [r3, #32]	@ zero_extendqisi2
 474              		.loc 2 29 7
 475 0028 FA7B     		ldrb	r2, [r7, #15]	@ zero_extendqisi2
 476 002a 9A42     		cmp	r2, r3
 477 002c 15D0     		beq	.L20
  30:Cpp/encoder.hpp ****         a_prev = a_now;
 478              		.loc 2 30 16
 479 002e 7B68     		ldr	r3, [r7, #4]
 480 0030 FA7B     		ldrb	r2, [r7, #15]
 481 0032 83F82020 		strb	r2, [r3, #32]
ARM GAS  /tmp/ccU23Djm.s 			page 11


  31:Cpp/encoder.hpp ****         if (a_now == false) {
 482              		.loc 2 31 19
 483 0036 FB7B     		ldrb	r3, [r7, #15]	@ zero_extendqisi2
 484              		.loc 2 31 9
 485 0038 002B     		cmp	r3, #0
 486 003a 0ED1     		bne	.L20
  32:Cpp/encoder.hpp ****           value += b_now ? 1 : -1;
 487              		.loc 2 32 17
 488 003c 7B68     		ldr	r3, [r7, #4]
 489 003e 93F91830 		ldrsb	r3, [r3, #24]
 490 0042 DBB2     		uxtb	r3, r3
 491 0044 BA7B     		ldrb	r2, [r7, #14]	@ zero_extendqisi2
 492 0046 002A     		cmp	r2, #0
 493 0048 01D0     		beq	.L21
 494              		.loc 2 32 17 is_stmt 0 discriminator 1
 495 004a 0122     		movs	r2, #1
 496 004c 00E0     		b	.L22
 497              	.L21:
 498              		.loc 2 32 17 discriminator 2
 499 004e FF22     		movs	r2, #255
 500              	.L22:
 501              		.loc 2 32 17 discriminator 4
 502 0050 1344     		add	r3, r3, r2
 503 0052 DBB2     		uxtb	r3, r3
 504 0054 5AB2     		sxtb	r2, r3
 505 0056 7B68     		ldr	r3, [r7, #4]
 506 0058 1A76     		strb	r2, [r3, #24]
 507              	.L20:
  33:Cpp/encoder.hpp ****         }
  34:Cpp/encoder.hpp ****       }
  35:Cpp/encoder.hpp ****       if (handler) handler();
 508              		.loc 2 35 11 is_stmt 1
 509 005a 7B68     		ldr	r3, [r7, #4]
 510 005c DB69     		ldr	r3, [r3, #28]
 511              		.loc 2 35 7
 512 005e 002B     		cmp	r3, #0
 513 0060 02D0     		beq	.L24
 514              		.loc 2 35 20 discriminator 1
 515 0062 7B68     		ldr	r3, [r7, #4]
 516 0064 DB69     		ldr	r3, [r3, #28]
 517              		.loc 2 35 27 discriminator 1
 518 0066 9847     		blx	r3
 519              	.LVL0:
 520              	.L24:
  36:Cpp/encoder.hpp ****     }
 521              		.loc 2 36 5
 522 0068 00BF     		nop
 523 006a 1037     		adds	r7, r7, #16
 524              	.LCFI34:
 525              		.cfi_def_cfa_offset 8
 526 006c BD46     		mov	sp, r7
 527              	.LCFI35:
 528              		.cfi_def_cfa_register 13
 529              		@ sp needed
 530 006e 80BD     		pop	{r7, pc}
 531              		.cfi_endproc
 532              	.LFE228:
ARM GAS  /tmp/ccU23Djm.s 			page 12


 534              		.section	.text._ZnwjPv,"axG",%progbits,_ZnwjPv,comdat
 535              		.align	1
 536              		.weak	_ZnwjPv
 537              		.syntax unified
 538              		.thumb
 539              		.thumb_func
 540              		.fpu fpv4-sp-d16
 542              	_ZnwjPv:
 543              	.LFB253:
 544              		.file 3 "/usr/arm-none-eabi/include/c++/9.3.0/new"
   1:/usr/arm-none-eabi/include/c++/9.3.0/new **** // The -*- C++ -*- dynamic memory management header.
   2:/usr/arm-none-eabi/include/c++/9.3.0/new **** 
   3:/usr/arm-none-eabi/include/c++/9.3.0/new **** // Copyright (C) 1994-2019 Free Software Foundation, Inc.
   4:/usr/arm-none-eabi/include/c++/9.3.0/new **** 
   5:/usr/arm-none-eabi/include/c++/9.3.0/new **** // This file is part of GCC.
   6:/usr/arm-none-eabi/include/c++/9.3.0/new **** //
   7:/usr/arm-none-eabi/include/c++/9.3.0/new **** // GCC is free software; you can redistribute it and/or modify
   8:/usr/arm-none-eabi/include/c++/9.3.0/new **** // it under the terms of the GNU General Public License as published by
   9:/usr/arm-none-eabi/include/c++/9.3.0/new **** // the Free Software Foundation; either version 3, or (at your option)
  10:/usr/arm-none-eabi/include/c++/9.3.0/new **** // any later version.
  11:/usr/arm-none-eabi/include/c++/9.3.0/new **** // 
  12:/usr/arm-none-eabi/include/c++/9.3.0/new **** // GCC is distributed in the hope that it will be useful,
  13:/usr/arm-none-eabi/include/c++/9.3.0/new **** // but WITHOUT ANY WARRANTY; without even the implied warranty of
  14:/usr/arm-none-eabi/include/c++/9.3.0/new **** // MERCHANTABILITY or FITNESS FOR A PARTICULAR PURPOSE.  See the
  15:/usr/arm-none-eabi/include/c++/9.3.0/new **** // GNU General Public License for more details.
  16:/usr/arm-none-eabi/include/c++/9.3.0/new **** // 
  17:/usr/arm-none-eabi/include/c++/9.3.0/new **** // Under Section 7 of GPL version 3, you are granted additional
  18:/usr/arm-none-eabi/include/c++/9.3.0/new **** // permissions described in the GCC Runtime Library Exception, version
  19:/usr/arm-none-eabi/include/c++/9.3.0/new **** // 3.1, as published by the Free Software Foundation.
  20:/usr/arm-none-eabi/include/c++/9.3.0/new **** 
  21:/usr/arm-none-eabi/include/c++/9.3.0/new **** // You should have received a copy of the GNU General Public License and
  22:/usr/arm-none-eabi/include/c++/9.3.0/new **** // a copy of the GCC Runtime Library Exception along with this program;
  23:/usr/arm-none-eabi/include/c++/9.3.0/new **** // see the files COPYING3 and COPYING.RUNTIME respectively.  If not, see
  24:/usr/arm-none-eabi/include/c++/9.3.0/new **** // <http://www.gnu.org/licenses/>.
  25:/usr/arm-none-eabi/include/c++/9.3.0/new **** 
  26:/usr/arm-none-eabi/include/c++/9.3.0/new **** /** @file new
  27:/usr/arm-none-eabi/include/c++/9.3.0/new ****  *  This is a Standard C++ Library header.
  28:/usr/arm-none-eabi/include/c++/9.3.0/new ****  *
  29:/usr/arm-none-eabi/include/c++/9.3.0/new ****  *  The header @c new defines several functions to manage dynamic memory and
  30:/usr/arm-none-eabi/include/c++/9.3.0/new ****  *  handling memory allocation errors; see
  31:/usr/arm-none-eabi/include/c++/9.3.0/new ****  *  http://gcc.gnu.org/onlinedocs/libstdc++/18_support/howto.html#4 for more.
  32:/usr/arm-none-eabi/include/c++/9.3.0/new ****  */
  33:/usr/arm-none-eabi/include/c++/9.3.0/new **** 
  34:/usr/arm-none-eabi/include/c++/9.3.0/new **** #ifndef _NEW
  35:/usr/arm-none-eabi/include/c++/9.3.0/new **** #define _NEW
  36:/usr/arm-none-eabi/include/c++/9.3.0/new **** 
  37:/usr/arm-none-eabi/include/c++/9.3.0/new **** #pragma GCC system_header
  38:/usr/arm-none-eabi/include/c++/9.3.0/new **** 
  39:/usr/arm-none-eabi/include/c++/9.3.0/new **** #include <bits/c++config.h>
  40:/usr/arm-none-eabi/include/c++/9.3.0/new **** #include <exception>
  41:/usr/arm-none-eabi/include/c++/9.3.0/new **** 
  42:/usr/arm-none-eabi/include/c++/9.3.0/new **** #pragma GCC visibility push(default)
  43:/usr/arm-none-eabi/include/c++/9.3.0/new **** 
  44:/usr/arm-none-eabi/include/c++/9.3.0/new **** extern "C++" {
  45:/usr/arm-none-eabi/include/c++/9.3.0/new **** 
  46:/usr/arm-none-eabi/include/c++/9.3.0/new **** namespace std 
  47:/usr/arm-none-eabi/include/c++/9.3.0/new **** {
ARM GAS  /tmp/ccU23Djm.s 			page 13


  48:/usr/arm-none-eabi/include/c++/9.3.0/new ****   /**
  49:/usr/arm-none-eabi/include/c++/9.3.0/new ****    *  @brief  Exception possibly thrown by @c new.
  50:/usr/arm-none-eabi/include/c++/9.3.0/new ****    *  @ingroup exceptions
  51:/usr/arm-none-eabi/include/c++/9.3.0/new ****    *
  52:/usr/arm-none-eabi/include/c++/9.3.0/new ****    *  @c bad_alloc (or classes derived from it) is used to report allocation
  53:/usr/arm-none-eabi/include/c++/9.3.0/new ****    *  errors from the throwing forms of @c new.  */
  54:/usr/arm-none-eabi/include/c++/9.3.0/new ****   class bad_alloc : public exception 
  55:/usr/arm-none-eabi/include/c++/9.3.0/new ****   {
  56:/usr/arm-none-eabi/include/c++/9.3.0/new ****   public:
  57:/usr/arm-none-eabi/include/c++/9.3.0/new ****     bad_alloc() throw() { }
  58:/usr/arm-none-eabi/include/c++/9.3.0/new **** 
  59:/usr/arm-none-eabi/include/c++/9.3.0/new **** #if __cplusplus >= 201103L
  60:/usr/arm-none-eabi/include/c++/9.3.0/new ****     bad_alloc(const bad_alloc&) = default;
  61:/usr/arm-none-eabi/include/c++/9.3.0/new ****     bad_alloc& operator=(const bad_alloc&) = default;
  62:/usr/arm-none-eabi/include/c++/9.3.0/new **** #endif
  63:/usr/arm-none-eabi/include/c++/9.3.0/new **** 
  64:/usr/arm-none-eabi/include/c++/9.3.0/new ****     // This declaration is not useless:
  65:/usr/arm-none-eabi/include/c++/9.3.0/new ****     // http://gcc.gnu.org/onlinedocs/gcc-3.0.2/gcc_6.html#SEC118
  66:/usr/arm-none-eabi/include/c++/9.3.0/new ****     virtual ~bad_alloc() throw();
  67:/usr/arm-none-eabi/include/c++/9.3.0/new **** 
  68:/usr/arm-none-eabi/include/c++/9.3.0/new ****     // See comment in eh_exception.cc.
  69:/usr/arm-none-eabi/include/c++/9.3.0/new ****     virtual const char* what() const throw();
  70:/usr/arm-none-eabi/include/c++/9.3.0/new ****   };
  71:/usr/arm-none-eabi/include/c++/9.3.0/new **** 
  72:/usr/arm-none-eabi/include/c++/9.3.0/new **** #if __cplusplus >= 201103L
  73:/usr/arm-none-eabi/include/c++/9.3.0/new ****   class bad_array_new_length : public bad_alloc
  74:/usr/arm-none-eabi/include/c++/9.3.0/new ****   {
  75:/usr/arm-none-eabi/include/c++/9.3.0/new ****   public:
  76:/usr/arm-none-eabi/include/c++/9.3.0/new ****     bad_array_new_length() throw() { }
  77:/usr/arm-none-eabi/include/c++/9.3.0/new **** 
  78:/usr/arm-none-eabi/include/c++/9.3.0/new ****     // This declaration is not useless:
  79:/usr/arm-none-eabi/include/c++/9.3.0/new ****     // http://gcc.gnu.org/onlinedocs/gcc-3.0.2/gcc_6.html#SEC118
  80:/usr/arm-none-eabi/include/c++/9.3.0/new ****     virtual ~bad_array_new_length() throw();
  81:/usr/arm-none-eabi/include/c++/9.3.0/new **** 
  82:/usr/arm-none-eabi/include/c++/9.3.0/new ****     // See comment in eh_exception.cc.
  83:/usr/arm-none-eabi/include/c++/9.3.0/new ****     virtual const char* what() const throw();
  84:/usr/arm-none-eabi/include/c++/9.3.0/new ****   };
  85:/usr/arm-none-eabi/include/c++/9.3.0/new **** #endif
  86:/usr/arm-none-eabi/include/c++/9.3.0/new **** 
  87:/usr/arm-none-eabi/include/c++/9.3.0/new **** #if __cpp_aligned_new
  88:/usr/arm-none-eabi/include/c++/9.3.0/new ****   enum class align_val_t: size_t {};
  89:/usr/arm-none-eabi/include/c++/9.3.0/new **** #endif
  90:/usr/arm-none-eabi/include/c++/9.3.0/new **** 
  91:/usr/arm-none-eabi/include/c++/9.3.0/new ****   struct nothrow_t
  92:/usr/arm-none-eabi/include/c++/9.3.0/new ****   {
  93:/usr/arm-none-eabi/include/c++/9.3.0/new **** #if __cplusplus >= 201103L
  94:/usr/arm-none-eabi/include/c++/9.3.0/new ****     explicit nothrow_t() = default;
  95:/usr/arm-none-eabi/include/c++/9.3.0/new **** #endif
  96:/usr/arm-none-eabi/include/c++/9.3.0/new ****   };
  97:/usr/arm-none-eabi/include/c++/9.3.0/new **** 
  98:/usr/arm-none-eabi/include/c++/9.3.0/new ****   extern const nothrow_t nothrow;
  99:/usr/arm-none-eabi/include/c++/9.3.0/new **** 
 100:/usr/arm-none-eabi/include/c++/9.3.0/new ****   /** If you write your own error handler to be called by @c new, it must
 101:/usr/arm-none-eabi/include/c++/9.3.0/new ****    *  be of this type.  */
 102:/usr/arm-none-eabi/include/c++/9.3.0/new ****   typedef void (*new_handler)();
 103:/usr/arm-none-eabi/include/c++/9.3.0/new **** 
 104:/usr/arm-none-eabi/include/c++/9.3.0/new ****   /// Takes a replacement handler as the argument, returns the
ARM GAS  /tmp/ccU23Djm.s 			page 14


 105:/usr/arm-none-eabi/include/c++/9.3.0/new ****   /// previous handler.
 106:/usr/arm-none-eabi/include/c++/9.3.0/new ****   new_handler set_new_handler(new_handler) throw();
 107:/usr/arm-none-eabi/include/c++/9.3.0/new **** 
 108:/usr/arm-none-eabi/include/c++/9.3.0/new **** #if __cplusplus >= 201103L
 109:/usr/arm-none-eabi/include/c++/9.3.0/new ****   /// Return the current new handler.
 110:/usr/arm-none-eabi/include/c++/9.3.0/new ****   new_handler get_new_handler() noexcept;
 111:/usr/arm-none-eabi/include/c++/9.3.0/new **** #endif
 112:/usr/arm-none-eabi/include/c++/9.3.0/new **** } // namespace std
 113:/usr/arm-none-eabi/include/c++/9.3.0/new **** 
 114:/usr/arm-none-eabi/include/c++/9.3.0/new **** //@{
 115:/usr/arm-none-eabi/include/c++/9.3.0/new **** /** These are replaceable signatures:
 116:/usr/arm-none-eabi/include/c++/9.3.0/new ****  *  - normal single new and delete (no arguments, throw @c bad_alloc on error)
 117:/usr/arm-none-eabi/include/c++/9.3.0/new ****  *  - normal array new and delete (same)
 118:/usr/arm-none-eabi/include/c++/9.3.0/new ****  *  - @c nothrow single new and delete (take a @c nothrow argument, return
 119:/usr/arm-none-eabi/include/c++/9.3.0/new ****  *    @c NULL on error)
 120:/usr/arm-none-eabi/include/c++/9.3.0/new ****  *  - @c nothrow array new and delete (same)
 121:/usr/arm-none-eabi/include/c++/9.3.0/new ****  *
 122:/usr/arm-none-eabi/include/c++/9.3.0/new ****  *  Placement new and delete signatures (take a memory address argument,
 123:/usr/arm-none-eabi/include/c++/9.3.0/new ****  *  does nothing) may not be replaced by a user's program.
 124:/usr/arm-none-eabi/include/c++/9.3.0/new **** */
 125:/usr/arm-none-eabi/include/c++/9.3.0/new **** _GLIBCXX_NODISCARD void* operator new(std::size_t) _GLIBCXX_THROW (std::bad_alloc)
 126:/usr/arm-none-eabi/include/c++/9.3.0/new ****   __attribute__((__externally_visible__));
 127:/usr/arm-none-eabi/include/c++/9.3.0/new **** _GLIBCXX_NODISCARD void* operator new[](std::size_t) _GLIBCXX_THROW (std::bad_alloc)
 128:/usr/arm-none-eabi/include/c++/9.3.0/new ****   __attribute__((__externally_visible__));
 129:/usr/arm-none-eabi/include/c++/9.3.0/new **** void operator delete(void*) _GLIBCXX_USE_NOEXCEPT
 130:/usr/arm-none-eabi/include/c++/9.3.0/new ****   __attribute__((__externally_visible__));
 131:/usr/arm-none-eabi/include/c++/9.3.0/new **** void operator delete[](void*) _GLIBCXX_USE_NOEXCEPT
 132:/usr/arm-none-eabi/include/c++/9.3.0/new ****   __attribute__((__externally_visible__));
 133:/usr/arm-none-eabi/include/c++/9.3.0/new **** #if __cpp_sized_deallocation
 134:/usr/arm-none-eabi/include/c++/9.3.0/new **** void operator delete(void*, std::size_t) _GLIBCXX_USE_NOEXCEPT
 135:/usr/arm-none-eabi/include/c++/9.3.0/new ****   __attribute__((__externally_visible__));
 136:/usr/arm-none-eabi/include/c++/9.3.0/new **** void operator delete[](void*, std::size_t) _GLIBCXX_USE_NOEXCEPT
 137:/usr/arm-none-eabi/include/c++/9.3.0/new ****   __attribute__((__externally_visible__));
 138:/usr/arm-none-eabi/include/c++/9.3.0/new **** #endif
 139:/usr/arm-none-eabi/include/c++/9.3.0/new **** _GLIBCXX_NODISCARD void* operator new(std::size_t, const std::nothrow_t&) _GLIBCXX_USE_NOEXCEPT
 140:/usr/arm-none-eabi/include/c++/9.3.0/new ****   __attribute__((__externally_visible__, __malloc__));
 141:/usr/arm-none-eabi/include/c++/9.3.0/new **** _GLIBCXX_NODISCARD void* operator new[](std::size_t, const std::nothrow_t&) _GLIBCXX_USE_NOEXCEPT
 142:/usr/arm-none-eabi/include/c++/9.3.0/new ****   __attribute__((__externally_visible__, __malloc__));
 143:/usr/arm-none-eabi/include/c++/9.3.0/new **** void operator delete(void*, const std::nothrow_t&) _GLIBCXX_USE_NOEXCEPT
 144:/usr/arm-none-eabi/include/c++/9.3.0/new ****   __attribute__((__externally_visible__));
 145:/usr/arm-none-eabi/include/c++/9.3.0/new **** void operator delete[](void*, const std::nothrow_t&) _GLIBCXX_USE_NOEXCEPT
 146:/usr/arm-none-eabi/include/c++/9.3.0/new ****   __attribute__((__externally_visible__));
 147:/usr/arm-none-eabi/include/c++/9.3.0/new **** #if __cpp_aligned_new
 148:/usr/arm-none-eabi/include/c++/9.3.0/new **** _GLIBCXX_NODISCARD void* operator new(std::size_t, std::align_val_t)
 149:/usr/arm-none-eabi/include/c++/9.3.0/new ****   __attribute__((__externally_visible__));
 150:/usr/arm-none-eabi/include/c++/9.3.0/new **** _GLIBCXX_NODISCARD void* operator new(std::size_t, std::align_val_t, const std::nothrow_t&)
 151:/usr/arm-none-eabi/include/c++/9.3.0/new ****   _GLIBCXX_USE_NOEXCEPT __attribute__((__externally_visible__, __malloc__));
 152:/usr/arm-none-eabi/include/c++/9.3.0/new **** void operator delete(void*, std::align_val_t)
 153:/usr/arm-none-eabi/include/c++/9.3.0/new ****   _GLIBCXX_USE_NOEXCEPT __attribute__((__externally_visible__));
 154:/usr/arm-none-eabi/include/c++/9.3.0/new **** void operator delete(void*, std::align_val_t, const std::nothrow_t&)
 155:/usr/arm-none-eabi/include/c++/9.3.0/new ****   _GLIBCXX_USE_NOEXCEPT __attribute__((__externally_visible__));
 156:/usr/arm-none-eabi/include/c++/9.3.0/new **** _GLIBCXX_NODISCARD void* operator new[](std::size_t, std::align_val_t)
 157:/usr/arm-none-eabi/include/c++/9.3.0/new ****   __attribute__((__externally_visible__));
 158:/usr/arm-none-eabi/include/c++/9.3.0/new **** _GLIBCXX_NODISCARD void* operator new[](std::size_t, std::align_val_t, const std::nothrow_t&)
 159:/usr/arm-none-eabi/include/c++/9.3.0/new ****   _GLIBCXX_USE_NOEXCEPT __attribute__((__externally_visible__, __malloc__));
 160:/usr/arm-none-eabi/include/c++/9.3.0/new **** void operator delete[](void*, std::align_val_t)
 161:/usr/arm-none-eabi/include/c++/9.3.0/new ****   _GLIBCXX_USE_NOEXCEPT __attribute__((__externally_visible__));
ARM GAS  /tmp/ccU23Djm.s 			page 15


 162:/usr/arm-none-eabi/include/c++/9.3.0/new **** void operator delete[](void*, std::align_val_t, const std::nothrow_t&)
 163:/usr/arm-none-eabi/include/c++/9.3.0/new ****   _GLIBCXX_USE_NOEXCEPT __attribute__((__externally_visible__));
 164:/usr/arm-none-eabi/include/c++/9.3.0/new **** #if __cpp_sized_deallocation
 165:/usr/arm-none-eabi/include/c++/9.3.0/new **** void operator delete(void*, std::size_t, std::align_val_t)
 166:/usr/arm-none-eabi/include/c++/9.3.0/new ****   _GLIBCXX_USE_NOEXCEPT __attribute__((__externally_visible__));
 167:/usr/arm-none-eabi/include/c++/9.3.0/new **** void operator delete[](void*, std::size_t, std::align_val_t)
 168:/usr/arm-none-eabi/include/c++/9.3.0/new ****   _GLIBCXX_USE_NOEXCEPT __attribute__((__externally_visible__));
 169:/usr/arm-none-eabi/include/c++/9.3.0/new **** #endif // __cpp_sized_deallocation
 170:/usr/arm-none-eabi/include/c++/9.3.0/new **** #endif // __cpp_aligned_new
 171:/usr/arm-none-eabi/include/c++/9.3.0/new **** 
 172:/usr/arm-none-eabi/include/c++/9.3.0/new **** // Default placement versions of operator new.
 173:/usr/arm-none-eabi/include/c++/9.3.0/new **** _GLIBCXX_NODISCARD inline void* operator new(std::size_t, void* __p) _GLIBCXX_USE_NOEXCEPT
 174:/usr/arm-none-eabi/include/c++/9.3.0/new **** { return __p; }
 545              		.loc 3 174 1
 546              		.cfi_startproc
 547              		@ args = 0, pretend = 0, frame = 8
 548              		@ frame_needed = 1, uses_anonymous_args = 0
 549              		@ link register save eliminated.
 550 0000 80B4     		push	{r7}
 551              	.LCFI36:
 552              		.cfi_def_cfa_offset 4
 553              		.cfi_offset 7, -4
 554 0002 83B0     		sub	sp, sp, #12
 555              	.LCFI37:
 556              		.cfi_def_cfa_offset 16
 557 0004 00AF     		add	r7, sp, #0
 558              	.LCFI38:
 559              		.cfi_def_cfa_register 7
 560 0006 7860     		str	r0, [r7, #4]
 561 0008 3960     		str	r1, [r7]
 562              		.loc 3 174 10
 563 000a 3B68     		ldr	r3, [r7]
 564              		.loc 3 174 15
 565 000c 1846     		mov	r0, r3
 566 000e 0C37     		adds	r7, r7, #12
 567              	.LCFI39:
 568              		.cfi_def_cfa_offset 4
 569 0010 BD46     		mov	sp, r7
 570              	.LCFI40:
 571              		.cfi_def_cfa_register 13
 572              		@ sp needed
 573 0012 5DF8047B 		ldr	r7, [sp], #4
 574              	.LCFI41:
 575              		.cfi_restore 7
 576              		.cfi_def_cfa_offset 0
 577 0016 7047     		bx	lr
 578              		.cfi_endproc
 579              	.LFE253:
 581              		.section	.text._ZL20__gthread_key_deletei,"ax",%progbits
 582              		.align	1
 583              		.syntax unified
 584              		.thumb
 585              		.thumb_func
 586              		.fpu fpv4-sp-d16
 588              	_ZL20__gthread_key_deletei:
 589              	.LFB1317:
 590              		.file 4 "/usr/arm-none-eabi/include/c++/9.3.0/arm-none-eabi/thumb/v7e-m+fp/hard/bits/gthr-default.
ARM GAS  /tmp/ccU23Djm.s 			page 16


   1:/usr/arm-none-eabi/include/c++/9.3.0/arm-none-eabi/thumb/v7e-m+fp/hard/bits/gthr-default.h **** /* Threads compatibility routines for libgcc2 and libobjc.  */
   2:/usr/arm-none-eabi/include/c++/9.3.0/arm-none-eabi/thumb/v7e-m+fp/hard/bits/gthr-default.h **** /* Compile this one with gcc.  */
   3:/usr/arm-none-eabi/include/c++/9.3.0/arm-none-eabi/thumb/v7e-m+fp/hard/bits/gthr-default.h **** /* Copyright (C) 1997-2019 Free Software Foundation, Inc.
   4:/usr/arm-none-eabi/include/c++/9.3.0/arm-none-eabi/thumb/v7e-m+fp/hard/bits/gthr-default.h **** 
   5:/usr/arm-none-eabi/include/c++/9.3.0/arm-none-eabi/thumb/v7e-m+fp/hard/bits/gthr-default.h **** This file is part of GCC.
   6:/usr/arm-none-eabi/include/c++/9.3.0/arm-none-eabi/thumb/v7e-m+fp/hard/bits/gthr-default.h **** 
   7:/usr/arm-none-eabi/include/c++/9.3.0/arm-none-eabi/thumb/v7e-m+fp/hard/bits/gthr-default.h **** GCC is free software; you can redistribute it and/or modify it under
   8:/usr/arm-none-eabi/include/c++/9.3.0/arm-none-eabi/thumb/v7e-m+fp/hard/bits/gthr-default.h **** the terms of the GNU General Public License as published by the Free
   9:/usr/arm-none-eabi/include/c++/9.3.0/arm-none-eabi/thumb/v7e-m+fp/hard/bits/gthr-default.h **** Software Foundation; either version 3, or (at your option) any later
  10:/usr/arm-none-eabi/include/c++/9.3.0/arm-none-eabi/thumb/v7e-m+fp/hard/bits/gthr-default.h **** version.
  11:/usr/arm-none-eabi/include/c++/9.3.0/arm-none-eabi/thumb/v7e-m+fp/hard/bits/gthr-default.h **** 
  12:/usr/arm-none-eabi/include/c++/9.3.0/arm-none-eabi/thumb/v7e-m+fp/hard/bits/gthr-default.h **** GCC is distributed in the hope that it will be useful, but WITHOUT ANY
  13:/usr/arm-none-eabi/include/c++/9.3.0/arm-none-eabi/thumb/v7e-m+fp/hard/bits/gthr-default.h **** WARRANTY; without even the implied warranty of MERCHANTABILITY or
  14:/usr/arm-none-eabi/include/c++/9.3.0/arm-none-eabi/thumb/v7e-m+fp/hard/bits/gthr-default.h **** FITNESS FOR A PARTICULAR PURPOSE.  See the GNU General Public License
  15:/usr/arm-none-eabi/include/c++/9.3.0/arm-none-eabi/thumb/v7e-m+fp/hard/bits/gthr-default.h **** for more details.
  16:/usr/arm-none-eabi/include/c++/9.3.0/arm-none-eabi/thumb/v7e-m+fp/hard/bits/gthr-default.h **** 
  17:/usr/arm-none-eabi/include/c++/9.3.0/arm-none-eabi/thumb/v7e-m+fp/hard/bits/gthr-default.h **** Under Section 7 of GPL version 3, you are granted additional
  18:/usr/arm-none-eabi/include/c++/9.3.0/arm-none-eabi/thumb/v7e-m+fp/hard/bits/gthr-default.h **** permissions described in the GCC Runtime Library Exception, version
  19:/usr/arm-none-eabi/include/c++/9.3.0/arm-none-eabi/thumb/v7e-m+fp/hard/bits/gthr-default.h **** 3.1, as published by the Free Software Foundation.
  20:/usr/arm-none-eabi/include/c++/9.3.0/arm-none-eabi/thumb/v7e-m+fp/hard/bits/gthr-default.h **** 
  21:/usr/arm-none-eabi/include/c++/9.3.0/arm-none-eabi/thumb/v7e-m+fp/hard/bits/gthr-default.h **** You should have received a copy of the GNU General Public License and
  22:/usr/arm-none-eabi/include/c++/9.3.0/arm-none-eabi/thumb/v7e-m+fp/hard/bits/gthr-default.h **** a copy of the GCC Runtime Library Exception along with this program;
  23:/usr/arm-none-eabi/include/c++/9.3.0/arm-none-eabi/thumb/v7e-m+fp/hard/bits/gthr-default.h **** see the files COPYING3 and COPYING.RUNTIME respectively.  If not, see
  24:/usr/arm-none-eabi/include/c++/9.3.0/arm-none-eabi/thumb/v7e-m+fp/hard/bits/gthr-default.h **** <http://www.gnu.org/licenses/>.  */
  25:/usr/arm-none-eabi/include/c++/9.3.0/arm-none-eabi/thumb/v7e-m+fp/hard/bits/gthr-default.h **** 
  26:/usr/arm-none-eabi/include/c++/9.3.0/arm-none-eabi/thumb/v7e-m+fp/hard/bits/gthr-default.h **** #ifndef _GLIBCXX_GCC_GTHR_SINGLE_H
  27:/usr/arm-none-eabi/include/c++/9.3.0/arm-none-eabi/thumb/v7e-m+fp/hard/bits/gthr-default.h **** #define _GLIBCXX_GCC_GTHR_SINGLE_H
  28:/usr/arm-none-eabi/include/c++/9.3.0/arm-none-eabi/thumb/v7e-m+fp/hard/bits/gthr-default.h **** 
  29:/usr/arm-none-eabi/include/c++/9.3.0/arm-none-eabi/thumb/v7e-m+fp/hard/bits/gthr-default.h **** /* Just provide compatibility for mutex handling.  */
  30:/usr/arm-none-eabi/include/c++/9.3.0/arm-none-eabi/thumb/v7e-m+fp/hard/bits/gthr-default.h **** 
  31:/usr/arm-none-eabi/include/c++/9.3.0/arm-none-eabi/thumb/v7e-m+fp/hard/bits/gthr-default.h **** typedef int __gthread_key_t;
  32:/usr/arm-none-eabi/include/c++/9.3.0/arm-none-eabi/thumb/v7e-m+fp/hard/bits/gthr-default.h **** typedef int __gthread_once_t;
  33:/usr/arm-none-eabi/include/c++/9.3.0/arm-none-eabi/thumb/v7e-m+fp/hard/bits/gthr-default.h **** typedef int __gthread_mutex_t;
  34:/usr/arm-none-eabi/include/c++/9.3.0/arm-none-eabi/thumb/v7e-m+fp/hard/bits/gthr-default.h **** typedef int __gthread_recursive_mutex_t;
  35:/usr/arm-none-eabi/include/c++/9.3.0/arm-none-eabi/thumb/v7e-m+fp/hard/bits/gthr-default.h **** 
  36:/usr/arm-none-eabi/include/c++/9.3.0/arm-none-eabi/thumb/v7e-m+fp/hard/bits/gthr-default.h **** #define __GTHREAD_ONCE_INIT 0
  37:/usr/arm-none-eabi/include/c++/9.3.0/arm-none-eabi/thumb/v7e-m+fp/hard/bits/gthr-default.h **** #define __GTHREAD_MUTEX_INIT 0
  38:/usr/arm-none-eabi/include/c++/9.3.0/arm-none-eabi/thumb/v7e-m+fp/hard/bits/gthr-default.h **** #define __GTHREAD_MUTEX_INIT_FUNCTION(mx) do {} while (0)
  39:/usr/arm-none-eabi/include/c++/9.3.0/arm-none-eabi/thumb/v7e-m+fp/hard/bits/gthr-default.h **** #define __GTHREAD_RECURSIVE_MUTEX_INIT 0
  40:/usr/arm-none-eabi/include/c++/9.3.0/arm-none-eabi/thumb/v7e-m+fp/hard/bits/gthr-default.h **** 
  41:/usr/arm-none-eabi/include/c++/9.3.0/arm-none-eabi/thumb/v7e-m+fp/hard/bits/gthr-default.h **** #define _GLIBCXX_UNUSED __attribute__((__unused__))
  42:/usr/arm-none-eabi/include/c++/9.3.0/arm-none-eabi/thumb/v7e-m+fp/hard/bits/gthr-default.h **** 
  43:/usr/arm-none-eabi/include/c++/9.3.0/arm-none-eabi/thumb/v7e-m+fp/hard/bits/gthr-default.h **** #ifdef _LIBOBJC
  44:/usr/arm-none-eabi/include/c++/9.3.0/arm-none-eabi/thumb/v7e-m+fp/hard/bits/gthr-default.h **** 
  45:/usr/arm-none-eabi/include/c++/9.3.0/arm-none-eabi/thumb/v7e-m+fp/hard/bits/gthr-default.h **** /* Thread local storage for a single thread */
  46:/usr/arm-none-eabi/include/c++/9.3.0/arm-none-eabi/thumb/v7e-m+fp/hard/bits/gthr-default.h **** static void *thread_local_storage = NULL;
  47:/usr/arm-none-eabi/include/c++/9.3.0/arm-none-eabi/thumb/v7e-m+fp/hard/bits/gthr-default.h **** 
  48:/usr/arm-none-eabi/include/c++/9.3.0/arm-none-eabi/thumb/v7e-m+fp/hard/bits/gthr-default.h **** /* Backend initialization functions */
  49:/usr/arm-none-eabi/include/c++/9.3.0/arm-none-eabi/thumb/v7e-m+fp/hard/bits/gthr-default.h **** 
  50:/usr/arm-none-eabi/include/c++/9.3.0/arm-none-eabi/thumb/v7e-m+fp/hard/bits/gthr-default.h **** /* Initialize the threads subsystem.  */
  51:/usr/arm-none-eabi/include/c++/9.3.0/arm-none-eabi/thumb/v7e-m+fp/hard/bits/gthr-default.h **** static inline int
  52:/usr/arm-none-eabi/include/c++/9.3.0/arm-none-eabi/thumb/v7e-m+fp/hard/bits/gthr-default.h **** __gthread_objc_init_thread_system (void)
  53:/usr/arm-none-eabi/include/c++/9.3.0/arm-none-eabi/thumb/v7e-m+fp/hard/bits/gthr-default.h **** {
  54:/usr/arm-none-eabi/include/c++/9.3.0/arm-none-eabi/thumb/v7e-m+fp/hard/bits/gthr-default.h ****   /* No thread support available */
  55:/usr/arm-none-eabi/include/c++/9.3.0/arm-none-eabi/thumb/v7e-m+fp/hard/bits/gthr-default.h ****   return -1;
  56:/usr/arm-none-eabi/include/c++/9.3.0/arm-none-eabi/thumb/v7e-m+fp/hard/bits/gthr-default.h **** }
  57:/usr/arm-none-eabi/include/c++/9.3.0/arm-none-eabi/thumb/v7e-m+fp/hard/bits/gthr-default.h **** 
ARM GAS  /tmp/ccU23Djm.s 			page 17


  58:/usr/arm-none-eabi/include/c++/9.3.0/arm-none-eabi/thumb/v7e-m+fp/hard/bits/gthr-default.h **** /* Close the threads subsystem.  */
  59:/usr/arm-none-eabi/include/c++/9.3.0/arm-none-eabi/thumb/v7e-m+fp/hard/bits/gthr-default.h **** static inline int
  60:/usr/arm-none-eabi/include/c++/9.3.0/arm-none-eabi/thumb/v7e-m+fp/hard/bits/gthr-default.h **** __gthread_objc_close_thread_system (void)
  61:/usr/arm-none-eabi/include/c++/9.3.0/arm-none-eabi/thumb/v7e-m+fp/hard/bits/gthr-default.h **** {
  62:/usr/arm-none-eabi/include/c++/9.3.0/arm-none-eabi/thumb/v7e-m+fp/hard/bits/gthr-default.h ****   /* No thread support available */
  63:/usr/arm-none-eabi/include/c++/9.3.0/arm-none-eabi/thumb/v7e-m+fp/hard/bits/gthr-default.h ****   return -1;
  64:/usr/arm-none-eabi/include/c++/9.3.0/arm-none-eabi/thumb/v7e-m+fp/hard/bits/gthr-default.h **** }
  65:/usr/arm-none-eabi/include/c++/9.3.0/arm-none-eabi/thumb/v7e-m+fp/hard/bits/gthr-default.h **** 
  66:/usr/arm-none-eabi/include/c++/9.3.0/arm-none-eabi/thumb/v7e-m+fp/hard/bits/gthr-default.h **** /* Backend thread functions */
  67:/usr/arm-none-eabi/include/c++/9.3.0/arm-none-eabi/thumb/v7e-m+fp/hard/bits/gthr-default.h **** 
  68:/usr/arm-none-eabi/include/c++/9.3.0/arm-none-eabi/thumb/v7e-m+fp/hard/bits/gthr-default.h **** /* Create a new thread of execution.  */
  69:/usr/arm-none-eabi/include/c++/9.3.0/arm-none-eabi/thumb/v7e-m+fp/hard/bits/gthr-default.h **** static inline objc_thread_t
  70:/usr/arm-none-eabi/include/c++/9.3.0/arm-none-eabi/thumb/v7e-m+fp/hard/bits/gthr-default.h **** __gthread_objc_thread_detach (void (* func)(void *), void * arg _GLIBCXX_UNUSED)
  71:/usr/arm-none-eabi/include/c++/9.3.0/arm-none-eabi/thumb/v7e-m+fp/hard/bits/gthr-default.h **** {
  72:/usr/arm-none-eabi/include/c++/9.3.0/arm-none-eabi/thumb/v7e-m+fp/hard/bits/gthr-default.h ****   /* No thread support available */
  73:/usr/arm-none-eabi/include/c++/9.3.0/arm-none-eabi/thumb/v7e-m+fp/hard/bits/gthr-default.h ****   return NULL;
  74:/usr/arm-none-eabi/include/c++/9.3.0/arm-none-eabi/thumb/v7e-m+fp/hard/bits/gthr-default.h **** }
  75:/usr/arm-none-eabi/include/c++/9.3.0/arm-none-eabi/thumb/v7e-m+fp/hard/bits/gthr-default.h **** 
  76:/usr/arm-none-eabi/include/c++/9.3.0/arm-none-eabi/thumb/v7e-m+fp/hard/bits/gthr-default.h **** /* Set the current thread's priority.  */
  77:/usr/arm-none-eabi/include/c++/9.3.0/arm-none-eabi/thumb/v7e-m+fp/hard/bits/gthr-default.h **** static inline int
  78:/usr/arm-none-eabi/include/c++/9.3.0/arm-none-eabi/thumb/v7e-m+fp/hard/bits/gthr-default.h **** __gthread_objc_thread_set_priority (int priority _GLIBCXX_UNUSED)
  79:/usr/arm-none-eabi/include/c++/9.3.0/arm-none-eabi/thumb/v7e-m+fp/hard/bits/gthr-default.h **** {
  80:/usr/arm-none-eabi/include/c++/9.3.0/arm-none-eabi/thumb/v7e-m+fp/hard/bits/gthr-default.h ****   /* No thread support available */
  81:/usr/arm-none-eabi/include/c++/9.3.0/arm-none-eabi/thumb/v7e-m+fp/hard/bits/gthr-default.h ****   return -1;
  82:/usr/arm-none-eabi/include/c++/9.3.0/arm-none-eabi/thumb/v7e-m+fp/hard/bits/gthr-default.h **** }
  83:/usr/arm-none-eabi/include/c++/9.3.0/arm-none-eabi/thumb/v7e-m+fp/hard/bits/gthr-default.h **** 
  84:/usr/arm-none-eabi/include/c++/9.3.0/arm-none-eabi/thumb/v7e-m+fp/hard/bits/gthr-default.h **** /* Return the current thread's priority.  */
  85:/usr/arm-none-eabi/include/c++/9.3.0/arm-none-eabi/thumb/v7e-m+fp/hard/bits/gthr-default.h **** static inline int
  86:/usr/arm-none-eabi/include/c++/9.3.0/arm-none-eabi/thumb/v7e-m+fp/hard/bits/gthr-default.h **** __gthread_objc_thread_get_priority (void)
  87:/usr/arm-none-eabi/include/c++/9.3.0/arm-none-eabi/thumb/v7e-m+fp/hard/bits/gthr-default.h **** {
  88:/usr/arm-none-eabi/include/c++/9.3.0/arm-none-eabi/thumb/v7e-m+fp/hard/bits/gthr-default.h ****   return OBJC_THREAD_INTERACTIVE_PRIORITY;
  89:/usr/arm-none-eabi/include/c++/9.3.0/arm-none-eabi/thumb/v7e-m+fp/hard/bits/gthr-default.h **** }
  90:/usr/arm-none-eabi/include/c++/9.3.0/arm-none-eabi/thumb/v7e-m+fp/hard/bits/gthr-default.h **** 
  91:/usr/arm-none-eabi/include/c++/9.3.0/arm-none-eabi/thumb/v7e-m+fp/hard/bits/gthr-default.h **** /* Yield our process time to another thread.  */
  92:/usr/arm-none-eabi/include/c++/9.3.0/arm-none-eabi/thumb/v7e-m+fp/hard/bits/gthr-default.h **** static inline void
  93:/usr/arm-none-eabi/include/c++/9.3.0/arm-none-eabi/thumb/v7e-m+fp/hard/bits/gthr-default.h **** __gthread_objc_thread_yield (void)
  94:/usr/arm-none-eabi/include/c++/9.3.0/arm-none-eabi/thumb/v7e-m+fp/hard/bits/gthr-default.h **** {
  95:/usr/arm-none-eabi/include/c++/9.3.0/arm-none-eabi/thumb/v7e-m+fp/hard/bits/gthr-default.h ****   return;
  96:/usr/arm-none-eabi/include/c++/9.3.0/arm-none-eabi/thumb/v7e-m+fp/hard/bits/gthr-default.h **** }
  97:/usr/arm-none-eabi/include/c++/9.3.0/arm-none-eabi/thumb/v7e-m+fp/hard/bits/gthr-default.h **** 
  98:/usr/arm-none-eabi/include/c++/9.3.0/arm-none-eabi/thumb/v7e-m+fp/hard/bits/gthr-default.h **** /* Terminate the current thread.  */
  99:/usr/arm-none-eabi/include/c++/9.3.0/arm-none-eabi/thumb/v7e-m+fp/hard/bits/gthr-default.h **** static inline int
 100:/usr/arm-none-eabi/include/c++/9.3.0/arm-none-eabi/thumb/v7e-m+fp/hard/bits/gthr-default.h **** __gthread_objc_thread_exit (void)
 101:/usr/arm-none-eabi/include/c++/9.3.0/arm-none-eabi/thumb/v7e-m+fp/hard/bits/gthr-default.h **** {
 102:/usr/arm-none-eabi/include/c++/9.3.0/arm-none-eabi/thumb/v7e-m+fp/hard/bits/gthr-default.h ****   /* No thread support available */
 103:/usr/arm-none-eabi/include/c++/9.3.0/arm-none-eabi/thumb/v7e-m+fp/hard/bits/gthr-default.h ****   /* Should we really exit the program */
 104:/usr/arm-none-eabi/include/c++/9.3.0/arm-none-eabi/thumb/v7e-m+fp/hard/bits/gthr-default.h ****   /* exit (&__objc_thread_exit_status); */
 105:/usr/arm-none-eabi/include/c++/9.3.0/arm-none-eabi/thumb/v7e-m+fp/hard/bits/gthr-default.h ****   return -1;
 106:/usr/arm-none-eabi/include/c++/9.3.0/arm-none-eabi/thumb/v7e-m+fp/hard/bits/gthr-default.h **** }
 107:/usr/arm-none-eabi/include/c++/9.3.0/arm-none-eabi/thumb/v7e-m+fp/hard/bits/gthr-default.h **** 
 108:/usr/arm-none-eabi/include/c++/9.3.0/arm-none-eabi/thumb/v7e-m+fp/hard/bits/gthr-default.h **** /* Returns an integer value which uniquely describes a thread.  */
 109:/usr/arm-none-eabi/include/c++/9.3.0/arm-none-eabi/thumb/v7e-m+fp/hard/bits/gthr-default.h **** static inline objc_thread_t
 110:/usr/arm-none-eabi/include/c++/9.3.0/arm-none-eabi/thumb/v7e-m+fp/hard/bits/gthr-default.h **** __gthread_objc_thread_id (void)
 111:/usr/arm-none-eabi/include/c++/9.3.0/arm-none-eabi/thumb/v7e-m+fp/hard/bits/gthr-default.h **** {
 112:/usr/arm-none-eabi/include/c++/9.3.0/arm-none-eabi/thumb/v7e-m+fp/hard/bits/gthr-default.h ****   /* No thread support, use 1.  */
 113:/usr/arm-none-eabi/include/c++/9.3.0/arm-none-eabi/thumb/v7e-m+fp/hard/bits/gthr-default.h ****   return (objc_thread_t) 1;
 114:/usr/arm-none-eabi/include/c++/9.3.0/arm-none-eabi/thumb/v7e-m+fp/hard/bits/gthr-default.h **** }
ARM GAS  /tmp/ccU23Djm.s 			page 18


 115:/usr/arm-none-eabi/include/c++/9.3.0/arm-none-eabi/thumb/v7e-m+fp/hard/bits/gthr-default.h **** 
 116:/usr/arm-none-eabi/include/c++/9.3.0/arm-none-eabi/thumb/v7e-m+fp/hard/bits/gthr-default.h **** /* Sets the thread's local storage pointer.  */
 117:/usr/arm-none-eabi/include/c++/9.3.0/arm-none-eabi/thumb/v7e-m+fp/hard/bits/gthr-default.h **** static inline int
 118:/usr/arm-none-eabi/include/c++/9.3.0/arm-none-eabi/thumb/v7e-m+fp/hard/bits/gthr-default.h **** __gthread_objc_thread_set_data (void *value)
 119:/usr/arm-none-eabi/include/c++/9.3.0/arm-none-eabi/thumb/v7e-m+fp/hard/bits/gthr-default.h **** {
 120:/usr/arm-none-eabi/include/c++/9.3.0/arm-none-eabi/thumb/v7e-m+fp/hard/bits/gthr-default.h ****   thread_local_storage = value;
 121:/usr/arm-none-eabi/include/c++/9.3.0/arm-none-eabi/thumb/v7e-m+fp/hard/bits/gthr-default.h ****   return 0;
 122:/usr/arm-none-eabi/include/c++/9.3.0/arm-none-eabi/thumb/v7e-m+fp/hard/bits/gthr-default.h **** }
 123:/usr/arm-none-eabi/include/c++/9.3.0/arm-none-eabi/thumb/v7e-m+fp/hard/bits/gthr-default.h **** 
 124:/usr/arm-none-eabi/include/c++/9.3.0/arm-none-eabi/thumb/v7e-m+fp/hard/bits/gthr-default.h **** /* Returns the thread's local storage pointer.  */
 125:/usr/arm-none-eabi/include/c++/9.3.0/arm-none-eabi/thumb/v7e-m+fp/hard/bits/gthr-default.h **** static inline void *
 126:/usr/arm-none-eabi/include/c++/9.3.0/arm-none-eabi/thumb/v7e-m+fp/hard/bits/gthr-default.h **** __gthread_objc_thread_get_data (void)
 127:/usr/arm-none-eabi/include/c++/9.3.0/arm-none-eabi/thumb/v7e-m+fp/hard/bits/gthr-default.h **** {
 128:/usr/arm-none-eabi/include/c++/9.3.0/arm-none-eabi/thumb/v7e-m+fp/hard/bits/gthr-default.h ****   return thread_local_storage;
 129:/usr/arm-none-eabi/include/c++/9.3.0/arm-none-eabi/thumb/v7e-m+fp/hard/bits/gthr-default.h **** }
 130:/usr/arm-none-eabi/include/c++/9.3.0/arm-none-eabi/thumb/v7e-m+fp/hard/bits/gthr-default.h **** 
 131:/usr/arm-none-eabi/include/c++/9.3.0/arm-none-eabi/thumb/v7e-m+fp/hard/bits/gthr-default.h **** /* Backend mutex functions */
 132:/usr/arm-none-eabi/include/c++/9.3.0/arm-none-eabi/thumb/v7e-m+fp/hard/bits/gthr-default.h **** 
 133:/usr/arm-none-eabi/include/c++/9.3.0/arm-none-eabi/thumb/v7e-m+fp/hard/bits/gthr-default.h **** /* Allocate a mutex.  */
 134:/usr/arm-none-eabi/include/c++/9.3.0/arm-none-eabi/thumb/v7e-m+fp/hard/bits/gthr-default.h **** static inline int
 135:/usr/arm-none-eabi/include/c++/9.3.0/arm-none-eabi/thumb/v7e-m+fp/hard/bits/gthr-default.h **** __gthread_objc_mutex_allocate (objc_mutex_t mutex _GLIBCXX_UNUSED)
 136:/usr/arm-none-eabi/include/c++/9.3.0/arm-none-eabi/thumb/v7e-m+fp/hard/bits/gthr-default.h **** {
 137:/usr/arm-none-eabi/include/c++/9.3.0/arm-none-eabi/thumb/v7e-m+fp/hard/bits/gthr-default.h ****   return 0;
 138:/usr/arm-none-eabi/include/c++/9.3.0/arm-none-eabi/thumb/v7e-m+fp/hard/bits/gthr-default.h **** }
 139:/usr/arm-none-eabi/include/c++/9.3.0/arm-none-eabi/thumb/v7e-m+fp/hard/bits/gthr-default.h **** 
 140:/usr/arm-none-eabi/include/c++/9.3.0/arm-none-eabi/thumb/v7e-m+fp/hard/bits/gthr-default.h **** /* Deallocate a mutex.  */
 141:/usr/arm-none-eabi/include/c++/9.3.0/arm-none-eabi/thumb/v7e-m+fp/hard/bits/gthr-default.h **** static inline int
 142:/usr/arm-none-eabi/include/c++/9.3.0/arm-none-eabi/thumb/v7e-m+fp/hard/bits/gthr-default.h **** __gthread_objc_mutex_deallocate (objc_mutex_t mutex _GLIBCXX_UNUSED)
 143:/usr/arm-none-eabi/include/c++/9.3.0/arm-none-eabi/thumb/v7e-m+fp/hard/bits/gthr-default.h **** {
 144:/usr/arm-none-eabi/include/c++/9.3.0/arm-none-eabi/thumb/v7e-m+fp/hard/bits/gthr-default.h ****   return 0;
 145:/usr/arm-none-eabi/include/c++/9.3.0/arm-none-eabi/thumb/v7e-m+fp/hard/bits/gthr-default.h **** }
 146:/usr/arm-none-eabi/include/c++/9.3.0/arm-none-eabi/thumb/v7e-m+fp/hard/bits/gthr-default.h **** 
 147:/usr/arm-none-eabi/include/c++/9.3.0/arm-none-eabi/thumb/v7e-m+fp/hard/bits/gthr-default.h **** /* Grab a lock on a mutex.  */
 148:/usr/arm-none-eabi/include/c++/9.3.0/arm-none-eabi/thumb/v7e-m+fp/hard/bits/gthr-default.h **** static inline int
 149:/usr/arm-none-eabi/include/c++/9.3.0/arm-none-eabi/thumb/v7e-m+fp/hard/bits/gthr-default.h **** __gthread_objc_mutex_lock (objc_mutex_t mutex _GLIBCXX_UNUSED)
 150:/usr/arm-none-eabi/include/c++/9.3.0/arm-none-eabi/thumb/v7e-m+fp/hard/bits/gthr-default.h **** {
 151:/usr/arm-none-eabi/include/c++/9.3.0/arm-none-eabi/thumb/v7e-m+fp/hard/bits/gthr-default.h ****   /* There can only be one thread, so we always get the lock */
 152:/usr/arm-none-eabi/include/c++/9.3.0/arm-none-eabi/thumb/v7e-m+fp/hard/bits/gthr-default.h ****   return 0;
 153:/usr/arm-none-eabi/include/c++/9.3.0/arm-none-eabi/thumb/v7e-m+fp/hard/bits/gthr-default.h **** }
 154:/usr/arm-none-eabi/include/c++/9.3.0/arm-none-eabi/thumb/v7e-m+fp/hard/bits/gthr-default.h **** 
 155:/usr/arm-none-eabi/include/c++/9.3.0/arm-none-eabi/thumb/v7e-m+fp/hard/bits/gthr-default.h **** /* Try to grab a lock on a mutex.  */
 156:/usr/arm-none-eabi/include/c++/9.3.0/arm-none-eabi/thumb/v7e-m+fp/hard/bits/gthr-default.h **** static inline int
 157:/usr/arm-none-eabi/include/c++/9.3.0/arm-none-eabi/thumb/v7e-m+fp/hard/bits/gthr-default.h **** __gthread_objc_mutex_trylock (objc_mutex_t mutex _GLIBCXX_UNUSED)
 158:/usr/arm-none-eabi/include/c++/9.3.0/arm-none-eabi/thumb/v7e-m+fp/hard/bits/gthr-default.h **** {
 159:/usr/arm-none-eabi/include/c++/9.3.0/arm-none-eabi/thumb/v7e-m+fp/hard/bits/gthr-default.h ****   /* There can only be one thread, so we always get the lock */
 160:/usr/arm-none-eabi/include/c++/9.3.0/arm-none-eabi/thumb/v7e-m+fp/hard/bits/gthr-default.h ****   return 0;
 161:/usr/arm-none-eabi/include/c++/9.3.0/arm-none-eabi/thumb/v7e-m+fp/hard/bits/gthr-default.h **** }
 162:/usr/arm-none-eabi/include/c++/9.3.0/arm-none-eabi/thumb/v7e-m+fp/hard/bits/gthr-default.h **** 
 163:/usr/arm-none-eabi/include/c++/9.3.0/arm-none-eabi/thumb/v7e-m+fp/hard/bits/gthr-default.h **** /* Unlock the mutex */
 164:/usr/arm-none-eabi/include/c++/9.3.0/arm-none-eabi/thumb/v7e-m+fp/hard/bits/gthr-default.h **** static inline int
 165:/usr/arm-none-eabi/include/c++/9.3.0/arm-none-eabi/thumb/v7e-m+fp/hard/bits/gthr-default.h **** __gthread_objc_mutex_unlock (objc_mutex_t mutex _GLIBCXX_UNUSED)
 166:/usr/arm-none-eabi/include/c++/9.3.0/arm-none-eabi/thumb/v7e-m+fp/hard/bits/gthr-default.h **** {
 167:/usr/arm-none-eabi/include/c++/9.3.0/arm-none-eabi/thumb/v7e-m+fp/hard/bits/gthr-default.h ****   return 0;
 168:/usr/arm-none-eabi/include/c++/9.3.0/arm-none-eabi/thumb/v7e-m+fp/hard/bits/gthr-default.h **** }
 169:/usr/arm-none-eabi/include/c++/9.3.0/arm-none-eabi/thumb/v7e-m+fp/hard/bits/gthr-default.h **** 
 170:/usr/arm-none-eabi/include/c++/9.3.0/arm-none-eabi/thumb/v7e-m+fp/hard/bits/gthr-default.h **** /* Backend condition mutex functions */
 171:/usr/arm-none-eabi/include/c++/9.3.0/arm-none-eabi/thumb/v7e-m+fp/hard/bits/gthr-default.h **** 
ARM GAS  /tmp/ccU23Djm.s 			page 19


 172:/usr/arm-none-eabi/include/c++/9.3.0/arm-none-eabi/thumb/v7e-m+fp/hard/bits/gthr-default.h **** /* Allocate a condition.  */
 173:/usr/arm-none-eabi/include/c++/9.3.0/arm-none-eabi/thumb/v7e-m+fp/hard/bits/gthr-default.h **** static inline int
 174:/usr/arm-none-eabi/include/c++/9.3.0/arm-none-eabi/thumb/v7e-m+fp/hard/bits/gthr-default.h **** __gthread_objc_condition_allocate (objc_condition_t condition _GLIBCXX_UNUSED)
 175:/usr/arm-none-eabi/include/c++/9.3.0/arm-none-eabi/thumb/v7e-m+fp/hard/bits/gthr-default.h **** {
 176:/usr/arm-none-eabi/include/c++/9.3.0/arm-none-eabi/thumb/v7e-m+fp/hard/bits/gthr-default.h ****   return 0;
 177:/usr/arm-none-eabi/include/c++/9.3.0/arm-none-eabi/thumb/v7e-m+fp/hard/bits/gthr-default.h **** }
 178:/usr/arm-none-eabi/include/c++/9.3.0/arm-none-eabi/thumb/v7e-m+fp/hard/bits/gthr-default.h **** 
 179:/usr/arm-none-eabi/include/c++/9.3.0/arm-none-eabi/thumb/v7e-m+fp/hard/bits/gthr-default.h **** /* Deallocate a condition.  */
 180:/usr/arm-none-eabi/include/c++/9.3.0/arm-none-eabi/thumb/v7e-m+fp/hard/bits/gthr-default.h **** static inline int
 181:/usr/arm-none-eabi/include/c++/9.3.0/arm-none-eabi/thumb/v7e-m+fp/hard/bits/gthr-default.h **** __gthread_objc_condition_deallocate (objc_condition_t condition _GLIBCXX_UNUSED)
 182:/usr/arm-none-eabi/include/c++/9.3.0/arm-none-eabi/thumb/v7e-m+fp/hard/bits/gthr-default.h **** {
 183:/usr/arm-none-eabi/include/c++/9.3.0/arm-none-eabi/thumb/v7e-m+fp/hard/bits/gthr-default.h ****   return 0;
 184:/usr/arm-none-eabi/include/c++/9.3.0/arm-none-eabi/thumb/v7e-m+fp/hard/bits/gthr-default.h **** }
 185:/usr/arm-none-eabi/include/c++/9.3.0/arm-none-eabi/thumb/v7e-m+fp/hard/bits/gthr-default.h **** 
 186:/usr/arm-none-eabi/include/c++/9.3.0/arm-none-eabi/thumb/v7e-m+fp/hard/bits/gthr-default.h **** /* Wait on the condition */
 187:/usr/arm-none-eabi/include/c++/9.3.0/arm-none-eabi/thumb/v7e-m+fp/hard/bits/gthr-default.h **** static inline int
 188:/usr/arm-none-eabi/include/c++/9.3.0/arm-none-eabi/thumb/v7e-m+fp/hard/bits/gthr-default.h **** __gthread_objc_condition_wait (objc_condition_t condition _GLIBCXX_UNUSED,
 189:/usr/arm-none-eabi/include/c++/9.3.0/arm-none-eabi/thumb/v7e-m+fp/hard/bits/gthr-default.h **** 			       objc_mutex_t mutex _GLIBCXX_UNUSED)
 190:/usr/arm-none-eabi/include/c++/9.3.0/arm-none-eabi/thumb/v7e-m+fp/hard/bits/gthr-default.h **** {
 191:/usr/arm-none-eabi/include/c++/9.3.0/arm-none-eabi/thumb/v7e-m+fp/hard/bits/gthr-default.h ****   return 0;
 192:/usr/arm-none-eabi/include/c++/9.3.0/arm-none-eabi/thumb/v7e-m+fp/hard/bits/gthr-default.h **** }
 193:/usr/arm-none-eabi/include/c++/9.3.0/arm-none-eabi/thumb/v7e-m+fp/hard/bits/gthr-default.h **** 
 194:/usr/arm-none-eabi/include/c++/9.3.0/arm-none-eabi/thumb/v7e-m+fp/hard/bits/gthr-default.h **** /* Wake up all threads waiting on this condition.  */
 195:/usr/arm-none-eabi/include/c++/9.3.0/arm-none-eabi/thumb/v7e-m+fp/hard/bits/gthr-default.h **** static inline int
 196:/usr/arm-none-eabi/include/c++/9.3.0/arm-none-eabi/thumb/v7e-m+fp/hard/bits/gthr-default.h **** __gthread_objc_condition_broadcast (objc_condition_t condition _GLIBCXX_UNUSED)
 197:/usr/arm-none-eabi/include/c++/9.3.0/arm-none-eabi/thumb/v7e-m+fp/hard/bits/gthr-default.h **** {
 198:/usr/arm-none-eabi/include/c++/9.3.0/arm-none-eabi/thumb/v7e-m+fp/hard/bits/gthr-default.h ****   return 0;
 199:/usr/arm-none-eabi/include/c++/9.3.0/arm-none-eabi/thumb/v7e-m+fp/hard/bits/gthr-default.h **** }
 200:/usr/arm-none-eabi/include/c++/9.3.0/arm-none-eabi/thumb/v7e-m+fp/hard/bits/gthr-default.h **** 
 201:/usr/arm-none-eabi/include/c++/9.3.0/arm-none-eabi/thumb/v7e-m+fp/hard/bits/gthr-default.h **** /* Wake up one thread waiting on this condition.  */
 202:/usr/arm-none-eabi/include/c++/9.3.0/arm-none-eabi/thumb/v7e-m+fp/hard/bits/gthr-default.h **** static inline int
 203:/usr/arm-none-eabi/include/c++/9.3.0/arm-none-eabi/thumb/v7e-m+fp/hard/bits/gthr-default.h **** __gthread_objc_condition_signal (objc_condition_t condition _GLIBCXX_UNUSED)
 204:/usr/arm-none-eabi/include/c++/9.3.0/arm-none-eabi/thumb/v7e-m+fp/hard/bits/gthr-default.h **** {
 205:/usr/arm-none-eabi/include/c++/9.3.0/arm-none-eabi/thumb/v7e-m+fp/hard/bits/gthr-default.h ****   return 0;
 206:/usr/arm-none-eabi/include/c++/9.3.0/arm-none-eabi/thumb/v7e-m+fp/hard/bits/gthr-default.h **** }
 207:/usr/arm-none-eabi/include/c++/9.3.0/arm-none-eabi/thumb/v7e-m+fp/hard/bits/gthr-default.h **** 
 208:/usr/arm-none-eabi/include/c++/9.3.0/arm-none-eabi/thumb/v7e-m+fp/hard/bits/gthr-default.h **** #else /* _LIBOBJC */
 209:/usr/arm-none-eabi/include/c++/9.3.0/arm-none-eabi/thumb/v7e-m+fp/hard/bits/gthr-default.h **** 
 210:/usr/arm-none-eabi/include/c++/9.3.0/arm-none-eabi/thumb/v7e-m+fp/hard/bits/gthr-default.h **** static inline int
 211:/usr/arm-none-eabi/include/c++/9.3.0/arm-none-eabi/thumb/v7e-m+fp/hard/bits/gthr-default.h **** __gthread_active_p (void)
 212:/usr/arm-none-eabi/include/c++/9.3.0/arm-none-eabi/thumb/v7e-m+fp/hard/bits/gthr-default.h **** {
 213:/usr/arm-none-eabi/include/c++/9.3.0/arm-none-eabi/thumb/v7e-m+fp/hard/bits/gthr-default.h ****   return 0;
 214:/usr/arm-none-eabi/include/c++/9.3.0/arm-none-eabi/thumb/v7e-m+fp/hard/bits/gthr-default.h **** }
 215:/usr/arm-none-eabi/include/c++/9.3.0/arm-none-eabi/thumb/v7e-m+fp/hard/bits/gthr-default.h **** 
 216:/usr/arm-none-eabi/include/c++/9.3.0/arm-none-eabi/thumb/v7e-m+fp/hard/bits/gthr-default.h **** static inline int
 217:/usr/arm-none-eabi/include/c++/9.3.0/arm-none-eabi/thumb/v7e-m+fp/hard/bits/gthr-default.h **** __gthread_once (__gthread_once_t *__once _GLIBCXX_UNUSED, void (*__func) (void) _GLIBCXX_UNUSED)
 218:/usr/arm-none-eabi/include/c++/9.3.0/arm-none-eabi/thumb/v7e-m+fp/hard/bits/gthr-default.h **** {
 219:/usr/arm-none-eabi/include/c++/9.3.0/arm-none-eabi/thumb/v7e-m+fp/hard/bits/gthr-default.h ****   return 0;
 220:/usr/arm-none-eabi/include/c++/9.3.0/arm-none-eabi/thumb/v7e-m+fp/hard/bits/gthr-default.h **** }
 221:/usr/arm-none-eabi/include/c++/9.3.0/arm-none-eabi/thumb/v7e-m+fp/hard/bits/gthr-default.h **** 
 222:/usr/arm-none-eabi/include/c++/9.3.0/arm-none-eabi/thumb/v7e-m+fp/hard/bits/gthr-default.h **** static inline int _GLIBCXX_UNUSED
 223:/usr/arm-none-eabi/include/c++/9.3.0/arm-none-eabi/thumb/v7e-m+fp/hard/bits/gthr-default.h **** __gthread_key_create (__gthread_key_t *__key _GLIBCXX_UNUSED, void (*__func) (void *) _GLIBCXX_UNUS
 224:/usr/arm-none-eabi/include/c++/9.3.0/arm-none-eabi/thumb/v7e-m+fp/hard/bits/gthr-default.h **** {
 225:/usr/arm-none-eabi/include/c++/9.3.0/arm-none-eabi/thumb/v7e-m+fp/hard/bits/gthr-default.h ****   return 0;
 226:/usr/arm-none-eabi/include/c++/9.3.0/arm-none-eabi/thumb/v7e-m+fp/hard/bits/gthr-default.h **** }
 227:/usr/arm-none-eabi/include/c++/9.3.0/arm-none-eabi/thumb/v7e-m+fp/hard/bits/gthr-default.h **** 
 228:/usr/arm-none-eabi/include/c++/9.3.0/arm-none-eabi/thumb/v7e-m+fp/hard/bits/gthr-default.h **** static int _GLIBCXX_UNUSED
ARM GAS  /tmp/ccU23Djm.s 			page 20


 229:/usr/arm-none-eabi/include/c++/9.3.0/arm-none-eabi/thumb/v7e-m+fp/hard/bits/gthr-default.h **** __gthread_key_delete (__gthread_key_t __key _GLIBCXX_UNUSED)
 230:/usr/arm-none-eabi/include/c++/9.3.0/arm-none-eabi/thumb/v7e-m+fp/hard/bits/gthr-default.h **** {
 591              		.loc 4 230 1
 592              		.cfi_startproc
 593              		@ args = 0, pretend = 0, frame = 8
 594              		@ frame_needed = 1, uses_anonymous_args = 0
 595              		@ link register save eliminated.
 596 0000 80B4     		push	{r7}
 597              	.LCFI42:
 598              		.cfi_def_cfa_offset 4
 599              		.cfi_offset 7, -4
 600 0002 83B0     		sub	sp, sp, #12
 601              	.LCFI43:
 602              		.cfi_def_cfa_offset 16
 603 0004 00AF     		add	r7, sp, #0
 604              	.LCFI44:
 605              		.cfi_def_cfa_register 7
 606 0006 7860     		str	r0, [r7, #4]
 231:/usr/arm-none-eabi/include/c++/9.3.0/arm-none-eabi/thumb/v7e-m+fp/hard/bits/gthr-default.h ****   return 0;
 607              		.loc 4 231 10
 608 0008 0023     		movs	r3, #0
 232:/usr/arm-none-eabi/include/c++/9.3.0/arm-none-eabi/thumb/v7e-m+fp/hard/bits/gthr-default.h **** }
 609              		.loc 4 232 1
 610 000a 1846     		mov	r0, r3
 611 000c 0C37     		adds	r7, r7, #12
 612              	.LCFI45:
 613              		.cfi_def_cfa_offset 4
 614 000e BD46     		mov	sp, r7
 615              	.LCFI46:
 616              		.cfi_def_cfa_register 13
 617              		@ sp needed
 618 0010 5DF8047B 		ldr	r7, [sp], #4
 619              	.LCFI47:
 620              		.cfi_restore 7
 621              		.cfi_def_cfa_offset 0
 622 0014 7047     		bx	lr
 623              		.cfi_endproc
 624              	.LFE1317:
 626              		.section	.rodata._ZN2tlL8in_placeE,"a"
 627              		.align	2
 630              	_ZN2tlL8in_placeE:
 631 0000 00       		.space	1
 632              		.section	.rodata._ZN2tlL8unexpectE,"a"
 633              		.align	2
 636              	_ZN2tlL8unexpectE:
 637 0000 00       		.space	1
 638              		.section	.rodata._ZN2tl6detailL7no_initE,"a"
 639              		.align	2
 642              	_ZN2tl6detailL7no_initE:
 643 0000 00       		.space	1
 644              		.section	.text._ZN4otto4util12local_vectorINS_3mcu9Scheduler4TaskELj1024EE8capacityEv,"axG",%progb
 645              		.align	1
 646              		.weak	_ZN4otto4util12local_vectorINS_3mcu9Scheduler4TaskELj1024EE8capacityEv
 647              		.syntax unified
 648              		.thumb
 649              		.thumb_func
 650              		.fpu fpv4-sp-d16
ARM GAS  /tmp/ccU23Djm.s 			page 21


 652              	_ZN4otto4util12local_vectorINS_3mcu9Scheduler4TaskELj1024EE8capacityEv:
 653              	.LFB3874:
 654              		.file 5 "Cpp/local_vector.hpp"
   1:Cpp/local_vector.hpp **** #pragma once
   2:Cpp/local_vector.hpp **** 
   3:Cpp/local_vector.hpp **** #include <initializer_list>
   4:Cpp/local_vector.hpp **** #include <new>
   5:Cpp/local_vector.hpp **** #include <iterator>
   6:Cpp/local_vector.hpp **** 
   7:Cpp/local_vector.hpp **** #include "expected.hpp"
   8:Cpp/local_vector.hpp **** 
   9:Cpp/local_vector.hpp **** namespace otto::util {
  10:Cpp/local_vector.hpp **** 
  11:Cpp/local_vector.hpp ****   template<typename T, std::size_t Capacity>
  12:Cpp/local_vector.hpp ****   struct local_vector {
  13:Cpp/local_vector.hpp ****     using value_type = T;
  14:Cpp/local_vector.hpp ****     using iterator = value_type*;
  15:Cpp/local_vector.hpp ****     using const_iterator = const value_type*;
  16:Cpp/local_vector.hpp **** 
  17:Cpp/local_vector.hpp ****     /// Error codes
  18:Cpp/local_vector.hpp ****     enum struct error {
  19:Cpp/local_vector.hpp ****       /// The vector is at capacity
  20:Cpp/local_vector.hpp ****       full,
  21:Cpp/local_vector.hpp ****       /// The vecctor is empty
  22:Cpp/local_vector.hpp ****       empty
  23:Cpp/local_vector.hpp ****     };
  24:Cpp/local_vector.hpp **** 
  25:Cpp/local_vector.hpp ****     constexpr local_vector() : _data(), _size(0) {}
  26:Cpp/local_vector.hpp **** 
  27:Cpp/local_vector.hpp ****     constexpr local_vector(std::initializer_list<value_type> il)
  28:Cpp/local_vector.hpp ****     {
  29:Cpp/local_vector.hpp ****       for (const T& v : il) {
  30:Cpp/local_vector.hpp ****         push_back(v);
  31:Cpp/local_vector.hpp ****       }
  32:Cpp/local_vector.hpp ****     }
  33:Cpp/local_vector.hpp **** 
  34:Cpp/local_vector.hpp ****     ~local_vector() noexcept
  35:Cpp/local_vector.hpp ****     {
  36:Cpp/local_vector.hpp ****       // Destroy elements
  37:Cpp/local_vector.hpp ****       clear();
  38:Cpp/local_vector.hpp ****     }
  39:Cpp/local_vector.hpp **** 
  40:Cpp/local_vector.hpp ****     // Queries
  41:Cpp/local_vector.hpp **** 
  42:Cpp/local_vector.hpp ****     static constexpr std::size_t capacity() noexcept
 655              		.loc 5 42 34
 656              		.cfi_startproc
 657              		@ args = 0, pretend = 0, frame = 0
 658              		@ frame_needed = 1, uses_anonymous_args = 0
 659              		@ link register save eliminated.
 660 0000 80B4     		push	{r7}
 661              	.LCFI48:
 662              		.cfi_def_cfa_offset 4
 663              		.cfi_offset 7, -4
 664 0002 00AF     		add	r7, sp, #0
 665              	.LCFI49:
 666              		.cfi_def_cfa_register 7
ARM GAS  /tmp/ccU23Djm.s 			page 22


  43:Cpp/local_vector.hpp ****     {
  44:Cpp/local_vector.hpp ****       return Capacity;
 667              		.loc 5 44 14
 668 0004 4FF48063 		mov	r3, #1024
  45:Cpp/local_vector.hpp ****     }
 669              		.loc 5 45 5
 670 0008 1846     		mov	r0, r3
 671 000a BD46     		mov	sp, r7
 672              	.LCFI50:
 673              		.cfi_def_cfa_register 13
 674              		@ sp needed
 675 000c 5DF8047B 		ldr	r7, [sp], #4
 676              	.LCFI51:
 677              		.cfi_restore 7
 678              		.cfi_def_cfa_offset 0
 679 0010 7047     		bx	lr
 680              		.cfi_endproc
 681              	.LFE3874:
 683              		.section	.text._ZNK4otto3mcu9Scheduler4TaskgtERKS2_,"axG",%progbits,_ZNK4otto3mcu9Scheduler4Taskgt
 684              		.align	1
 685              		.weak	_ZNK4otto3mcu9Scheduler4TaskgtERKS2_
 686              		.syntax unified
 687              		.thumb
 688              		.thumb_func
 689              		.fpu fpv4-sp-d16
 691              	_ZNK4otto3mcu9Scheduler4TaskgtERKS2_:
 692              	.LFB3875:
 693              		.file 6 "Cpp/scheduler.hpp"
   1:Cpp/scheduler.hpp **** #pragma once
   2:Cpp/scheduler.hpp **** 
   3:Cpp/scheduler.hpp **** #include "local_vector.hpp"
   4:Cpp/scheduler.hpp **** 
   5:Cpp/scheduler.hpp **** #include "fixed_size_function.hpp"
   6:Cpp/scheduler.hpp **** #include "stm32f4xx_hal.h"
   7:Cpp/scheduler.hpp **** 
   8:Cpp/scheduler.hpp **** namespace otto::mcu {
   9:Cpp/scheduler.hpp **** 
  10:Cpp/scheduler.hpp ****   /// Time-trigger scheduler supporting repeated tasks
  11:Cpp/scheduler.hpp ****   struct Scheduler {
  12:Cpp/scheduler.hpp ****     /// Move-only function with max size of 48
  13:Cpp/scheduler.hpp ****     using Function = fixed_size_function<void(), 64, construct_type::move>;
  14:Cpp/scheduler.hpp ****     /// Move-only function with max size of 32
  15:Cpp/scheduler.hpp ****     using CondRepeatFunction = fixed_size_function<std::uint32_t(), 32, construct_type::move>;
  16:Cpp/scheduler.hpp ****     /// Move only task type
  17:Cpp/scheduler.hpp ****     struct Task {
  18:Cpp/scheduler.hpp ****       /// Function to execute
  19:Cpp/scheduler.hpp ****       Function func;
  20:Cpp/scheduler.hpp ****       /// Absolute time to execute function in milliseconds
  21:Cpp/scheduler.hpp ****       std::uint32_t time;
  22:Cpp/scheduler.hpp ****       /// Upon execution, the task will be requeued in X milliseconds after execution started.
  23:Cpp/scheduler.hpp ****       /// If 0, the task will not be repeated
  24:Cpp/scheduler.hpp ****       std::uint32_t repeat = 0;
  25:Cpp/scheduler.hpp **** 
  26:Cpp/scheduler.hpp ****       bool operator>(const Task& rhs) const
 694              		.loc 6 26 12
 695              		.cfi_startproc
 696              		@ args = 0, pretend = 0, frame = 8
ARM GAS  /tmp/ccU23Djm.s 			page 23


 697              		@ frame_needed = 1, uses_anonymous_args = 0
 698              		@ link register save eliminated.
 699 0000 80B4     		push	{r7}
 700              	.LCFI52:
 701              		.cfi_def_cfa_offset 4
 702              		.cfi_offset 7, -4
 703 0002 83B0     		sub	sp, sp, #12
 704              	.LCFI53:
 705              		.cfi_def_cfa_offset 16
 706 0004 00AF     		add	r7, sp, #0
 707              	.LCFI54:
 708              		.cfi_def_cfa_register 7
 709 0006 7860     		str	r0, [r7, #4]
 710 0008 3960     		str	r1, [r7]
  27:Cpp/scheduler.hpp ****       {
  28:Cpp/scheduler.hpp ****         return time > rhs.time;
 711              		.loc 6 28 16
 712 000a 7B68     		ldr	r3, [r7, #4]
 713 000c 9A6C     		ldr	r2, [r3, #72]
 714              		.loc 6 28 27
 715 000e 3B68     		ldr	r3, [r7]
 716 0010 9B6C     		ldr	r3, [r3, #72]
 717 0012 9A42     		cmp	r2, r3
 718 0014 8CBF     		ite	hi
 719 0016 0123     		movhi	r3, #1
 720 0018 0023     		movls	r3, #0
 721 001a DBB2     		uxtb	r3, r3
  29:Cpp/scheduler.hpp ****       }
 722              		.loc 6 29 7
 723 001c 1846     		mov	r0, r3
 724 001e 0C37     		adds	r7, r7, #12
 725              	.LCFI55:
 726              		.cfi_def_cfa_offset 4
 727 0020 BD46     		mov	sp, r7
 728              	.LCFI56:
 729              		.cfi_def_cfa_register 13
 730              		@ sp needed
 731 0022 5DF8047B 		ldr	r7, [sp], #4
 732              	.LCFI57:
 733              		.cfi_restore 7
 734              		.cfi_def_cfa_offset 0
 735 0026 7047     		bx	lr
 736              		.cfi_endproc
 737              	.LFE3875:
 739              		.section	.text._ZN4otto3mcu9Scheduler4TaskD2Ev,"axG",%progbits,_ZN4otto3mcu9Scheduler4TaskD5Ev,com
 740              		.align	1
 741              		.weak	_ZN4otto3mcu9Scheduler4TaskD2Ev
 742              		.syntax unified
 743              		.thumb
 744              		.thumb_func
 745              		.fpu fpv4-sp-d16
 747              	_ZN4otto3mcu9Scheduler4TaskD2Ev:
 748              	.LFB3878:
  17:Cpp/scheduler.hpp ****       /// Function to execute
 749              		.loc 6 17 12
 750              		.cfi_startproc
 751              		@ args = 0, pretend = 0, frame = 8
ARM GAS  /tmp/ccU23Djm.s 			page 24


 752              		@ frame_needed = 1, uses_anonymous_args = 0
 753 0000 80B5     		push	{r7, lr}
 754              	.LCFI58:
 755              		.cfi_def_cfa_offset 8
 756              		.cfi_offset 7, -8
 757              		.cfi_offset 14, -4
 758 0002 82B0     		sub	sp, sp, #8
 759              	.LCFI59:
 760              		.cfi_def_cfa_offset 16
 761 0004 00AF     		add	r7, sp, #0
 762              	.LCFI60:
 763              		.cfi_def_cfa_register 7
 764 0006 7860     		str	r0, [r7, #4]
 765              	.LBB3:
  17:Cpp/scheduler.hpp ****       /// Function to execute
 766              		.loc 6 17 12
 767 0008 7B68     		ldr	r3, [r7, #4]
 768 000a 1846     		mov	r0, r3
 769 000c FFF7FEFF 		bl	_ZN19fixed_size_functionIFvvELj64EL14construct_type2EED1Ev
 770              	.LBE3:
 771 0010 7B68     		ldr	r3, [r7, #4]
 772 0012 1846     		mov	r0, r3
 773 0014 0837     		adds	r7, r7, #8
 774              	.LCFI61:
 775              		.cfi_def_cfa_offset 8
 776 0016 BD46     		mov	sp, r7
 777              	.LCFI62:
 778              		.cfi_def_cfa_register 13
 779              		@ sp needed
 780 0018 80BD     		pop	{r7, pc}
 781              		.cfi_endproc
 782              	.LFE3878:
 784              		.weak	_ZN4otto3mcu9Scheduler4TaskD1Ev
 785              		.thumb_set _ZN4otto3mcu9Scheduler4TaskD1Ev,_ZN4otto3mcu9Scheduler4TaskD2Ev
 786              		.section	.rodata
 787              		.align	2
 788              	.LC9:
 789 0000 4370702F 		.ascii	"Cpp/scheduler.hpp\000"
 789      73636865 
 789      64756C65 
 789      722E6870 
 789      7000
 790              		.section	.text._ZN4otto3mcu9Scheduler4execEv,"axG",%progbits,_ZN4otto3mcu9Scheduler4execEv,comdat
 791              		.align	1
 792              		.weak	_ZN4otto3mcu9Scheduler4execEv
 793              		.syntax unified
 794              		.thumb
 795              		.thumb_func
 796              		.fpu fpv4-sp-d16
 798              	_ZN4otto3mcu9Scheduler4execEv:
 799              	.LFB3876:
  30:Cpp/scheduler.hpp ****     };
  31:Cpp/scheduler.hpp **** 
  32:Cpp/scheduler.hpp ****     /// Execute a task if available.
  33:Cpp/scheduler.hpp ****     ///
  34:Cpp/scheduler.hpp ****     /// Returns true if a task was executed
  35:Cpp/scheduler.hpp ****     bool exec()
ARM GAS  /tmp/ccU23Djm.s 			page 25


 800              		.loc 6 35 10
 801              		.cfi_startproc
 802              		@ args = 0, pretend = 0, frame = 96
 803              		@ frame_needed = 1, uses_anonymous_args = 0
 804 0000 90B5     		push	{r4, r7, lr}
 805              	.LCFI63:
 806              		.cfi_def_cfa_offset 12
 807              		.cfi_offset 4, -12
 808              		.cfi_offset 7, -8
 809              		.cfi_offset 14, -4
 810 0002 99B0     		sub	sp, sp, #100
 811              	.LCFI64:
 812              		.cfi_def_cfa_offset 112
 813 0004 00AF     		add	r7, sp, #0
 814              	.LCFI65:
 815              		.cfi_def_cfa_register 7
 816 0006 7860     		str	r0, [r7, #4]
  36:Cpp/scheduler.hpp ****     {
  37:Cpp/scheduler.hpp ****       auto time = HAL_GetTick();
 817              		.loc 6 37 30
 818 0008 FFF7FEFF 		bl	HAL_GetTick
 819 000c F865     		str	r0, [r7, #92]
  38:Cpp/scheduler.hpp ****       if (queue_.empty()) return false;
 820              		.loc 6 38 23
 821 000e 7B68     		ldr	r3, [r7, #4]
 822 0010 1846     		mov	r0, r3
 823 0012 FFF7FEFF 		bl	_ZNK4otto4util12local_vectorINS_3mcu9Scheduler4TaskELj1024EE5emptyEv
 824 0016 0346     		mov	r3, r0
 825              		.loc 6 38 7
 826 0018 002B     		cmp	r3, #0
 827 001a 01D0     		beq	.L36
 828              		.loc 6 38 34 discriminator 1
 829 001c 0024     		movs	r4, #0
 830 001e 3DE0     		b	.L37
 831              	.L36:
 832              	.LBB4:
  39:Cpp/scheduler.hpp ****       if (queue_.front().time <= time) {
 833              		.loc 6 39 24
 834 0020 7B68     		ldr	r3, [r7, #4]
 835 0022 1846     		mov	r0, r3
 836 0024 FFF7FEFF 		bl	_ZN4otto4util12local_vectorINS_3mcu9Scheduler4TaskELj1024EE5frontEv
 837 0028 0346     		mov	r3, r0
 838              		.loc 6 39 26
 839 002a 9B6C     		ldr	r3, [r3, #72]
 840              		.loc 6 39 31
 841 002c FA6D     		ldr	r2, [r7, #92]
 842 002e 9A42     		cmp	r2, r3
 843 0030 2CBF     		ite	cs
 844 0032 0123     		movcs	r3, #1
 845 0034 0023     		movcc	r3, #0
 846 0036 DBB2     		uxtb	r3, r3
 847              		.loc 6 39 7
 848 0038 002B     		cmp	r3, #0
 849 003a 2ED0     		beq	.L38
 850              	.LBB5:
  40:Cpp/scheduler.hpp ****         auto task = pop();
 851              		.loc 6 40 25
ARM GAS  /tmp/ccU23Djm.s 			page 26


 852 003c 07F10803 		add	r3, r7, #8
 853 0040 7968     		ldr	r1, [r7, #4]
 854 0042 1846     		mov	r0, r3
 855 0044 FFF7FEFF 		bl	_ZN4otto3mcu9Scheduler3popEv
  41:Cpp/scheduler.hpp ****         assert_param(task.func);
 856              		.loc 6 41 9
 857 0048 07F10803 		add	r3, r7, #8
 858 004c 1846     		mov	r0, r3
 859 004e FFF7FEFF 		bl	_ZNK19fixed_size_functionIFvvELj64EL14construct_type2EEcvbEv
 860 0052 0346     		mov	r3, r0
 861 0054 002B     		cmp	r3, #0
 862 0056 03D1     		bne	.L39
 863              		.loc 6 41 9 is_stmt 0 discriminator 1
 864 0058 2921     		movs	r1, #41
 865 005a 1348     		ldr	r0, .L41
 866 005c FFF7FEFF 		bl	assert_failed
 867              	.L39:
  42:Cpp/scheduler.hpp ****         task.func();
 868              		.loc 6 42 18 is_stmt 1
 869 0060 07F10803 		add	r3, r7, #8
 870 0064 1846     		mov	r0, r3
 871 0066 FFF7FEFF 		bl	_ZN19fixed_size_functionIFvvELj64EL14construct_type2EEclEv
  43:Cpp/scheduler.hpp ****         if (task.repeat > 0) {
 872              		.loc 6 43 18
 873 006a 7B6D     		ldr	r3, [r7, #84]
 874              		.loc 6 43 9
 875 006c 002B     		cmp	r3, #0
 876 006e 0DD0     		beq	.L40
  44:Cpp/scheduler.hpp ****           task.time = time + task.repeat;
 877              		.loc 6 44 35
 878 0070 7A6D     		ldr	r2, [r7, #84]
 879              		.loc 6 44 28
 880 0072 FB6D     		ldr	r3, [r7, #92]
 881 0074 1344     		add	r3, r3, r2
 882              		.loc 6 44 21
 883 0076 3B65     		str	r3, [r7, #80]
  45:Cpp/scheduler.hpp ****           push(std::move(task));
 884              		.loc 6 45 30
 885 0078 07F10803 		add	r3, r7, #8
 886 007c 1846     		mov	r0, r3
 887 007e FFF7FEFF 		bl	_ZSt4moveIRN4otto3mcu9Scheduler4TaskEEONSt16remove_referenceIT_E4typeEOS6_
 888 0082 0346     		mov	r3, r0
 889              		.loc 6 45 15
 890 0084 1946     		mov	r1, r3
 891 0086 7868     		ldr	r0, [r7, #4]
 892 0088 FFF7FEFF 		bl	_ZN4otto3mcu9Scheduler4pushEONS1_4TaskE
 893              	.L40:
  46:Cpp/scheduler.hpp ****         }
  47:Cpp/scheduler.hpp ****         return true;
 894              		.loc 6 47 16
 895 008c 0124     		movs	r4, #1
  40:Cpp/scheduler.hpp ****         assert_param(task.func);
 896              		.loc 6 40 25
 897 008e 07F10803 		add	r3, r7, #8
 898 0092 1846     		mov	r0, r3
 899 0094 FFF7FEFF 		bl	_ZN4otto3mcu9Scheduler4TaskD1Ev
 900 0098 00E0     		b	.L37
ARM GAS  /tmp/ccU23Djm.s 			page 27


 901              	.L38:
 902              	.LBE5:
 903              	.LBE4:
  48:Cpp/scheduler.hpp ****       }
  49:Cpp/scheduler.hpp ****       return false;
 904              		.loc 6 49 14
 905 009a 0024     		movs	r4, #0
 906              	.L37:
 907 009c 2346     		mov	r3, r4
  50:Cpp/scheduler.hpp ****     }
 908              		.loc 6 50 5 discriminator 1
 909 009e 1846     		mov	r0, r3
 910 00a0 6437     		adds	r7, r7, #100
 911              	.LCFI66:
 912              		.cfi_def_cfa_offset 12
 913 00a2 BD46     		mov	sp, r7
 914              	.LCFI67:
 915              		.cfi_def_cfa_register 13
 916              		@ sp needed
 917 00a4 90BD     		pop	{r4, r7, pc}
 918              	.L42:
 919 00a6 00BF     		.align	2
 920              	.L41:
 921 00a8 00000000 		.word	.LC9
 922              		.cfi_endproc
 923              	.LFE3876:
 925              		.section	.text._ZN4otto3mcu9Scheduler8scheduleE19fixed_size_functionIFvvELj64EL14construct_type2EE
 926              		.align	1
 927              		.weak	_ZN4otto3mcu9Scheduler8scheduleE19fixed_size_functionIFvvELj64EL14construct_type2EEmm
 928              		.syntax unified
 929              		.thumb
 930              		.thumb_func
 931              		.fpu fpv4-sp-d16
 933              	_ZN4otto3mcu9Scheduler8scheduleE19fixed_size_functionIFvvELj64EL14construct_type2EEmm:
 934              	.LFB3880:
  51:Cpp/scheduler.hpp **** 
  52:Cpp/scheduler.hpp ****     /// Schedule function `f` to be run at least `delay` ms from now, repeating each `repeat` ms.
  53:Cpp/scheduler.hpp ****     /// 
  54:Cpp/scheduler.hpp ****     /// Repeats do not accumulate, i.e, after each execution of `f`, it simply reschedules with a d
  55:Cpp/scheduler.hpp ****     /// `repeat`.
  56:Cpp/scheduler.hpp ****     /// 
  57:Cpp/scheduler.hpp ****     /// `repeat == 0` means no repetition
  58:Cpp/scheduler.hpp ****     void schedule(Function f, std::uint32_t delay = 0, std::uint32_t repeat = 0)
 935              		.loc 6 58 10
 936              		.cfi_startproc
 937              		@ args = 0, pretend = 0, frame = 96
 938              		@ frame_needed = 1, uses_anonymous_args = 0
 939 0000 80B5     		push	{r7, lr}
 940              	.LCFI68:
 941              		.cfi_def_cfa_offset 8
 942              		.cfi_offset 7, -8
 943              		.cfi_offset 14, -4
 944 0002 98B0     		sub	sp, sp, #96
 945              	.LCFI69:
 946              		.cfi_def_cfa_offset 104
 947 0004 00AF     		add	r7, sp, #0
 948              	.LCFI70:
ARM GAS  /tmp/ccU23Djm.s 			page 28


 949              		.cfi_def_cfa_register 7
 950 0006 F860     		str	r0, [r7, #12]
 951 0008 B960     		str	r1, [r7, #8]
 952 000a 7A60     		str	r2, [r7, #4]
 953 000c 3B60     		str	r3, [r7]
  59:Cpp/scheduler.hpp ****     {
  60:Cpp/scheduler.hpp ****       push({std::move(f), HAL_GetTick() + delay, repeat});
 954              		.loc 6 60 24
 955 000e B868     		ldr	r0, [r7, #8]
 956 0010 FFF7FEFF 		bl	_ZSt4moveIR19fixed_size_functionIFvvELj64EL14construct_type2EEEONSt16remove_referenceIT_E4typeE
 957 0014 0246     		mov	r2, r0
 958              		.loc 6 60 11
 959 0016 07F11003 		add	r3, r7, #16
 960 001a 1146     		mov	r1, r2
 961 001c 1846     		mov	r0, r3
 962 001e FFF7FEFF 		bl	_ZN19fixed_size_functionIFvvELj64EL14construct_type2EEC1EOS2_
 963              		.loc 6 60 38
 964 0022 FFF7FEFF 		bl	HAL_GetTick
 965 0026 0246     		mov	r2, r0
 966              		.loc 6 60 41
 967 0028 7B68     		ldr	r3, [r7, #4]
 968 002a 1344     		add	r3, r3, r2
 969              		.loc 6 60 11
 970 002c BB65     		str	r3, [r7, #88]
 971 002e 3B68     		ldr	r3, [r7]
 972 0030 FB65     		str	r3, [r7, #92]
 973 0032 07F11003 		add	r3, r7, #16
 974 0036 1946     		mov	r1, r3
 975 0038 F868     		ldr	r0, [r7, #12]
 976 003a FFF7FEFF 		bl	_ZN4otto3mcu9Scheduler4pushEONS1_4TaskE
 977              		.loc 6 60 57
 978 003e 07F11003 		add	r3, r7, #16
 979 0042 1846     		mov	r0, r3
 980 0044 FFF7FEFF 		bl	_ZN4otto3mcu9Scheduler4TaskD1Ev
  61:Cpp/scheduler.hpp ****     }
 981              		.loc 6 61 5
 982 0048 00BF     		nop
 983 004a 6037     		adds	r7, r7, #96
 984              	.LCFI71:
 985              		.cfi_def_cfa_offset 8
 986 004c BD46     		mov	sp, r7
 987              	.LCFI72:
 988              		.cfi_def_cfa_register 13
 989              		@ sp needed
 990 004e 80BD     		pop	{r7, pc}
 991              		.cfi_endproc
 992              	.LFE3880:
 994              		.section	.text._ZZN4otto3mcu9Scheduler20schedule_cond_repeatE19fixed_size_functionIFmvELj32EL14con
 995              		.align	1
 996              		.weak	_ZZN4otto3mcu9Scheduler20schedule_cond_repeatE19fixed_size_functionIFmvELj32EL14construct_ty
 997              		.syntax unified
 998              		.thumb
 999              		.thumb_func
 1000              		.fpu fpv4-sp-d16
 1002              	_ZZN4otto3mcu9Scheduler20schedule_cond_repeatE19fixed_size_functionIFmvELj32EL14construct_type2EEmE
 1003              	.LFB3882:
  62:Cpp/scheduler.hpp **** 
ARM GAS  /tmp/ccU23Djm.s 			page 29


  63:Cpp/scheduler.hpp ****     void schedule_cond_repeat(CondRepeatFunction f, std::uint32_t delay = 0) {
  64:Cpp/scheduler.hpp ****       schedule([this, ff = std::move(f)] () mutable {
 1004              		.loc 6 64 16
 1005              		.cfi_startproc
 1006              		@ args = 0, pretend = 0, frame = 56
 1007              		@ frame_needed = 1, uses_anonymous_args = 0
 1008 0000 90B5     		push	{r4, r7, lr}
 1009              	.LCFI73:
 1010              		.cfi_def_cfa_offset 12
 1011              		.cfi_offset 4, -12
 1012              		.cfi_offset 7, -8
 1013              		.cfi_offset 14, -4
 1014 0002 8FB0     		sub	sp, sp, #60
 1015              	.LCFI74:
 1016              		.cfi_def_cfa_offset 72
 1017 0004 00AF     		add	r7, sp, #0
 1018              	.LCFI75:
 1019              		.cfi_def_cfa_register 7
 1020 0006 7860     		str	r0, [r7, #4]
 1021              	.LBB6:
  65:Cpp/scheduler.hpp ****         auto repeat = ff();
 1022              		.loc 6 65 25
 1023 0008 7B68     		ldr	r3, [r7, #4]
 1024 000a 0833     		adds	r3, r3, #8
 1025 000c 1846     		mov	r0, r3
 1026 000e FFF7FEFF 		bl	_ZN19fixed_size_functionIFmvELj32EL14construct_type2EEclEv
 1027 0012 7863     		str	r0, [r7, #52]
  66:Cpp/scheduler.hpp ****         if (repeat) {
 1028              		.loc 6 66 9
 1029 0014 7B6B     		ldr	r3, [r7, #52]
 1030 0016 002B     		cmp	r3, #0
 1031 0018 19D0     		beq	.L46
  64:Cpp/scheduler.hpp ****         auto repeat = ff();
 1032              		.loc 6 64 45
 1033 001a 7B68     		ldr	r3, [r7, #4]
 1034 001c 1C68     		ldr	r4, [r3]
  67:Cpp/scheduler.hpp ****           schedule_cond_repeat(std::move(ff), repeat);
 1035              		.loc 6 67 42
 1036 001e 7B68     		ldr	r3, [r7, #4]
 1037 0020 0833     		adds	r3, r3, #8
 1038              		.loc 6 67 44
 1039 0022 1846     		mov	r0, r3
 1040 0024 FFF7FEFF 		bl	_ZSt4moveIR19fixed_size_functionIFmvELj32EL14construct_type2EEEONSt16remove_referenceIT_E4typeE
 1041 0028 0246     		mov	r2, r0
 1042              		.loc 6 67 31
 1043 002a 07F10803 		add	r3, r7, #8
 1044 002e 1146     		mov	r1, r2
 1045 0030 1846     		mov	r0, r3
 1046 0032 FFF7FEFF 		bl	_ZN19fixed_size_functionIFmvELj32EL14construct_type2EEC1EOS2_
 1047 0036 07F10803 		add	r3, r7, #8
 1048 003a 7A6B     		ldr	r2, [r7, #52]
 1049 003c 1946     		mov	r1, r3
 1050 003e 2046     		mov	r0, r4
 1051 0040 FFF7FEFF 		bl	_ZN4otto3mcu9Scheduler20schedule_cond_repeatE19fixed_size_functionIFmvELj32EL14construct_type2E
 1052              		.loc 6 67 53
 1053 0044 07F10803 		add	r3, r7, #8
 1054 0048 1846     		mov	r0, r3
ARM GAS  /tmp/ccU23Djm.s 			page 30


 1055 004a FFF7FEFF 		bl	_ZN19fixed_size_functionIFmvELj32EL14construct_type2EED1Ev
 1056              	.L46:
 1057              	.LBE6:
  68:Cpp/scheduler.hpp ****         }
  69:Cpp/scheduler.hpp ****       }, delay);
 1058              		.loc 6 69 7
 1059 004e 00BF     		nop
 1060 0050 3C37     		adds	r7, r7, #60
 1061              	.LCFI76:
 1062              		.cfi_def_cfa_offset 12
 1063 0052 BD46     		mov	sp, r7
 1064              	.LCFI77:
 1065              		.cfi_def_cfa_register 13
 1066              		@ sp needed
 1067 0054 90BD     		pop	{r4, r7, pc}
 1068              		.cfi_endproc
 1069              	.LFE3882:
 1071              		.section	.text._ZZN4otto3mcu9Scheduler20schedule_cond_repeatE19fixed_size_functionIFmvELj32EL14con
 1072              		.align	1
 1073              		.weak	_ZZN4otto3mcu9Scheduler20schedule_cond_repeatE19fixed_size_functionIFmvELj32EL14construct_ty
 1074              		.syntax unified
 1075              		.thumb
 1076              		.thumb_func
 1077              		.fpu fpv4-sp-d16
 1079              	_ZZN4otto3mcu9Scheduler20schedule_cond_repeatE19fixed_size_functionIFmvELj32EL14construct_type2EEmE
 1080              	.LFB3884:
  64:Cpp/scheduler.hpp ****         auto repeat = ff();
 1081              		.loc 6 64 40
 1082              		.cfi_startproc
 1083              		@ args = 0, pretend = 0, frame = 8
 1084              		@ frame_needed = 1, uses_anonymous_args = 0
 1085 0000 80B5     		push	{r7, lr}
 1086              	.LCFI78:
 1087              		.cfi_def_cfa_offset 8
 1088              		.cfi_offset 7, -8
 1089              		.cfi_offset 14, -4
 1090 0002 82B0     		sub	sp, sp, #8
 1091              	.LCFI79:
 1092              		.cfi_def_cfa_offset 16
 1093 0004 00AF     		add	r7, sp, #0
 1094              	.LCFI80:
 1095              		.cfi_def_cfa_register 7
 1096 0006 7860     		str	r0, [r7, #4]
 1097              	.LBB7:
  64:Cpp/scheduler.hpp ****         auto repeat = ff();
 1098              		.loc 6 64 40
 1099 0008 7B68     		ldr	r3, [r7, #4]
 1100 000a 0833     		adds	r3, r3, #8
 1101 000c 1846     		mov	r0, r3
 1102 000e FFF7FEFF 		bl	_ZN19fixed_size_functionIFmvELj32EL14construct_type2EED1Ev
 1103              	.LBE7:
 1104 0012 7B68     		ldr	r3, [r7, #4]
 1105 0014 1846     		mov	r0, r3
 1106 0016 0837     		adds	r7, r7, #8
 1107              	.LCFI81:
 1108              		.cfi_def_cfa_offset 8
 1109 0018 BD46     		mov	sp, r7
ARM GAS  /tmp/ccU23Djm.s 			page 31


 1110              	.LCFI82:
 1111              		.cfi_def_cfa_register 13
 1112              		@ sp needed
 1113 001a 80BD     		pop	{r7, pc}
 1114              		.cfi_endproc
 1115              	.LFE3884:
 1117              		.weak	_ZZN4otto3mcu9Scheduler20schedule_cond_repeatE19fixed_size_functionIFmvELj32EL14construct_ty
 1118              		.thumb_set _ZZN4otto3mcu9Scheduler20schedule_cond_repeatE19fixed_size_functionIFmvELj32EL14constru
 1119              		.section	.text._ZN4otto3mcu9Scheduler20schedule_cond_repeatE19fixed_size_functionIFmvELj32EL14cons
 1120              		.align	1
 1121              		.weak	_ZN4otto3mcu9Scheduler20schedule_cond_repeatE19fixed_size_functionIFmvELj32EL14construct_typ
 1122              		.syntax unified
 1123              		.thumb
 1124              		.thumb_func
 1125              		.fpu fpv4-sp-d16
 1127              	_ZN4otto3mcu9Scheduler20schedule_cond_repeatE19fixed_size_functionIFmvELj32EL14construct_type2EEm:
 1128              	.LFB3881:
  63:Cpp/scheduler.hpp ****       schedule([this, ff = std::move(f)] () mutable {
 1129              		.loc 6 63 10
 1130              		.cfi_startproc
 1131              		@ args = 0, pretend = 0, frame = 136
 1132              		@ frame_needed = 1, uses_anonymous_args = 0
 1133 0000 80B5     		push	{r7, lr}
 1134              	.LCFI83:
 1135              		.cfi_def_cfa_offset 8
 1136              		.cfi_offset 7, -8
 1137              		.cfi_offset 14, -4
 1138 0002 A2B0     		sub	sp, sp, #136
 1139              	.LCFI84:
 1140              		.cfi_def_cfa_offset 144
 1141 0004 00AF     		add	r7, sp, #0
 1142              	.LCFI85:
 1143              		.cfi_def_cfa_register 7
 1144 0006 F860     		str	r0, [r7, #12]
 1145 0008 B960     		str	r1, [r7, #8]
 1146 000a 7A60     		str	r2, [r7, #4]
  64:Cpp/scheduler.hpp ****         auto repeat = ff();
 1147              		.loc 6 64 15
 1148 000c FB68     		ldr	r3, [r7, #12]
 1149 000e BB65     		str	r3, [r7, #88]
  64:Cpp/scheduler.hpp ****         auto repeat = ff();
 1150              		.loc 6 64 39
 1151 0010 B868     		ldr	r0, [r7, #8]
 1152 0012 FFF7FEFF 		bl	_ZSt4moveIR19fixed_size_functionIFmvELj32EL14construct_type2EEEONSt16remove_referenceIT_E4typeE
 1153 0016 0246     		mov	r2, r0
  64:Cpp/scheduler.hpp ****         auto repeat = ff();
 1154              		.loc 6 64 15
 1155 0018 07F15803 		add	r3, r7, #88
 1156 001c 0833     		adds	r3, r3, #8
 1157 001e 1146     		mov	r1, r2
 1158 0020 1846     		mov	r0, r3
 1159 0022 FFF7FEFF 		bl	_ZN19fixed_size_functionIFmvELj32EL14construct_type2EEC1EOS2_
 1160 0026 07F15802 		add	r2, r7, #88
 1161 002a 07F11003 		add	r3, r7, #16
 1162 002e 1146     		mov	r1, r2
 1163 0030 1846     		mov	r0, r3
 1164 0032 FFF7FEFF 		bl	_ZN19fixed_size_functionIFvvELj64EL14construct_type2EEC1IZN4otto3mcu9Scheduler20schedule_cond_r
ARM GAS  /tmp/ccU23Djm.s 			page 32


 1165 0036 07F11001 		add	r1, r7, #16
 1166 003a 0023     		movs	r3, #0
 1167 003c 7A68     		ldr	r2, [r7, #4]
 1168 003e F868     		ldr	r0, [r7, #12]
 1169 0040 FFF7FEFF 		bl	_ZN4otto3mcu9Scheduler8scheduleE19fixed_size_functionIFvvELj64EL14construct_type2EEmm
 1170              		.loc 6 69 15
 1171 0044 07F11003 		add	r3, r7, #16
 1172 0048 1846     		mov	r0, r3
 1173 004a FFF7FEFF 		bl	_ZN19fixed_size_functionIFvvELj64EL14construct_type2EED1Ev
  64:Cpp/scheduler.hpp ****         auto repeat = ff();
 1174              		.loc 6 64 16
 1175 004e 07F15803 		add	r3, r7, #88
 1176 0052 1846     		mov	r0, r3
 1177 0054 FFF7FEFF 		bl	_ZZN4otto3mcu9Scheduler20schedule_cond_repeatE19fixed_size_functionIFmvELj32EL14construct_type2
  70:Cpp/scheduler.hpp ****     }
 1178              		.loc 6 70 5
 1179 0058 00BF     		nop
 1180 005a 8837     		adds	r7, r7, #136
 1181              	.LCFI86:
 1182              		.cfi_def_cfa_offset 8
 1183 005c BD46     		mov	sp, r7
 1184              	.LCFI87:
 1185              		.cfi_def_cfa_register 13
 1186              		@ sp needed
 1187 005e 80BD     		pop	{r7, pc}
 1188              		.cfi_endproc
 1189              	.LFE3881:
 1191              		.section	.text._ZN4otto4util12local_vectorINS_3mcu9Scheduler4TaskELj1024EE5beginEv,"axG",%progbits
 1192              		.align	1
 1193              		.weak	_ZN4otto4util12local_vectorINS_3mcu9Scheduler4TaskELj1024EE5beginEv
 1194              		.syntax unified
 1195              		.thumb
 1196              		.thumb_func
 1197              		.fpu fpv4-sp-d16
 1199              	_ZN4otto4util12local_vectorINS_3mcu9Scheduler4TaskELj1024EE5beginEv:
 1200              	.LFB3887:
  46:Cpp/local_vector.hpp **** 
  47:Cpp/local_vector.hpp ****     constexpr std::size_t size() const noexcept
  48:Cpp/local_vector.hpp ****     {
  49:Cpp/local_vector.hpp ****       return _size;
  50:Cpp/local_vector.hpp ****     }
  51:Cpp/local_vector.hpp **** 
  52:Cpp/local_vector.hpp ****     constexpr bool empty() const noexcept
  53:Cpp/local_vector.hpp ****     {
  54:Cpp/local_vector.hpp ****       return size() == 0;
  55:Cpp/local_vector.hpp ****     }
  56:Cpp/local_vector.hpp **** 
  57:Cpp/local_vector.hpp ****     constexpr bool full() const noexcept
  58:Cpp/local_vector.hpp ****     {
  59:Cpp/local_vector.hpp ****       return size() == capacity();
  60:Cpp/local_vector.hpp ****     }
  61:Cpp/local_vector.hpp **** 
  62:Cpp/local_vector.hpp ****     // Iterators
  63:Cpp/local_vector.hpp **** 
  64:Cpp/local_vector.hpp ****     constexpr auto begin() noexcept
 1201              		.loc 5 64 20
 1202              		.cfi_startproc
ARM GAS  /tmp/ccU23Djm.s 			page 33


 1203              		@ args = 0, pretend = 0, frame = 8
 1204              		@ frame_needed = 1, uses_anonymous_args = 0
 1205 0000 80B5     		push	{r7, lr}
 1206              	.LCFI88:
 1207              		.cfi_def_cfa_offset 8
 1208              		.cfi_offset 7, -8
 1209              		.cfi_offset 14, -4
 1210 0002 82B0     		sub	sp, sp, #8
 1211              	.LCFI89:
 1212              		.cfi_def_cfa_offset 16
 1213 0004 00AF     		add	r7, sp, #0
 1214              	.LCFI90:
 1215              		.cfi_def_cfa_register 7
 1216 0006 7860     		str	r0, [r7, #4]
  65:Cpp/local_vector.hpp ****     {
  66:Cpp/local_vector.hpp ****       return data();
 1217              		.loc 5 66 19
 1218 0008 7868     		ldr	r0, [r7, #4]
 1219 000a FFF7FEFF 		bl	_ZN4otto4util12local_vectorINS_3mcu9Scheduler4TaskELj1024EE4dataEv
 1220 000e 0346     		mov	r3, r0
  67:Cpp/local_vector.hpp ****     }
 1221              		.loc 5 67 5
 1222 0010 1846     		mov	r0, r3
 1223 0012 0837     		adds	r7, r7, #8
 1224              	.LCFI91:
 1225              		.cfi_def_cfa_offset 8
 1226 0014 BD46     		mov	sp, r7
 1227              	.LCFI92:
 1228              		.cfi_def_cfa_register 13
 1229              		@ sp needed
 1230 0016 80BD     		pop	{r7, pc}
 1231              		.cfi_endproc
 1232              	.LFE3887:
 1234              		.section	.text._ZN4otto4util12local_vectorINS_3mcu9Scheduler4TaskELj1024EE3endEv,"axG",%progbits,_
 1235              		.align	1
 1236              		.weak	_ZN4otto4util12local_vectorINS_3mcu9Scheduler4TaskELj1024EE3endEv
 1237              		.syntax unified
 1238              		.thumb
 1239              		.thumb_func
 1240              		.fpu fpv4-sp-d16
 1242              	_ZN4otto4util12local_vectorINS_3mcu9Scheduler4TaskELj1024EE3endEv:
 1243              	.LFB3888:
  68:Cpp/local_vector.hpp **** 
  69:Cpp/local_vector.hpp ****     constexpr auto begin() const noexcept
  70:Cpp/local_vector.hpp ****     {
  71:Cpp/local_vector.hpp ****       return data();
  72:Cpp/local_vector.hpp ****     }
  73:Cpp/local_vector.hpp **** 
  74:Cpp/local_vector.hpp ****     constexpr auto end() noexcept
 1244              		.loc 5 74 20
 1245              		.cfi_startproc
 1246              		@ args = 0, pretend = 0, frame = 8
 1247              		@ frame_needed = 1, uses_anonymous_args = 0
 1248 0000 80B5     		push	{r7, lr}
 1249              	.LCFI93:
 1250              		.cfi_def_cfa_offset 8
 1251              		.cfi_offset 7, -8
ARM GAS  /tmp/ccU23Djm.s 			page 34


 1252              		.cfi_offset 14, -4
 1253 0002 82B0     		sub	sp, sp, #8
 1254              	.LCFI94:
 1255              		.cfi_def_cfa_offset 16
 1256 0004 00AF     		add	r7, sp, #0
 1257              	.LCFI95:
 1258              		.cfi_def_cfa_register 7
 1259 0006 7860     		str	r0, [r7, #4]
  75:Cpp/local_vector.hpp ****     {
  76:Cpp/local_vector.hpp ****       return data() + _size;
 1260              		.loc 5 76 21
 1261 0008 7868     		ldr	r0, [r7, #4]
 1262 000a FFF7FEFF 		bl	_ZN4otto4util12local_vectorINS_3mcu9Scheduler4TaskELj1024EE4dataEv
 1263 000e 0146     		mov	r1, r0
 1264              		.loc 5 76 23
 1265 0010 7B68     		ldr	r3, [r7, #4]
 1266 0012 03F5A033 		add	r3, r3, #81920
 1267 0016 1A68     		ldr	r2, [r3]
 1268              		.loc 5 76 21
 1269 0018 1346     		mov	r3, r2
 1270 001a 9B00     		lsls	r3, r3, #2
 1271 001c 1344     		add	r3, r3, r2
 1272 001e 1B01     		lsls	r3, r3, #4
 1273              		.loc 5 76 23
 1274 0020 0B44     		add	r3, r3, r1
  77:Cpp/local_vector.hpp ****     }
 1275              		.loc 5 77 5
 1276 0022 1846     		mov	r0, r3
 1277 0024 0837     		adds	r7, r7, #8
 1278              	.LCFI96:
 1279              		.cfi_def_cfa_offset 8
 1280 0026 BD46     		mov	sp, r7
 1281              	.LCFI97:
 1282              		.cfi_def_cfa_register 13
 1283              		@ sp needed
 1284 0028 80BD     		pop	{r7, pc}
 1285              		.cfi_endproc
 1286              	.LFE3888:
 1288              		.section	.text._ZN4otto3mcu9Scheduler4TaskC2EOS2_,"axG",%progbits,_ZN4otto3mcu9Scheduler4TaskC5EOS
 1289              		.align	1
 1290              		.weak	_ZN4otto3mcu9Scheduler4TaskC2EOS2_
 1291              		.syntax unified
 1292              		.thumb
 1293              		.thumb_func
 1294              		.fpu fpv4-sp-d16
 1296              	_ZN4otto3mcu9Scheduler4TaskC2EOS2_:
 1297              	.LFB3890:
  17:Cpp/scheduler.hpp ****       /// Function to execute
 1298              		.loc 6 17 12
 1299              		.cfi_startproc
 1300              		@ args = 0, pretend = 0, frame = 8
 1301              		@ frame_needed = 1, uses_anonymous_args = 0
 1302 0000 80B5     		push	{r7, lr}
 1303              	.LCFI98:
 1304              		.cfi_def_cfa_offset 8
 1305              		.cfi_offset 7, -8
 1306              		.cfi_offset 14, -4
ARM GAS  /tmp/ccU23Djm.s 			page 35


 1307 0002 82B0     		sub	sp, sp, #8
 1308              	.LCFI99:
 1309              		.cfi_def_cfa_offset 16
 1310 0004 00AF     		add	r7, sp, #0
 1311              	.LCFI100:
 1312              		.cfi_def_cfa_register 7
 1313 0006 7860     		str	r0, [r7, #4]
 1314 0008 3960     		str	r1, [r7]
 1315              	.LBB8:
  17:Cpp/scheduler.hpp ****       /// Function to execute
 1316              		.loc 6 17 12
 1317 000a 7B68     		ldr	r3, [r7, #4]
 1318 000c 3A68     		ldr	r2, [r7]
 1319 000e 1146     		mov	r1, r2
 1320 0010 1846     		mov	r0, r3
 1321 0012 FFF7FEFF 		bl	_ZN19fixed_size_functionIFvvELj64EL14construct_type2EEC1EOS2_
 1322 0016 3B68     		ldr	r3, [r7]
 1323 0018 9A6C     		ldr	r2, [r3, #72]
 1324 001a 7B68     		ldr	r3, [r7, #4]
 1325 001c 9A64     		str	r2, [r3, #72]
 1326 001e 3B68     		ldr	r3, [r7]
 1327 0020 DA6C     		ldr	r2, [r3, #76]
 1328 0022 7B68     		ldr	r3, [r7, #4]
 1329 0024 DA64     		str	r2, [r3, #76]
 1330              	.LBE8:
 1331 0026 7B68     		ldr	r3, [r7, #4]
 1332 0028 1846     		mov	r0, r3
 1333 002a 0837     		adds	r7, r7, #8
 1334              	.LCFI101:
 1335              		.cfi_def_cfa_offset 8
 1336 002c BD46     		mov	sp, r7
 1337              	.LCFI102:
 1338              		.cfi_def_cfa_register 13
 1339              		@ sp needed
 1340 002e 80BD     		pop	{r7, pc}
 1341              		.cfi_endproc
 1342              	.LFE3890:
 1344              		.weak	_ZN4otto3mcu9Scheduler4TaskC1EOS2_
 1345              		.thumb_set _ZN4otto3mcu9Scheduler4TaskC1EOS2_,_ZN4otto3mcu9Scheduler4TaskC2EOS2_
 1346              		.section	.text._ZNK4otto4util12local_vectorINS_3mcu9Scheduler4TaskELj1024EE4sizeEv,"axG",%progbits
 1347              		.align	1
 1348              		.weak	_ZNK4otto4util12local_vectorINS_3mcu9Scheduler4TaskELj1024EE4sizeEv
 1349              		.syntax unified
 1350              		.thumb
 1351              		.thumb_func
 1352              		.fpu fpv4-sp-d16
 1354              	_ZNK4otto4util12local_vectorINS_3mcu9Scheduler4TaskELj1024EE4sizeEv:
 1355              	.LFB3894:
  47:Cpp/local_vector.hpp ****     {
 1356              		.loc 5 47 27
 1357              		.cfi_startproc
 1358              		@ args = 0, pretend = 0, frame = 8
 1359              		@ frame_needed = 1, uses_anonymous_args = 0
 1360              		@ link register save eliminated.
 1361 0000 80B4     		push	{r7}
 1362              	.LCFI103:
 1363              		.cfi_def_cfa_offset 4
ARM GAS  /tmp/ccU23Djm.s 			page 36


 1364              		.cfi_offset 7, -4
 1365 0002 83B0     		sub	sp, sp, #12
 1366              	.LCFI104:
 1367              		.cfi_def_cfa_offset 16
 1368 0004 00AF     		add	r7, sp, #0
 1369              	.LCFI105:
 1370              		.cfi_def_cfa_register 7
 1371 0006 7860     		str	r0, [r7, #4]
  49:Cpp/local_vector.hpp ****     }
 1372              		.loc 5 49 14
 1373 0008 7B68     		ldr	r3, [r7, #4]
 1374 000a 03F5A033 		add	r3, r3, #81920
 1375 000e 1B68     		ldr	r3, [r3]
  50:Cpp/local_vector.hpp **** 
 1376              		.loc 5 50 5
 1377 0010 1846     		mov	r0, r3
 1378 0012 0C37     		adds	r7, r7, #12
 1379              	.LCFI106:
 1380              		.cfi_def_cfa_offset 4
 1381 0014 BD46     		mov	sp, r7
 1382              	.LCFI107:
 1383              		.cfi_def_cfa_register 13
 1384              		@ sp needed
 1385 0016 5DF8047B 		ldr	r7, [sp], #4
 1386              	.LCFI108:
 1387              		.cfi_restore 7
 1388              		.cfi_def_cfa_offset 0
 1389 001a 7047     		bx	lr
 1390              		.cfi_endproc
 1391              	.LFE3894:
 1393              		.section	.text._ZNK4otto4util12local_vectorINS_3mcu9Scheduler4TaskELj1024EE5emptyEv,"axG",%progbit
 1394              		.align	1
 1395              		.weak	_ZNK4otto4util12local_vectorINS_3mcu9Scheduler4TaskELj1024EE5emptyEv
 1396              		.syntax unified
 1397              		.thumb
 1398              		.thumb_func
 1399              		.fpu fpv4-sp-d16
 1401              	_ZNK4otto4util12local_vectorINS_3mcu9Scheduler4TaskELj1024EE5emptyEv:
 1402              	.LFB3893:
  52:Cpp/local_vector.hpp ****     {
 1403              		.loc 5 52 20
 1404              		.cfi_startproc
 1405              		@ args = 0, pretend = 0, frame = 8
 1406              		@ frame_needed = 1, uses_anonymous_args = 0
 1407 0000 80B5     		push	{r7, lr}
 1408              	.LCFI109:
 1409              		.cfi_def_cfa_offset 8
 1410              		.cfi_offset 7, -8
 1411              		.cfi_offset 14, -4
 1412 0002 82B0     		sub	sp, sp, #8
 1413              	.LCFI110:
 1414              		.cfi_def_cfa_offset 16
 1415 0004 00AF     		add	r7, sp, #0
 1416              	.LCFI111:
 1417              		.cfi_def_cfa_register 7
 1418 0006 7860     		str	r0, [r7, #4]
  54:Cpp/local_vector.hpp ****     }
ARM GAS  /tmp/ccU23Djm.s 			page 37


 1419              		.loc 5 54 21
 1420 0008 7868     		ldr	r0, [r7, #4]
 1421 000a FFF7FEFF 		bl	_ZNK4otto4util12local_vectorINS_3mcu9Scheduler4TaskELj1024EE4sizeEv
 1422 000e 0346     		mov	r3, r0
  54:Cpp/local_vector.hpp ****     }
 1423              		.loc 5 54 24
 1424 0010 002B     		cmp	r3, #0
 1425 0012 0CBF     		ite	eq
 1426 0014 0123     		moveq	r3, #1
 1427 0016 0023     		movne	r3, #0
 1428 0018 DBB2     		uxtb	r3, r3
  55:Cpp/local_vector.hpp **** 
 1429              		.loc 5 55 5
 1430 001a 1846     		mov	r0, r3
 1431 001c 0837     		adds	r7, r7, #8
 1432              	.LCFI112:
 1433              		.cfi_def_cfa_offset 8
 1434 001e BD46     		mov	sp, r7
 1435              	.LCFI113:
 1436              		.cfi_def_cfa_register 13
 1437              		@ sp needed
 1438 0020 80BD     		pop	{r7, pc}
 1439              		.cfi_endproc
 1440              	.LFE3893:
 1442              		.section	.text._ZN2tl6detail24expected_operations_baseIvN4otto4util12local_vectorINS2_3mcu9Schedul
 1443              		.align	1
 1444              		.weak	_ZN2tl6detail24expected_operations_baseIvN4otto4util12local_vectorINS2_3mcu9Scheduler4TaskEL
 1445              		.syntax unified
 1446              		.thumb
 1447              		.thumb_func
 1448              		.fpu fpv4-sp-d16
 1450              	_ZN2tl6detail24expected_operations_baseIvN4otto4util12local_vectorINS2_3mcu9Scheduler4TaskELj1024EE
 1451              	.LFB3901:
 1452              		.file 7 "Cpp/expected.hpp"
   1:Cpp/expected.hpp **** ///
   2:Cpp/expected.hpp **** // expected - An implementation of std::expected with extensions
   3:Cpp/expected.hpp **** // Written in 2017 by Simon Brand (@TartanLlama)
   4:Cpp/expected.hpp **** //
   5:Cpp/expected.hpp **** // To the extent possible under law, the author(s) have dedicated all
   6:Cpp/expected.hpp **** // copyright and related and neighboring rights to this software to the
   7:Cpp/expected.hpp **** // public domain worldwide. This software is distributed without any warranty.
   8:Cpp/expected.hpp **** //
   9:Cpp/expected.hpp **** // You should have received a copy of the CC0 Public Domain Dedication
  10:Cpp/expected.hpp **** // along with this software. If not, see
  11:Cpp/expected.hpp **** // <http://creativecommons.org/publicdomain/zero/1.0/>.
  12:Cpp/expected.hpp **** ///
  13:Cpp/expected.hpp **** 
  14:Cpp/expected.hpp **** #ifndef TL_EXPECTED_HPP
  15:Cpp/expected.hpp **** #define TL_EXPECTED_HPP
  16:Cpp/expected.hpp **** 
  17:Cpp/expected.hpp **** #define TL_EXPECTED_VERSION_MAJOR 0
  18:Cpp/expected.hpp **** #define TL_EXPECTED_VERSION_MINOR 2
  19:Cpp/expected.hpp **** 
  20:Cpp/expected.hpp **** #include <exception>
  21:Cpp/expected.hpp **** #include <functional>
  22:Cpp/expected.hpp **** #include <type_traits>
  23:Cpp/expected.hpp **** #include <utility>
ARM GAS  /tmp/ccU23Djm.s 			page 38


  24:Cpp/expected.hpp **** 
  25:Cpp/expected.hpp **** #if defined(__EXCEPTIONS) || defined(_CPPUNWIND)
  26:Cpp/expected.hpp **** #define TL_EXPECTED_EXCEPTIONS_ENABLED
  27:Cpp/expected.hpp **** #endif
  28:Cpp/expected.hpp **** 
  29:Cpp/expected.hpp **** #if (defined(_MSC_VER) && _MSC_VER == 1900)
  30:Cpp/expected.hpp **** /// \exclude
  31:Cpp/expected.hpp **** #define TL_EXPECTED_MSVC2015
  32:Cpp/expected.hpp **** #define TL_EXPECTED_MSVC2015_CONSTEXPR
  33:Cpp/expected.hpp **** #else
  34:Cpp/expected.hpp **** #define TL_EXPECTED_MSVC2015_CONSTEXPR constexpr
  35:Cpp/expected.hpp **** #endif
  36:Cpp/expected.hpp **** 
  37:Cpp/expected.hpp **** #if (defined(__GNUC__) && __GNUC__ == 4 && __GNUC_MINOR__ <= 9 &&              \
  38:Cpp/expected.hpp ****      !defined(__clang__))
  39:Cpp/expected.hpp **** /// \exclude
  40:Cpp/expected.hpp **** #define TL_EXPECTED_GCC49
  41:Cpp/expected.hpp **** #endif
  42:Cpp/expected.hpp **** 
  43:Cpp/expected.hpp **** #if (defined(__GNUC__) && __GNUC__ == 5 && __GNUC_MINOR__ <= 4 &&              \
  44:Cpp/expected.hpp ****      !defined(__clang__))
  45:Cpp/expected.hpp **** /// \exclude
  46:Cpp/expected.hpp **** #define TL_EXPECTED_GCC54
  47:Cpp/expected.hpp **** #endif
  48:Cpp/expected.hpp **** 
  49:Cpp/expected.hpp **** #if (defined(__GNUC__) && __GNUC__ == 5 && __GNUC_MINOR__ <= 5 &&              \
  50:Cpp/expected.hpp ****      !defined(__clang__))
  51:Cpp/expected.hpp **** /// \exclude
  52:Cpp/expected.hpp **** #define TL_EXPECTED_GCC55
  53:Cpp/expected.hpp **** #endif
  54:Cpp/expected.hpp **** 
  55:Cpp/expected.hpp **** #if (defined(__GNUC__) && __GNUC__ == 4 && __GNUC_MINOR__ <= 9 &&              \
  56:Cpp/expected.hpp ****      !defined(__clang__))
  57:Cpp/expected.hpp **** // GCC < 5 doesn't support overloading on const&& for member functions
  58:Cpp/expected.hpp **** /// \exclude
  59:Cpp/expected.hpp **** #define TL_EXPECTED_NO_CONSTRR
  60:Cpp/expected.hpp **** 
  61:Cpp/expected.hpp **** // GCC < 5 doesn't support some standard C++11 type traits
  62:Cpp/expected.hpp **** /// \exclude
  63:Cpp/expected.hpp **** #define TL_EXPECTED_IS_TRIVIALLY_COPY_CONSTRUCTIBLE(T)                         \
  64:Cpp/expected.hpp ****   std::has_trivial_copy_constructor<T>
  65:Cpp/expected.hpp **** /// \exclude
  66:Cpp/expected.hpp **** #define TL_EXPECTED_IS_TRIVIALLY_COPY_ASSIGNABLE(T)                            \
  67:Cpp/expected.hpp ****   std::has_trivial_copy_assign<T>
  68:Cpp/expected.hpp **** 
  69:Cpp/expected.hpp **** // This one will be different for GCC 5.7 if it's ever supported
  70:Cpp/expected.hpp **** /// \exclude
  71:Cpp/expected.hpp **** #define TL_EXPECTED_IS_TRIVIALLY_DESTRUCTIBLE(T)                               \
  72:Cpp/expected.hpp ****   std::is_trivially_destructible<T>
  73:Cpp/expected.hpp **** 
  74:Cpp/expected.hpp **** // GCC 5 < v < 8 has a bug in is_trivially_copy_constructible which breaks std::vector
  75:Cpp/expected.hpp **** // for non-copyable types
  76:Cpp/expected.hpp **** #elif (defined(__GNUC__) && __GNUC__ < 8 &&                                                \
  77:Cpp/expected.hpp ****      !defined(__clang__))
  78:Cpp/expected.hpp **** #ifndef TL_GCC_LESS_8_TRIVIALLY_COPY_CONSTRUCTIBLE_MUTEX
  79:Cpp/expected.hpp **** #define TL_GCC_LESS_8_TRIVIALLY_COPY_CONSTRUCTIBLE_MUTEX
  80:Cpp/expected.hpp **** namespace tl {
ARM GAS  /tmp/ccU23Djm.s 			page 39


  81:Cpp/expected.hpp ****   namespace detail {
  82:Cpp/expected.hpp ****       template<class T>
  83:Cpp/expected.hpp ****       struct is_trivially_copy_constructible : std::is_trivially_copy_constructible<T>{};
  84:Cpp/expected.hpp **** #ifdef _GLIBCXX_VECTOR
  85:Cpp/expected.hpp ****       template<class T, class A>
  86:Cpp/expected.hpp ****       struct is_trivially_copy_constructible<std::vector<T,A>>
  87:Cpp/expected.hpp ****           : std::is_trivially_copy_constructible<T>{};
  88:Cpp/expected.hpp **** #endif
  89:Cpp/expected.hpp ****   }
  90:Cpp/expected.hpp **** }
  91:Cpp/expected.hpp **** #endif
  92:Cpp/expected.hpp **** 
  93:Cpp/expected.hpp **** #define TL_EXPECTED_IS_TRIVIALLY_COPY_CONSTRUCTIBLE(T)                                     \
  94:Cpp/expected.hpp ****   tl::detail::is_trivially_copy_constructible<T>
  95:Cpp/expected.hpp **** #define TL_EXPECTED_IS_TRIVIALLY_COPY_ASSIGNABLE(T)                                        \
  96:Cpp/expected.hpp ****   std::is_trivially_copy_assignable<T>
  97:Cpp/expected.hpp **** #define TL_EXPECTED_IS_TRIVIALLY_DESTRUCTIBLE(T) std::is_trivially_destructible<T>
  98:Cpp/expected.hpp **** #else
  99:Cpp/expected.hpp **** /// \exclude
 100:Cpp/expected.hpp **** #define TL_EXPECTED_IS_TRIVIALLY_COPY_CONSTRUCTIBLE(T)                         \
 101:Cpp/expected.hpp ****   std::is_trivially_copy_constructible<T>
 102:Cpp/expected.hpp **** /// \exclude
 103:Cpp/expected.hpp **** #define TL_EXPECTED_IS_TRIVIALLY_COPY_ASSIGNABLE(T)                            \
 104:Cpp/expected.hpp ****   std::is_trivially_copy_assignable<T>
 105:Cpp/expected.hpp **** /// \exclude
 106:Cpp/expected.hpp **** #define TL_EXPECTED_IS_TRIVIALLY_DESTRUCTIBLE(T)                               \
 107:Cpp/expected.hpp ****   std::is_trivially_destructible<T>
 108:Cpp/expected.hpp **** #endif
 109:Cpp/expected.hpp **** 
 110:Cpp/expected.hpp **** #if __cplusplus > 201103L
 111:Cpp/expected.hpp **** /// \exclude
 112:Cpp/expected.hpp **** #define TL_EXPECTED_CXX14
 113:Cpp/expected.hpp **** #endif
 114:Cpp/expected.hpp **** 
 115:Cpp/expected.hpp **** #ifdef TL_EXPECTED_GCC49
 116:Cpp/expected.hpp **** #define TL_EXPECTED_GCC49_CONSTEXPR
 117:Cpp/expected.hpp **** #else
 118:Cpp/expected.hpp **** #define TL_EXPECTED_GCC49_CONSTEXPR constexpr
 119:Cpp/expected.hpp **** #endif
 120:Cpp/expected.hpp **** 
 121:Cpp/expected.hpp **** #if (__cplusplus == 201103L || defined(TL_EXPECTED_MSVC2015) ||                \
 122:Cpp/expected.hpp ****      defined(TL_EXPECTED_GCC49))
 123:Cpp/expected.hpp **** /// \exclude
 124:Cpp/expected.hpp **** #define TL_EXPECTED_11_CONSTEXPR
 125:Cpp/expected.hpp **** #else
 126:Cpp/expected.hpp **** /// \exclude
 127:Cpp/expected.hpp **** #define TL_EXPECTED_11_CONSTEXPR constexpr
 128:Cpp/expected.hpp **** #endif
 129:Cpp/expected.hpp **** 
 130:Cpp/expected.hpp **** namespace tl {
 131:Cpp/expected.hpp **** template <class T, class E> class expected;
 132:Cpp/expected.hpp **** 
 133:Cpp/expected.hpp **** #ifndef TL_MONOSTATE_INPLACE_MUTEX
 134:Cpp/expected.hpp **** #define TL_MONOSTATE_INPLACE_MUTEX
 135:Cpp/expected.hpp **** /// \brief Used to represent an expected with no data
 136:Cpp/expected.hpp **** class monostate {};
 137:Cpp/expected.hpp **** 
ARM GAS  /tmp/ccU23Djm.s 			page 40


 138:Cpp/expected.hpp **** /// \brief A tag type to tell expected to construct its value in-place
 139:Cpp/expected.hpp **** struct in_place_t {
 140:Cpp/expected.hpp ****   explicit in_place_t() = default;
 141:Cpp/expected.hpp **** };
 142:Cpp/expected.hpp **** /// \brief A tag to tell expected to construct its value in-place
 143:Cpp/expected.hpp **** static constexpr in_place_t in_place{};
 144:Cpp/expected.hpp **** #endif
 145:Cpp/expected.hpp **** 
 146:Cpp/expected.hpp **** /// Used as a wrapper to store the unexpected value
 147:Cpp/expected.hpp **** template <class E> class unexpected {
 148:Cpp/expected.hpp **** public:
 149:Cpp/expected.hpp ****   static_assert(!std::is_same<E, void>::value, "E must not be void");
 150:Cpp/expected.hpp **** 
 151:Cpp/expected.hpp ****   unexpected() = delete;
 152:Cpp/expected.hpp ****   constexpr explicit unexpected(const E &e) : m_val(e) {}
 153:Cpp/expected.hpp **** 
 154:Cpp/expected.hpp ****   constexpr explicit unexpected(E &&e) : m_val(std::move(e)) {}
 155:Cpp/expected.hpp **** 
 156:Cpp/expected.hpp ****   /// \returns the contained value
 157:Cpp/expected.hpp ****   /// \group unexpected_value
 158:Cpp/expected.hpp ****   constexpr const E &value() const & { return m_val; }
 159:Cpp/expected.hpp ****   /// \group unexpected_value
 160:Cpp/expected.hpp ****   TL_EXPECTED_11_CONSTEXPR E &value() & { return m_val; }
 161:Cpp/expected.hpp ****   /// \group unexpected_value
 162:Cpp/expected.hpp ****   TL_EXPECTED_11_CONSTEXPR E &&value() && { return std::move(m_val); }
 163:Cpp/expected.hpp ****   /// \exclude
 164:Cpp/expected.hpp ****   constexpr const E &&value() const && { return std::move(m_val); }
 165:Cpp/expected.hpp **** 
 166:Cpp/expected.hpp **** private:
 167:Cpp/expected.hpp ****   E m_val;
 168:Cpp/expected.hpp **** };
 169:Cpp/expected.hpp **** 
 170:Cpp/expected.hpp **** /// \brief Compares two unexpected objects
 171:Cpp/expected.hpp **** /// \details Simply compares lhs.value() to rhs.value()
 172:Cpp/expected.hpp **** /// \group unexpected_relop
 173:Cpp/expected.hpp **** template <class E>
 174:Cpp/expected.hpp **** constexpr bool operator==(const unexpected<E> &lhs, const unexpected<E> &rhs) {
 175:Cpp/expected.hpp ****   return lhs.value() == rhs.value();
 176:Cpp/expected.hpp **** }
 177:Cpp/expected.hpp **** /// \group unexpected_relop
 178:Cpp/expected.hpp **** template <class E>
 179:Cpp/expected.hpp **** constexpr bool operator!=(const unexpected<E> &lhs, const unexpected<E> &rhs) {
 180:Cpp/expected.hpp ****   return lhs.value() != rhs.value();
 181:Cpp/expected.hpp **** }
 182:Cpp/expected.hpp **** /// \group unexpected_relop
 183:Cpp/expected.hpp **** template <class E>
 184:Cpp/expected.hpp **** constexpr bool operator<(const unexpected<E> &lhs, const unexpected<E> &rhs) {
 185:Cpp/expected.hpp ****   return lhs.value() < rhs.value();
 186:Cpp/expected.hpp **** }
 187:Cpp/expected.hpp **** /// \group unexpected_relop
 188:Cpp/expected.hpp **** template <class E>
 189:Cpp/expected.hpp **** constexpr bool operator<=(const unexpected<E> &lhs, const unexpected<E> &rhs) {
 190:Cpp/expected.hpp ****   return lhs.value() <= rhs.value();
 191:Cpp/expected.hpp **** }
 192:Cpp/expected.hpp **** /// \group unexpected_relop
 193:Cpp/expected.hpp **** template <class E>
 194:Cpp/expected.hpp **** constexpr bool operator>(const unexpected<E> &lhs, const unexpected<E> &rhs) {
ARM GAS  /tmp/ccU23Djm.s 			page 41


 195:Cpp/expected.hpp ****   return lhs.value() > rhs.value();
 196:Cpp/expected.hpp **** }
 197:Cpp/expected.hpp **** /// \group unexpected_relop
 198:Cpp/expected.hpp **** template <class E>
 199:Cpp/expected.hpp **** constexpr bool operator>=(const unexpected<E> &lhs, const unexpected<E> &rhs) {
 200:Cpp/expected.hpp ****   return lhs.value() >= rhs.value();
 201:Cpp/expected.hpp **** }
 202:Cpp/expected.hpp **** 
 203:Cpp/expected.hpp **** /// Create an `unexpected` from `e`, deducing the return type
 204:Cpp/expected.hpp **** ///
 205:Cpp/expected.hpp **** /// *Example:*
 206:Cpp/expected.hpp **** /// auto e1 = tl::make_unexpected(42);
 207:Cpp/expected.hpp **** /// unexpected<int> e2 (42); //same semantics
 208:Cpp/expected.hpp **** template <class E>
 209:Cpp/expected.hpp **** unexpected<typename std::decay<E>::type> make_unexpected(E &&e) {
 210:Cpp/expected.hpp ****   return unexpected<typename std::decay<E>::type>(std::forward<E>(e));
 211:Cpp/expected.hpp **** }
 212:Cpp/expected.hpp **** 
 213:Cpp/expected.hpp **** /// \brief A tag type to tell expected to construct the unexpected value
 214:Cpp/expected.hpp **** struct unexpect_t {
 215:Cpp/expected.hpp ****   unexpect_t() = default;
 216:Cpp/expected.hpp **** };
 217:Cpp/expected.hpp **** /// \brief A tag to tell expected to construct the unexpected value
 218:Cpp/expected.hpp **** static constexpr unexpect_t unexpect{};
 219:Cpp/expected.hpp **** 
 220:Cpp/expected.hpp **** /// \exclude
 221:Cpp/expected.hpp **** namespace detail {
 222:Cpp/expected.hpp **** template<typename E>
 223:Cpp/expected.hpp **** [[noreturn]] TL_EXPECTED_11_CONSTEXPR void throw_exception(E &&e) {
 224:Cpp/expected.hpp **** #ifdef TL_EXPECTED_EXCEPTIONS_ENABLED
 225:Cpp/expected.hpp ****     throw std::forward<E>(e);
 226:Cpp/expected.hpp **** #else
 227:Cpp/expected.hpp ****   #ifdef _MSC_VER
 228:Cpp/expected.hpp ****     __assume(0);
 229:Cpp/expected.hpp ****   #else
 230:Cpp/expected.hpp ****     __builtin_unreachable();
 231:Cpp/expected.hpp ****   #endif
 232:Cpp/expected.hpp **** #endif
 233:Cpp/expected.hpp **** }
 234:Cpp/expected.hpp **** 
 235:Cpp/expected.hpp **** #ifndef TL_TRAITS_MUTEX
 236:Cpp/expected.hpp **** #define TL_TRAITS_MUTEX
 237:Cpp/expected.hpp **** // C++14-style aliases for brevity
 238:Cpp/expected.hpp **** template <class T> using remove_const_t = typename std::remove_const<T>::type;
 239:Cpp/expected.hpp **** template <class T>
 240:Cpp/expected.hpp **** using remove_reference_t = typename std::remove_reference<T>::type;
 241:Cpp/expected.hpp **** template <class T> using decay_t = typename std::decay<T>::type;
 242:Cpp/expected.hpp **** template <bool E, class T = void>
 243:Cpp/expected.hpp **** using enable_if_t = typename std::enable_if<E, T>::type;
 244:Cpp/expected.hpp **** template <bool B, class T, class F>
 245:Cpp/expected.hpp **** using conditional_t = typename std::conditional<B, T, F>::type;
 246:Cpp/expected.hpp **** 
 247:Cpp/expected.hpp **** // std::conjunction from C++17
 248:Cpp/expected.hpp **** template <class...> struct conjunction : std::true_type {};
 249:Cpp/expected.hpp **** template <class B> struct conjunction<B> : B {};
 250:Cpp/expected.hpp **** template <class B, class... Bs>
 251:Cpp/expected.hpp **** struct conjunction<B, Bs...>
ARM GAS  /tmp/ccU23Djm.s 			page 42


 252:Cpp/expected.hpp ****     : std::conditional<bool(B::value), conjunction<Bs...>, B>::type {};
 253:Cpp/expected.hpp **** 
 254:Cpp/expected.hpp **** // std::invoke from C++17
 255:Cpp/expected.hpp **** // https://stackoverflow.com/questions/38288042/c11-14-invoke-workaround
 256:Cpp/expected.hpp **** template <typename Fn, typename... Args,
 257:Cpp/expected.hpp ****           typename = enable_if_t<std::is_member_pointer<decay_t<Fn>>{}>,
 258:Cpp/expected.hpp ****           int = 0>
 259:Cpp/expected.hpp **** constexpr auto invoke(Fn &&f, Args &&... args) noexcept(
 260:Cpp/expected.hpp ****     noexcept(std::mem_fn(f)(std::forward<Args>(args)...)))
 261:Cpp/expected.hpp ****     -> decltype(std::mem_fn(f)(std::forward<Args>(args)...)) {
 262:Cpp/expected.hpp ****   return std::mem_fn(f)(std::forward<Args>(args)...);
 263:Cpp/expected.hpp **** }
 264:Cpp/expected.hpp **** 
 265:Cpp/expected.hpp **** template <typename Fn, typename... Args,
 266:Cpp/expected.hpp ****           typename = enable_if_t<!std::is_member_pointer<decay_t<Fn>>{}>>
 267:Cpp/expected.hpp **** constexpr auto invoke(Fn &&f, Args &&... args) noexcept(
 268:Cpp/expected.hpp ****     noexcept(std::forward<Fn>(f)(std::forward<Args>(args)...)))
 269:Cpp/expected.hpp ****     -> decltype(std::forward<Fn>(f)(std::forward<Args>(args)...)) {
 270:Cpp/expected.hpp ****   return std::forward<Fn>(f)(std::forward<Args>(args)...);
 271:Cpp/expected.hpp **** }
 272:Cpp/expected.hpp **** 
 273:Cpp/expected.hpp **** // std::invoke_result from C++17
 274:Cpp/expected.hpp **** template <class F, class, class... Us> struct invoke_result_impl;
 275:Cpp/expected.hpp **** 
 276:Cpp/expected.hpp **** template <class F, class... Us>
 277:Cpp/expected.hpp **** struct invoke_result_impl<
 278:Cpp/expected.hpp ****     F, decltype(detail::invoke(std::declval<F>(), std::declval<Us>()...), void()),
 279:Cpp/expected.hpp ****     Us...> {
 280:Cpp/expected.hpp ****   using type = decltype(detail::invoke(std::declval<F>(), std::declval<Us>()...));
 281:Cpp/expected.hpp **** };
 282:Cpp/expected.hpp **** 
 283:Cpp/expected.hpp **** template <class F, class... Us>
 284:Cpp/expected.hpp **** using invoke_result = invoke_result_impl<F, void, Us...>;
 285:Cpp/expected.hpp **** 
 286:Cpp/expected.hpp **** template <class F, class... Us>
 287:Cpp/expected.hpp **** using invoke_result_t = typename invoke_result<F, Us...>::type;
 288:Cpp/expected.hpp **** #endif
 289:Cpp/expected.hpp **** 
 290:Cpp/expected.hpp **** // Trait for checking if a type is a tl::expected
 291:Cpp/expected.hpp **** template <class T> struct is_expected_impl : std::false_type {};
 292:Cpp/expected.hpp **** template <class T, class E>
 293:Cpp/expected.hpp **** struct is_expected_impl<expected<T, E>> : std::true_type {};
 294:Cpp/expected.hpp **** template <class T> using is_expected = is_expected_impl<decay_t<T>>;
 295:Cpp/expected.hpp **** 
 296:Cpp/expected.hpp **** template <class T, class E, class U>
 297:Cpp/expected.hpp **** using expected_enable_forward_value = detail::enable_if_t<
 298:Cpp/expected.hpp ****     std::is_constructible<T, U &&>::value &&
 299:Cpp/expected.hpp ****     !std::is_same<detail::decay_t<U>, in_place_t>::value &&
 300:Cpp/expected.hpp ****     !std::is_same<expected<T, E>, detail::decay_t<U>>::value &&
 301:Cpp/expected.hpp ****     !std::is_same<unexpected<E>, detail::decay_t<U>>::value>;
 302:Cpp/expected.hpp **** 
 303:Cpp/expected.hpp **** template <class T, class E, class U, class G, class UR, class GR>
 304:Cpp/expected.hpp **** using expected_enable_from_other = detail::enable_if_t<
 305:Cpp/expected.hpp ****     std::is_constructible<T, UR>::value &&
 306:Cpp/expected.hpp ****     std::is_constructible<E, GR>::value &&
 307:Cpp/expected.hpp ****     !std::is_constructible<T, expected<U, G> &>::value &&
 308:Cpp/expected.hpp ****     !std::is_constructible<T, expected<U, G> &&>::value &&
ARM GAS  /tmp/ccU23Djm.s 			page 43


 309:Cpp/expected.hpp ****     !std::is_constructible<T, const expected<U, G> &>::value &&
 310:Cpp/expected.hpp ****     !std::is_constructible<T, const expected<U, G> &&>::value &&
 311:Cpp/expected.hpp ****     !std::is_convertible<expected<U, G> &, T>::value &&
 312:Cpp/expected.hpp ****     !std::is_convertible<expected<U, G> &&, T>::value &&
 313:Cpp/expected.hpp ****     !std::is_convertible<const expected<U, G> &, T>::value &&
 314:Cpp/expected.hpp ****     !std::is_convertible<const expected<U, G> &&, T>::value>;
 315:Cpp/expected.hpp **** 
 316:Cpp/expected.hpp **** template <class T, class U>
 317:Cpp/expected.hpp **** using is_void_or = conditional_t<std::is_void<T>::value, std::true_type, U>;
 318:Cpp/expected.hpp **** 
 319:Cpp/expected.hpp **** template <class T>
 320:Cpp/expected.hpp **** using is_copy_constructible_or_void =
 321:Cpp/expected.hpp ****     is_void_or<T, std::is_copy_constructible<T>>;
 322:Cpp/expected.hpp **** 
 323:Cpp/expected.hpp **** template <class T>
 324:Cpp/expected.hpp **** using is_move_constructible_or_void =
 325:Cpp/expected.hpp ****     is_void_or<T, std::is_move_constructible<T>>;
 326:Cpp/expected.hpp **** 
 327:Cpp/expected.hpp **** template <class T>
 328:Cpp/expected.hpp **** using is_copy_assignable_or_void =
 329:Cpp/expected.hpp ****     is_void_or<T, std::is_copy_assignable<T>>;
 330:Cpp/expected.hpp **** 
 331:Cpp/expected.hpp **** 
 332:Cpp/expected.hpp **** template <class T>
 333:Cpp/expected.hpp **** using is_move_assignable_or_void =
 334:Cpp/expected.hpp ****     is_void_or<T, std::is_move_assignable<T>>;
 335:Cpp/expected.hpp ****     
 336:Cpp/expected.hpp **** 
 337:Cpp/expected.hpp **** } // namespace detail
 338:Cpp/expected.hpp **** 
 339:Cpp/expected.hpp **** /// \exclude
 340:Cpp/expected.hpp **** namespace detail {
 341:Cpp/expected.hpp **** struct no_init_t {};
 342:Cpp/expected.hpp **** static constexpr no_init_t no_init{};
 343:Cpp/expected.hpp **** 
 344:Cpp/expected.hpp **** // Implements the storage of the values, and ensures that the destructor is
 345:Cpp/expected.hpp **** // trivial if it can be.
 346:Cpp/expected.hpp **** //
 347:Cpp/expected.hpp **** // This specialization is for where neither `T` or `E` is trivially
 348:Cpp/expected.hpp **** // destructible, so the destructors must be called on destruction of the
 349:Cpp/expected.hpp **** // `expected`
 350:Cpp/expected.hpp **** template <class T, class E, bool = std::is_trivially_destructible<T>::value,
 351:Cpp/expected.hpp ****           bool = std::is_trivially_destructible<E>::value>
 352:Cpp/expected.hpp **** struct expected_storage_base {
 353:Cpp/expected.hpp ****   constexpr expected_storage_base() : m_val(T{}), m_has_val(true) {}
 354:Cpp/expected.hpp ****   constexpr expected_storage_base(no_init_t) : m_no_init(), m_has_val(false) {}
 355:Cpp/expected.hpp **** 
 356:Cpp/expected.hpp ****   template <class... Args,
 357:Cpp/expected.hpp ****             detail::enable_if_t<std::is_constructible<T, Args &&...>::value> * =
 358:Cpp/expected.hpp ****                 nullptr>
 359:Cpp/expected.hpp ****   constexpr expected_storage_base(in_place_t, Args &&... args)
 360:Cpp/expected.hpp ****       : m_val(std::forward<Args>(args)...), m_has_val(true) {}
 361:Cpp/expected.hpp **** 
 362:Cpp/expected.hpp ****   template <class U, class... Args,
 363:Cpp/expected.hpp ****             detail::enable_if_t<std::is_constructible<
 364:Cpp/expected.hpp ****                 T, std::initializer_list<U> &, Args &&...>::value> * = nullptr>
 365:Cpp/expected.hpp ****   constexpr expected_storage_base(in_place_t, std::initializer_list<U> il,
ARM GAS  /tmp/ccU23Djm.s 			page 44


 366:Cpp/expected.hpp ****                                   Args &&... args)
 367:Cpp/expected.hpp ****       : m_val(il, std::forward<Args>(args)...), m_has_val(true) {}
 368:Cpp/expected.hpp ****   template <class... Args,
 369:Cpp/expected.hpp ****             detail::enable_if_t<std::is_constructible<E, Args &&...>::value> * =
 370:Cpp/expected.hpp ****                 nullptr>
 371:Cpp/expected.hpp ****   constexpr explicit expected_storage_base(unexpect_t, Args &&... args)
 372:Cpp/expected.hpp ****       : m_unexpect(std::forward<Args>(args)...), m_has_val(false) {}
 373:Cpp/expected.hpp **** 
 374:Cpp/expected.hpp ****   template <class U, class... Args,
 375:Cpp/expected.hpp ****             detail::enable_if_t<std::is_constructible<
 376:Cpp/expected.hpp ****                 E, std::initializer_list<U> &, Args &&...>::value> * = nullptr>
 377:Cpp/expected.hpp ****   constexpr explicit expected_storage_base(unexpect_t,
 378:Cpp/expected.hpp ****                                            std::initializer_list<U> il,
 379:Cpp/expected.hpp ****                                            Args &&... args)
 380:Cpp/expected.hpp ****       : m_unexpect(il, std::forward<Args>(args)...), m_has_val(false) {}
 381:Cpp/expected.hpp **** 
 382:Cpp/expected.hpp ****   ~expected_storage_base() {
 383:Cpp/expected.hpp ****     if (m_has_val) {
 384:Cpp/expected.hpp ****       m_val.~T();
 385:Cpp/expected.hpp ****     } else {
 386:Cpp/expected.hpp ****       m_unexpect.~unexpected<E>();
 387:Cpp/expected.hpp ****     }
 388:Cpp/expected.hpp ****   }
 389:Cpp/expected.hpp ****   union {
 390:Cpp/expected.hpp ****     char m_no_init;
 391:Cpp/expected.hpp ****     T m_val;
 392:Cpp/expected.hpp ****     unexpected<E> m_unexpect;
 393:Cpp/expected.hpp ****   };
 394:Cpp/expected.hpp ****   bool m_has_val;
 395:Cpp/expected.hpp **** };
 396:Cpp/expected.hpp **** 
 397:Cpp/expected.hpp **** // This specialization is for when both `T` and `E` are trivially-destructible,
 398:Cpp/expected.hpp **** // so the destructor of the `expected` can be trivial.
 399:Cpp/expected.hpp **** template <class T, class E> struct expected_storage_base<T, E, true, true> {
 400:Cpp/expected.hpp ****   constexpr expected_storage_base() : m_val(T{}), m_has_val(true) {}
 401:Cpp/expected.hpp ****   constexpr expected_storage_base(no_init_t) : m_no_init(), m_has_val(false) {}
 402:Cpp/expected.hpp **** 
 403:Cpp/expected.hpp ****   template <class... Args,
 404:Cpp/expected.hpp ****             detail::enable_if_t<std::is_constructible<T, Args &&...>::value> * =
 405:Cpp/expected.hpp ****                 nullptr>
 406:Cpp/expected.hpp ****   constexpr expected_storage_base(in_place_t, Args &&... args)
 407:Cpp/expected.hpp ****       : m_val(std::forward<Args>(args)...), m_has_val(true) {}
 408:Cpp/expected.hpp **** 
 409:Cpp/expected.hpp ****   template <class U, class... Args,
 410:Cpp/expected.hpp ****             detail::enable_if_t<std::is_constructible<
 411:Cpp/expected.hpp ****                 T, std::initializer_list<U> &, Args &&...>::value> * = nullptr>
 412:Cpp/expected.hpp ****   constexpr expected_storage_base(in_place_t, std::initializer_list<U> il,
 413:Cpp/expected.hpp ****                                   Args &&... args)
 414:Cpp/expected.hpp ****       : m_val(il, std::forward<Args>(args)...), m_has_val(true) {}
 415:Cpp/expected.hpp ****   template <class... Args,
 416:Cpp/expected.hpp ****             detail::enable_if_t<std::is_constructible<E, Args &&...>::value> * =
 417:Cpp/expected.hpp ****                 nullptr>
 418:Cpp/expected.hpp ****   constexpr explicit expected_storage_base(unexpect_t, Args &&... args)
 419:Cpp/expected.hpp ****       : m_unexpect(std::forward<Args>(args)...), m_has_val(false) {}
 420:Cpp/expected.hpp **** 
 421:Cpp/expected.hpp ****   template <class U, class... Args,
 422:Cpp/expected.hpp ****             detail::enable_if_t<std::is_constructible<
ARM GAS  /tmp/ccU23Djm.s 			page 45


 423:Cpp/expected.hpp ****                 E, std::initializer_list<U> &, Args &&...>::value> * = nullptr>
 424:Cpp/expected.hpp ****   constexpr explicit expected_storage_base(unexpect_t,
 425:Cpp/expected.hpp ****                                            std::initializer_list<U> il,
 426:Cpp/expected.hpp ****                                            Args &&... args)
 427:Cpp/expected.hpp ****       : m_unexpect(il, std::forward<Args>(args)...), m_has_val(false) {}
 428:Cpp/expected.hpp **** 
 429:Cpp/expected.hpp ****   ~expected_storage_base() = default;
 430:Cpp/expected.hpp ****   union {
 431:Cpp/expected.hpp ****     char m_no_init;
 432:Cpp/expected.hpp ****     T m_val;
 433:Cpp/expected.hpp ****     unexpected<E> m_unexpect;
 434:Cpp/expected.hpp ****   };
 435:Cpp/expected.hpp ****   bool m_has_val;
 436:Cpp/expected.hpp **** };
 437:Cpp/expected.hpp **** 
 438:Cpp/expected.hpp **** // T is trivial, E is not.
 439:Cpp/expected.hpp **** template <class T, class E> struct expected_storage_base<T, E, true, false> {
 440:Cpp/expected.hpp ****   constexpr expected_storage_base() : m_val(T{}), m_has_val(true) {}
 441:Cpp/expected.hpp ****   TL_EXPECTED_MSVC2015_CONSTEXPR expected_storage_base(no_init_t)
 442:Cpp/expected.hpp ****       : m_no_init(), m_has_val(false) {}
 443:Cpp/expected.hpp **** 
 444:Cpp/expected.hpp ****   template <class... Args,
 445:Cpp/expected.hpp ****             detail::enable_if_t<std::is_constructible<T, Args &&...>::value> * =
 446:Cpp/expected.hpp ****                 nullptr>
 447:Cpp/expected.hpp ****   constexpr expected_storage_base(in_place_t, Args &&... args)
 448:Cpp/expected.hpp ****       : m_val(std::forward<Args>(args)...), m_has_val(true) {}
 449:Cpp/expected.hpp **** 
 450:Cpp/expected.hpp ****   template <class U, class... Args,
 451:Cpp/expected.hpp ****             detail::enable_if_t<std::is_constructible<
 452:Cpp/expected.hpp ****                 T, std::initializer_list<U> &, Args &&...>::value> * = nullptr>
 453:Cpp/expected.hpp ****   constexpr expected_storage_base(in_place_t, std::initializer_list<U> il,
 454:Cpp/expected.hpp ****                                   Args &&... args)
 455:Cpp/expected.hpp ****       : m_val(il, std::forward<Args>(args)...), m_has_val(true) {}
 456:Cpp/expected.hpp ****   template <class... Args,
 457:Cpp/expected.hpp ****             detail::enable_if_t<std::is_constructible<E, Args &&...>::value> * =
 458:Cpp/expected.hpp ****                 nullptr>
 459:Cpp/expected.hpp ****   constexpr explicit expected_storage_base(unexpect_t, Args &&... args)
 460:Cpp/expected.hpp ****       : m_unexpect(std::forward<Args>(args)...), m_has_val(false) {}
 461:Cpp/expected.hpp **** 
 462:Cpp/expected.hpp ****   template <class U, class... Args,
 463:Cpp/expected.hpp ****             detail::enable_if_t<std::is_constructible<
 464:Cpp/expected.hpp ****                 E, std::initializer_list<U> &, Args &&...>::value> * = nullptr>
 465:Cpp/expected.hpp ****   constexpr explicit expected_storage_base(unexpect_t,
 466:Cpp/expected.hpp ****                                            std::initializer_list<U> il,
 467:Cpp/expected.hpp ****                                            Args &&... args)
 468:Cpp/expected.hpp ****       : m_unexpect(il, std::forward<Args>(args)...), m_has_val(false) {}
 469:Cpp/expected.hpp **** 
 470:Cpp/expected.hpp ****   ~expected_storage_base() {
 471:Cpp/expected.hpp ****     if (!m_has_val) {
 472:Cpp/expected.hpp ****       m_unexpect.~unexpected<E>();
 473:Cpp/expected.hpp ****     }
 474:Cpp/expected.hpp ****   }
 475:Cpp/expected.hpp **** 
 476:Cpp/expected.hpp ****   union {
 477:Cpp/expected.hpp ****     char m_no_init;
 478:Cpp/expected.hpp ****     T m_val;
 479:Cpp/expected.hpp ****     unexpected<E> m_unexpect;
ARM GAS  /tmp/ccU23Djm.s 			page 46


 480:Cpp/expected.hpp ****   };
 481:Cpp/expected.hpp ****   bool m_has_val;
 482:Cpp/expected.hpp **** };
 483:Cpp/expected.hpp **** 
 484:Cpp/expected.hpp **** // E is trivial, T is not.
 485:Cpp/expected.hpp **** template <class T, class E> struct expected_storage_base<T, E, false, true> {
 486:Cpp/expected.hpp ****   constexpr expected_storage_base() : m_val(T{}), m_has_val(true) {}
 487:Cpp/expected.hpp ****   constexpr expected_storage_base(no_init_t) : m_no_init(), m_has_val(false) {}
 488:Cpp/expected.hpp **** 
 489:Cpp/expected.hpp ****   template <class... Args,
 490:Cpp/expected.hpp ****             detail::enable_if_t<std::is_constructible<T, Args &&...>::value> * =
 491:Cpp/expected.hpp ****                 nullptr>
 492:Cpp/expected.hpp ****   constexpr expected_storage_base(in_place_t, Args &&... args)
 493:Cpp/expected.hpp ****       : m_val(std::forward<Args>(args)...), m_has_val(true) {}
 494:Cpp/expected.hpp **** 
 495:Cpp/expected.hpp ****   template <class U, class... Args,
 496:Cpp/expected.hpp ****             detail::enable_if_t<std::is_constructible<
 497:Cpp/expected.hpp ****                 T, std::initializer_list<U> &, Args &&...>::value> * = nullptr>
 498:Cpp/expected.hpp ****   constexpr expected_storage_base(in_place_t, std::initializer_list<U> il,
 499:Cpp/expected.hpp ****                                   Args &&... args)
 500:Cpp/expected.hpp ****       : m_val(il, std::forward<Args>(args)...), m_has_val(true) {}
 501:Cpp/expected.hpp ****   template <class... Args,
 502:Cpp/expected.hpp ****             detail::enable_if_t<std::is_constructible<E, Args &&...>::value> * =
 503:Cpp/expected.hpp ****                 nullptr>
 504:Cpp/expected.hpp ****   constexpr explicit expected_storage_base(unexpect_t, Args &&... args)
 505:Cpp/expected.hpp ****       : m_unexpect(std::forward<Args>(args)...), m_has_val(false) {}
 506:Cpp/expected.hpp **** 
 507:Cpp/expected.hpp ****   template <class U, class... Args,
 508:Cpp/expected.hpp ****             detail::enable_if_t<std::is_constructible<
 509:Cpp/expected.hpp ****                 E, std::initializer_list<U> &, Args &&...>::value> * = nullptr>
 510:Cpp/expected.hpp ****   constexpr explicit expected_storage_base(unexpect_t,
 511:Cpp/expected.hpp ****                                            std::initializer_list<U> il,
 512:Cpp/expected.hpp ****                                            Args &&... args)
 513:Cpp/expected.hpp ****       : m_unexpect(il, std::forward<Args>(args)...), m_has_val(false) {}
 514:Cpp/expected.hpp **** 
 515:Cpp/expected.hpp ****   ~expected_storage_base() {
 516:Cpp/expected.hpp ****     if (m_has_val) {
 517:Cpp/expected.hpp ****       m_val.~T();
 518:Cpp/expected.hpp ****     }
 519:Cpp/expected.hpp ****   }
 520:Cpp/expected.hpp ****   union {
 521:Cpp/expected.hpp ****     char m_no_init;
 522:Cpp/expected.hpp ****     T m_val;
 523:Cpp/expected.hpp ****     unexpected<E> m_unexpect;
 524:Cpp/expected.hpp ****   };
 525:Cpp/expected.hpp ****   bool m_has_val;
 526:Cpp/expected.hpp **** };
 527:Cpp/expected.hpp **** 
 528:Cpp/expected.hpp **** // `T` is `void`, `E` is trivially-destructible
 529:Cpp/expected.hpp **** template <class E> struct expected_storage_base<void, E, false, true> {
 530:Cpp/expected.hpp ****   TL_EXPECTED_MSVC2015_CONSTEXPR expected_storage_base() : m_has_val(true) {}
 531:Cpp/expected.hpp ****   constexpr expected_storage_base(no_init_t) : m_val(), m_has_val(false) {}
 532:Cpp/expected.hpp **** 
 533:Cpp/expected.hpp ****   constexpr expected_storage_base(in_place_t) : m_has_val(true) {}
 534:Cpp/expected.hpp **** 
 535:Cpp/expected.hpp ****   template <class... Args,
 536:Cpp/expected.hpp ****             detail::enable_if_t<std::is_constructible<E, Args &&...>::value> * =
ARM GAS  /tmp/ccU23Djm.s 			page 47


 537:Cpp/expected.hpp ****                 nullptr>
 538:Cpp/expected.hpp ****   constexpr explicit expected_storage_base(unexpect_t, Args &&... args)
 539:Cpp/expected.hpp ****       : m_unexpect(std::forward<Args>(args)...), m_has_val(false) {}
 540:Cpp/expected.hpp **** 
 541:Cpp/expected.hpp ****   template <class U, class... Args,
 542:Cpp/expected.hpp ****             detail::enable_if_t<std::is_constructible<
 543:Cpp/expected.hpp ****                 E, std::initializer_list<U> &, Args &&...>::value> * = nullptr>
 544:Cpp/expected.hpp ****   constexpr explicit expected_storage_base(unexpect_t,
 545:Cpp/expected.hpp ****                                            std::initializer_list<U> il,
 546:Cpp/expected.hpp ****                                            Args &&... args)
 547:Cpp/expected.hpp ****       : m_unexpect(il, std::forward<Args>(args)...), m_has_val(false) {}
 548:Cpp/expected.hpp **** 
 549:Cpp/expected.hpp ****   ~expected_storage_base() = default;
 550:Cpp/expected.hpp ****   struct dummy {};
 551:Cpp/expected.hpp ****   union {
 552:Cpp/expected.hpp ****     dummy m_val;
 553:Cpp/expected.hpp ****     unexpected<E> m_unexpect;
 554:Cpp/expected.hpp ****   };
 555:Cpp/expected.hpp ****   bool m_has_val;
 556:Cpp/expected.hpp **** };
 557:Cpp/expected.hpp **** 
 558:Cpp/expected.hpp **** // `T` is `void`, `E` is not trivially-destructible
 559:Cpp/expected.hpp **** template <class E> struct expected_storage_base<void, E, false, false> {
 560:Cpp/expected.hpp ****   constexpr expected_storage_base() : m_dummy(), m_has_val(true) {}
 561:Cpp/expected.hpp ****   constexpr expected_storage_base(no_init_t) : m_dummy(), m_has_val(false) {}
 562:Cpp/expected.hpp **** 
 563:Cpp/expected.hpp ****   constexpr expected_storage_base(in_place_t) : m_dummy(), m_has_val(true) {}
 564:Cpp/expected.hpp **** 
 565:Cpp/expected.hpp ****   template <class... Args,
 566:Cpp/expected.hpp ****             detail::enable_if_t<std::is_constructible<E, Args &&...>::value> * =
 567:Cpp/expected.hpp ****                 nullptr>
 568:Cpp/expected.hpp ****   constexpr explicit expected_storage_base(unexpect_t, Args &&... args)
 569:Cpp/expected.hpp ****       : m_unexpect(std::forward<Args>(args)...), m_has_val(false) {}
 570:Cpp/expected.hpp **** 
 571:Cpp/expected.hpp ****   template <class U, class... Args,
 572:Cpp/expected.hpp ****             detail::enable_if_t<std::is_constructible<
 573:Cpp/expected.hpp ****                 E, std::initializer_list<U> &, Args &&...>::value> * = nullptr>
 574:Cpp/expected.hpp ****   constexpr explicit expected_storage_base(unexpect_t,
 575:Cpp/expected.hpp ****                                            std::initializer_list<U> il,
 576:Cpp/expected.hpp ****                                            Args &&... args)
 577:Cpp/expected.hpp ****       : m_unexpect(il, std::forward<Args>(args)...), m_has_val(false) {}
 578:Cpp/expected.hpp **** 
 579:Cpp/expected.hpp ****   ~expected_storage_base() {
 580:Cpp/expected.hpp ****     if (!m_has_val) {
 581:Cpp/expected.hpp ****       m_unexpect.~unexpected<E>();
 582:Cpp/expected.hpp ****     }
 583:Cpp/expected.hpp ****   }
 584:Cpp/expected.hpp **** 
 585:Cpp/expected.hpp ****   union {
 586:Cpp/expected.hpp ****     char m_dummy;
 587:Cpp/expected.hpp ****     unexpected<E> m_unexpect;
 588:Cpp/expected.hpp ****   };
 589:Cpp/expected.hpp ****   bool m_has_val;
 590:Cpp/expected.hpp **** };
 591:Cpp/expected.hpp **** 
 592:Cpp/expected.hpp **** // This base class provides some handy member functions which can be used in
 593:Cpp/expected.hpp **** // further derived classes
ARM GAS  /tmp/ccU23Djm.s 			page 48


 594:Cpp/expected.hpp **** template <class T, class E>
 595:Cpp/expected.hpp **** struct expected_operations_base : expected_storage_base<T, E> {
 596:Cpp/expected.hpp ****   using expected_storage_base<T, E>::expected_storage_base;
 597:Cpp/expected.hpp **** 
 598:Cpp/expected.hpp ****   template <class... Args> void construct(Args &&... args) noexcept {
 599:Cpp/expected.hpp ****     new (std::addressof(this->m_val)) T(std::forward<Args>(args)...);
 600:Cpp/expected.hpp ****     this->m_has_val = true;
 601:Cpp/expected.hpp ****   }
 602:Cpp/expected.hpp **** 
 603:Cpp/expected.hpp ****   template <class Rhs> void construct_with(Rhs &&rhs) noexcept {
 604:Cpp/expected.hpp ****     new (std::addressof(this->m_val)) T(std::forward<Rhs>(rhs).get());
 605:Cpp/expected.hpp ****     this->m_has_val = true;
 606:Cpp/expected.hpp ****   }
 607:Cpp/expected.hpp **** 
 608:Cpp/expected.hpp ****   template <class... Args> void construct_error(Args &&... args) noexcept {
 609:Cpp/expected.hpp ****     new (std::addressof(this->m_unexpect))
 610:Cpp/expected.hpp ****         unexpected<E>(std::forward<Args>(args)...);
 611:Cpp/expected.hpp ****     this->m_has_val = false;
 612:Cpp/expected.hpp ****   }
 613:Cpp/expected.hpp **** 
 614:Cpp/expected.hpp ****   #ifdef TL_EXPECTED_EXCEPTIONS_ENABLED
 615:Cpp/expected.hpp **** 
 616:Cpp/expected.hpp ****   // These assign overloads ensure that the most efficient assignment
 617:Cpp/expected.hpp ****   // implementation is used while maintaining the strong exception guarantee.
 618:Cpp/expected.hpp ****   // The problematic case is where rhs has a value, but *this does not.
 619:Cpp/expected.hpp ****   //
 620:Cpp/expected.hpp ****   // This overload handles the case where we can just copy-construct `T`
 621:Cpp/expected.hpp ****   // directly into place without throwing.
 622:Cpp/expected.hpp ****   template <class U = T,
 623:Cpp/expected.hpp ****             detail::enable_if_t<std::is_nothrow_copy_constructible<U>::value>
 624:Cpp/expected.hpp ****                 * = nullptr>
 625:Cpp/expected.hpp ****   void assign(const expected_operations_base &rhs) noexcept {
 626:Cpp/expected.hpp ****     if (!this->m_has_val && rhs.m_has_val) {
 627:Cpp/expected.hpp ****       geterr().~unexpected<E>();
 628:Cpp/expected.hpp ****       construct(rhs.get());
 629:Cpp/expected.hpp ****     } else {
 630:Cpp/expected.hpp ****       assign_common(rhs);
 631:Cpp/expected.hpp ****     }
 632:Cpp/expected.hpp ****   }
 633:Cpp/expected.hpp **** 
 634:Cpp/expected.hpp ****   // This overload handles the case where we can attempt to create a copy of
 635:Cpp/expected.hpp ****   // `T`, then no-throw move it into place if the copy was successful.
 636:Cpp/expected.hpp ****   template <class U = T,
 637:Cpp/expected.hpp ****             detail::enable_if_t<!std::is_nothrow_copy_constructible<U>::value &&
 638:Cpp/expected.hpp ****                                 std::is_nothrow_move_constructible<U>::value>
 639:Cpp/expected.hpp ****                 * = nullptr>
 640:Cpp/expected.hpp ****   void assign(const expected_operations_base &rhs) noexcept {
 641:Cpp/expected.hpp ****     if (!this->m_has_val && rhs.m_has_val) {
 642:Cpp/expected.hpp ****       T tmp = rhs.get();
 643:Cpp/expected.hpp ****       geterr().~unexpected<E>();
 644:Cpp/expected.hpp ****       construct(std::move(tmp));
 645:Cpp/expected.hpp ****     } else {
 646:Cpp/expected.hpp ****       assign_common(rhs);
 647:Cpp/expected.hpp ****     }
 648:Cpp/expected.hpp ****   }
 649:Cpp/expected.hpp **** 
 650:Cpp/expected.hpp ****   // This overload is the worst-case, where we have to move-construct the
ARM GAS  /tmp/ccU23Djm.s 			page 49


 651:Cpp/expected.hpp ****   // unexpected value into temporary storage, then try to copy the T into place.
 652:Cpp/expected.hpp ****   // If the construction succeeds, then everything is fine, but if it throws,
 653:Cpp/expected.hpp ****   // then we move the old unexpected value back into place before rethrowing the
 654:Cpp/expected.hpp ****   // exception.
 655:Cpp/expected.hpp ****   template <class U = T,
 656:Cpp/expected.hpp ****             detail::enable_if_t<!std::is_nothrow_copy_constructible<U>::value &&
 657:Cpp/expected.hpp ****                                 !std::is_nothrow_move_constructible<U>::value>
 658:Cpp/expected.hpp ****                 * = nullptr>
 659:Cpp/expected.hpp ****   void assign(const expected_operations_base &rhs) {
 660:Cpp/expected.hpp ****     if (!this->m_has_val && rhs.m_has_val) {
 661:Cpp/expected.hpp ****       auto tmp = std::move(geterr());
 662:Cpp/expected.hpp ****       geterr().~unexpected<E>();
 663:Cpp/expected.hpp **** 
 664:Cpp/expected.hpp ****       try {
 665:Cpp/expected.hpp ****         construct(rhs.get());
 666:Cpp/expected.hpp ****       } catch (...) {
 667:Cpp/expected.hpp ****         geterr() = std::move(tmp);
 668:Cpp/expected.hpp ****         throw;
 669:Cpp/expected.hpp ****       }
 670:Cpp/expected.hpp ****     } else {
 671:Cpp/expected.hpp ****       assign_common(rhs);
 672:Cpp/expected.hpp ****     }
 673:Cpp/expected.hpp ****   }
 674:Cpp/expected.hpp **** 
 675:Cpp/expected.hpp ****   // These overloads do the same as above, but for rvalues
 676:Cpp/expected.hpp ****   template <class U = T,
 677:Cpp/expected.hpp ****             detail::enable_if_t<std::is_nothrow_move_constructible<U>::value>
 678:Cpp/expected.hpp ****                 * = nullptr>
 679:Cpp/expected.hpp ****   void assign(expected_operations_base &&rhs) noexcept {
 680:Cpp/expected.hpp ****     if (!this->m_has_val && rhs.m_has_val) {
 681:Cpp/expected.hpp ****       geterr().~unexpected<E>();
 682:Cpp/expected.hpp ****       construct(std::move(rhs).get());
 683:Cpp/expected.hpp ****     } else {
 684:Cpp/expected.hpp ****       assign_common(std::move(rhs));
 685:Cpp/expected.hpp ****     }
 686:Cpp/expected.hpp ****   }
 687:Cpp/expected.hpp **** 
 688:Cpp/expected.hpp ****   template <class U = T,
 689:Cpp/expected.hpp ****             detail::enable_if_t<!std::is_nothrow_move_constructible<U>::value>
 690:Cpp/expected.hpp ****                 * = nullptr>
 691:Cpp/expected.hpp ****   void assign(expected_operations_base &&rhs) {
 692:Cpp/expected.hpp ****     if (!this->m_has_val && rhs.m_has_val) {
 693:Cpp/expected.hpp ****       auto tmp = std::move(geterr());
 694:Cpp/expected.hpp ****       geterr().~unexpected<E>();
 695:Cpp/expected.hpp ****       try {
 696:Cpp/expected.hpp ****         construct(std::move(rhs).get());
 697:Cpp/expected.hpp ****       } catch (...) {
 698:Cpp/expected.hpp ****         geterr() = std::move(tmp);
 699:Cpp/expected.hpp ****         throw;
 700:Cpp/expected.hpp ****       }
 701:Cpp/expected.hpp ****     } else {
 702:Cpp/expected.hpp ****       assign_common(std::move(rhs));
 703:Cpp/expected.hpp ****     }
 704:Cpp/expected.hpp ****   }
 705:Cpp/expected.hpp **** 
 706:Cpp/expected.hpp ****   #else
 707:Cpp/expected.hpp **** 
ARM GAS  /tmp/ccU23Djm.s 			page 50


 708:Cpp/expected.hpp ****   // If exceptions are disabled then we can just copy-construct
 709:Cpp/expected.hpp ****   void assign(const expected_operations_base &rhs) noexcept {
 710:Cpp/expected.hpp ****     if (!this->m_has_val && rhs.m_has_val) {
 711:Cpp/expected.hpp ****       geterr().~unexpected<E>();
 712:Cpp/expected.hpp ****       construct(rhs.get());
 713:Cpp/expected.hpp ****     } else {
 714:Cpp/expected.hpp ****       assign_common(rhs);
 715:Cpp/expected.hpp ****     }
 716:Cpp/expected.hpp ****   }
 717:Cpp/expected.hpp **** 
 718:Cpp/expected.hpp ****   void assign(expected_operations_base &&rhs) noexcept {
 719:Cpp/expected.hpp ****     if (!this->m_has_val && rhs.m_has_val) {
 720:Cpp/expected.hpp ****       geterr().~unexpected<E>();
 721:Cpp/expected.hpp ****       construct(std::move(rhs).get());
 722:Cpp/expected.hpp ****     } else {
 723:Cpp/expected.hpp ****       assign_common(rhs);
 724:Cpp/expected.hpp ****     }
 725:Cpp/expected.hpp ****   }
 726:Cpp/expected.hpp **** 
 727:Cpp/expected.hpp ****   #endif
 728:Cpp/expected.hpp **** 
 729:Cpp/expected.hpp ****   // The common part of move/copy assigning
 730:Cpp/expected.hpp ****   template <class Rhs> void assign_common(Rhs &&rhs) {
 731:Cpp/expected.hpp ****     if (this->m_has_val) {
 732:Cpp/expected.hpp ****       if (rhs.m_has_val) {
 733:Cpp/expected.hpp ****         get() = std::forward<Rhs>(rhs).get();
 734:Cpp/expected.hpp ****       } else {
 735:Cpp/expected.hpp ****         get().~T();
 736:Cpp/expected.hpp ****         construct_error(std::forward<Rhs>(rhs).geterr());
 737:Cpp/expected.hpp ****       }
 738:Cpp/expected.hpp ****     } else {
 739:Cpp/expected.hpp ****       if (!rhs.m_has_val) {
 740:Cpp/expected.hpp ****         geterr() = std::forward<Rhs>(rhs).geterr();
 741:Cpp/expected.hpp ****       }
 742:Cpp/expected.hpp ****     }
 743:Cpp/expected.hpp ****   }
 744:Cpp/expected.hpp **** 
 745:Cpp/expected.hpp ****   bool has_value() const { return this->m_has_val; }
 746:Cpp/expected.hpp **** 
 747:Cpp/expected.hpp ****   TL_EXPECTED_11_CONSTEXPR T &get() & { return this->m_val; }
 748:Cpp/expected.hpp ****   constexpr const T &get() const & { return this->m_val; }
 749:Cpp/expected.hpp ****   TL_EXPECTED_11_CONSTEXPR T &&get() && { return std::move(this->m_val); }
 750:Cpp/expected.hpp **** #ifndef TL_EXPECTED_NO_CONSTRR
 751:Cpp/expected.hpp ****   constexpr const T &&get() const && { return std::move(this->m_val); }
 752:Cpp/expected.hpp **** #endif
 753:Cpp/expected.hpp **** 
 754:Cpp/expected.hpp ****   TL_EXPECTED_11_CONSTEXPR unexpected<E> &geterr() & {
 755:Cpp/expected.hpp ****     return this->m_unexpect;
 756:Cpp/expected.hpp ****   }
 757:Cpp/expected.hpp ****   constexpr const unexpected<E> &geterr() const & { return this->m_unexpect; }
 758:Cpp/expected.hpp ****   TL_EXPECTED_11_CONSTEXPR unexpected<E> &&geterr() && {
 759:Cpp/expected.hpp ****     return std::move(this->m_unexpect);
 760:Cpp/expected.hpp ****   }
 761:Cpp/expected.hpp **** #ifndef TL_EXPECTED_NO_CONSTRR
 762:Cpp/expected.hpp ****   constexpr const unexpected<E> &&geterr() const && {
 763:Cpp/expected.hpp ****     return std::move(this->m_unexpect);
 764:Cpp/expected.hpp ****   }
ARM GAS  /tmp/ccU23Djm.s 			page 51


 765:Cpp/expected.hpp **** #endif
 766:Cpp/expected.hpp **** };
 767:Cpp/expected.hpp **** 
 768:Cpp/expected.hpp **** // This base class provides some handy member functions which can be used in
 769:Cpp/expected.hpp **** // further derived classes
 770:Cpp/expected.hpp **** template <class E>
 771:Cpp/expected.hpp **** struct expected_operations_base<void, E> : expected_storage_base<void, E> {
 1453              		.loc 7 771 8
 1454              		.cfi_startproc
 1455              		@ args = 0, pretend = 0, frame = 8
 1456              		@ frame_needed = 1, uses_anonymous_args = 0
 1457 0000 80B5     		push	{r7, lr}
 1458              	.LCFI114:
 1459              		.cfi_def_cfa_offset 8
 1460              		.cfi_offset 7, -8
 1461              		.cfi_offset 14, -4
 1462 0002 82B0     		sub	sp, sp, #8
 1463              	.LCFI115:
 1464              		.cfi_def_cfa_offset 16
 1465 0004 00AF     		add	r7, sp, #0
 1466              	.LCFI116:
 1467              		.cfi_def_cfa_register 7
 1468 0006 7860     		str	r0, [r7, #4]
 1469              	.LBB9:
 1470              		.loc 7 771 8
 1471 0008 7B68     		ldr	r3, [r7, #4]
 1472 000a 1846     		mov	r0, r3
 1473 000c FFF7FEFF 		bl	_ZN2tl6detail21expected_storage_baseIvN4otto4util12local_vectorINS2_3mcu9Scheduler4TaskELj1024E
 1474              	.LBE9:
 1475 0010 7B68     		ldr	r3, [r7, #4]
 1476 0012 1846     		mov	r0, r3
 1477 0014 0837     		adds	r7, r7, #8
 1478              	.LCFI117:
 1479              		.cfi_def_cfa_offset 8
 1480 0016 BD46     		mov	sp, r7
 1481              	.LCFI118:
 1482              		.cfi_def_cfa_register 13
 1483              		@ sp needed
 1484 0018 80BD     		pop	{r7, pc}
 1485              		.cfi_endproc
 1486              	.LFE3901:
 1488              		.weak	_ZN2tl6detail24expected_operations_baseIvN4otto4util12local_vectorINS2_3mcu9Scheduler4TaskEL
 1489              		.thumb_set _ZN2tl6detail24expected_operations_baseIvN4otto4util12local_vectorINS2_3mcu9Scheduler4T
 1490              		.section	.text._ZN2tl6detail18expected_copy_baseIvN4otto4util12local_vectorINS2_3mcu9Scheduler4Tas
 1491              		.align	1
 1492              		.weak	_ZN2tl6detail18expected_copy_baseIvN4otto4util12local_vectorINS2_3mcu9Scheduler4TaskELj1024E
 1493              		.syntax unified
 1494              		.thumb
 1495              		.thumb_func
 1496              		.fpu fpv4-sp-d16
 1498              	_ZN2tl6detail18expected_copy_baseIvN4otto4util12local_vectorINS2_3mcu9Scheduler4TaskELj1024EE5error
 1499              	.LFB3903:
 772:Cpp/expected.hpp ****   using expected_storage_base<void, E>::expected_storage_base;
 773:Cpp/expected.hpp **** 
 774:Cpp/expected.hpp ****   template <class... Args> void construct() noexcept { this->m_has_val = true; }
 775:Cpp/expected.hpp **** 
 776:Cpp/expected.hpp ****   // This function doesn't use its argument, but needs it so that code in
ARM GAS  /tmp/ccU23Djm.s 			page 52


 777:Cpp/expected.hpp ****   // levels above this can work independently of whether T is void
 778:Cpp/expected.hpp ****   template <class Rhs> void construct_with(Rhs &&) noexcept {
 779:Cpp/expected.hpp ****     this->m_has_val = true;
 780:Cpp/expected.hpp ****   }
 781:Cpp/expected.hpp **** 
 782:Cpp/expected.hpp ****   template <class... Args> void construct_error(Args &&... args) noexcept {
 783:Cpp/expected.hpp ****     new (std::addressof(this->m_unexpect))
 784:Cpp/expected.hpp ****         unexpected<E>(std::forward<Args>(args)...);
 785:Cpp/expected.hpp ****     this->m_has_val = false;
 786:Cpp/expected.hpp ****   }
 787:Cpp/expected.hpp **** 
 788:Cpp/expected.hpp ****   template <class Rhs> void assign(Rhs &&rhs) noexcept {
 789:Cpp/expected.hpp ****     if (!this->m_has_val) {
 790:Cpp/expected.hpp ****       if (rhs.m_has_val) {
 791:Cpp/expected.hpp ****         geterr().~unexpected<E>();
 792:Cpp/expected.hpp ****         construct();
 793:Cpp/expected.hpp ****       } else {
 794:Cpp/expected.hpp ****         geterr() = std::forward<Rhs>(rhs).geterr();
 795:Cpp/expected.hpp ****       }
 796:Cpp/expected.hpp ****     } else {
 797:Cpp/expected.hpp ****       if (!rhs.m_has_val) {
 798:Cpp/expected.hpp ****         construct_error(std::forward<Rhs>(rhs).geterr());
 799:Cpp/expected.hpp ****       }
 800:Cpp/expected.hpp ****     }
 801:Cpp/expected.hpp ****   }
 802:Cpp/expected.hpp **** 
 803:Cpp/expected.hpp ****   bool has_value() const { return this->m_has_val; }
 804:Cpp/expected.hpp **** 
 805:Cpp/expected.hpp ****   TL_EXPECTED_11_CONSTEXPR unexpected<E> &geterr() & {
 806:Cpp/expected.hpp ****     return this->m_unexpect;
 807:Cpp/expected.hpp ****   }
 808:Cpp/expected.hpp ****   constexpr const unexpected<E> &geterr() const & { return this->m_unexpect; }
 809:Cpp/expected.hpp ****   TL_EXPECTED_11_CONSTEXPR unexpected<E> &&geterr() && {
 810:Cpp/expected.hpp ****     return std::move(this->m_unexpect);
 811:Cpp/expected.hpp ****   }
 812:Cpp/expected.hpp **** #ifndef TL_EXPECTED_NO_CONSTRR
 813:Cpp/expected.hpp ****   constexpr const unexpected<E> &&geterr() const && {
 814:Cpp/expected.hpp ****     return std::move(this->m_unexpect);
 815:Cpp/expected.hpp ****   }
 816:Cpp/expected.hpp **** #endif
 817:Cpp/expected.hpp **** };
 818:Cpp/expected.hpp **** 
 819:Cpp/expected.hpp **** // This class manages conditionally having a trivial copy constructor
 820:Cpp/expected.hpp **** // This specialization is for when T and E are trivially copy constructible
 821:Cpp/expected.hpp **** template <class T, class E,
 822:Cpp/expected.hpp ****           bool = is_void_or<T, TL_EXPECTED_IS_TRIVIALLY_COPY_CONSTRUCTIBLE(T)>::
 823:Cpp/expected.hpp ****               value &&TL_EXPECTED_IS_TRIVIALLY_COPY_CONSTRUCTIBLE(E)::value>
 824:Cpp/expected.hpp **** struct expected_copy_base : expected_operations_base<T, E> {
 1500              		.loc 7 824 8
 1501              		.cfi_startproc
 1502              		@ args = 0, pretend = 0, frame = 8
 1503              		@ frame_needed = 1, uses_anonymous_args = 0
 1504 0000 80B5     		push	{r7, lr}
 1505              	.LCFI119:
 1506              		.cfi_def_cfa_offset 8
 1507              		.cfi_offset 7, -8
 1508              		.cfi_offset 14, -4
ARM GAS  /tmp/ccU23Djm.s 			page 53


 1509 0002 82B0     		sub	sp, sp, #8
 1510              	.LCFI120:
 1511              		.cfi_def_cfa_offset 16
 1512 0004 00AF     		add	r7, sp, #0
 1513              	.LCFI121:
 1514              		.cfi_def_cfa_register 7
 1515 0006 7860     		str	r0, [r7, #4]
 1516              	.LBB10:
 1517              		.loc 7 824 8
 1518 0008 7B68     		ldr	r3, [r7, #4]
 1519 000a 1846     		mov	r0, r3
 1520 000c FFF7FEFF 		bl	_ZN2tl6detail24expected_operations_baseIvN4otto4util12local_vectorINS2_3mcu9Scheduler4TaskELj10
 1521              	.LBE10:
 1522 0010 7B68     		ldr	r3, [r7, #4]
 1523 0012 1846     		mov	r0, r3
 1524 0014 0837     		adds	r7, r7, #8
 1525              	.LCFI122:
 1526              		.cfi_def_cfa_offset 8
 1527 0016 BD46     		mov	sp, r7
 1528              	.LCFI123:
 1529              		.cfi_def_cfa_register 13
 1530              		@ sp needed
 1531 0018 80BD     		pop	{r7, pc}
 1532              		.cfi_endproc
 1533              	.LFE3903:
 1535              		.weak	_ZN2tl6detail18expected_copy_baseIvN4otto4util12local_vectorINS2_3mcu9Scheduler4TaskELj1024E
 1536              		.thumb_set _ZN2tl6detail18expected_copy_baseIvN4otto4util12local_vectorINS2_3mcu9Scheduler4TaskELj
 1537              		.section	.text._ZN2tl6detail18expected_move_baseIvN4otto4util12local_vectorINS2_3mcu9Scheduler4Tas
 1538              		.align	1
 1539              		.weak	_ZN2tl6detail18expected_move_baseIvN4otto4util12local_vectorINS2_3mcu9Scheduler4TaskELj1024E
 1540              		.syntax unified
 1541              		.thumb
 1542              		.thumb_func
 1543              		.fpu fpv4-sp-d16
 1545              	_ZN2tl6detail18expected_move_baseIvN4otto4util12local_vectorINS2_3mcu9Scheduler4TaskELj1024EE5error
 1546              	.LFB3905:
 825:Cpp/expected.hpp ****   using expected_operations_base<T, E>::expected_operations_base;
 826:Cpp/expected.hpp **** };
 827:Cpp/expected.hpp **** 
 828:Cpp/expected.hpp **** // This specialization is for when T or E are not trivially copy constructible
 829:Cpp/expected.hpp **** template <class T, class E>
 830:Cpp/expected.hpp **** struct expected_copy_base<T, E, false> : expected_operations_base<T, E> {
 831:Cpp/expected.hpp ****   using expected_operations_base<T, E>::expected_operations_base;
 832:Cpp/expected.hpp **** 
 833:Cpp/expected.hpp ****   expected_copy_base() = default;
 834:Cpp/expected.hpp ****   expected_copy_base(const expected_copy_base &rhs)
 835:Cpp/expected.hpp ****       : expected_operations_base<T, E>(no_init) {
 836:Cpp/expected.hpp ****     if (rhs.has_value()) {
 837:Cpp/expected.hpp ****       this->construct_with(rhs);
 838:Cpp/expected.hpp ****     } else {
 839:Cpp/expected.hpp ****       this->construct_error(rhs.geterr());
 840:Cpp/expected.hpp ****     }
 841:Cpp/expected.hpp ****   }
 842:Cpp/expected.hpp **** 
 843:Cpp/expected.hpp ****   expected_copy_base(expected_copy_base &&rhs) = default;
 844:Cpp/expected.hpp ****   expected_copy_base &operator=(const expected_copy_base &rhs) = default;
 845:Cpp/expected.hpp ****   expected_copy_base &operator=(expected_copy_base &&rhs) = default;
ARM GAS  /tmp/ccU23Djm.s 			page 54


 846:Cpp/expected.hpp **** };
 847:Cpp/expected.hpp **** 
 848:Cpp/expected.hpp **** // This class manages conditionally having a trivial move constructor
 849:Cpp/expected.hpp **** // Unfortunately there's no way to achieve this in GCC < 5 AFAIK, since it
 850:Cpp/expected.hpp **** // doesn't implement an analogue to std::is_trivially_move_constructible. We
 851:Cpp/expected.hpp **** // have to make do with a non-trivial move constructor even if T is trivially
 852:Cpp/expected.hpp **** // move constructible
 853:Cpp/expected.hpp **** #ifndef TL_EXPECTED_GCC49
 854:Cpp/expected.hpp **** template <class T, class E,
 855:Cpp/expected.hpp ****           bool = is_void_or<T, std::is_trivially_move_constructible<T>>::value
 856:Cpp/expected.hpp ****               &&std::is_trivially_move_constructible<E>::value>
 857:Cpp/expected.hpp **** struct expected_move_base : expected_copy_base<T, E> {
 1547              		.loc 7 857 8
 1548              		.cfi_startproc
 1549              		@ args = 0, pretend = 0, frame = 8
 1550              		@ frame_needed = 1, uses_anonymous_args = 0
 1551 0000 80B5     		push	{r7, lr}
 1552              	.LCFI124:
 1553              		.cfi_def_cfa_offset 8
 1554              		.cfi_offset 7, -8
 1555              		.cfi_offset 14, -4
 1556 0002 82B0     		sub	sp, sp, #8
 1557              	.LCFI125:
 1558              		.cfi_def_cfa_offset 16
 1559 0004 00AF     		add	r7, sp, #0
 1560              	.LCFI126:
 1561              		.cfi_def_cfa_register 7
 1562 0006 7860     		str	r0, [r7, #4]
 1563              	.LBB11:
 1564              		.loc 7 857 8
 1565 0008 7B68     		ldr	r3, [r7, #4]
 1566 000a 1846     		mov	r0, r3
 1567 000c FFF7FEFF 		bl	_ZN2tl6detail18expected_copy_baseIvN4otto4util12local_vectorINS2_3mcu9Scheduler4TaskELj1024EE5e
 1568              	.LBE11:
 1569 0010 7B68     		ldr	r3, [r7, #4]
 1570 0012 1846     		mov	r0, r3
 1571 0014 0837     		adds	r7, r7, #8
 1572              	.LCFI127:
 1573              		.cfi_def_cfa_offset 8
 1574 0016 BD46     		mov	sp, r7
 1575              	.LCFI128:
 1576              		.cfi_def_cfa_register 13
 1577              		@ sp needed
 1578 0018 80BD     		pop	{r7, pc}
 1579              		.cfi_endproc
 1580              	.LFE3905:
 1582              		.weak	_ZN2tl6detail18expected_move_baseIvN4otto4util12local_vectorINS2_3mcu9Scheduler4TaskELj1024E
 1583              		.thumb_set _ZN2tl6detail18expected_move_baseIvN4otto4util12local_vectorINS2_3mcu9Scheduler4TaskELj
 1584              		.section	.text._ZN2tl6detail25expected_copy_assign_baseIvN4otto4util12local_vectorINS2_3mcu9Schedu
 1585              		.align	1
 1586              		.weak	_ZN2tl6detail25expected_copy_assign_baseIvN4otto4util12local_vectorINS2_3mcu9Scheduler4TaskE
 1587              		.syntax unified
 1588              		.thumb
 1589              		.thumb_func
 1590              		.fpu fpv4-sp-d16
 1592              	_ZN2tl6detail25expected_copy_assign_baseIvN4otto4util12local_vectorINS2_3mcu9Scheduler4TaskELj1024E
 1593              	.LFB3907:
ARM GAS  /tmp/ccU23Djm.s 			page 55


 858:Cpp/expected.hpp ****   using expected_copy_base<T, E>::expected_copy_base;
 859:Cpp/expected.hpp **** };
 860:Cpp/expected.hpp **** #else
 861:Cpp/expected.hpp **** template <class T, class E, bool = false> struct expected_move_base;
 862:Cpp/expected.hpp **** #endif
 863:Cpp/expected.hpp **** template <class T, class E>
 864:Cpp/expected.hpp **** struct expected_move_base<T, E, false> : expected_copy_base<T, E> {
 865:Cpp/expected.hpp ****   using expected_copy_base<T, E>::expected_copy_base;
 866:Cpp/expected.hpp **** 
 867:Cpp/expected.hpp ****   expected_move_base() = default;
 868:Cpp/expected.hpp ****   expected_move_base(const expected_move_base &rhs) = default;
 869:Cpp/expected.hpp **** 
 870:Cpp/expected.hpp ****   expected_move_base(expected_move_base &&rhs) noexcept(
 871:Cpp/expected.hpp ****       std::is_nothrow_move_constructible<T>::value)
 872:Cpp/expected.hpp ****       : expected_copy_base<T, E>(no_init) {
 873:Cpp/expected.hpp ****     if (rhs.has_value()) {
 874:Cpp/expected.hpp ****       this->construct_with(std::move(rhs));
 875:Cpp/expected.hpp ****     } else {
 876:Cpp/expected.hpp ****       this->construct_error(std::move(rhs.geterr()));
 877:Cpp/expected.hpp ****     }
 878:Cpp/expected.hpp ****   }
 879:Cpp/expected.hpp ****   expected_move_base &operator=(const expected_move_base &rhs) = default;
 880:Cpp/expected.hpp ****   expected_move_base &operator=(expected_move_base &&rhs) = default;
 881:Cpp/expected.hpp **** };
 882:Cpp/expected.hpp **** 
 883:Cpp/expected.hpp **** // This class manages conditionally having a trivial copy assignment operator
 884:Cpp/expected.hpp **** template <class T, class E,
 885:Cpp/expected.hpp ****           bool = is_void_or<
 886:Cpp/expected.hpp ****               T, conjunction<TL_EXPECTED_IS_TRIVIALLY_COPY_ASSIGNABLE(T),
 887:Cpp/expected.hpp ****                              TL_EXPECTED_IS_TRIVIALLY_COPY_CONSTRUCTIBLE(T),
 888:Cpp/expected.hpp ****                              TL_EXPECTED_IS_TRIVIALLY_DESTRUCTIBLE(T)>>::value
 889:Cpp/expected.hpp ****               &&TL_EXPECTED_IS_TRIVIALLY_COPY_ASSIGNABLE(E)::value
 890:Cpp/expected.hpp ****                   &&TL_EXPECTED_IS_TRIVIALLY_COPY_CONSTRUCTIBLE(E)::value
 891:Cpp/expected.hpp ****                       &&TL_EXPECTED_IS_TRIVIALLY_DESTRUCTIBLE(E)::value>
 892:Cpp/expected.hpp **** struct expected_copy_assign_base : expected_move_base<T, E> {
 1594              		.loc 7 892 8
 1595              		.cfi_startproc
 1596              		@ args = 0, pretend = 0, frame = 8
 1597              		@ frame_needed = 1, uses_anonymous_args = 0
 1598 0000 80B5     		push	{r7, lr}
 1599              	.LCFI129:
 1600              		.cfi_def_cfa_offset 8
 1601              		.cfi_offset 7, -8
 1602              		.cfi_offset 14, -4
 1603 0002 82B0     		sub	sp, sp, #8
 1604              	.LCFI130:
 1605              		.cfi_def_cfa_offset 16
 1606 0004 00AF     		add	r7, sp, #0
 1607              	.LCFI131:
 1608              		.cfi_def_cfa_register 7
 1609 0006 7860     		str	r0, [r7, #4]
 1610              	.LBB12:
 1611              		.loc 7 892 8
 1612 0008 7B68     		ldr	r3, [r7, #4]
 1613 000a 1846     		mov	r0, r3
 1614 000c FFF7FEFF 		bl	_ZN2tl6detail18expected_move_baseIvN4otto4util12local_vectorINS2_3mcu9Scheduler4TaskELj1024EE5e
 1615              	.LBE12:
ARM GAS  /tmp/ccU23Djm.s 			page 56


 1616 0010 7B68     		ldr	r3, [r7, #4]
 1617 0012 1846     		mov	r0, r3
 1618 0014 0837     		adds	r7, r7, #8
 1619              	.LCFI132:
 1620              		.cfi_def_cfa_offset 8
 1621 0016 BD46     		mov	sp, r7
 1622              	.LCFI133:
 1623              		.cfi_def_cfa_register 13
 1624              		@ sp needed
 1625 0018 80BD     		pop	{r7, pc}
 1626              		.cfi_endproc
 1627              	.LFE3907:
 1629              		.weak	_ZN2tl6detail25expected_copy_assign_baseIvN4otto4util12local_vectorINS2_3mcu9Scheduler4TaskE
 1630              		.thumb_set _ZN2tl6detail25expected_copy_assign_baseIvN4otto4util12local_vectorINS2_3mcu9Scheduler4
 1631              		.section	.text._ZN2tl6detail25expected_move_assign_baseIvN4otto4util12local_vectorINS2_3mcu9Schedu
 1632              		.align	1
 1633              		.weak	_ZN2tl6detail25expected_move_assign_baseIvN4otto4util12local_vectorINS2_3mcu9Scheduler4TaskE
 1634              		.syntax unified
 1635              		.thumb
 1636              		.thumb_func
 1637              		.fpu fpv4-sp-d16
 1639              	_ZN2tl6detail25expected_move_assign_baseIvN4otto4util12local_vectorINS2_3mcu9Scheduler4TaskELj1024E
 1640              	.LFB3909:
 893:Cpp/expected.hpp ****   using expected_move_base<T, E>::expected_move_base;
 894:Cpp/expected.hpp **** };
 895:Cpp/expected.hpp **** 
 896:Cpp/expected.hpp **** template <class T, class E>
 897:Cpp/expected.hpp **** struct expected_copy_assign_base<T, E, false> : expected_move_base<T, E> {
 898:Cpp/expected.hpp ****   using expected_move_base<T, E>::expected_move_base;
 899:Cpp/expected.hpp **** 
 900:Cpp/expected.hpp ****   expected_copy_assign_base() = default;
 901:Cpp/expected.hpp ****   expected_copy_assign_base(const expected_copy_assign_base &rhs) = default;
 902:Cpp/expected.hpp **** 
 903:Cpp/expected.hpp ****   expected_copy_assign_base(expected_copy_assign_base &&rhs) = default;
 904:Cpp/expected.hpp ****   expected_copy_assign_base &operator=(const expected_copy_assign_base &rhs) {
 905:Cpp/expected.hpp ****     this->assign(rhs);
 906:Cpp/expected.hpp ****     return *this;
 907:Cpp/expected.hpp ****   }
 908:Cpp/expected.hpp ****   expected_copy_assign_base &
 909:Cpp/expected.hpp ****   operator=(expected_copy_assign_base &&rhs) = default;
 910:Cpp/expected.hpp **** };
 911:Cpp/expected.hpp **** 
 912:Cpp/expected.hpp **** // This class manages conditionally having a trivial move assignment operator
 913:Cpp/expected.hpp **** // Unfortunately there's no way to achieve this in GCC < 5 AFAIK, since it
 914:Cpp/expected.hpp **** // doesn't implement an analogue to std::is_trivially_move_assignable. We have
 915:Cpp/expected.hpp **** // to make do with a non-trivial move assignment operator even if T is trivially
 916:Cpp/expected.hpp **** // move assignable
 917:Cpp/expected.hpp **** #ifndef TL_EXPECTED_GCC49
 918:Cpp/expected.hpp **** template <class T, class E,
 919:Cpp/expected.hpp ****           bool =
 920:Cpp/expected.hpp ****               is_void_or<T, conjunction<std::is_trivially_destructible<T>,
 921:Cpp/expected.hpp ****                                         std::is_trivially_move_constructible<T>,
 922:Cpp/expected.hpp ****                                         std::is_trivially_move_assignable<T>>>::
 923:Cpp/expected.hpp ****                   value &&std::is_trivially_destructible<E>::value
 924:Cpp/expected.hpp ****                       &&std::is_trivially_move_constructible<E>::value
 925:Cpp/expected.hpp ****                           &&std::is_trivially_move_assignable<E>::value>
 926:Cpp/expected.hpp **** struct expected_move_assign_base : expected_copy_assign_base<T, E> {
ARM GAS  /tmp/ccU23Djm.s 			page 57


 1641              		.loc 7 926 8
 1642              		.cfi_startproc
 1643              		@ args = 0, pretend = 0, frame = 8
 1644              		@ frame_needed = 1, uses_anonymous_args = 0
 1645 0000 80B5     		push	{r7, lr}
 1646              	.LCFI134:
 1647              		.cfi_def_cfa_offset 8
 1648              		.cfi_offset 7, -8
 1649              		.cfi_offset 14, -4
 1650 0002 82B0     		sub	sp, sp, #8
 1651              	.LCFI135:
 1652              		.cfi_def_cfa_offset 16
 1653 0004 00AF     		add	r7, sp, #0
 1654              	.LCFI136:
 1655              		.cfi_def_cfa_register 7
 1656 0006 7860     		str	r0, [r7, #4]
 1657              	.LBB13:
 1658              		.loc 7 926 8
 1659 0008 7B68     		ldr	r3, [r7, #4]
 1660 000a 1846     		mov	r0, r3
 1661 000c FFF7FEFF 		bl	_ZN2tl6detail25expected_copy_assign_baseIvN4otto4util12local_vectorINS2_3mcu9Scheduler4TaskELj1
 1662              	.LBE13:
 1663 0010 7B68     		ldr	r3, [r7, #4]
 1664 0012 1846     		mov	r0, r3
 1665 0014 0837     		adds	r7, r7, #8
 1666              	.LCFI137:
 1667              		.cfi_def_cfa_offset 8
 1668 0016 BD46     		mov	sp, r7
 1669              	.LCFI138:
 1670              		.cfi_def_cfa_register 13
 1671              		@ sp needed
 1672 0018 80BD     		pop	{r7, pc}
 1673              		.cfi_endproc
 1674              	.LFE3909:
 1676              		.weak	_ZN2tl6detail25expected_move_assign_baseIvN4otto4util12local_vectorINS2_3mcu9Scheduler4TaskE
 1677              		.thumb_set _ZN2tl6detail25expected_move_assign_baseIvN4otto4util12local_vectorINS2_3mcu9Scheduler4
 1678              		.section	.text._ZN2tl8expectedIvN4otto4util12local_vectorINS1_3mcu9Scheduler4TaskELj1024EE5errorEE
 1679              		.align	1
 1680              		.weak	_ZN2tl8expectedIvN4otto4util12local_vectorINS1_3mcu9Scheduler4TaskELj1024EE5errorEEC2Ev
 1681              		.syntax unified
 1682              		.thumb
 1683              		.thumb_func
 1684              		.fpu fpv4-sp-d16
 1686              	_ZN2tl8expectedIvN4otto4util12local_vectorINS1_3mcu9Scheduler4TaskELj1024EE5errorEEC2Ev:
 1687              	.LFB3911:
 927:Cpp/expected.hpp ****   using expected_copy_assign_base<T, E>::expected_copy_assign_base;
 928:Cpp/expected.hpp **** };
 929:Cpp/expected.hpp **** #else
 930:Cpp/expected.hpp **** template <class T, class E, bool = false> struct expected_move_assign_base;
 931:Cpp/expected.hpp **** #endif
 932:Cpp/expected.hpp **** 
 933:Cpp/expected.hpp **** template <class T, class E>
 934:Cpp/expected.hpp **** struct expected_move_assign_base<T, E, false>
 935:Cpp/expected.hpp ****     : expected_copy_assign_base<T, E> {
 936:Cpp/expected.hpp ****   using expected_copy_assign_base<T, E>::expected_copy_assign_base;
 937:Cpp/expected.hpp **** 
 938:Cpp/expected.hpp ****   expected_move_assign_base() = default;
ARM GAS  /tmp/ccU23Djm.s 			page 58


 939:Cpp/expected.hpp ****   expected_move_assign_base(const expected_move_assign_base &rhs) = default;
 940:Cpp/expected.hpp **** 
 941:Cpp/expected.hpp ****   expected_move_assign_base(expected_move_assign_base &&rhs) = default;
 942:Cpp/expected.hpp **** 
 943:Cpp/expected.hpp ****   expected_move_assign_base &
 944:Cpp/expected.hpp ****   operator=(const expected_move_assign_base &rhs) = default;
 945:Cpp/expected.hpp **** 
 946:Cpp/expected.hpp ****   expected_move_assign_base &
 947:Cpp/expected.hpp ****   operator=(expected_move_assign_base &&rhs) noexcept(
 948:Cpp/expected.hpp ****       std::is_nothrow_move_constructible<T>::value
 949:Cpp/expected.hpp ****           &&std::is_nothrow_move_assignable<T>::value) {
 950:Cpp/expected.hpp ****     this->assign(std::move(rhs));
 951:Cpp/expected.hpp ****     return *this;
 952:Cpp/expected.hpp ****   }
 953:Cpp/expected.hpp **** };
 954:Cpp/expected.hpp **** 
 955:Cpp/expected.hpp **** // expected_delete_ctor_base will conditionally delete copy and move
 956:Cpp/expected.hpp **** // constructors depending on whether T is copy/move constructible
 957:Cpp/expected.hpp **** template <class T, class E,
 958:Cpp/expected.hpp ****           bool EnableCopy = (is_copy_constructible_or_void<T>::value &&
 959:Cpp/expected.hpp ****                              std::is_copy_constructible<E>::value),
 960:Cpp/expected.hpp ****           bool EnableMove = (is_move_constructible_or_void<T>::value &&
 961:Cpp/expected.hpp ****                              std::is_move_constructible<E>::value)>
 962:Cpp/expected.hpp **** struct expected_delete_ctor_base {
 963:Cpp/expected.hpp ****   expected_delete_ctor_base() = default;
 964:Cpp/expected.hpp ****   expected_delete_ctor_base(const expected_delete_ctor_base &) = default;
 965:Cpp/expected.hpp ****   expected_delete_ctor_base(expected_delete_ctor_base &&) noexcept = default;
 966:Cpp/expected.hpp ****   expected_delete_ctor_base &
 967:Cpp/expected.hpp ****   operator=(const expected_delete_ctor_base &) = default;
 968:Cpp/expected.hpp ****   expected_delete_ctor_base &
 969:Cpp/expected.hpp ****   operator=(expected_delete_ctor_base &&) noexcept = default;
 970:Cpp/expected.hpp **** };
 971:Cpp/expected.hpp **** 
 972:Cpp/expected.hpp **** template <class T, class E>
 973:Cpp/expected.hpp **** struct expected_delete_ctor_base<T, E, true, false> {
 974:Cpp/expected.hpp ****   expected_delete_ctor_base() = default;
 975:Cpp/expected.hpp ****   expected_delete_ctor_base(const expected_delete_ctor_base &) = default;
 976:Cpp/expected.hpp ****   expected_delete_ctor_base(expected_delete_ctor_base &&) noexcept = delete;
 977:Cpp/expected.hpp ****   expected_delete_ctor_base &
 978:Cpp/expected.hpp ****   operator=(const expected_delete_ctor_base &) = default;
 979:Cpp/expected.hpp ****   expected_delete_ctor_base &
 980:Cpp/expected.hpp ****   operator=(expected_delete_ctor_base &&) noexcept = default;
 981:Cpp/expected.hpp **** };
 982:Cpp/expected.hpp **** 
 983:Cpp/expected.hpp **** template <class T, class E>
 984:Cpp/expected.hpp **** struct expected_delete_ctor_base<T, E, false, true> {
 985:Cpp/expected.hpp ****   expected_delete_ctor_base() = default;
 986:Cpp/expected.hpp ****   expected_delete_ctor_base(const expected_delete_ctor_base &) = delete;
 987:Cpp/expected.hpp ****   expected_delete_ctor_base(expected_delete_ctor_base &&) noexcept = default;
 988:Cpp/expected.hpp ****   expected_delete_ctor_base &
 989:Cpp/expected.hpp ****   operator=(const expected_delete_ctor_base &) = default;
 990:Cpp/expected.hpp ****   expected_delete_ctor_base &
 991:Cpp/expected.hpp ****   operator=(expected_delete_ctor_base &&) noexcept = default;
 992:Cpp/expected.hpp **** };
 993:Cpp/expected.hpp **** 
 994:Cpp/expected.hpp **** template <class T, class E>
 995:Cpp/expected.hpp **** struct expected_delete_ctor_base<T, E, false, false> {
ARM GAS  /tmp/ccU23Djm.s 			page 59


 996:Cpp/expected.hpp ****   expected_delete_ctor_base() = default;
 997:Cpp/expected.hpp ****   expected_delete_ctor_base(const expected_delete_ctor_base &) = delete;
 998:Cpp/expected.hpp ****   expected_delete_ctor_base(expected_delete_ctor_base &&) noexcept = delete;
 999:Cpp/expected.hpp ****   expected_delete_ctor_base &
1000:Cpp/expected.hpp ****   operator=(const expected_delete_ctor_base &) = default;
1001:Cpp/expected.hpp ****   expected_delete_ctor_base &
1002:Cpp/expected.hpp ****   operator=(expected_delete_ctor_base &&) noexcept = default;
1003:Cpp/expected.hpp **** };
1004:Cpp/expected.hpp **** 
1005:Cpp/expected.hpp **** // expected_delete_assign_base will conditionally delete copy and move
1006:Cpp/expected.hpp **** // constructors depending on whether T and E are copy/move constructible +
1007:Cpp/expected.hpp **** // assignable
1008:Cpp/expected.hpp **** template <class T, class E,
1009:Cpp/expected.hpp ****           bool EnableCopy = (is_copy_constructible_or_void<T>::value &&
1010:Cpp/expected.hpp ****                              std::is_copy_constructible<E>::value &&
1011:Cpp/expected.hpp ****                              is_copy_assignable_or_void<T>::value &&
1012:Cpp/expected.hpp ****                              std::is_copy_assignable<E>::value),
1013:Cpp/expected.hpp ****           bool EnableMove = (is_move_constructible_or_void<T>::value &&
1014:Cpp/expected.hpp ****                              std::is_move_constructible<E>::value &&
1015:Cpp/expected.hpp ****                              is_move_assignable_or_void<T>::value &&
1016:Cpp/expected.hpp ****                              std::is_move_assignable<E>::value)>
1017:Cpp/expected.hpp **** struct expected_delete_assign_base {
1018:Cpp/expected.hpp ****   expected_delete_assign_base() = default;
1019:Cpp/expected.hpp ****   expected_delete_assign_base(const expected_delete_assign_base &) = default;
1020:Cpp/expected.hpp ****   expected_delete_assign_base(expected_delete_assign_base &&) noexcept =
1021:Cpp/expected.hpp ****       default;
1022:Cpp/expected.hpp ****   expected_delete_assign_base &
1023:Cpp/expected.hpp ****   operator=(const expected_delete_assign_base &) = default;
1024:Cpp/expected.hpp ****   expected_delete_assign_base &
1025:Cpp/expected.hpp ****   operator=(expected_delete_assign_base &&) noexcept = default;
1026:Cpp/expected.hpp **** };
1027:Cpp/expected.hpp **** 
1028:Cpp/expected.hpp **** template <class T, class E>
1029:Cpp/expected.hpp **** struct expected_delete_assign_base<T, E, true, false> {
1030:Cpp/expected.hpp ****   expected_delete_assign_base() = default;
1031:Cpp/expected.hpp ****   expected_delete_assign_base(const expected_delete_assign_base &) = default;
1032:Cpp/expected.hpp ****   expected_delete_assign_base(expected_delete_assign_base &&) noexcept =
1033:Cpp/expected.hpp ****       default;
1034:Cpp/expected.hpp ****   expected_delete_assign_base &
1035:Cpp/expected.hpp ****   operator=(const expected_delete_assign_base &) = default;
1036:Cpp/expected.hpp ****   expected_delete_assign_base &
1037:Cpp/expected.hpp ****   operator=(expected_delete_assign_base &&) noexcept = delete;
1038:Cpp/expected.hpp **** };
1039:Cpp/expected.hpp **** 
1040:Cpp/expected.hpp **** template <class T, class E>
1041:Cpp/expected.hpp **** struct expected_delete_assign_base<T, E, false, true> {
1042:Cpp/expected.hpp ****   expected_delete_assign_base() = default;
1043:Cpp/expected.hpp ****   expected_delete_assign_base(const expected_delete_assign_base &) = default;
1044:Cpp/expected.hpp ****   expected_delete_assign_base(expected_delete_assign_base &&) noexcept =
1045:Cpp/expected.hpp ****       default;
1046:Cpp/expected.hpp ****   expected_delete_assign_base &
1047:Cpp/expected.hpp ****   operator=(const expected_delete_assign_base &) = delete;
1048:Cpp/expected.hpp ****   expected_delete_assign_base &
1049:Cpp/expected.hpp ****   operator=(expected_delete_assign_base &&) noexcept = default;
1050:Cpp/expected.hpp **** };
1051:Cpp/expected.hpp **** 
1052:Cpp/expected.hpp **** template <class T, class E>
ARM GAS  /tmp/ccU23Djm.s 			page 60


1053:Cpp/expected.hpp **** struct expected_delete_assign_base<T, E, false, false> {
1054:Cpp/expected.hpp ****   expected_delete_assign_base() = default;
1055:Cpp/expected.hpp ****   expected_delete_assign_base(const expected_delete_assign_base &) = default;
1056:Cpp/expected.hpp ****   expected_delete_assign_base(expected_delete_assign_base &&) noexcept =
1057:Cpp/expected.hpp ****       default;
1058:Cpp/expected.hpp ****   expected_delete_assign_base &
1059:Cpp/expected.hpp ****   operator=(const expected_delete_assign_base &) = delete;
1060:Cpp/expected.hpp ****   expected_delete_assign_base &
1061:Cpp/expected.hpp ****   operator=(expected_delete_assign_base &&) noexcept = delete;
1062:Cpp/expected.hpp **** };
1063:Cpp/expected.hpp **** 
1064:Cpp/expected.hpp **** // This is needed to be able to construct the expected_default_ctor_base which
1065:Cpp/expected.hpp **** // follows, while still conditionally deleting the default constructor.
1066:Cpp/expected.hpp **** struct default_constructor_tag {
1067:Cpp/expected.hpp ****   explicit constexpr default_constructor_tag() = default;
1068:Cpp/expected.hpp **** };
1069:Cpp/expected.hpp **** 
1070:Cpp/expected.hpp **** // expected_default_ctor_base will ensure that expected has a deleted default
1071:Cpp/expected.hpp **** // consturctor if T is not default constructible.
1072:Cpp/expected.hpp **** // This specialization is for when T is default constructible
1073:Cpp/expected.hpp **** template <class T, class E,
1074:Cpp/expected.hpp ****           bool Enable =
1075:Cpp/expected.hpp ****               std::is_default_constructible<T>::value || std::is_void<T>::value>
1076:Cpp/expected.hpp **** struct expected_default_ctor_base {
1077:Cpp/expected.hpp ****   constexpr expected_default_ctor_base() noexcept = default;
1078:Cpp/expected.hpp ****   constexpr expected_default_ctor_base(
1079:Cpp/expected.hpp ****       expected_default_ctor_base const &) noexcept = default;
1080:Cpp/expected.hpp ****   constexpr expected_default_ctor_base(expected_default_ctor_base &&) noexcept =
1081:Cpp/expected.hpp ****       default;
1082:Cpp/expected.hpp ****   expected_default_ctor_base &
1083:Cpp/expected.hpp ****   operator=(expected_default_ctor_base const &) noexcept = default;
1084:Cpp/expected.hpp ****   expected_default_ctor_base &
1085:Cpp/expected.hpp ****   operator=(expected_default_ctor_base &&) noexcept = default;
1086:Cpp/expected.hpp **** 
1087:Cpp/expected.hpp ****   constexpr explicit expected_default_ctor_base(default_constructor_tag) {}
1088:Cpp/expected.hpp **** };
1089:Cpp/expected.hpp **** 
1090:Cpp/expected.hpp **** // This specialization is for when T is not default constructible
1091:Cpp/expected.hpp **** template <class T, class E> struct expected_default_ctor_base<T, E, false> {
1092:Cpp/expected.hpp ****   constexpr expected_default_ctor_base() noexcept = delete;
1093:Cpp/expected.hpp ****   constexpr expected_default_ctor_base(
1094:Cpp/expected.hpp ****       expected_default_ctor_base const &) noexcept = default;
1095:Cpp/expected.hpp ****   constexpr expected_default_ctor_base(expected_default_ctor_base &&) noexcept =
1096:Cpp/expected.hpp ****       default;
1097:Cpp/expected.hpp ****   expected_default_ctor_base &
1098:Cpp/expected.hpp ****   operator=(expected_default_ctor_base const &) noexcept = default;
1099:Cpp/expected.hpp ****   expected_default_ctor_base &
1100:Cpp/expected.hpp ****   operator=(expected_default_ctor_base &&) noexcept = default;
1101:Cpp/expected.hpp **** 
1102:Cpp/expected.hpp ****   constexpr explicit expected_default_ctor_base(default_constructor_tag) {}
1103:Cpp/expected.hpp **** };
1104:Cpp/expected.hpp **** } // namespace detail
1105:Cpp/expected.hpp **** 
1106:Cpp/expected.hpp **** template <class E> class bad_expected_access : public std::exception {
1107:Cpp/expected.hpp **** public:
1108:Cpp/expected.hpp ****   explicit bad_expected_access(E e) : m_val(std::move(e)) {}
1109:Cpp/expected.hpp **** 
ARM GAS  /tmp/ccU23Djm.s 			page 61


1110:Cpp/expected.hpp ****   virtual const char *what() const noexcept override {
1111:Cpp/expected.hpp ****     return "Bad expected access";
1112:Cpp/expected.hpp ****   }
1113:Cpp/expected.hpp **** 
1114:Cpp/expected.hpp ****   const E &error() const & { return m_val; }
1115:Cpp/expected.hpp ****   E &error() & { return m_val; }
1116:Cpp/expected.hpp ****   const E &&error() const && { return std::move(m_val); }
1117:Cpp/expected.hpp ****   E &&error() && { return std::move(m_val); }
1118:Cpp/expected.hpp **** 
1119:Cpp/expected.hpp **** private:
1120:Cpp/expected.hpp ****   E m_val;
1121:Cpp/expected.hpp **** };
1122:Cpp/expected.hpp **** 
1123:Cpp/expected.hpp **** /// An `expected<T, E>` object is an object that contains the storage for
1124:Cpp/expected.hpp **** /// another object and manages the lifetime of this contained object `T`.
1125:Cpp/expected.hpp **** /// Alternatively it could contain the storage for another unexpected object
1126:Cpp/expected.hpp **** /// `E`. The contained object may not be initialized after the expected object
1127:Cpp/expected.hpp **** /// has been initialized, and may not be destroyed before the expected object
1128:Cpp/expected.hpp **** /// has been destroyed. The initialization state of the contained object is
1129:Cpp/expected.hpp **** /// tracked by the expected object.
1130:Cpp/expected.hpp **** template <class T, class E>
1131:Cpp/expected.hpp **** class expected : private detail::expected_move_assign_base<T, E>,
1132:Cpp/expected.hpp ****                  private detail::expected_delete_ctor_base<T, E>,
1133:Cpp/expected.hpp ****                  private detail::expected_delete_assign_base<T, E>,
1134:Cpp/expected.hpp ****                  private detail::expected_default_ctor_base<T, E> {
1135:Cpp/expected.hpp ****   static_assert(!std::is_reference<T>::value, "T must not be a reference");
1136:Cpp/expected.hpp ****   static_assert(!std::is_same<T, std::remove_cv<in_place_t>>::value,
1137:Cpp/expected.hpp ****                 "T must not be in_place_t");
1138:Cpp/expected.hpp ****   static_assert(!std::is_same<T, std::remove_cv<unexpect_t>>::value,
1139:Cpp/expected.hpp ****                 "T must not be unexpect_t");
1140:Cpp/expected.hpp ****   static_assert(!std::is_same<T, std::remove_cv<unexpected<E>>>::value,
1141:Cpp/expected.hpp ****                 "T must not be unexpected<E>");
1142:Cpp/expected.hpp ****   static_assert(!std::is_reference<E>::value, "E must not be a reference");
1143:Cpp/expected.hpp **** 
1144:Cpp/expected.hpp ****   T *valptr() { return std::addressof(this->m_val); }
1145:Cpp/expected.hpp ****   const T *valptr() const { return std::addressof(this->m_val); }    
1146:Cpp/expected.hpp ****   unexpected<E> *errptr() { return std::addressof(this->m_unexpect); }
1147:Cpp/expected.hpp ****   const unexpected<E> *errptr() const { return std::addressof(this->m_unexpect); }    
1148:Cpp/expected.hpp **** 
1149:Cpp/expected.hpp ****   template <class U = T,
1150:Cpp/expected.hpp ****             detail::enable_if_t<!std::is_void<U>::value> * = nullptr>
1151:Cpp/expected.hpp ****   U &val() {
1152:Cpp/expected.hpp ****     return this->m_val;
1153:Cpp/expected.hpp ****   }
1154:Cpp/expected.hpp ****   unexpected<E> &err() { return this->m_unexpect; }
1155:Cpp/expected.hpp **** 
1156:Cpp/expected.hpp ****   template <class U = T,
1157:Cpp/expected.hpp ****             detail::enable_if_t<!std::is_void<U>::value> * = nullptr>
1158:Cpp/expected.hpp ****   const U &val() const {
1159:Cpp/expected.hpp ****     return this->m_val;
1160:Cpp/expected.hpp ****   }
1161:Cpp/expected.hpp ****   const unexpected<E> &err() const { return this->m_unexpect; }
1162:Cpp/expected.hpp **** 
1163:Cpp/expected.hpp ****   using impl_base = detail::expected_move_assign_base<T, E>;
1164:Cpp/expected.hpp ****   using ctor_base = detail::expected_default_ctor_base<T, E>;
1165:Cpp/expected.hpp **** 
1166:Cpp/expected.hpp **** public:
ARM GAS  /tmp/ccU23Djm.s 			page 62


1167:Cpp/expected.hpp ****   typedef T value_type;
1168:Cpp/expected.hpp ****   typedef E error_type;
1169:Cpp/expected.hpp ****   typedef unexpected<E> unexpected_type;
1170:Cpp/expected.hpp **** 
1171:Cpp/expected.hpp **** #if defined(TL_EXPECTED_CXX14) && !defined(TL_EXPECTED_GCC49) &&               \
1172:Cpp/expected.hpp ****     !defined(TL_EXPECTED_GCC54) && !defined(TL_EXPECTED_GCC55)
1173:Cpp/expected.hpp ****   /// \group and_then
1174:Cpp/expected.hpp ****   /// Carries out some operation which returns an expected on the stored object
1175:Cpp/expected.hpp ****   /// if there is one. \requires `std::invoke(std::forward<F>(f), value())`
1176:Cpp/expected.hpp ****   /// returns an `expected<U>` for some `U`. \returns Let `U` be the result
1177:Cpp/expected.hpp ****   /// of `std::invoke(std::forward<F>(f), value())`. Returns an
1178:Cpp/expected.hpp ****   /// `expected<U>`. The return value is empty if `*this` is empty,
1179:Cpp/expected.hpp ****   /// otherwise the return value of `std::invoke(std::forward<F>(f), value())`
1180:Cpp/expected.hpp ****   /// is returned.
1181:Cpp/expected.hpp ****   /// \synopsis template <class F>\nconstexpr auto and_then(F &&f) &;
1182:Cpp/expected.hpp ****   template <class F> TL_EXPECTED_11_CONSTEXPR auto and_then(F &&f) & {
1183:Cpp/expected.hpp ****     return and_then_impl(*this, std::forward<F>(f));
1184:Cpp/expected.hpp ****   }
1185:Cpp/expected.hpp **** 
1186:Cpp/expected.hpp ****   /// \group and_then
1187:Cpp/expected.hpp ****   /// \synopsis template <class F>\nconstexpr auto and_then(F &&f) &&;
1188:Cpp/expected.hpp ****   template <class F> TL_EXPECTED_11_CONSTEXPR auto and_then(F &&f) && {
1189:Cpp/expected.hpp ****     return and_then_impl(std::move(*this), std::forward<F>(f));
1190:Cpp/expected.hpp ****   }
1191:Cpp/expected.hpp **** 
1192:Cpp/expected.hpp ****   /// \group and_then
1193:Cpp/expected.hpp ****   /// \synopsis template <class F>\nconstexpr auto and_then(F &&f) const &;
1194:Cpp/expected.hpp ****   template <class F> constexpr auto and_then(F &&f) const & {
1195:Cpp/expected.hpp ****     return and_then_impl(*this, std::forward<F>(f));
1196:Cpp/expected.hpp ****   }
1197:Cpp/expected.hpp **** 
1198:Cpp/expected.hpp **** #ifndef TL_EXPECTED_NO_CONSTRR
1199:Cpp/expected.hpp ****   /// \group and_then
1200:Cpp/expected.hpp ****   /// \synopsis template <class F>\nconstexpr auto and_then(F &&f) const &&;
1201:Cpp/expected.hpp ****   template <class F> constexpr auto and_then(F &&f) const && {
1202:Cpp/expected.hpp ****     return and_then_impl(std::move(*this), std::forward<F>(f));
1203:Cpp/expected.hpp ****   }
1204:Cpp/expected.hpp **** #endif
1205:Cpp/expected.hpp **** 
1206:Cpp/expected.hpp **** #else
1207:Cpp/expected.hpp ****   /// \group and_then
1208:Cpp/expected.hpp ****   /// Carries out some operation which returns an expected on the stored object
1209:Cpp/expected.hpp ****   /// if there is one. \requires `std::invoke(std::forward<F>(f), value())`
1210:Cpp/expected.hpp ****   /// returns an `expected<U>` for some `U`. \returns Let `U` be the result
1211:Cpp/expected.hpp ****   /// of `std::invoke(std::forward<F>(f), value())`. Returns an
1212:Cpp/expected.hpp ****   /// `expected<U>`. The return value is empty if `*this` is empty,
1213:Cpp/expected.hpp ****   /// otherwise the return value of `std::invoke(std::forward<F>(f), value())`
1214:Cpp/expected.hpp ****   /// is returned.
1215:Cpp/expected.hpp ****   /// \synopsis template <class F>\nconstexpr auto and_then(F &&f) &;
1216:Cpp/expected.hpp ****   template <class F>
1217:Cpp/expected.hpp ****   TL_EXPECTED_11_CONSTEXPR auto
1218:Cpp/expected.hpp ****   and_then(F &&f) & -> decltype(and_then_impl(*this, std::forward<F>(f))) {
1219:Cpp/expected.hpp ****     return and_then_impl(*this, std::forward<F>(f));
1220:Cpp/expected.hpp ****   }
1221:Cpp/expected.hpp **** 
1222:Cpp/expected.hpp ****   /// \group and_then
1223:Cpp/expected.hpp ****   /// \synopsis template <class F>\nconstexpr auto and_then(F &&f) &&;
ARM GAS  /tmp/ccU23Djm.s 			page 63


1224:Cpp/expected.hpp ****   template <class F>
1225:Cpp/expected.hpp ****   TL_EXPECTED_11_CONSTEXPR auto and_then(F &&f) && -> decltype(
1226:Cpp/expected.hpp ****       and_then_impl(std::move(*this), std::forward<F>(f))) {
1227:Cpp/expected.hpp ****     return and_then_impl(std::move(*this), std::forward<F>(f));
1228:Cpp/expected.hpp ****   }
1229:Cpp/expected.hpp **** 
1230:Cpp/expected.hpp ****   /// \group and_then
1231:Cpp/expected.hpp ****   /// \synopsis template <class F>\nconstexpr auto and_then(F &&f) const &;
1232:Cpp/expected.hpp ****   template <class F>
1233:Cpp/expected.hpp ****   constexpr auto and_then(F &&f) const & -> decltype(
1234:Cpp/expected.hpp ****       and_then_impl(*this, std::forward<F>(f))) {
1235:Cpp/expected.hpp ****     return and_then_impl(*this, std::forward<F>(f));
1236:Cpp/expected.hpp ****   }
1237:Cpp/expected.hpp **** 
1238:Cpp/expected.hpp **** #ifndef TL_EXPECTED_NO_CONSTRR
1239:Cpp/expected.hpp ****   /// \group and_then
1240:Cpp/expected.hpp ****   /// \synopsis template <class F>\nconstexpr auto and_then(F &&f) const &&;
1241:Cpp/expected.hpp ****   template <class F>
1242:Cpp/expected.hpp ****   constexpr auto and_then(F &&f) const && -> decltype(
1243:Cpp/expected.hpp ****       and_then_impl(std::move(*this), std::forward<F>(f))) {
1244:Cpp/expected.hpp ****     return and_then_impl(std::move(*this), std::forward<F>(f));
1245:Cpp/expected.hpp ****   }
1246:Cpp/expected.hpp **** #endif
1247:Cpp/expected.hpp **** #endif
1248:Cpp/expected.hpp **** 
1249:Cpp/expected.hpp **** #if defined(TL_EXPECTED_CXX14) && !defined(TL_EXPECTED_GCC49) &&               \
1250:Cpp/expected.hpp ****     !defined(TL_EXPECTED_GCC54) && !defined(TL_EXPECTED_GCC55)
1251:Cpp/expected.hpp ****   /// \brief Carries out some operation on the stored object if there is one.
1252:Cpp/expected.hpp ****   /// \returns Let `U` be the result of `std::invoke(std::forward<F>(f),
1253:Cpp/expected.hpp ****   /// value())`. If `U` is `void`, returns an `expected<monostate,E>, otherwise
1254:Cpp/expected.hpp ****   //  returns an `expected<U,E>`. If `*this` is unexpected, the
1255:Cpp/expected.hpp ****   /// result is `*this`, otherwise an `expected<U,E>` is constructed from the
1256:Cpp/expected.hpp ****   /// return value of `std::invoke(std::forward<F>(f), value())` and is
1257:Cpp/expected.hpp ****   /// returned.
1258:Cpp/expected.hpp ****   ///
1259:Cpp/expected.hpp ****   /// \group map
1260:Cpp/expected.hpp ****   /// \synopsis template <class F> constexpr auto map(F &&f) &;
1261:Cpp/expected.hpp ****   template <class F> TL_EXPECTED_11_CONSTEXPR auto map(F &&f) & {
1262:Cpp/expected.hpp ****     return expected_map_impl(*this, std::forward<F>(f));
1263:Cpp/expected.hpp ****   }
1264:Cpp/expected.hpp **** 
1265:Cpp/expected.hpp ****   /// \group map
1266:Cpp/expected.hpp ****   /// \synopsis template <class F> constexpr auto map(F &&f) &&;
1267:Cpp/expected.hpp ****   template <class F> TL_EXPECTED_11_CONSTEXPR auto map(F &&f) && {
1268:Cpp/expected.hpp ****     return expected_map_impl(std::move(*this), std::forward<F>(f));
1269:Cpp/expected.hpp ****   }
1270:Cpp/expected.hpp **** 
1271:Cpp/expected.hpp ****   /// \group map
1272:Cpp/expected.hpp ****   /// \synopsis template <class F> constexpr auto map(F &&f) const &;
1273:Cpp/expected.hpp ****   template <class F> constexpr auto map(F &&f) const & {
1274:Cpp/expected.hpp ****     return expected_map_impl(*this, std::forward<F>(f));
1275:Cpp/expected.hpp ****   }
1276:Cpp/expected.hpp **** 
1277:Cpp/expected.hpp ****   /// \group map
1278:Cpp/expected.hpp ****   /// \synopsis template <class F> constexpr auto map(F &&f) const &&;
1279:Cpp/expected.hpp ****   template <class F> constexpr auto map(F &&f) const && {
1280:Cpp/expected.hpp ****     return expected_map_impl(std::move(*this), std::forward<F>(f));
ARM GAS  /tmp/ccU23Djm.s 			page 64


1281:Cpp/expected.hpp ****   }
1282:Cpp/expected.hpp **** #else
1283:Cpp/expected.hpp ****   /// \brief Carries out some operation on the stored object if there is one.
1284:Cpp/expected.hpp ****   /// \returns Let `U` be the result of `std::invoke(std::forward<F>(f),
1285:Cpp/expected.hpp ****   /// value())`. If `U` is `void`, returns an `expected<monostate,E>, otherwise
1286:Cpp/expected.hpp ****   //  returns an `expected<U,E>`. If `*this` is unexpected, the
1287:Cpp/expected.hpp ****   /// result is `*this`, otherwise an `expected<U,E>` is constructed from the
1288:Cpp/expected.hpp ****   /// return value of `std::invoke(std::forward<F>(f), value())` and is
1289:Cpp/expected.hpp ****   /// returned.
1290:Cpp/expected.hpp ****   ///
1291:Cpp/expected.hpp ****   /// \group map
1292:Cpp/expected.hpp ****   /// \synopsis template <class F> constexpr auto map(F &&f) &;
1293:Cpp/expected.hpp ****   template <class F>
1294:Cpp/expected.hpp ****   TL_EXPECTED_11_CONSTEXPR decltype(
1295:Cpp/expected.hpp ****       expected_map_impl(std::declval<expected &>(), std::declval<F &&>()))
1296:Cpp/expected.hpp ****   map(F &&f) & {
1297:Cpp/expected.hpp ****     return expected_map_impl(*this, std::forward<F>(f));
1298:Cpp/expected.hpp ****   }
1299:Cpp/expected.hpp **** 
1300:Cpp/expected.hpp ****   /// \group map
1301:Cpp/expected.hpp ****   /// \synopsis template <class F> constexpr auto map(F &&f) &&;
1302:Cpp/expected.hpp ****   template <class F>
1303:Cpp/expected.hpp ****   TL_EXPECTED_11_CONSTEXPR decltype(
1304:Cpp/expected.hpp ****       expected_map_impl(std::declval<expected &>(), std::declval<F &&>()))
1305:Cpp/expected.hpp ****   map(F &&f) && {
1306:Cpp/expected.hpp ****     return expected_map_impl(std::move(*this), std::forward<F>(f));
1307:Cpp/expected.hpp ****   }
1308:Cpp/expected.hpp **** 
1309:Cpp/expected.hpp ****   /// \group map
1310:Cpp/expected.hpp ****   /// \synopsis template <class F> constexpr auto map(F &&f) const &;
1311:Cpp/expected.hpp ****   template <class F>
1312:Cpp/expected.hpp ****   constexpr decltype(expected_map_impl(std::declval<const expected &>(),
1313:Cpp/expected.hpp ****                                        std::declval<F &&>()))
1314:Cpp/expected.hpp ****   map(F &&f) const & {
1315:Cpp/expected.hpp ****     return expected_map_impl(*this, std::forward<F>(f));
1316:Cpp/expected.hpp ****   }
1317:Cpp/expected.hpp **** 
1318:Cpp/expected.hpp **** #ifndef TL_EXPECTED_NO_CONSTRR
1319:Cpp/expected.hpp ****   /// \group map
1320:Cpp/expected.hpp ****   /// \synopsis template <class F> constexpr auto map(F &&f) const &&;
1321:Cpp/expected.hpp ****   template <class F>
1322:Cpp/expected.hpp ****   constexpr decltype(expected_map_impl(std::declval<const expected &&>(),
1323:Cpp/expected.hpp ****                                        std::declval<F &&>()))
1324:Cpp/expected.hpp ****   map(F &&f) const && {
1325:Cpp/expected.hpp ****     return expected_map_impl(std::move(*this), std::forward<F>(f));
1326:Cpp/expected.hpp ****   }
1327:Cpp/expected.hpp **** #endif
1328:Cpp/expected.hpp **** #endif
1329:Cpp/expected.hpp **** 
1330:Cpp/expected.hpp **** #if defined(TL_EXPECTED_CXX14) && !defined(TL_EXPECTED_GCC49) &&               \
1331:Cpp/expected.hpp ****     !defined(TL_EXPECTED_GCC54) && !defined(TL_EXPECTED_GCC55)
1332:Cpp/expected.hpp ****   /// \brief Carries out some operation on the stored unexpected object if there
1333:Cpp/expected.hpp ****   /// is one.
1334:Cpp/expected.hpp ****   /// \returns Let `U` be the result of `std::invoke(std::forward<F>(f),
1335:Cpp/expected.hpp ****   /// value())`. If `U` is `void`, returns an `expected<T,monostate>`, otherwise
1336:Cpp/expected.hpp ****   /// returns an `expected<T,U>`. If `*this` has an expected
1337:Cpp/expected.hpp ****   /// value, the result is `*this`, otherwise an `expected<T,U>` is constructed
ARM GAS  /tmp/ccU23Djm.s 			page 65


1338:Cpp/expected.hpp ****   /// from `make_unexpected(std::invoke(std::forward<F>(f), value()))` and is
1339:Cpp/expected.hpp ****   /// returned.
1340:Cpp/expected.hpp ****   ///
1341:Cpp/expected.hpp ****   /// \group map_error
1342:Cpp/expected.hpp ****   /// \synopsis template <class F> constexpr auto map_error(F &&f) &;
1343:Cpp/expected.hpp ****   template <class F> TL_EXPECTED_11_CONSTEXPR auto map_error(F &&f) & {
1344:Cpp/expected.hpp ****     return map_error_impl(*this, std::forward<F>(f));
1345:Cpp/expected.hpp ****   }
1346:Cpp/expected.hpp **** 
1347:Cpp/expected.hpp ****   /// \group map_error
1348:Cpp/expected.hpp ****   /// \synopsis template <class F> constexpr auto map_error(F &&f) &&;
1349:Cpp/expected.hpp ****   template <class F> TL_EXPECTED_11_CONSTEXPR auto map_error(F &&f) && {
1350:Cpp/expected.hpp ****     return map_error_impl(std::move(*this), std::forward<F>(f));
1351:Cpp/expected.hpp ****   }
1352:Cpp/expected.hpp **** 
1353:Cpp/expected.hpp ****   /// \group map_error
1354:Cpp/expected.hpp ****   /// \synopsis template <class F> constexpr auto map_error(F &&f) const &;
1355:Cpp/expected.hpp ****   template <class F> constexpr auto map_error(F &&f) const & {
1356:Cpp/expected.hpp ****     return map_error_impl(*this, std::forward<F>(f));
1357:Cpp/expected.hpp ****   }
1358:Cpp/expected.hpp **** 
1359:Cpp/expected.hpp ****   /// \group map_error
1360:Cpp/expected.hpp ****   /// \synopsis template <class F> constexpr auto map_error(F &&f) const &&;
1361:Cpp/expected.hpp ****   template <class F> constexpr auto map_error(F &&f) const && {
1362:Cpp/expected.hpp ****     return map_error_impl(std::move(*this), std::forward<F>(f));
1363:Cpp/expected.hpp ****   }
1364:Cpp/expected.hpp **** #else
1365:Cpp/expected.hpp ****   /// \brief Carries out some operation on the stored unexpected object if there
1366:Cpp/expected.hpp ****   /// is one.
1367:Cpp/expected.hpp ****   /// \returns Let `U` be the result of `std::invoke(std::forward<F>(f),
1368:Cpp/expected.hpp ****   /// value())`. Returns an `expected<T,U>`. If `*this` has an expected
1369:Cpp/expected.hpp ****   /// value, the result is `*this`, otherwise an `expected<T,U>` is constructed
1370:Cpp/expected.hpp ****   /// from `make_unexpected(std::invoke(std::forward<F>(f), value()))` and is
1371:Cpp/expected.hpp ****   /// returned.
1372:Cpp/expected.hpp ****   ///
1373:Cpp/expected.hpp ****   /// \group map_error
1374:Cpp/expected.hpp ****   /// \synopsis template <class F> constexpr auto map_error(F &&f) &;
1375:Cpp/expected.hpp ****   template <class F>
1376:Cpp/expected.hpp ****   TL_EXPECTED_11_CONSTEXPR decltype(map_error_impl(std::declval<expected &>(),
1377:Cpp/expected.hpp ****                                                    std::declval<F &&>()))
1378:Cpp/expected.hpp ****   map_error(F &&f) & {
1379:Cpp/expected.hpp ****     return map_error_impl(*this, std::forward<F>(f));
1380:Cpp/expected.hpp ****   }
1381:Cpp/expected.hpp **** 
1382:Cpp/expected.hpp ****   /// \group map_error
1383:Cpp/expected.hpp ****   /// \synopsis template <class F> constexpr auto map_error(F &&f) &&;
1384:Cpp/expected.hpp ****   template <class F>
1385:Cpp/expected.hpp ****   TL_EXPECTED_11_CONSTEXPR decltype(map_error_impl(std::declval<expected &&>(),
1386:Cpp/expected.hpp ****                                                    std::declval<F &&>()))
1387:Cpp/expected.hpp ****   map_error(F &&f) && {
1388:Cpp/expected.hpp ****     return map_error_impl(std::move(*this), std::forward<F>(f));
1389:Cpp/expected.hpp ****   }
1390:Cpp/expected.hpp **** 
1391:Cpp/expected.hpp ****   /// \group map_error
1392:Cpp/expected.hpp ****   /// \synopsis template <class F> constexpr auto map_error(F &&f) const &;
1393:Cpp/expected.hpp ****   template <class F>
1394:Cpp/expected.hpp ****   constexpr decltype(map_error_impl(std::declval<const expected &>(),
ARM GAS  /tmp/ccU23Djm.s 			page 66


1395:Cpp/expected.hpp ****                                     std::declval<F &&>()))
1396:Cpp/expected.hpp ****   map_error(F &&f) const & {
1397:Cpp/expected.hpp ****     return map_error_impl(*this, std::forward<F>(f));
1398:Cpp/expected.hpp ****   }
1399:Cpp/expected.hpp **** 
1400:Cpp/expected.hpp **** #ifndef TL_EXPECTED_NO_CONSTRR
1401:Cpp/expected.hpp ****   /// \group map_error
1402:Cpp/expected.hpp ****   /// \synopsis template <class F> constexpr auto map_error(F &&f) const &&;
1403:Cpp/expected.hpp ****   template <class F>
1404:Cpp/expected.hpp ****   constexpr decltype(map_error_impl(std::declval<const expected &&>(),
1405:Cpp/expected.hpp ****                                     std::declval<F &&>()))
1406:Cpp/expected.hpp ****   map_error(F &&f) const && {
1407:Cpp/expected.hpp ****     return map_error_impl(std::move(*this), std::forward<F>(f));
1408:Cpp/expected.hpp ****   }
1409:Cpp/expected.hpp **** #endif
1410:Cpp/expected.hpp **** #endif
1411:Cpp/expected.hpp **** 
1412:Cpp/expected.hpp ****   /// \brief Calls `f` if the expectd is in the unexpected state
1413:Cpp/expected.hpp ****   /// \requires `F` is invokable with `E`, and `std::invoke_result_t<F>`
1414:Cpp/expected.hpp ****   /// must be void or convertible to `expcted<T,E>`.
1415:Cpp/expected.hpp ****   /// \effects If `*this` has a value, returns `*this`.
1416:Cpp/expected.hpp ****   /// Otherwise, if `f` returns `void`, calls `std::forward<F>(f)(E)` and returns
1417:Cpp/expected.hpp ****   /// `std::nullopt`. Otherwise, returns `std::forward<F>(f)(E)`.
1418:Cpp/expected.hpp ****   ///
1419:Cpp/expected.hpp ****   /// \group or_else
1420:Cpp/expected.hpp ****   template <class F> expected TL_EXPECTED_11_CONSTEXPR or_else(F &&f) & {
1421:Cpp/expected.hpp ****     return or_else_impl(*this, std::forward<F>(f));
1422:Cpp/expected.hpp ****   }
1423:Cpp/expected.hpp **** 
1424:Cpp/expected.hpp ****   template <class F> expected TL_EXPECTED_11_CONSTEXPR or_else(F &&f) && {
1425:Cpp/expected.hpp ****     return or_else_impl(std::move(*this), std::forward<F>(f));
1426:Cpp/expected.hpp ****   }
1427:Cpp/expected.hpp **** 
1428:Cpp/expected.hpp ****   template <class F> expected constexpr or_else(F &&f) const & {
1429:Cpp/expected.hpp ****     return or_else_impl(*this, std::forward<F>(f));
1430:Cpp/expected.hpp ****   }
1431:Cpp/expected.hpp **** 
1432:Cpp/expected.hpp **** #ifndef TL_EXPECTED_NO_CONSTRR
1433:Cpp/expected.hpp ****   template <class F> expected constexpr or_else(F &&f) const && {
1434:Cpp/expected.hpp ****     return or_else_impl(std::move(*this), std::forward<F>(f));
1435:Cpp/expected.hpp ****   }
1436:Cpp/expected.hpp **** #endif
1437:Cpp/expected.hpp ****   constexpr expected() = default;
 1688              		.loc 7 1437 13
 1689              		.cfi_startproc
 1690              		@ args = 0, pretend = 0, frame = 8
 1691              		@ frame_needed = 1, uses_anonymous_args = 0
 1692 0000 80B5     		push	{r7, lr}
 1693              	.LCFI139:
 1694              		.cfi_def_cfa_offset 8
 1695              		.cfi_offset 7, -8
 1696              		.cfi_offset 14, -4
 1697 0002 82B0     		sub	sp, sp, #8
 1698              	.LCFI140:
 1699              		.cfi_def_cfa_offset 16
 1700 0004 00AF     		add	r7, sp, #0
 1701              	.LCFI141:
ARM GAS  /tmp/ccU23Djm.s 			page 67


 1702              		.cfi_def_cfa_register 7
 1703 0006 7860     		str	r0, [r7, #4]
 1704              	.LBB14:
 1705              		.loc 7 1437 13
 1706 0008 7B68     		ldr	r3, [r7, #4]
 1707 000a 1846     		mov	r0, r3
 1708 000c FFF7FEFF 		bl	_ZN2tl6detail25expected_move_assign_baseIvN4otto4util12local_vectorINS2_3mcu9Scheduler4TaskELj1
 1709              	.LBE14:
 1710 0010 7B68     		ldr	r3, [r7, #4]
 1711 0012 1846     		mov	r0, r3
 1712 0014 0837     		adds	r7, r7, #8
 1713              	.LCFI142:
 1714              		.cfi_def_cfa_offset 8
 1715 0016 BD46     		mov	sp, r7
 1716              	.LCFI143:
 1717              		.cfi_def_cfa_register 13
 1718              		@ sp needed
 1719 0018 80BD     		pop	{r7, pc}
 1720              		.cfi_endproc
 1721              	.LFE3911:
 1723              		.weak	_ZN2tl8expectedIvN4otto4util12local_vectorINS1_3mcu9Scheduler4TaskELj1024EE5errorEEC1Ev
 1724              		.thumb_set _ZN2tl8expectedIvN4otto4util12local_vectorINS1_3mcu9Scheduler4TaskELj1024EE5errorEEC1Ev
 1725              		.section	.text._ZN4otto4util12local_vectorINS_3mcu9Scheduler4TaskELj1024EE8pop_backEv,"axG",%progb
 1726              		.align	1
 1727              		.weak	_ZN4otto4util12local_vectorINS_3mcu9Scheduler4TaskELj1024EE8pop_backEv
 1728              		.syntax unified
 1729              		.thumb
 1730              		.thumb_func
 1731              		.fpu fpv4-sp-d16
 1733              	_ZN4otto4util12local_vectorINS_3mcu9Scheduler4TaskELj1024EE8pop_backEv:
 1734              	.LFB3892:
  78:Cpp/local_vector.hpp **** 
  79:Cpp/local_vector.hpp ****     constexpr auto end() const noexcept
  80:Cpp/local_vector.hpp ****     {
  81:Cpp/local_vector.hpp ****       return data() + _size;
  82:Cpp/local_vector.hpp ****     }
  83:Cpp/local_vector.hpp **** 
  84:Cpp/local_vector.hpp ****     constexpr auto rbegin() noexcept
  85:Cpp/local_vector.hpp ****     {
  86:Cpp/local_vector.hpp ****       return std::make_reverse_iterator(end());
  87:Cpp/local_vector.hpp ****     }
  88:Cpp/local_vector.hpp **** 
  89:Cpp/local_vector.hpp ****     constexpr auto rbegin() const noexcept
  90:Cpp/local_vector.hpp ****     {
  91:Cpp/local_vector.hpp ****       return std::make_reverse_iterator(end());
  92:Cpp/local_vector.hpp ****     }
  93:Cpp/local_vector.hpp **** 
  94:Cpp/local_vector.hpp ****     constexpr auto rend() noexcept
  95:Cpp/local_vector.hpp ****     {
  96:Cpp/local_vector.hpp ****       return std::make_reverse_iterator(begin());
  97:Cpp/local_vector.hpp ****     }
  98:Cpp/local_vector.hpp **** 
  99:Cpp/local_vector.hpp ****     constexpr auto rend() const noexcept
 100:Cpp/local_vector.hpp ****     {
 101:Cpp/local_vector.hpp ****       return std::make_reverse_iterator(begin());
 102:Cpp/local_vector.hpp ****     }
 103:Cpp/local_vector.hpp **** 
ARM GAS  /tmp/ccU23Djm.s 			page 68


 104:Cpp/local_vector.hpp ****     // Accessors
 105:Cpp/local_vector.hpp **** 
 106:Cpp/local_vector.hpp ****     constexpr value_type& front() noexcept
 107:Cpp/local_vector.hpp ****     {
 108:Cpp/local_vector.hpp ****       return *begin();
 109:Cpp/local_vector.hpp ****     }
 110:Cpp/local_vector.hpp **** 
 111:Cpp/local_vector.hpp ****     constexpr const value_type& front() const noexcept
 112:Cpp/local_vector.hpp ****     {
 113:Cpp/local_vector.hpp ****       return *begin();
 114:Cpp/local_vector.hpp ****     }
 115:Cpp/local_vector.hpp **** 
 116:Cpp/local_vector.hpp ****     constexpr value_type& back() noexcept
 117:Cpp/local_vector.hpp ****     {
 118:Cpp/local_vector.hpp ****       return data()[_size - 1];
 119:Cpp/local_vector.hpp ****     }
 120:Cpp/local_vector.hpp **** 
 121:Cpp/local_vector.hpp ****     constexpr const value_type& back() const noexcept
 122:Cpp/local_vector.hpp ****     {
 123:Cpp/local_vector.hpp ****       return data()[_size - 1];
 124:Cpp/local_vector.hpp ****     }
 125:Cpp/local_vector.hpp **** 
 126:Cpp/local_vector.hpp ****     constexpr value_type& operator[](std::size_t idx) noexcept
 127:Cpp/local_vector.hpp ****     {
 128:Cpp/local_vector.hpp ****       return data()[idx];
 129:Cpp/local_vector.hpp ****     }
 130:Cpp/local_vector.hpp ****     constexpr const value_type& operator[](std::size_t idx) const noexcept
 131:Cpp/local_vector.hpp ****     {
 132:Cpp/local_vector.hpp ****       return data()[idx];
 133:Cpp/local_vector.hpp ****     }
 134:Cpp/local_vector.hpp ****     constexpr value_type* data() noexcept
 135:Cpp/local_vector.hpp ****     {
 136:Cpp/local_vector.hpp ****       // Launder is a pointer optimization barrier. It's necessary to make the
 137:Cpp/local_vector.hpp ****       // reinterpret_cast legal in this case
 138:Cpp/local_vector.hpp **** #if __cpp_lib_launder >= 201606
 139:Cpp/local_vector.hpp ****       // have std::launder for sure
 140:Cpp/local_vector.hpp ****       return std::launder(reinterpret_cast<value_type*>(&_data));
 141:Cpp/local_vector.hpp **** #else
 142:Cpp/local_vector.hpp ****       // not sure, could've std::launder either way
 143:Cpp/local_vector.hpp ****       return reinterpret_cast<value_type*>(&_data);
 144:Cpp/local_vector.hpp **** #endif
 145:Cpp/local_vector.hpp ****     }
 146:Cpp/local_vector.hpp **** 
 147:Cpp/local_vector.hpp ****     constexpr const value_type* data() const noexcept
 148:Cpp/local_vector.hpp ****     {
 149:Cpp/local_vector.hpp ****       // Launder is a pointer optimization barrier. It's necessary to make the
 150:Cpp/local_vector.hpp ****       // reinterpret_cast legal in this case
 151:Cpp/local_vector.hpp **** #if __cpp_lib_launder >= 201606
 152:Cpp/local_vector.hpp ****       // have std::launder for sure
 153:Cpp/local_vector.hpp ****       return std::launder(reinterpret_cast<const value_type*>(&_data));
 154:Cpp/local_vector.hpp **** #else
 155:Cpp/local_vector.hpp ****       // not sure, could've std::launder either way
 156:Cpp/local_vector.hpp ****       return reinterpret_cast<const value_type*>(&_data);
 157:Cpp/local_vector.hpp **** #endif
 158:Cpp/local_vector.hpp ****     }
 159:Cpp/local_vector.hpp **** 
 160:Cpp/local_vector.hpp ****     // Modifiers
ARM GAS  /tmp/ccU23Djm.s 			page 69


 161:Cpp/local_vector.hpp **** 
 162:Cpp/local_vector.hpp ****     constexpr tl::expected<value_type*, error> push_back(const value_type& e) noexcept
 163:Cpp/local_vector.hpp ****     {
 164:Cpp/local_vector.hpp ****       return emplace_back(e);
 165:Cpp/local_vector.hpp ****     }
 166:Cpp/local_vector.hpp **** 
 167:Cpp/local_vector.hpp ****     constexpr tl::expected<value_type*, error> push_back(value_type&& e) noexcept
 168:Cpp/local_vector.hpp ****     {
 169:Cpp/local_vector.hpp ****       return emplace_back(std::move(e));
 170:Cpp/local_vector.hpp ****     }
 171:Cpp/local_vector.hpp **** 
 172:Cpp/local_vector.hpp ****     template<typename... Args, typename Enable = std::enable_if_t<std::is_constructible_v<value_typ
 173:Cpp/local_vector.hpp ****     constexpr tl::expected<value_type*, error> emplace_back(Args&&... args) noexcept
 174:Cpp/local_vector.hpp ****     {
 175:Cpp/local_vector.hpp ****       if (full()) return tl::unexpected(error::full);
 176:Cpp/local_vector.hpp ****       new (data() + _size) T(std::forward<Args>(args)...);
 177:Cpp/local_vector.hpp ****       _size++;
 178:Cpp/local_vector.hpp ****       return &back();
 179:Cpp/local_vector.hpp ****     }
 180:Cpp/local_vector.hpp **** 
 181:Cpp/local_vector.hpp ****     /// Inserts value before pos
 182:Cpp/local_vector.hpp ****     constexpr tl::expected<iterator, error> insert_before(iterator iter, const value_type& value) n
 183:Cpp/local_vector.hpp ****     {
 184:Cpp/local_vector.hpp ****       return push_back(value).map([&](auto&&) {
 185:Cpp/local_vector.hpp ****         // Move the element back until its placed at the correct location
 186:Cpp/local_vector.hpp ****         for (auto i = end() - 1; i != iter; --i) {
 187:Cpp/local_vector.hpp ****           std::swap(*(i), *(i - 1));
 188:Cpp/local_vector.hpp ****         }
 189:Cpp/local_vector.hpp ****         return iter;
 190:Cpp/local_vector.hpp ****       });
 191:Cpp/local_vector.hpp ****     }
 192:Cpp/local_vector.hpp **** 
 193:Cpp/local_vector.hpp ****     /// Inserts value before iter. NOTE: use insert_before for noexcept version
 194:Cpp/local_vector.hpp ****     ///
 195:Cpp/local_vector.hpp ****     /// Mainly provided for use with STL algorithms like transform.
 196:Cpp/local_vector.hpp ****     ///
 197:Cpp/local_vector.hpp ****     /// @throws tl::bad_expected_access<error> if there was an error when inserting
 198:Cpp/local_vector.hpp ****     constexpr iterator insert(iterator iter, const value_type& value)
 199:Cpp/local_vector.hpp ****     {
 200:Cpp/local_vector.hpp ****       return insert_before(iter, value).value();
 201:Cpp/local_vector.hpp ****     }
 202:Cpp/local_vector.hpp **** 
 203:Cpp/local_vector.hpp ****     constexpr tl::expected<void, error> pop_back() noexcept
 1735              		.loc 5 203 41
 1736              		.cfi_startproc
 1737              		@ args = 0, pretend = 0, frame = 16
 1738              		@ frame_needed = 1, uses_anonymous_args = 0
 1739 0000 80B5     		push	{r7, lr}
 1740              	.LCFI144:
 1741              		.cfi_def_cfa_offset 8
 1742              		.cfi_offset 7, -8
 1743              		.cfi_offset 14, -4
 1744 0002 84B0     		sub	sp, sp, #16
 1745              	.LCFI145:
 1746              		.cfi_def_cfa_offset 24
 1747 0004 00AF     		add	r7, sp, #0
 1748              	.LCFI146:
ARM GAS  /tmp/ccU23Djm.s 			page 70


 1749              		.cfi_def_cfa_register 7
 1750 0006 7860     		str	r0, [r7, #4]
 1751 0008 3960     		str	r1, [r7]
 204:Cpp/local_vector.hpp ****     {
 205:Cpp/local_vector.hpp ****       if (empty()) return tl::unexpected(error::empty);
 1752              		.loc 5 205 7
 1753 000a 3868     		ldr	r0, [r7]
 1754 000c FFF7FEFF 		bl	_ZNK4otto4util12local_vectorINS_3mcu9Scheduler4TaskELj1024EE5emptyEv
 1755 0010 0346     		mov	r3, r0
 1756 0012 002B     		cmp	r3, #0
 1757 0014 10D0     		beq	.L73
 1758              		.loc 5 205 54 discriminator 1
 1759 0016 0123     		movs	r3, #1
 1760 0018 FB60     		str	r3, [r7, #12]
 1761 001a 07F10C02 		add	r2, r7, #12
 1762 001e 07F10803 		add	r3, r7, #8
 1763 0022 1146     		mov	r1, r2
 1764 0024 1846     		mov	r0, r3
 1765 0026 FFF7FEFF 		bl	_ZN2tl10unexpectedIN4otto4util12local_vectorINS1_3mcu9Scheduler4TaskELj1024EE5errorEEC1EOS8_
 1766 002a 07F10803 		add	r3, r7, #8
 1767 002e 1946     		mov	r1, r3
 1768 0030 7868     		ldr	r0, [r7, #4]
 1769 0032 FFF7FEFF 		bl	_ZN2tl8expectedIvN4otto4util12local_vectorINS1_3mcu9Scheduler4TaskELj1024EE5errorEEC1IS8_LPv0EL
 1770 0036 20E0     		b	.L72
 1771              	.L73:
 206:Cpp/local_vector.hpp ****       data()[_size].~T();
 1772              		.loc 5 206 13
 1773 0038 3868     		ldr	r0, [r7]
 1774 003a FFF7FEFF 		bl	_ZN4otto4util12local_vectorINS_3mcu9Scheduler4TaskELj1024EE4dataEv
 1775 003e 0146     		mov	r1, r0
 1776              		.loc 5 206 14
 1777 0040 3B68     		ldr	r3, [r7]
 1778 0042 03F5A033 		add	r3, r3, #81920
 1779 0046 1A68     		ldr	r2, [r3]
 1780              		.loc 5 206 13
 1781 0048 1346     		mov	r3, r2
 1782 004a 9B00     		lsls	r3, r3, #2
 1783 004c 1344     		add	r3, r3, r2
 1784 004e 1B01     		lsls	r3, r3, #4
 1785              		.loc 5 206 7
 1786 0050 0B44     		add	r3, r3, r1
 1787 0052 1846     		mov	r0, r3
 1788 0054 FFF7FEFF 		bl	_ZN4otto3mcu9Scheduler4TaskD1Ev
 207:Cpp/local_vector.hpp ****       _size--;
 1789              		.loc 5 207 7
 1790 0058 3B68     		ldr	r3, [r7]
 1791 005a 03F5A033 		add	r3, r3, #81920
 1792 005e 1B68     		ldr	r3, [r3]
 1793 0060 5A1E     		subs	r2, r3, #1
 1794 0062 3B68     		ldr	r3, [r7]
 1795 0064 03F5A033 		add	r3, r3, #81920
 1796 0068 1A60     		str	r2, [r3]
 208:Cpp/local_vector.hpp ****       return {};
 1797              		.loc 5 208 15
 1798 006a 7B68     		ldr	r3, [r7, #4]
 1799 006c 1A46     		mov	r2, r3
 1800 006e 0023     		movs	r3, #0
ARM GAS  /tmp/ccU23Djm.s 			page 71


 1801 0070 1360     		str	r3, [r2]
 1802 0072 5360     		str	r3, [r2, #4]
 1803 0074 7868     		ldr	r0, [r7, #4]
 1804 0076 FFF7FEFF 		bl	_ZN2tl8expectedIvN4otto4util12local_vectorINS1_3mcu9Scheduler4TaskELj1024EE5errorEEC1Ev
 1805              	.L72:
 209:Cpp/local_vector.hpp ****     }
 1806              		.loc 5 209 5
 1807 007a 7868     		ldr	r0, [r7, #4]
 1808 007c 1037     		adds	r7, r7, #16
 1809              	.LCFI147:
 1810              		.cfi_def_cfa_offset 8
 1811 007e BD46     		mov	sp, r7
 1812              	.LCFI148:
 1813              		.cfi_def_cfa_register 13
 1814              		@ sp needed
 1815 0080 80BD     		pop	{r7, pc}
 1816              		.cfi_endproc
 1817              	.LFE3892:
 1819              		.section	.text._ZN4otto3mcu9Scheduler3popEv,"axG",%progbits,_ZN4otto3mcu9Scheduler3popEv,comdat
 1820              		.align	1
 1821              		.weak	_ZN4otto3mcu9Scheduler3popEv
 1822              		.syntax unified
 1823              		.thumb
 1824              		.thumb_func
 1825              		.fpu fpv4-sp-d16
 1827              	_ZN4otto3mcu9Scheduler3popEv:
 1828              	.LFB3886:
  71:Cpp/scheduler.hpp **** 
  72:Cpp/scheduler.hpp ****   private:
  73:Cpp/scheduler.hpp ****     Task pop()
 1829              		.loc 6 73 10
 1830              		.cfi_startproc
 1831              		@ args = 0, pretend = 0, frame = 16
 1832              		@ frame_needed = 1, uses_anonymous_args = 0
 1833 0000 B0B5     		push	{r4, r5, r7, lr}
 1834              	.LCFI149:
 1835              		.cfi_def_cfa_offset 16
 1836              		.cfi_offset 4, -16
 1837              		.cfi_offset 5, -12
 1838              		.cfi_offset 7, -8
 1839              		.cfi_offset 14, -4
 1840 0002 84B0     		sub	sp, sp, #16
 1841              	.LCFI150:
 1842              		.cfi_def_cfa_offset 32
 1843 0004 00AF     		add	r7, sp, #0
 1844              	.LCFI151:
 1845              		.cfi_def_cfa_register 7
 1846 0006 7860     		str	r0, [r7, #4]
 1847 0008 3960     		str	r1, [r7]
  74:Cpp/scheduler.hpp ****     {
  75:Cpp/scheduler.hpp ****       std::pop_heap(queue_.begin(), queue_.end(), std::greater<Task>());
 1848              		.loc 6 75 20
 1849 000a 3B68     		ldr	r3, [r7]
 1850 000c 1846     		mov	r0, r3
 1851 000e FFF7FEFF 		bl	_ZN4otto4util12local_vectorINS_3mcu9Scheduler4TaskELj1024EE5beginEv
 1852 0012 0446     		mov	r4, r0
 1853 0014 3B68     		ldr	r3, [r7]
ARM GAS  /tmp/ccU23Djm.s 			page 72


 1854 0016 1846     		mov	r0, r3
 1855 0018 FFF7FEFF 		bl	_ZN4otto4util12local_vectorINS_3mcu9Scheduler4TaskELj1024EE3endEv
 1856 001c 0346     		mov	r3, r0
 1857 001e 2A46     		mov	r2, r5
 1858 0020 1946     		mov	r1, r3
 1859 0022 2046     		mov	r0, r4
 1860 0024 FFF7FEFF 		bl	_ZSt8pop_heapIPN4otto3mcu9Scheduler4TaskESt7greaterIS3_EEvT_S7_T0_
  76:Cpp/scheduler.hpp ****       Task res = std::move(queue_.back());
 1861              		.loc 6 76 40
 1862 0028 3B68     		ldr	r3, [r7]
 1863 002a 1846     		mov	r0, r3
 1864 002c FFF7FEFF 		bl	_ZN4otto4util12local_vectorINS_3mcu9Scheduler4TaskELj1024EE4backEv
 1865 0030 0346     		mov	r3, r0
 1866              		.loc 6 76 41
 1867 0032 1846     		mov	r0, r3
 1868 0034 FFF7FEFF 		bl	_ZSt4moveIRN4otto3mcu9Scheduler4TaskEEONSt16remove_referenceIT_E4typeEOS6_
 1869 0038 0346     		mov	r3, r0
 1870 003a 1946     		mov	r1, r3
 1871 003c 7868     		ldr	r0, [r7, #4]
 1872 003e FFF7FEFF 		bl	_ZN4otto3mcu9Scheduler4TaskC1EOS2_
  77:Cpp/scheduler.hpp ****       queue_.pop_back();
 1873              		.loc 6 77 23
 1874 0042 3A68     		ldr	r2, [r7]
 1875 0044 07F10803 		add	r3, r7, #8
 1876 0048 1146     		mov	r1, r2
 1877 004a 1846     		mov	r0, r3
 1878 004c FFF7FEFF 		bl	_ZN4otto4util12local_vectorINS_3mcu9Scheduler4TaskELj1024EE8pop_backEv
  78:Cpp/scheduler.hpp ****       return res;
 1879              		.loc 6 78 14
 1880 0050 00BF     		nop
  79:Cpp/scheduler.hpp ****     }
 1881              		.loc 6 79 5
 1882 0052 7868     		ldr	r0, [r7, #4]
 1883 0054 1037     		adds	r7, r7, #16
 1884              	.LCFI152:
 1885              		.cfi_def_cfa_offset 16
 1886 0056 BD46     		mov	sp, r7
 1887              	.LCFI153:
 1888              		.cfi_def_cfa_register 13
 1889              		@ sp needed
 1890 0058 B0BD     		pop	{r4, r5, r7, pc}
 1891              		.cfi_endproc
 1892              	.LFE3886:
 1894              		.section	.text._ZNK4otto4util12local_vectorINS_3mcu9Scheduler4TaskELj1024EE4fullEv,"axG",%progbits
 1895              		.align	1
 1896              		.weak	_ZNK4otto4util12local_vectorINS_3mcu9Scheduler4TaskELj1024EE4fullEv
 1897              		.syntax unified
 1898              		.thumb
 1899              		.thumb_func
 1900              		.fpu fpv4-sp-d16
 1902              	_ZNK4otto4util12local_vectorINS_3mcu9Scheduler4TaskELj1024EE4fullEv:
 1903              	.LFB3915:
  57:Cpp/local_vector.hpp ****     {
 1904              		.loc 5 57 20
 1905              		.cfi_startproc
 1906              		@ args = 0, pretend = 0, frame = 8
 1907              		@ frame_needed = 1, uses_anonymous_args = 0
ARM GAS  /tmp/ccU23Djm.s 			page 73


 1908 0000 90B5     		push	{r4, r7, lr}
 1909              	.LCFI154:
 1910              		.cfi_def_cfa_offset 12
 1911              		.cfi_offset 4, -12
 1912              		.cfi_offset 7, -8
 1913              		.cfi_offset 14, -4
 1914 0002 83B0     		sub	sp, sp, #12
 1915              	.LCFI155:
 1916              		.cfi_def_cfa_offset 24
 1917 0004 00AF     		add	r7, sp, #0
 1918              	.LCFI156:
 1919              		.cfi_def_cfa_register 7
 1920 0006 7860     		str	r0, [r7, #4]
  59:Cpp/local_vector.hpp ****     }
 1921              		.loc 5 59 21
 1922 0008 7868     		ldr	r0, [r7, #4]
 1923 000a FFF7FEFF 		bl	_ZNK4otto4util12local_vectorINS_3mcu9Scheduler4TaskELj1024EE4sizeEv
 1924 000e 0446     		mov	r4, r0
  59:Cpp/local_vector.hpp ****     }
 1925              		.loc 5 59 32
 1926 0010 FFF7FEFF 		bl	_ZN4otto4util12local_vectorINS_3mcu9Scheduler4TaskELj1024EE8capacityEv
 1927 0014 0346     		mov	r3, r0
  59:Cpp/local_vector.hpp ****     }
 1928              		.loc 5 59 33
 1929 0016 9C42     		cmp	r4, r3
 1930 0018 0CBF     		ite	eq
 1931 001a 0123     		moveq	r3, #1
 1932 001c 0023     		movne	r3, #0
 1933 001e DBB2     		uxtb	r3, r3
  60:Cpp/local_vector.hpp **** 
 1934              		.loc 5 60 5
 1935 0020 1846     		mov	r0, r3
 1936 0022 0C37     		adds	r7, r7, #12
 1937              	.LCFI157:
 1938              		.cfi_def_cfa_offset 12
 1939 0024 BD46     		mov	sp, r7
 1940              	.LCFI158:
 1941              		.cfi_def_cfa_register 13
 1942              		@ sp needed
 1943 0026 90BD     		pop	{r4, r7, pc}
 1944              		.cfi_endproc
 1945              	.LFE3915:
 1947              		.section	.text._ZN4otto4util12local_vectorINS_3mcu9Scheduler4TaskELj1024EE12emplace_backIJS4_EvEEN
 1948              		.align	1
 1949              		.weak	_ZN4otto4util12local_vectorINS_3mcu9Scheduler4TaskELj1024EE12emplace_backIJS4_EvEEN2tl8expec
 1950              		.syntax unified
 1951              		.thumb
 1952              		.thumb_func
 1953              		.fpu fpv4-sp-d16
 1955              	_ZN4otto4util12local_vectorINS_3mcu9Scheduler4TaskELj1024EE12emplace_backIJS4_EvEEN2tl8expectedIPS4
 1956              	.LFB3914:
 173:Cpp/local_vector.hpp ****     {
 1957              		.loc 5 173 48
 1958              		.cfi_startproc
 1959              		@ args = 0, pretend = 0, frame = 32
 1960              		@ frame_needed = 1, uses_anonymous_args = 0
 1961 0000 90B5     		push	{r4, r7, lr}
ARM GAS  /tmp/ccU23Djm.s 			page 74


 1962              	.LCFI159:
 1963              		.cfi_def_cfa_offset 12
 1964              		.cfi_offset 4, -12
 1965              		.cfi_offset 7, -8
 1966              		.cfi_offset 14, -4
 1967 0002 89B0     		sub	sp, sp, #36
 1968              	.LCFI160:
 1969              		.cfi_def_cfa_offset 48
 1970 0004 00AF     		add	r7, sp, #0
 1971              	.LCFI161:
 1972              		.cfi_def_cfa_register 7
 1973 0006 F860     		str	r0, [r7, #12]
 1974 0008 B960     		str	r1, [r7, #8]
 1975 000a 7A60     		str	r2, [r7, #4]
 175:Cpp/local_vector.hpp ****       new (data() + _size) T(std::forward<Args>(args)...);
 1976              		.loc 5 175 7
 1977 000c B868     		ldr	r0, [r7, #8]
 1978 000e FFF7FEFF 		bl	_ZNK4otto4util12local_vectorINS_3mcu9Scheduler4TaskELj1024EE4fullEv
 1979 0012 0346     		mov	r3, r0
 1980 0014 002B     		cmp	r3, #0
 1981 0016 10D0     		beq	.L80
 175:Cpp/local_vector.hpp ****       new (data() + _size) T(std::forward<Args>(args)...);
 1982              		.loc 5 175 52 discriminator 1
 1983 0018 0023     		movs	r3, #0
 1984 001a BB61     		str	r3, [r7, #24]
 1985 001c 07F11802 		add	r2, r7, #24
 1986 0020 07F11403 		add	r3, r7, #20
 1987 0024 1146     		mov	r1, r2
 1988 0026 1846     		mov	r0, r3
 1989 0028 FFF7FEFF 		bl	_ZN2tl10unexpectedIN4otto4util12local_vectorINS1_3mcu9Scheduler4TaskELj1024EE5errorEEC1EOS8_
 1990 002c 07F11403 		add	r3, r7, #20
 1991 0030 1946     		mov	r1, r3
 1992 0032 F868     		ldr	r0, [r7, #12]
 1993 0034 FFF7FEFF 		bl	_ZN2tl8expectedIPN4otto3mcu9Scheduler4TaskENS1_4util12local_vectorIS4_Lj1024EE5errorEEC1IS9_LPv
 1994 0038 2DE0     		b	.L79
 1995              	.L80:
 176:Cpp/local_vector.hpp ****       _size++;
 1996              		.loc 5 176 48
 1997 003a 7868     		ldr	r0, [r7, #4]
 1998 003c FFF7FEFF 		bl	_ZSt7forwardIN4otto3mcu9Scheduler4TaskEEOT_RNSt16remove_referenceIS4_E4typeE
 1999 0040 0446     		mov	r4, r0
 176:Cpp/local_vector.hpp ****       _size++;
 2000              		.loc 5 176 19
 2001 0042 B868     		ldr	r0, [r7, #8]
 2002 0044 FFF7FEFF 		bl	_ZN4otto4util12local_vectorINS_3mcu9Scheduler4TaskELj1024EE4dataEv
 2003 0048 0146     		mov	r1, r0
 176:Cpp/local_vector.hpp ****       _size++;
 2004              		.loc 5 176 21
 2005 004a BB68     		ldr	r3, [r7, #8]
 2006 004c 03F5A033 		add	r3, r3, #81920
 2007 0050 1A68     		ldr	r2, [r3]
 176:Cpp/local_vector.hpp ****       _size++;
 2008              		.loc 5 176 19
 2009 0052 1346     		mov	r3, r2
 2010 0054 9B00     		lsls	r3, r3, #2
 2011 0056 1344     		add	r3, r3, r2
 2012 0058 1B01     		lsls	r3, r3, #4
ARM GAS  /tmp/ccU23Djm.s 			page 75


 176:Cpp/local_vector.hpp ****       _size++;
 2013              		.loc 5 176 7
 2014 005a 0B44     		add	r3, r3, r1
 2015 005c 1946     		mov	r1, r3
 2016 005e 5020     		movs	r0, #80
 2017 0060 FFF7FEFF 		bl	_ZnwjPv
 2018 0064 0346     		mov	r3, r0
 2019 0066 2146     		mov	r1, r4
 2020 0068 1846     		mov	r0, r3
 2021 006a FFF7FEFF 		bl	_ZN4otto3mcu9Scheduler4TaskC1EOS2_
 177:Cpp/local_vector.hpp ****       return &back();
 2022              		.loc 5 177 7
 2023 006e BB68     		ldr	r3, [r7, #8]
 2024 0070 03F5A033 		add	r3, r3, #81920
 2025 0074 1B68     		ldr	r3, [r3]
 2026 0076 5A1C     		adds	r2, r3, #1
 2027 0078 BB68     		ldr	r3, [r7, #8]
 2028 007a 03F5A033 		add	r3, r3, #81920
 2029 007e 1A60     		str	r2, [r3]
 178:Cpp/local_vector.hpp ****     }
 2030              		.loc 5 178 14
 2031 0080 B868     		ldr	r0, [r7, #8]
 2032 0082 FFF7FEFF 		bl	_ZN4otto4util12local_vectorINS_3mcu9Scheduler4TaskELj1024EE4backEv
 2033 0086 0346     		mov	r3, r0
 178:Cpp/local_vector.hpp ****     }
 2034              		.loc 5 178 20
 2035 0088 FB61     		str	r3, [r7, #28]
 2036 008a 07F11C03 		add	r3, r7, #28
 2037 008e 1946     		mov	r1, r3
 2038 0090 F868     		ldr	r0, [r7, #12]
 2039 0092 FFF7FEFF 		bl	_ZN2tl8expectedIPN4otto3mcu9Scheduler4TaskENS1_4util12local_vectorIS4_Lj1024EE5errorEEC1IS5_LPv
 2040              	.L79:
 179:Cpp/local_vector.hpp **** 
 2041              		.loc 5 179 5
 2042 0096 F868     		ldr	r0, [r7, #12]
 2043 0098 2437     		adds	r7, r7, #36
 2044              	.LCFI162:
 2045              		.cfi_def_cfa_offset 12
 2046 009a BD46     		mov	sp, r7
 2047              	.LCFI163:
 2048              		.cfi_def_cfa_register 13
 2049              		@ sp needed
 2050 009c 90BD     		pop	{r4, r7, pc}
 2051              		.cfi_endproc
 2052              	.LFE3914:
 2054              		.section	.text._ZN4otto3mcu9Scheduler4pushEONS1_4TaskE,"axG",%progbits,_ZN4otto3mcu9Scheduler4push
 2055              		.align	1
 2056              		.weak	_ZN4otto3mcu9Scheduler4pushEONS1_4TaskE
 2057              		.syntax unified
 2058              		.thumb
 2059              		.thumb_func
 2060              		.fpu fpv4-sp-d16
 2062              	_ZN4otto3mcu9Scheduler4pushEONS1_4TaskE:
 2063              	.LFB3913:
  80:Cpp/scheduler.hpp **** 
  81:Cpp/scheduler.hpp ****     void push(Task&& t)
 2064              		.loc 6 81 10
ARM GAS  /tmp/ccU23Djm.s 			page 76


 2065              		.cfi_startproc
 2066              		@ args = 0, pretend = 0, frame = 16
 2067              		@ frame_needed = 1, uses_anonymous_args = 0
 2068 0000 B0B5     		push	{r4, r5, r7, lr}
 2069              	.LCFI164:
 2070              		.cfi_def_cfa_offset 16
 2071              		.cfi_offset 4, -16
 2072              		.cfi_offset 5, -12
 2073              		.cfi_offset 7, -8
 2074              		.cfi_offset 14, -4
 2075 0002 84B0     		sub	sp, sp, #16
 2076              	.LCFI165:
 2077              		.cfi_def_cfa_offset 32
 2078 0004 00AF     		add	r7, sp, #0
 2079              	.LCFI166:
 2080              		.cfi_def_cfa_register 7
 2081 0006 7860     		str	r0, [r7, #4]
 2082 0008 3960     		str	r1, [r7]
  82:Cpp/scheduler.hpp ****     {
  83:Cpp/scheduler.hpp ****       queue_.emplace_back(std::move(t));
 2083              		.loc 6 83 39
 2084 000a 7C68     		ldr	r4, [r7, #4]
 2085              		.loc 6 83 38
 2086 000c 3868     		ldr	r0, [r7]
 2087 000e FFF7FEFF 		bl	_ZSt4moveIRN4otto3mcu9Scheduler4TaskEEONSt16remove_referenceIT_E4typeEOS6_
 2088 0012 0246     		mov	r2, r0
 2089              		.loc 6 83 39
 2090 0014 07F10803 		add	r3, r7, #8
 2091 0018 2146     		mov	r1, r4
 2092 001a 1846     		mov	r0, r3
 2093 001c FFF7FEFF 		bl	_ZN4otto4util12local_vectorINS_3mcu9Scheduler4TaskELj1024EE12emplace_backIJS4_EvEEN2tl8expected
  84:Cpp/scheduler.hpp ****       std::push_heap(queue_.begin(), queue_.end(), std::greater<Task>());
 2094              		.loc 6 84 21
 2095 0020 7B68     		ldr	r3, [r7, #4]
 2096 0022 1846     		mov	r0, r3
 2097 0024 FFF7FEFF 		bl	_ZN4otto4util12local_vectorINS_3mcu9Scheduler4TaskELj1024EE5beginEv
 2098 0028 0446     		mov	r4, r0
 2099 002a 7B68     		ldr	r3, [r7, #4]
 2100 002c 1846     		mov	r0, r3
 2101 002e FFF7FEFF 		bl	_ZN4otto4util12local_vectorINS_3mcu9Scheduler4TaskELj1024EE3endEv
 2102 0032 0346     		mov	r3, r0
 2103 0034 2A46     		mov	r2, r5
 2104 0036 1946     		mov	r1, r3
 2105 0038 2046     		mov	r0, r4
 2106 003a FFF7FEFF 		bl	_ZSt9push_heapIPN4otto3mcu9Scheduler4TaskESt7greaterIS3_EEvT_S7_T0_
  85:Cpp/scheduler.hpp ****     }
 2107              		.loc 6 85 5
 2108 003e 00BF     		nop
 2109 0040 1037     		adds	r7, r7, #16
 2110              	.LCFI167:
 2111              		.cfi_def_cfa_offset 16
 2112 0042 BD46     		mov	sp, r7
 2113              	.LCFI168:
 2114              		.cfi_def_cfa_register 13
 2115              		@ sp needed
 2116 0044 B0BD     		pop	{r4, r5, r7, pc}
 2117              		.cfi_endproc
ARM GAS  /tmp/ccU23Djm.s 			page 77


 2118              	.LFE3913:
 2120              		.section	.rodata._ZN6__pstl9execution2v1L3seqE,"a"
 2121              		.align	2
 2124              	_ZN6__pstl9execution2v1L3seqE:
 2125 0000 00       		.space	1
 2126              		.section	.rodata._ZN6__pstl9execution2v1L3parE,"a"
 2127              		.align	2
 2130              	_ZN6__pstl9execution2v1L3parE:
 2131 0000 00       		.space	1
 2132              		.section	.rodata._ZN6__pstl9execution2v1L9par_unseqE,"a"
 2133              		.align	2
 2136              	_ZN6__pstl9execution2v1L9par_unseqE:
 2137 0000 00       		.space	1
 2138              		.section	.rodata._ZN6__pstl9execution2v1L5unseqE,"a"
 2139              		.align	2
 2142              	_ZN6__pstl9execution2v1L5unseqE:
