ARM GAS  /tmp/ccoT2iqt.s 			page 1


   1              		.cpu cortex-m4
   2              		.eabi_attribute 27, 1
   3              		.eabi_attribute 28, 1
   4              		.eabi_attribute 20, 1
   5              		.eabi_attribute 21, 1
   6              		.eabi_attribute 23, 3
   7              		.eabi_attribute 24, 1
   8              		.eabi_attribute 25, 1
   9              		.eabi_attribute 26, 1
  10              		.eabi_attribute 30, 6
  11              		.eabi_attribute 34, 1
  12              		.eabi_attribute 18, 4
  13              		.file	"new.cpp"
  14              		.text
  15              	.Ltext0:
  16              		.cfi_sections	.debug_frame
  17              		.section	.text._Znwj,"ax",%progbits
  18              		.align	1
  19              		.global	_Znwj
  20              		.arch armv7e-m
  21              		.syntax unified
  22              		.thumb
  23              		.thumb_func
  24              		.fpu fpv4-sp-d16
  26              	_Znwj:
  27              	.LFB78:
  28              		.file 1 "Cpp/new.cpp"
   1:Cpp/new.cpp   **** #include <cstdlib>
   2:Cpp/new.cpp   **** #include <new>
   3:Cpp/new.cpp   **** 
   4:Cpp/new.cpp   **** void* operator new(size_t size) noexcept
   5:Cpp/new.cpp   **** {
  29              		.loc 1 5 1
  30              		.cfi_startproc
  31              		@ args = 0, pretend = 0, frame = 8
  32              		@ frame_needed = 1, uses_anonymous_args = 0
  33 0000 80B5     		push	{r7, lr}
  34              	.LCFI0:
  35              		.cfi_def_cfa_offset 8
  36              		.cfi_offset 7, -8
  37              		.cfi_offset 14, -4
  38 0002 82B0     		sub	sp, sp, #8
  39              	.LCFI1:
  40              		.cfi_def_cfa_offset 16
  41 0004 00AF     		add	r7, sp, #0
  42              	.LCFI2:
  43              		.cfi_def_cfa_register 7
  44 0006 7860     		str	r0, [r7, #4]
   6:Cpp/new.cpp   ****   return malloc(size);
  45              		.loc 1 6 16
  46 0008 7868     		ldr	r0, [r7, #4]
  47 000a FFF7FEFF 		bl	malloc
  48 000e 0346     		mov	r3, r0
   7:Cpp/new.cpp   **** }
  49              		.loc 1 7 1
  50 0010 1846     		mov	r0, r3
  51 0012 0837     		adds	r7, r7, #8
ARM GAS  /tmp/ccoT2iqt.s 			page 2


  52              	.LCFI3:
  53              		.cfi_def_cfa_offset 8
  54 0014 BD46     		mov	sp, r7
  55              	.LCFI4:
  56              		.cfi_def_cfa_register 13
  57              		@ sp needed
  58 0016 80BD     		pop	{r7, pc}
  59              		.cfi_endproc
  60              	.LFE78:
  62              		.section	.text._ZdlPv,"ax",%progbits
  63              		.align	1
  64              		.global	_ZdlPv
  65              		.syntax unified
  66              		.thumb
  67              		.thumb_func
  68              		.fpu fpv4-sp-d16
  70              	_ZdlPv:
  71              	.LFB79:
   8:Cpp/new.cpp   **** 
   9:Cpp/new.cpp   **** void operator delete(void* p) noexcept
  10:Cpp/new.cpp   **** {
  72              		.loc 1 10 1
  73              		.cfi_startproc
  74              		@ args = 0, pretend = 0, frame = 8
  75              		@ frame_needed = 1, uses_anonymous_args = 0
  76 0000 80B5     		push	{r7, lr}
  77              	.LCFI5:
  78              		.cfi_def_cfa_offset 8
  79              		.cfi_offset 7, -8
  80              		.cfi_offset 14, -4
  81 0002 82B0     		sub	sp, sp, #8
  82              	.LCFI6:
  83              		.cfi_def_cfa_offset 16
  84 0004 00AF     		add	r7, sp, #0
  85              	.LCFI7:
  86              		.cfi_def_cfa_register 7
  87 0006 7860     		str	r0, [r7, #4]
  11:Cpp/new.cpp   ****   free(p);
  88              		.loc 1 11 7
  89 0008 7868     		ldr	r0, [r7, #4]
  90 000a FFF7FEFF 		bl	free
  12:Cpp/new.cpp   **** }
  91              		.loc 1 12 1
  92 000e 00BF     		nop
  93 0010 0837     		adds	r7, r7, #8
  94              	.LCFI8:
  95              		.cfi_def_cfa_offset 8
  96 0012 BD46     		mov	sp, r7
  97              	.LCFI9:
  98              		.cfi_def_cfa_register 13
  99              		@ sp needed
 100 0014 80BD     		pop	{r7, pc}
 101              		.cfi_endproc
 102              	.LFE79:
 104              		.section	.text._Znaj,"ax",%progbits
 105              		.align	1
 106              		.global	_Znaj
ARM GAS  /tmp/ccoT2iqt.s 			page 3


 107              		.syntax unified
 108              		.thumb
 109              		.thumb_func
 110              		.fpu fpv4-sp-d16
 112              	_Znaj:
 113              	.LFB80:
  13:Cpp/new.cpp   **** 
  14:Cpp/new.cpp   **** void* operator new[](size_t size) noexcept
  15:Cpp/new.cpp   **** {
 114              		.loc 1 15 1
 115              		.cfi_startproc
 116              		@ args = 0, pretend = 0, frame = 8
 117              		@ frame_needed = 1, uses_anonymous_args = 0
 118 0000 80B5     		push	{r7, lr}
 119              	.LCFI10:
 120              		.cfi_def_cfa_offset 8
 121              		.cfi_offset 7, -8
 122              		.cfi_offset 14, -4
 123 0002 82B0     		sub	sp, sp, #8
 124              	.LCFI11:
 125              		.cfi_def_cfa_offset 16
 126 0004 00AF     		add	r7, sp, #0
 127              	.LCFI12:
 128              		.cfi_def_cfa_register 7
 129 0006 7860     		str	r0, [r7, #4]
  16:Cpp/new.cpp   ****   return operator new(size); // Same as regular new
 130              		.loc 1 16 22
 131 0008 7868     		ldr	r0, [r7, #4]
 132 000a FFF7FEFF 		bl	_Znwj
 133 000e 0346     		mov	r3, r0
  17:Cpp/new.cpp   **** }
 134              		.loc 1 17 1
 135 0010 1846     		mov	r0, r3
 136 0012 0837     		adds	r7, r7, #8
 137              	.LCFI13:
 138              		.cfi_def_cfa_offset 8
 139 0014 BD46     		mov	sp, r7
 140              	.LCFI14:
 141              		.cfi_def_cfa_register 13
 142              		@ sp needed
 143 0016 80BD     		pop	{r7, pc}
 144              		.cfi_endproc
 145              	.LFE80:
 147              		.section	.text._ZdaPv,"ax",%progbits
 148              		.align	1
 149              		.global	_ZdaPv
 150              		.syntax unified
 151              		.thumb
 152              		.thumb_func
 153              		.fpu fpv4-sp-d16
 155              	_ZdaPv:
 156              	.LFB81:
  18:Cpp/new.cpp   **** 
  19:Cpp/new.cpp   **** void operator delete[](void* p) noexcept
  20:Cpp/new.cpp   **** {
 157              		.loc 1 20 1
 158              		.cfi_startproc
ARM GAS  /tmp/ccoT2iqt.s 			page 4


 159              		@ args = 0, pretend = 0, frame = 8
 160              		@ frame_needed = 1, uses_anonymous_args = 0
 161 0000 80B5     		push	{r7, lr}
 162              	.LCFI15:
 163              		.cfi_def_cfa_offset 8
 164              		.cfi_offset 7, -8
 165              		.cfi_offset 14, -4
 166 0002 82B0     		sub	sp, sp, #8
 167              	.LCFI16:
 168              		.cfi_def_cfa_offset 16
 169 0004 00AF     		add	r7, sp, #0
 170              	.LCFI17:
 171              		.cfi_def_cfa_register 7
 172 0006 7860     		str	r0, [r7, #4]
  21:Cpp/new.cpp   ****   operator delete(p); // Same as regular delete
 173              		.loc 1 21 18
 174 0008 7868     		ldr	r0, [r7, #4]
 175 000a FFF7FEFF 		bl	_ZdlPv
  22:Cpp/new.cpp   **** }
 176              		.loc 1 22 1
 177 000e 00BF     		nop
 178 0010 0837     		adds	r7, r7, #8
 179              	.LCFI18:
 180              		.cfi_def_cfa_offset 8
 181 0012 BD46     		mov	sp, r7
 182              	.LCFI19:
 183              		.cfi_def_cfa_register 13
 184              		@ sp needed
 185 0014 80BD     		pop	{r7, pc}
 186              		.cfi_endproc
 187              	.LFE81:
 189              		.section	.text._ZnwjSt9nothrow_t,"ax",%progbits
 190              		.align	1
 191              		.global	_ZnwjSt9nothrow_t
 192              		.syntax unified
 193              		.thumb
 194              		.thumb_func
 195              		.fpu fpv4-sp-d16
 197              	_ZnwjSt9nothrow_t:
 198              	.LFB82:
  23:Cpp/new.cpp   **** 
  24:Cpp/new.cpp   **** void* operator new(size_t size, std::nothrow_t) noexcept
  25:Cpp/new.cpp   **** {
 199              		.loc 1 25 1
 200              		.cfi_startproc
 201              		@ args = 0, pretend = 0, frame = 8
 202              		@ frame_needed = 1, uses_anonymous_args = 0
 203 0000 80B5     		push	{r7, lr}
 204              	.LCFI20:
 205              		.cfi_def_cfa_offset 8
 206              		.cfi_offset 7, -8
 207              		.cfi_offset 14, -4
 208 0002 82B0     		sub	sp, sp, #8
 209              	.LCFI21:
 210              		.cfi_def_cfa_offset 16
 211 0004 00AF     		add	r7, sp, #0
 212              	.LCFI22:
ARM GAS  /tmp/ccoT2iqt.s 			page 5


 213              		.cfi_def_cfa_register 7
 214 0006 7860     		str	r0, [r7, #4]
 215 0008 3970     		strb	r1, [r7]
  26:Cpp/new.cpp   ****   return operator new(size); // Same as regular new
 216              		.loc 1 26 22
 217 000a 7868     		ldr	r0, [r7, #4]
 218 000c FFF7FEFF 		bl	_Znwj
 219 0010 0346     		mov	r3, r0
  27:Cpp/new.cpp   **** }
 220              		.loc 1 27 1
 221 0012 1846     		mov	r0, r3
 222 0014 0837     		adds	r7, r7, #8
 223              	.LCFI23:
 224              		.cfi_def_cfa_offset 8
 225 0016 BD46     		mov	sp, r7
 226              	.LCFI24:
 227              		.cfi_def_cfa_register 13
 228              		@ sp needed
 229 0018 80BD     		pop	{r7, pc}
 230              		.cfi_endproc
 231              	.LFE82:
 233              		.section	.text._ZdlPvSt9nothrow_t,"ax",%progbits
 234              		.align	1
 235              		.global	_ZdlPvSt9nothrow_t
 236              		.syntax unified
 237              		.thumb
 238              		.thumb_func
 239              		.fpu fpv4-sp-d16
 241              	_ZdlPvSt9nothrow_t:
 242              	.LFB83:
  28:Cpp/new.cpp   **** 
  29:Cpp/new.cpp   **** void operator delete(void* p, std::nothrow_t) noexcept
  30:Cpp/new.cpp   **** {
 243              		.loc 1 30 1
 244              		.cfi_startproc
 245              		@ args = 0, pretend = 0, frame = 8
 246              		@ frame_needed = 1, uses_anonymous_args = 0
 247 0000 80B5     		push	{r7, lr}
 248              	.LCFI25:
 249              		.cfi_def_cfa_offset 8
 250              		.cfi_offset 7, -8
 251              		.cfi_offset 14, -4
 252 0002 82B0     		sub	sp, sp, #8
 253              	.LCFI26:
 254              		.cfi_def_cfa_offset 16
 255 0004 00AF     		add	r7, sp, #0
 256              	.LCFI27:
 257              		.cfi_def_cfa_register 7
 258 0006 7860     		str	r0, [r7, #4]
 259 0008 3970     		strb	r1, [r7]
  31:Cpp/new.cpp   ****   operator delete(p); // Same as regular delete
 260              		.loc 1 31 18
 261 000a 7868     		ldr	r0, [r7, #4]
 262 000c FFF7FEFF 		bl	_ZdlPv
  32:Cpp/new.cpp   **** }
 263              		.loc 1 32 1
 264 0010 00BF     		nop
ARM GAS  /tmp/ccoT2iqt.s 			page 6


 265 0012 0837     		adds	r7, r7, #8
 266              	.LCFI28:
 267              		.cfi_def_cfa_offset 8
 268 0014 BD46     		mov	sp, r7
 269              	.LCFI29:
 270              		.cfi_def_cfa_register 13
 271              		@ sp needed
 272 0016 80BD     		pop	{r7, pc}
 273              		.cfi_endproc
 274              	.LFE83:
 276              		.section	.text._ZnajSt9nothrow_t,"ax",%progbits
 277              		.align	1
 278              		.global	_ZnajSt9nothrow_t
 279              		.syntax unified
 280              		.thumb
 281              		.thumb_func
 282              		.fpu fpv4-sp-d16
 284              	_ZnajSt9nothrow_t:
 285              	.LFB84:
  33:Cpp/new.cpp   **** 
  34:Cpp/new.cpp   **** void* operator new[](size_t size, std::nothrow_t) noexcept
  35:Cpp/new.cpp   **** {
 286              		.loc 1 35 1
 287              		.cfi_startproc
 288              		@ args = 0, pretend = 0, frame = 8
 289              		@ frame_needed = 1, uses_anonymous_args = 0
 290 0000 80B5     		push	{r7, lr}
 291              	.LCFI30:
 292              		.cfi_def_cfa_offset 8
 293              		.cfi_offset 7, -8
 294              		.cfi_offset 14, -4
 295 0002 82B0     		sub	sp, sp, #8
 296              	.LCFI31:
 297              		.cfi_def_cfa_offset 16
 298 0004 00AF     		add	r7, sp, #0
 299              	.LCFI32:
 300              		.cfi_def_cfa_register 7
 301 0006 7860     		str	r0, [r7, #4]
 302 0008 3970     		strb	r1, [r7]
  36:Cpp/new.cpp   ****   return operator new(size); // Same as regular new
 303              		.loc 1 36 22
 304 000a 7868     		ldr	r0, [r7, #4]
 305 000c FFF7FEFF 		bl	_Znwj
 306 0010 0346     		mov	r3, r0
  37:Cpp/new.cpp   **** }
 307              		.loc 1 37 1
 308 0012 1846     		mov	r0, r3
 309 0014 0837     		adds	r7, r7, #8
 310              	.LCFI33:
 311              		.cfi_def_cfa_offset 8
 312 0016 BD46     		mov	sp, r7
 313              	.LCFI34:
 314              		.cfi_def_cfa_register 13
 315              		@ sp needed
 316 0018 80BD     		pop	{r7, pc}
 317              		.cfi_endproc
 318              	.LFE84:
ARM GAS  /tmp/ccoT2iqt.s 			page 7


 320              		.section	.text._ZdaPvSt9nothrow_t,"ax",%progbits
 321              		.align	1
 322              		.global	_ZdaPvSt9nothrow_t
 323              		.syntax unified
 324              		.thumb
 325              		.thumb_func
 326              		.fpu fpv4-sp-d16
 328              	_ZdaPvSt9nothrow_t:
 329              	.LFB85:
  38:Cpp/new.cpp   **** 
  39:Cpp/new.cpp   **** void operator delete[](void* p, std::nothrow_t) noexcept
  40:Cpp/new.cpp   **** {
 330              		.loc 1 40 1
 331              		.cfi_startproc
 332              		@ args = 0, pretend = 0, frame = 8
 333              		@ frame_needed = 1, uses_anonymous_args = 0
 334 0000 80B5     		push	{r7, lr}
 335              	.LCFI35:
 336              		.cfi_def_cfa_offset 8
 337              		.cfi_offset 7, -8
 338              		.cfi_offset 14, -4
 339 0002 82B0     		sub	sp, sp, #8
 340              	.LCFI36:
 341              		.cfi_def_cfa_offset 16
 342 0004 00AF     		add	r7, sp, #0
 343              	.LCFI37:
 344              		.cfi_def_cfa_register 7
 345 0006 7860     		str	r0, [r7, #4]
 346 0008 3970     		strb	r1, [r7]
  41:Cpp/new.cpp   ****   operator delete(p); // Same as regular delete
 347              		.loc 1 41 18
 348 000a 7868     		ldr	r0, [r7, #4]
 349 000c FFF7FEFF 		bl	_ZdlPv
  42:Cpp/new.cpp   **** }
 350              		.loc 1 42 1
 351 0010 00BF     		nop
 352 0012 0837     		adds	r7, r7, #8
 353              	.LCFI38:
 354              		.cfi_def_cfa_offset 8
 355 0014 BD46     		mov	sp, r7
 356              	.LCFI39:
 357              		.cfi_def_cfa_register 13
 358              		@ sp needed
 359 0016 80BD     		pop	{r7, pc}
 360              		.cfi_endproc
 361              	.LFE85:
 363              		.text
 364              	.Letext0:
 365              		.file 2 "/usr/arm-none-eabi/include/c++/9.3.0/cstdlib"
 366              		.file 3 "/usr/arm-none-eabi/include/c++/9.3.0/bits/exception_ptr.h"
 367              		.file 4 "/usr/arm-none-eabi/include/c++/9.3.0/arm-none-eabi/thumb/v7e-m+fp/hard/bits/c++config.h"
 368              		.file 5 "/usr/arm-none-eabi/include/c++/9.3.0/type_traits"
 369              		.file 6 "/usr/arm-none-eabi/include/c++/9.3.0/new"
 370              		.file 7 "/usr/lib/gcc/arm-none-eabi/9.3.0/include/stddef.h"
 371              		.file 8 "/usr/arm-none-eabi/include/sys/_types.h"
 372              		.file 9 "/usr/arm-none-eabi/include/sys/reent.h"
 373              		.file 10 "/usr/arm-none-eabi/include/sys/lock.h"
ARM GAS  /tmp/ccoT2iqt.s 			page 8


 374              		.file 11 "/usr/arm-none-eabi/include/stdlib.h"
 375              		.file 12 "<built-in>"
ARM GAS  /tmp/ccoT2iqt.s 			page 9

