ARM GAS  /tmp/ccC4l07N.s 			page 1


   1              		.cpu cortex-m4
   2              		.eabi_attribute 27, 1
   3              		.eabi_attribute 28, 1
   4              		.eabi_attribute 20, 1
   5              		.eabi_attribute 21, 1
   6              		.eabi_attribute 23, 3
   7              		.eabi_attribute 24, 1
   8              		.eabi_attribute 25, 1
   9              		.eabi_attribute 26, 1
  10              		.eabi_attribute 30, 6
  11              		.eabi_attribute 34, 1
  12              		.eabi_attribute 18, 4
  13              		.file	"stm32f4xx_hal_i2c.c"
  14              		.text
  15              	.Ltext0:
  16              		.cfi_sections	.debug_frame
  17              		.section	.rodata
  18              		.align	2
  19              	.LC0:
  20 0000 44726976 		.ascii	"Drivers/STM32F4xx_HAL_Driver/Src/stm32f4xx_hal_i2c."
  20      6572732F 
  20      53544D33 
  20      32463478 
  20      785F4841 
  21 0033 6300     		.ascii	"c\000"
  22              		.section	.text.HAL_I2C_Init,"ax",%progbits
  23              		.align	1
  24              		.global	HAL_I2C_Init
  25              		.arch armv7e-m
  26              		.syntax unified
  27              		.thumb
  28              		.thumb_func
  29              		.fpu fpv4-sp-d16
  31              	HAL_I2C_Init:
  32              	.LFB130:
  33              		.file 1 "Drivers/STM32F4xx_HAL_Driver/Src/stm32f4xx_hal_i2c.c"
   1:Drivers/STM32F4xx_HAL_Driver/Src/stm32f4xx_hal_i2c.c **** /**
   2:Drivers/STM32F4xx_HAL_Driver/Src/stm32f4xx_hal_i2c.c ****   ******************************************************************************
   3:Drivers/STM32F4xx_HAL_Driver/Src/stm32f4xx_hal_i2c.c ****   * @file    stm32f4xx_hal_i2c.c
   4:Drivers/STM32F4xx_HAL_Driver/Src/stm32f4xx_hal_i2c.c ****   * @author  MCD Application Team
   5:Drivers/STM32F4xx_HAL_Driver/Src/stm32f4xx_hal_i2c.c ****   * @brief   I2C HAL module driver.
   6:Drivers/STM32F4xx_HAL_Driver/Src/stm32f4xx_hal_i2c.c ****   *          This file provides firmware functions to manage the following
   7:Drivers/STM32F4xx_HAL_Driver/Src/stm32f4xx_hal_i2c.c ****   *          functionalities of the Inter Integrated Circuit (I2C) peripheral:
   8:Drivers/STM32F4xx_HAL_Driver/Src/stm32f4xx_hal_i2c.c ****   *           + Initialization and de-initialization functions
   9:Drivers/STM32F4xx_HAL_Driver/Src/stm32f4xx_hal_i2c.c ****   *           + IO operation functions
  10:Drivers/STM32F4xx_HAL_Driver/Src/stm32f4xx_hal_i2c.c ****   *           + Peripheral State, Mode and Error functions
  11:Drivers/STM32F4xx_HAL_Driver/Src/stm32f4xx_hal_i2c.c ****   *
  12:Drivers/STM32F4xx_HAL_Driver/Src/stm32f4xx_hal_i2c.c ****   @verbatim
  13:Drivers/STM32F4xx_HAL_Driver/Src/stm32f4xx_hal_i2c.c ****   ==============================================================================
  14:Drivers/STM32F4xx_HAL_Driver/Src/stm32f4xx_hal_i2c.c ****                         ##### How to use this driver #####
  15:Drivers/STM32F4xx_HAL_Driver/Src/stm32f4xx_hal_i2c.c ****   ==============================================================================
  16:Drivers/STM32F4xx_HAL_Driver/Src/stm32f4xx_hal_i2c.c ****   [..]
  17:Drivers/STM32F4xx_HAL_Driver/Src/stm32f4xx_hal_i2c.c ****     The I2C HAL driver can be used as follows:
  18:Drivers/STM32F4xx_HAL_Driver/Src/stm32f4xx_hal_i2c.c **** 
  19:Drivers/STM32F4xx_HAL_Driver/Src/stm32f4xx_hal_i2c.c ****     (#) Declare a I2C_HandleTypeDef handle structure, for example:
  20:Drivers/STM32F4xx_HAL_Driver/Src/stm32f4xx_hal_i2c.c ****         I2C_HandleTypeDef  hi2c;
  21:Drivers/STM32F4xx_HAL_Driver/Src/stm32f4xx_hal_i2c.c **** 
ARM GAS  /tmp/ccC4l07N.s 			page 2


  22:Drivers/STM32F4xx_HAL_Driver/Src/stm32f4xx_hal_i2c.c ****     (#)Initialize the I2C low level resources by implementing the @ref HAL_I2C_MspInit() API:
  23:Drivers/STM32F4xx_HAL_Driver/Src/stm32f4xx_hal_i2c.c ****         (##) Enable the I2Cx interface clock
  24:Drivers/STM32F4xx_HAL_Driver/Src/stm32f4xx_hal_i2c.c ****         (##) I2C pins configuration
  25:Drivers/STM32F4xx_HAL_Driver/Src/stm32f4xx_hal_i2c.c ****             (+++) Enable the clock for the I2C GPIOs
  26:Drivers/STM32F4xx_HAL_Driver/Src/stm32f4xx_hal_i2c.c ****             (+++) Configure I2C pins as alternate function open-drain
  27:Drivers/STM32F4xx_HAL_Driver/Src/stm32f4xx_hal_i2c.c ****         (##) NVIC configuration if you need to use interrupt process
  28:Drivers/STM32F4xx_HAL_Driver/Src/stm32f4xx_hal_i2c.c ****             (+++) Configure the I2Cx interrupt priority
  29:Drivers/STM32F4xx_HAL_Driver/Src/stm32f4xx_hal_i2c.c ****             (+++) Enable the NVIC I2C IRQ Channel
  30:Drivers/STM32F4xx_HAL_Driver/Src/stm32f4xx_hal_i2c.c ****         (##) DMA Configuration if you need to use DMA process
  31:Drivers/STM32F4xx_HAL_Driver/Src/stm32f4xx_hal_i2c.c ****             (+++) Declare a DMA_HandleTypeDef handle structure for the transmit or receive stream
  32:Drivers/STM32F4xx_HAL_Driver/Src/stm32f4xx_hal_i2c.c ****             (+++) Enable the DMAx interface clock using
  33:Drivers/STM32F4xx_HAL_Driver/Src/stm32f4xx_hal_i2c.c ****             (+++) Configure the DMA handle parameters
  34:Drivers/STM32F4xx_HAL_Driver/Src/stm32f4xx_hal_i2c.c ****             (+++) Configure the DMA Tx or Rx stream
  35:Drivers/STM32F4xx_HAL_Driver/Src/stm32f4xx_hal_i2c.c ****             (+++) Associate the initialized DMA handle to the hi2c DMA Tx or Rx handle
  36:Drivers/STM32F4xx_HAL_Driver/Src/stm32f4xx_hal_i2c.c ****             (+++) Configure the priority and enable the NVIC for the transfer complete interrupt on
  37:Drivers/STM32F4xx_HAL_Driver/Src/stm32f4xx_hal_i2c.c ****                   the DMA Tx or Rx stream
  38:Drivers/STM32F4xx_HAL_Driver/Src/stm32f4xx_hal_i2c.c **** 
  39:Drivers/STM32F4xx_HAL_Driver/Src/stm32f4xx_hal_i2c.c ****     (#) Configure the Communication Speed, Duty cycle, Addressing mode, Own Address1,
  40:Drivers/STM32F4xx_HAL_Driver/Src/stm32f4xx_hal_i2c.c ****         Dual Addressing mode, Own Address2, General call and Nostretch mode in the hi2c Init struct
  41:Drivers/STM32F4xx_HAL_Driver/Src/stm32f4xx_hal_i2c.c **** 
  42:Drivers/STM32F4xx_HAL_Driver/Src/stm32f4xx_hal_i2c.c ****     (#) Initialize the I2C registers by calling the @ref HAL_I2C_Init(), configures also the low le
  43:Drivers/STM32F4xx_HAL_Driver/Src/stm32f4xx_hal_i2c.c ****         (GPIO, CLOCK, NVIC...etc) by calling the customized @ref HAL_I2C_MspInit() API.
  44:Drivers/STM32F4xx_HAL_Driver/Src/stm32f4xx_hal_i2c.c **** 
  45:Drivers/STM32F4xx_HAL_Driver/Src/stm32f4xx_hal_i2c.c ****     (#) To check if target device is ready for communication, use the function @ref HAL_I2C_IsDevic
  46:Drivers/STM32F4xx_HAL_Driver/Src/stm32f4xx_hal_i2c.c **** 
  47:Drivers/STM32F4xx_HAL_Driver/Src/stm32f4xx_hal_i2c.c ****     (#) For I2C IO and IO MEM operations, three operation modes are available within this driver :
  48:Drivers/STM32F4xx_HAL_Driver/Src/stm32f4xx_hal_i2c.c **** 
  49:Drivers/STM32F4xx_HAL_Driver/Src/stm32f4xx_hal_i2c.c ****     *** Polling mode IO operation ***
  50:Drivers/STM32F4xx_HAL_Driver/Src/stm32f4xx_hal_i2c.c ****     =================================
  51:Drivers/STM32F4xx_HAL_Driver/Src/stm32f4xx_hal_i2c.c ****     [..]
  52:Drivers/STM32F4xx_HAL_Driver/Src/stm32f4xx_hal_i2c.c ****       (+) Transmit in master mode an amount of data in blocking mode using @ref HAL_I2C_Master_Tran
  53:Drivers/STM32F4xx_HAL_Driver/Src/stm32f4xx_hal_i2c.c ****       (+) Receive in master mode an amount of data in blocking mode using @ref HAL_I2C_Master_Recei
  54:Drivers/STM32F4xx_HAL_Driver/Src/stm32f4xx_hal_i2c.c ****       (+) Transmit in slave mode an amount of data in blocking mode using @ref HAL_I2C_Slave_Transm
  55:Drivers/STM32F4xx_HAL_Driver/Src/stm32f4xx_hal_i2c.c ****       (+) Receive in slave mode an amount of data in blocking mode using @ref HAL_I2C_Slave_Receive
  56:Drivers/STM32F4xx_HAL_Driver/Src/stm32f4xx_hal_i2c.c **** 
  57:Drivers/STM32F4xx_HAL_Driver/Src/stm32f4xx_hal_i2c.c ****     *** Polling mode IO MEM operation ***
  58:Drivers/STM32F4xx_HAL_Driver/Src/stm32f4xx_hal_i2c.c ****     =====================================
  59:Drivers/STM32F4xx_HAL_Driver/Src/stm32f4xx_hal_i2c.c ****     [..]
  60:Drivers/STM32F4xx_HAL_Driver/Src/stm32f4xx_hal_i2c.c ****       (+) Write an amount of data in blocking mode to a specific memory address using @ref HAL_I2C_
  61:Drivers/STM32F4xx_HAL_Driver/Src/stm32f4xx_hal_i2c.c ****       (+) Read an amount of data in blocking mode from a specific memory address using @ref HAL_I2C
  62:Drivers/STM32F4xx_HAL_Driver/Src/stm32f4xx_hal_i2c.c **** 
  63:Drivers/STM32F4xx_HAL_Driver/Src/stm32f4xx_hal_i2c.c **** 
  64:Drivers/STM32F4xx_HAL_Driver/Src/stm32f4xx_hal_i2c.c ****     *** Interrupt mode IO operation ***
  65:Drivers/STM32F4xx_HAL_Driver/Src/stm32f4xx_hal_i2c.c ****     ===================================
  66:Drivers/STM32F4xx_HAL_Driver/Src/stm32f4xx_hal_i2c.c ****     [..]
  67:Drivers/STM32F4xx_HAL_Driver/Src/stm32f4xx_hal_i2c.c ****       (+) Transmit in master mode an amount of data in non-blocking mode using @ref HAL_I2C_Master_
  68:Drivers/STM32F4xx_HAL_Driver/Src/stm32f4xx_hal_i2c.c ****       (+) At transmission end of transfer, @ref HAL_I2C_MasterTxCpltCallback() is executed and user
  69:Drivers/STM32F4xx_HAL_Driver/Src/stm32f4xx_hal_i2c.c ****            add his own code by customization of function pointer @ref HAL_I2C_MasterTxCpltCallback(
  70:Drivers/STM32F4xx_HAL_Driver/Src/stm32f4xx_hal_i2c.c ****       (+) Receive in master mode an amount of data in non-blocking mode using @ref HAL_I2C_Master_R
  71:Drivers/STM32F4xx_HAL_Driver/Src/stm32f4xx_hal_i2c.c ****       (+) At reception end of transfer, @ref HAL_I2C_MasterRxCpltCallback() is executed and user ca
  72:Drivers/STM32F4xx_HAL_Driver/Src/stm32f4xx_hal_i2c.c ****            add his own code by customization of function pointer @ref HAL_I2C_MasterRxCpltCallback(
  73:Drivers/STM32F4xx_HAL_Driver/Src/stm32f4xx_hal_i2c.c ****       (+) Transmit in slave mode an amount of data in non-blocking mode using @ref HAL_I2C_Slave_Tr
  74:Drivers/STM32F4xx_HAL_Driver/Src/stm32f4xx_hal_i2c.c ****       (+) At transmission end of transfer, @ref HAL_I2C_SlaveTxCpltCallback() is executed and user 
  75:Drivers/STM32F4xx_HAL_Driver/Src/stm32f4xx_hal_i2c.c ****            add his own code by customization of function pointer @ref HAL_I2C_SlaveTxCpltCallback()
  76:Drivers/STM32F4xx_HAL_Driver/Src/stm32f4xx_hal_i2c.c ****       (+) Receive in slave mode an amount of data in non-blocking mode using @ref HAL_I2C_Slave_Rec
  77:Drivers/STM32F4xx_HAL_Driver/Src/stm32f4xx_hal_i2c.c ****       (+) At reception end of transfer, @ref HAL_I2C_SlaveRxCpltCallback() is executed and user can
  78:Drivers/STM32F4xx_HAL_Driver/Src/stm32f4xx_hal_i2c.c ****            add his own code by customization of function pointer @ref HAL_I2C_SlaveRxCpltCallback()
ARM GAS  /tmp/ccC4l07N.s 			page 3


  79:Drivers/STM32F4xx_HAL_Driver/Src/stm32f4xx_hal_i2c.c ****       (+) In case of transfer Error, @ref HAL_I2C_ErrorCallback() function is executed and user can
  80:Drivers/STM32F4xx_HAL_Driver/Src/stm32f4xx_hal_i2c.c ****            add his own code by customization of function pointer @ref HAL_I2C_ErrorCallback()
  81:Drivers/STM32F4xx_HAL_Driver/Src/stm32f4xx_hal_i2c.c ****       (+) Abort a master I2C process communication with Interrupt using @ref HAL_I2C_Master_Abort_I
  82:Drivers/STM32F4xx_HAL_Driver/Src/stm32f4xx_hal_i2c.c ****       (+) End of abort process, @ref HAL_I2C_AbortCpltCallback() is executed and user can
  83:Drivers/STM32F4xx_HAL_Driver/Src/stm32f4xx_hal_i2c.c ****            add his own code by customization of function pointer @ref HAL_I2C_AbortCpltCallback()
  84:Drivers/STM32F4xx_HAL_Driver/Src/stm32f4xx_hal_i2c.c **** 
  85:Drivers/STM32F4xx_HAL_Driver/Src/stm32f4xx_hal_i2c.c ****     *** Interrupt mode or DMA mode IO sequential operation ***
  86:Drivers/STM32F4xx_HAL_Driver/Src/stm32f4xx_hal_i2c.c ****     ==========================================================
  87:Drivers/STM32F4xx_HAL_Driver/Src/stm32f4xx_hal_i2c.c ****     [..]
  88:Drivers/STM32F4xx_HAL_Driver/Src/stm32f4xx_hal_i2c.c ****       (@) These interfaces allow to manage a sequential transfer with a repeated start condition
  89:Drivers/STM32F4xx_HAL_Driver/Src/stm32f4xx_hal_i2c.c ****           when a direction change during transfer
  90:Drivers/STM32F4xx_HAL_Driver/Src/stm32f4xx_hal_i2c.c ****     [..]
  91:Drivers/STM32F4xx_HAL_Driver/Src/stm32f4xx_hal_i2c.c ****       (+) A specific option field manage the different steps of a sequential transfer
  92:Drivers/STM32F4xx_HAL_Driver/Src/stm32f4xx_hal_i2c.c ****       (+) Option field values are defined through @ref I2C_XferOptions_definition and are listed be
  93:Drivers/STM32F4xx_HAL_Driver/Src/stm32f4xx_hal_i2c.c ****       (++) I2C_FIRST_AND_LAST_FRAME: No sequential usage, functionnal is same as associated interfa
  94:Drivers/STM32F4xx_HAL_Driver/Src/stm32f4xx_hal_i2c.c ****       (++) I2C_FIRST_FRAME: Sequential usage, this option allow to manage a sequence with start con
  95:Drivers/STM32F4xx_HAL_Driver/Src/stm32f4xx_hal_i2c.c ****                             and data to transfer without a final stop condition
  96:Drivers/STM32F4xx_HAL_Driver/Src/stm32f4xx_hal_i2c.c ****       (++) I2C_FIRST_AND_NEXT_FRAME: Sequential usage (Master only), this option allow to manage a 
  97:Drivers/STM32F4xx_HAL_Driver/Src/stm32f4xx_hal_i2c.c ****                             and data to transfer without a final stop condition, an then permit a c
  98:Drivers/STM32F4xx_HAL_Driver/Src/stm32f4xx_hal_i2c.c ****                             several times (like @ref HAL_I2C_Master_Seq_Transmit_IT() then @ref HAL
  99:Drivers/STM32F4xx_HAL_Driver/Src/stm32f4xx_hal_i2c.c ****                             or @ref HAL_I2C_Master_Seq_Transmit_DMA() then @ref HAL_I2C_Master_Seq_
 100:Drivers/STM32F4xx_HAL_Driver/Src/stm32f4xx_hal_i2c.c ****       (++) I2C_NEXT_FRAME: Sequential usage, this option allow to manage a sequence with a restart 
 101:Drivers/STM32F4xx_HAL_Driver/Src/stm32f4xx_hal_i2c.c ****                             and with new data to transfer if the direction change or manage only th
 102:Drivers/STM32F4xx_HAL_Driver/Src/stm32f4xx_hal_i2c.c ****                             if no direction change and without a final stop condition in both cases
 103:Drivers/STM32F4xx_HAL_Driver/Src/stm32f4xx_hal_i2c.c ****       (++) I2C_LAST_FRAME: Sequential usage, this option allow to manage a sequance with a restart 
 104:Drivers/STM32F4xx_HAL_Driver/Src/stm32f4xx_hal_i2c.c ****                             and with new data to transfer if the direction change or manage only th
 105:Drivers/STM32F4xx_HAL_Driver/Src/stm32f4xx_hal_i2c.c ****                             if no direction change and with a final stop condition in both cases
 106:Drivers/STM32F4xx_HAL_Driver/Src/stm32f4xx_hal_i2c.c ****       (++) I2C_LAST_FRAME_NO_STOP: Sequential usage (Master only), this option allow to manage a re
 107:Drivers/STM32F4xx_HAL_Driver/Src/stm32f4xx_hal_i2c.c ****                             interface several times (link with option I2C_FIRST_AND_NEXT_FRAME).
 108:Drivers/STM32F4xx_HAL_Driver/Src/stm32f4xx_hal_i2c.c ****                             Usage can, transfer several bytes one by one using HAL_I2C_Master_Seq_T
 109:Drivers/STM32F4xx_HAL_Driver/Src/stm32f4xx_hal_i2c.c ****                               or HAL_I2C_Master_Seq_Receive_IT(option I2C_FIRST_AND_NEXT_FRAME then
 110:Drivers/STM32F4xx_HAL_Driver/Src/stm32f4xx_hal_i2c.c ****                               or HAL_I2C_Master_Seq_Transmit_DMA(option I2C_FIRST_AND_NEXT_FRAME th
 111:Drivers/STM32F4xx_HAL_Driver/Src/stm32f4xx_hal_i2c.c ****                               or HAL_I2C_Master_Seq_Receive_DMA(option I2C_FIRST_AND_NEXT_FRAME the
 112:Drivers/STM32F4xx_HAL_Driver/Src/stm32f4xx_hal_i2c.c ****                             Then usage of this option I2C_LAST_FRAME_NO_STOP at the last Transmit o
 113:Drivers/STM32F4xx_HAL_Driver/Src/stm32f4xx_hal_i2c.c ****                               without stopping the communication and so generate a restart conditio
 114:Drivers/STM32F4xx_HAL_Driver/Src/stm32f4xx_hal_i2c.c ****       (++) I2C_OTHER_FRAME: Sequential usage (Master only), this option allow to manage a restart c
 115:Drivers/STM32F4xx_HAL_Driver/Src/stm32f4xx_hal_i2c.c ****                             interface.
 116:Drivers/STM32F4xx_HAL_Driver/Src/stm32f4xx_hal_i2c.c ****                             Usage can, transfer several bytes one by one with a restart with slave 
 117:Drivers/STM32F4xx_HAL_Driver/Src/stm32f4xx_hal_i2c.c ****                               or HAL_I2C_Master_Seq_Receive_IT(option I2C_FIRST_FRAME then I2C_OTHE
 118:Drivers/STM32F4xx_HAL_Driver/Src/stm32f4xx_hal_i2c.c ****                               or HAL_I2C_Master_Seq_Transmit_DMA(option I2C_FIRST_FRAME then I2C_OT
 119:Drivers/STM32F4xx_HAL_Driver/Src/stm32f4xx_hal_i2c.c ****                               or HAL_I2C_Master_Seq_Receive_DMA(option I2C_FIRST_FRAME then I2C_OTH
 120:Drivers/STM32F4xx_HAL_Driver/Src/stm32f4xx_hal_i2c.c ****                             Then usage of this option I2C_OTHER_AND_LAST_FRAME at the last frame to
 121:Drivers/STM32F4xx_HAL_Driver/Src/stm32f4xx_hal_i2c.c **** 
 122:Drivers/STM32F4xx_HAL_Driver/Src/stm32f4xx_hal_i2c.c ****       (+) Differents sequential I2C interfaces are listed below:
 123:Drivers/STM32F4xx_HAL_Driver/Src/stm32f4xx_hal_i2c.c ****       (++) Sequential transmit in master I2C mode an amount of data in non-blocking mode using @ref
 124:Drivers/STM32F4xx_HAL_Driver/Src/stm32f4xx_hal_i2c.c ****             or using @ref HAL_I2C_Master_Seq_Transmit_DMA()
 125:Drivers/STM32F4xx_HAL_Driver/Src/stm32f4xx_hal_i2c.c ****       (+++) At transmission end of current frame transfer, @ref HAL_I2C_MasterTxCpltCallback() is e
 126:Drivers/STM32F4xx_HAL_Driver/Src/stm32f4xx_hal_i2c.c ****            add his own code by customization of function pointer @ref HAL_I2C_MasterTxCpltCallback(
 127:Drivers/STM32F4xx_HAL_Driver/Src/stm32f4xx_hal_i2c.c ****       (++) Sequential receive in master I2C mode an amount of data in non-blocking mode using @ref 
 128:Drivers/STM32F4xx_HAL_Driver/Src/stm32f4xx_hal_i2c.c ****             or using @ref HAL_I2C_Master_Seq_Receive_DMA()
 129:Drivers/STM32F4xx_HAL_Driver/Src/stm32f4xx_hal_i2c.c ****       (+++) At reception end of current frame transfer, @ref HAL_I2C_MasterRxCpltCallback() is exec
 130:Drivers/STM32F4xx_HAL_Driver/Src/stm32f4xx_hal_i2c.c ****            add his own code by customization of function pointer @ref HAL_I2C_MasterRxCpltCallback(
 131:Drivers/STM32F4xx_HAL_Driver/Src/stm32f4xx_hal_i2c.c ****       (++) Abort a master IT or DMA I2C process communication with Interrupt using @ref HAL_I2C_Mas
 132:Drivers/STM32F4xx_HAL_Driver/Src/stm32f4xx_hal_i2c.c ****       (+++) End of abort process, @ref HAL_I2C_AbortCpltCallback() is executed and user can
 133:Drivers/STM32F4xx_HAL_Driver/Src/stm32f4xx_hal_i2c.c ****            add his own code by customization of function pointer @ref HAL_I2C_AbortCpltCallback()
 134:Drivers/STM32F4xx_HAL_Driver/Src/stm32f4xx_hal_i2c.c ****       (++) Enable/disable the Address listen mode in slave I2C mode using @ref HAL_I2C_EnableListen
 135:Drivers/STM32F4xx_HAL_Driver/Src/stm32f4xx_hal_i2c.c ****       (+++) When address slave I2C match, @ref HAL_I2C_AddrCallback() is executed and user can
ARM GAS  /tmp/ccC4l07N.s 			page 4


 136:Drivers/STM32F4xx_HAL_Driver/Src/stm32f4xx_hal_i2c.c ****            add his own code to check the Address Match Code and the transmission direction request 
 137:Drivers/STM32F4xx_HAL_Driver/Src/stm32f4xx_hal_i2c.c ****       (+++) At Listen mode end @ref HAL_I2C_ListenCpltCallback() is executed and user can
 138:Drivers/STM32F4xx_HAL_Driver/Src/stm32f4xx_hal_i2c.c ****            add his own code by customization of function pointer @ref HAL_I2C_ListenCpltCallback()
 139:Drivers/STM32F4xx_HAL_Driver/Src/stm32f4xx_hal_i2c.c ****       (++) Sequential transmit in slave I2C mode an amount of data in non-blocking mode using @ref 
 140:Drivers/STM32F4xx_HAL_Driver/Src/stm32f4xx_hal_i2c.c ****             or using @ref HAL_I2C_Slave_Seq_Transmit_DMA()
 141:Drivers/STM32F4xx_HAL_Driver/Src/stm32f4xx_hal_i2c.c ****       (+++) At transmission end of current frame transfer, @ref HAL_I2C_SlaveTxCpltCallback() is ex
 142:Drivers/STM32F4xx_HAL_Driver/Src/stm32f4xx_hal_i2c.c ****            add his own code by customization of function pointer @ref HAL_I2C_SlaveTxCpltCallback()
 143:Drivers/STM32F4xx_HAL_Driver/Src/stm32f4xx_hal_i2c.c ****       (++) Sequential receive in slave I2C mode an amount of data in non-blocking mode using @ref H
 144:Drivers/STM32F4xx_HAL_Driver/Src/stm32f4xx_hal_i2c.c ****             or using @ref HAL_I2C_Slave_Seq_Receive_DMA()
 145:Drivers/STM32F4xx_HAL_Driver/Src/stm32f4xx_hal_i2c.c ****       (+++) At reception end of current frame transfer, @ref HAL_I2C_SlaveRxCpltCallback() is execu
 146:Drivers/STM32F4xx_HAL_Driver/Src/stm32f4xx_hal_i2c.c ****            add his own code by customization of function pointer @ref HAL_I2C_SlaveRxCpltCallback()
 147:Drivers/STM32F4xx_HAL_Driver/Src/stm32f4xx_hal_i2c.c ****       (++) In case of transfer Error, @ref HAL_I2C_ErrorCallback() function is executed and user ca
 148:Drivers/STM32F4xx_HAL_Driver/Src/stm32f4xx_hal_i2c.c ****            add his own code by customization of function pointer @ref HAL_I2C_ErrorCallback()
 149:Drivers/STM32F4xx_HAL_Driver/Src/stm32f4xx_hal_i2c.c **** 
 150:Drivers/STM32F4xx_HAL_Driver/Src/stm32f4xx_hal_i2c.c ****     *** Interrupt mode IO MEM operation ***
 151:Drivers/STM32F4xx_HAL_Driver/Src/stm32f4xx_hal_i2c.c ****     =======================================
 152:Drivers/STM32F4xx_HAL_Driver/Src/stm32f4xx_hal_i2c.c ****     [..]
 153:Drivers/STM32F4xx_HAL_Driver/Src/stm32f4xx_hal_i2c.c ****       (+) Write an amount of data in non-blocking mode with Interrupt to a specific memory address 
 154:Drivers/STM32F4xx_HAL_Driver/Src/stm32f4xx_hal_i2c.c ****           @ref HAL_I2C_Mem_Write_IT()
 155:Drivers/STM32F4xx_HAL_Driver/Src/stm32f4xx_hal_i2c.c ****       (+) At Memory end of write transfer, @ref HAL_I2C_MemTxCpltCallback() is executed and user ca
 156:Drivers/STM32F4xx_HAL_Driver/Src/stm32f4xx_hal_i2c.c ****            add his own code by customization of function pointer @ref HAL_I2C_MemTxCpltCallback()
 157:Drivers/STM32F4xx_HAL_Driver/Src/stm32f4xx_hal_i2c.c ****       (+) Read an amount of data in non-blocking mode with Interrupt from a specific memory address
 158:Drivers/STM32F4xx_HAL_Driver/Src/stm32f4xx_hal_i2c.c ****           @ref HAL_I2C_Mem_Read_IT()
 159:Drivers/STM32F4xx_HAL_Driver/Src/stm32f4xx_hal_i2c.c ****       (+) At Memory end of read transfer, @ref HAL_I2C_MemRxCpltCallback() is executed and user can
 160:Drivers/STM32F4xx_HAL_Driver/Src/stm32f4xx_hal_i2c.c ****            add his own code by customization of function pointer @ref HAL_I2C_MemRxCpltCallback()
 161:Drivers/STM32F4xx_HAL_Driver/Src/stm32f4xx_hal_i2c.c ****       (+) In case of transfer Error, @ref HAL_I2C_ErrorCallback() function is executed and user can
 162:Drivers/STM32F4xx_HAL_Driver/Src/stm32f4xx_hal_i2c.c ****            add his own code by customization of function pointer @ref HAL_I2C_ErrorCallback()
 163:Drivers/STM32F4xx_HAL_Driver/Src/stm32f4xx_hal_i2c.c **** 
 164:Drivers/STM32F4xx_HAL_Driver/Src/stm32f4xx_hal_i2c.c ****     *** DMA mode IO operation ***
 165:Drivers/STM32F4xx_HAL_Driver/Src/stm32f4xx_hal_i2c.c ****     ==============================
 166:Drivers/STM32F4xx_HAL_Driver/Src/stm32f4xx_hal_i2c.c ****     [..]
 167:Drivers/STM32F4xx_HAL_Driver/Src/stm32f4xx_hal_i2c.c ****       (+) Transmit in master mode an amount of data in non-blocking mode (DMA) using
 168:Drivers/STM32F4xx_HAL_Driver/Src/stm32f4xx_hal_i2c.c ****           @ref HAL_I2C_Master_Transmit_DMA()
 169:Drivers/STM32F4xx_HAL_Driver/Src/stm32f4xx_hal_i2c.c ****       (+) At transmission end of transfer, @ref HAL_I2C_MasterTxCpltCallback() is executed and user
 170:Drivers/STM32F4xx_HAL_Driver/Src/stm32f4xx_hal_i2c.c ****            add his own code by customization of function pointer @ref HAL_I2C_MasterTxCpltCallback(
 171:Drivers/STM32F4xx_HAL_Driver/Src/stm32f4xx_hal_i2c.c ****       (+) Receive in master mode an amount of data in non-blocking mode (DMA) using
 172:Drivers/STM32F4xx_HAL_Driver/Src/stm32f4xx_hal_i2c.c ****           @ref HAL_I2C_Master_Receive_DMA()
 173:Drivers/STM32F4xx_HAL_Driver/Src/stm32f4xx_hal_i2c.c ****       (+) At reception end of transfer, @ref HAL_I2C_MasterRxCpltCallback() is executed and user ca
 174:Drivers/STM32F4xx_HAL_Driver/Src/stm32f4xx_hal_i2c.c ****            add his own code by customization of function pointer @ref HAL_I2C_MasterRxCpltCallback(
 175:Drivers/STM32F4xx_HAL_Driver/Src/stm32f4xx_hal_i2c.c ****       (+) Transmit in slave mode an amount of data in non-blocking mode (DMA) using
 176:Drivers/STM32F4xx_HAL_Driver/Src/stm32f4xx_hal_i2c.c ****           @ref HAL_I2C_Slave_Transmit_DMA()
 177:Drivers/STM32F4xx_HAL_Driver/Src/stm32f4xx_hal_i2c.c ****       (+) At transmission end of transfer, @ref HAL_I2C_SlaveTxCpltCallback() is executed and user 
 178:Drivers/STM32F4xx_HAL_Driver/Src/stm32f4xx_hal_i2c.c ****            add his own code by customization of function pointer @ref HAL_I2C_SlaveTxCpltCallback()
 179:Drivers/STM32F4xx_HAL_Driver/Src/stm32f4xx_hal_i2c.c ****       (+) Receive in slave mode an amount of data in non-blocking mode (DMA) using
 180:Drivers/STM32F4xx_HAL_Driver/Src/stm32f4xx_hal_i2c.c ****           @ref HAL_I2C_Slave_Receive_DMA()
 181:Drivers/STM32F4xx_HAL_Driver/Src/stm32f4xx_hal_i2c.c ****       (+) At reception end of transfer, @ref HAL_I2C_SlaveRxCpltCallback() is executed and user can
 182:Drivers/STM32F4xx_HAL_Driver/Src/stm32f4xx_hal_i2c.c ****            add his own code by customization of function pointer @ref HAL_I2C_SlaveRxCpltCallback()
 183:Drivers/STM32F4xx_HAL_Driver/Src/stm32f4xx_hal_i2c.c ****       (+) In case of transfer Error, @ref HAL_I2C_ErrorCallback() function is executed and user can
 184:Drivers/STM32F4xx_HAL_Driver/Src/stm32f4xx_hal_i2c.c ****            add his own code by customization of function pointer @ref HAL_I2C_ErrorCallback()
 185:Drivers/STM32F4xx_HAL_Driver/Src/stm32f4xx_hal_i2c.c ****       (+) Abort a master I2C process communication with Interrupt using @ref HAL_I2C_Master_Abort_I
 186:Drivers/STM32F4xx_HAL_Driver/Src/stm32f4xx_hal_i2c.c ****       (+) End of abort process, @ref HAL_I2C_AbortCpltCallback() is executed and user can
 187:Drivers/STM32F4xx_HAL_Driver/Src/stm32f4xx_hal_i2c.c ****            add his own code by customization of function pointer @ref HAL_I2C_AbortCpltCallback()
 188:Drivers/STM32F4xx_HAL_Driver/Src/stm32f4xx_hal_i2c.c **** 
 189:Drivers/STM32F4xx_HAL_Driver/Src/stm32f4xx_hal_i2c.c ****     *** DMA mode IO MEM operation ***
 190:Drivers/STM32F4xx_HAL_Driver/Src/stm32f4xx_hal_i2c.c ****     =================================
 191:Drivers/STM32F4xx_HAL_Driver/Src/stm32f4xx_hal_i2c.c ****     [..]
 192:Drivers/STM32F4xx_HAL_Driver/Src/stm32f4xx_hal_i2c.c ****       (+) Write an amount of data in non-blocking mode with DMA to a specific memory address using
ARM GAS  /tmp/ccC4l07N.s 			page 5


 193:Drivers/STM32F4xx_HAL_Driver/Src/stm32f4xx_hal_i2c.c ****           @ref HAL_I2C_Mem_Write_DMA()
 194:Drivers/STM32F4xx_HAL_Driver/Src/stm32f4xx_hal_i2c.c ****       (+) At Memory end of write transfer, @ref HAL_I2C_MemTxCpltCallback() is executed and user ca
 195:Drivers/STM32F4xx_HAL_Driver/Src/stm32f4xx_hal_i2c.c ****            add his own code by customization of function pointer @ref HAL_I2C_MemTxCpltCallback()
 196:Drivers/STM32F4xx_HAL_Driver/Src/stm32f4xx_hal_i2c.c ****       (+) Read an amount of data in non-blocking mode with DMA from a specific memory address using
 197:Drivers/STM32F4xx_HAL_Driver/Src/stm32f4xx_hal_i2c.c ****           @ref HAL_I2C_Mem_Read_DMA()
 198:Drivers/STM32F4xx_HAL_Driver/Src/stm32f4xx_hal_i2c.c ****       (+) At Memory end of read transfer, @ref HAL_I2C_MemRxCpltCallback() is executed and user can
 199:Drivers/STM32F4xx_HAL_Driver/Src/stm32f4xx_hal_i2c.c ****            add his own code by customization of function pointer @ref HAL_I2C_MemRxCpltCallback()
 200:Drivers/STM32F4xx_HAL_Driver/Src/stm32f4xx_hal_i2c.c ****       (+) In case of transfer Error, @ref HAL_I2C_ErrorCallback() function is executed and user can
 201:Drivers/STM32F4xx_HAL_Driver/Src/stm32f4xx_hal_i2c.c ****            add his own code by customization of function pointer @ref HAL_I2C_ErrorCallback()
 202:Drivers/STM32F4xx_HAL_Driver/Src/stm32f4xx_hal_i2c.c **** 
 203:Drivers/STM32F4xx_HAL_Driver/Src/stm32f4xx_hal_i2c.c **** 
 204:Drivers/STM32F4xx_HAL_Driver/Src/stm32f4xx_hal_i2c.c ****      *** I2C HAL driver macros list ***
 205:Drivers/STM32F4xx_HAL_Driver/Src/stm32f4xx_hal_i2c.c ****      ==================================
 206:Drivers/STM32F4xx_HAL_Driver/Src/stm32f4xx_hal_i2c.c ****      [..]
 207:Drivers/STM32F4xx_HAL_Driver/Src/stm32f4xx_hal_i2c.c ****        Below the list of most used macros in I2C HAL driver.
 208:Drivers/STM32F4xx_HAL_Driver/Src/stm32f4xx_hal_i2c.c **** 
 209:Drivers/STM32F4xx_HAL_Driver/Src/stm32f4xx_hal_i2c.c ****       (+) @ref __HAL_I2C_ENABLE:     Enable the I2C peripheral
 210:Drivers/STM32F4xx_HAL_Driver/Src/stm32f4xx_hal_i2c.c ****       (+) @ref __HAL_I2C_DISABLE:    Disable the I2C peripheral
 211:Drivers/STM32F4xx_HAL_Driver/Src/stm32f4xx_hal_i2c.c ****       (+) @ref __HAL_I2C_GET_FLAG:   Checks whether the specified I2C flag is set or not
 212:Drivers/STM32F4xx_HAL_Driver/Src/stm32f4xx_hal_i2c.c ****       (+) @ref __HAL_I2C_CLEAR_FLAG: Clear the specified I2C pending flag
 213:Drivers/STM32F4xx_HAL_Driver/Src/stm32f4xx_hal_i2c.c ****       (+) @ref __HAL_I2C_ENABLE_IT:  Enable the specified I2C interrupt
 214:Drivers/STM32F4xx_HAL_Driver/Src/stm32f4xx_hal_i2c.c ****       (+) @ref __HAL_I2C_DISABLE_IT: Disable the specified I2C interrupt
 215:Drivers/STM32F4xx_HAL_Driver/Src/stm32f4xx_hal_i2c.c **** 
 216:Drivers/STM32F4xx_HAL_Driver/Src/stm32f4xx_hal_i2c.c ****      *** Callback registration ***
 217:Drivers/STM32F4xx_HAL_Driver/Src/stm32f4xx_hal_i2c.c ****      =============================================
 218:Drivers/STM32F4xx_HAL_Driver/Src/stm32f4xx_hal_i2c.c ****     [..]
 219:Drivers/STM32F4xx_HAL_Driver/Src/stm32f4xx_hal_i2c.c ****      The compilation flag USE_HAL_I2C_REGISTER_CALLBACKS when set to 1
 220:Drivers/STM32F4xx_HAL_Driver/Src/stm32f4xx_hal_i2c.c ****      allows the user to configure dynamically the driver callbacks.
 221:Drivers/STM32F4xx_HAL_Driver/Src/stm32f4xx_hal_i2c.c ****      Use Functions @ref HAL_I2C_RegisterCallback() or @ref HAL_I2C_RegisterAddrCallback()
 222:Drivers/STM32F4xx_HAL_Driver/Src/stm32f4xx_hal_i2c.c ****      to register an interrupt callback.
 223:Drivers/STM32F4xx_HAL_Driver/Src/stm32f4xx_hal_i2c.c ****     [..]
 224:Drivers/STM32F4xx_HAL_Driver/Src/stm32f4xx_hal_i2c.c ****      Function @ref HAL_I2C_RegisterCallback() allows to register following callbacks:
 225:Drivers/STM32F4xx_HAL_Driver/Src/stm32f4xx_hal_i2c.c ****        (+) MasterTxCpltCallback : callback for Master transmission end of transfer.
 226:Drivers/STM32F4xx_HAL_Driver/Src/stm32f4xx_hal_i2c.c ****        (+) MasterRxCpltCallback : callback for Master reception end of transfer.
 227:Drivers/STM32F4xx_HAL_Driver/Src/stm32f4xx_hal_i2c.c ****        (+) SlaveTxCpltCallback  : callback for Slave transmission end of transfer.
 228:Drivers/STM32F4xx_HAL_Driver/Src/stm32f4xx_hal_i2c.c ****        (+) SlaveRxCpltCallback  : callback for Slave reception end of transfer.
 229:Drivers/STM32F4xx_HAL_Driver/Src/stm32f4xx_hal_i2c.c ****        (+) ListenCpltCallback   : callback for end of listen mode.
 230:Drivers/STM32F4xx_HAL_Driver/Src/stm32f4xx_hal_i2c.c ****        (+) MemTxCpltCallback    : callback for Memory transmission end of transfer.
 231:Drivers/STM32F4xx_HAL_Driver/Src/stm32f4xx_hal_i2c.c ****        (+) MemRxCpltCallback    : callback for Memory reception end of transfer.
 232:Drivers/STM32F4xx_HAL_Driver/Src/stm32f4xx_hal_i2c.c ****        (+) ErrorCallback        : callback for error detection.
 233:Drivers/STM32F4xx_HAL_Driver/Src/stm32f4xx_hal_i2c.c ****        (+) AbortCpltCallback    : callback for abort completion process.
 234:Drivers/STM32F4xx_HAL_Driver/Src/stm32f4xx_hal_i2c.c ****        (+) MspInitCallback      : callback for Msp Init.
 235:Drivers/STM32F4xx_HAL_Driver/Src/stm32f4xx_hal_i2c.c ****        (+) MspDeInitCallback    : callback for Msp DeInit.
 236:Drivers/STM32F4xx_HAL_Driver/Src/stm32f4xx_hal_i2c.c ****      This function takes as parameters the HAL peripheral handle, the Callback ID
 237:Drivers/STM32F4xx_HAL_Driver/Src/stm32f4xx_hal_i2c.c ****      and a pointer to the user callback function.
 238:Drivers/STM32F4xx_HAL_Driver/Src/stm32f4xx_hal_i2c.c ****     [..]
 239:Drivers/STM32F4xx_HAL_Driver/Src/stm32f4xx_hal_i2c.c ****      For specific callback AddrCallback use dedicated register callbacks : @ref HAL_I2C_RegisterAdd
 240:Drivers/STM32F4xx_HAL_Driver/Src/stm32f4xx_hal_i2c.c ****     [..]
 241:Drivers/STM32F4xx_HAL_Driver/Src/stm32f4xx_hal_i2c.c ****      Use function @ref HAL_I2C_UnRegisterCallback to reset a callback to the default
 242:Drivers/STM32F4xx_HAL_Driver/Src/stm32f4xx_hal_i2c.c ****      weak function.
 243:Drivers/STM32F4xx_HAL_Driver/Src/stm32f4xx_hal_i2c.c ****      @ref HAL_I2C_UnRegisterCallback takes as parameters the HAL peripheral handle,
 244:Drivers/STM32F4xx_HAL_Driver/Src/stm32f4xx_hal_i2c.c ****      and the Callback ID.
 245:Drivers/STM32F4xx_HAL_Driver/Src/stm32f4xx_hal_i2c.c ****      This function allows to reset following callbacks:
 246:Drivers/STM32F4xx_HAL_Driver/Src/stm32f4xx_hal_i2c.c ****        (+) MasterTxCpltCallback : callback for Master transmission end of transfer.
 247:Drivers/STM32F4xx_HAL_Driver/Src/stm32f4xx_hal_i2c.c ****        (+) MasterRxCpltCallback : callback for Master reception end of transfer.
 248:Drivers/STM32F4xx_HAL_Driver/Src/stm32f4xx_hal_i2c.c ****        (+) SlaveTxCpltCallback  : callback for Slave transmission end of transfer.
 249:Drivers/STM32F4xx_HAL_Driver/Src/stm32f4xx_hal_i2c.c ****        (+) SlaveRxCpltCallback  : callback for Slave reception end of transfer.
ARM GAS  /tmp/ccC4l07N.s 			page 6


 250:Drivers/STM32F4xx_HAL_Driver/Src/stm32f4xx_hal_i2c.c ****        (+) ListenCpltCallback   : callback for end of listen mode.
 251:Drivers/STM32F4xx_HAL_Driver/Src/stm32f4xx_hal_i2c.c ****        (+) MemTxCpltCallback    : callback for Memory transmission end of transfer.
 252:Drivers/STM32F4xx_HAL_Driver/Src/stm32f4xx_hal_i2c.c ****        (+) MemRxCpltCallback    : callback for Memory reception end of transfer.
 253:Drivers/STM32F4xx_HAL_Driver/Src/stm32f4xx_hal_i2c.c ****        (+) ErrorCallback        : callback for error detection.
 254:Drivers/STM32F4xx_HAL_Driver/Src/stm32f4xx_hal_i2c.c ****        (+) AbortCpltCallback    : callback for abort completion process.
 255:Drivers/STM32F4xx_HAL_Driver/Src/stm32f4xx_hal_i2c.c ****        (+) MspInitCallback      : callback for Msp Init.
 256:Drivers/STM32F4xx_HAL_Driver/Src/stm32f4xx_hal_i2c.c ****        (+) MspDeInitCallback    : callback for Msp DeInit.
 257:Drivers/STM32F4xx_HAL_Driver/Src/stm32f4xx_hal_i2c.c ****     [..]
 258:Drivers/STM32F4xx_HAL_Driver/Src/stm32f4xx_hal_i2c.c ****      For callback AddrCallback use dedicated register callbacks : @ref HAL_I2C_UnRegisterAddrCallba
 259:Drivers/STM32F4xx_HAL_Driver/Src/stm32f4xx_hal_i2c.c ****     [..]
 260:Drivers/STM32F4xx_HAL_Driver/Src/stm32f4xx_hal_i2c.c ****      By default, after the @ref HAL_I2C_Init() and when the state is @ref HAL_I2C_STATE_RESET
 261:Drivers/STM32F4xx_HAL_Driver/Src/stm32f4xx_hal_i2c.c ****      all callbacks are set to the corresponding weak functions:
 262:Drivers/STM32F4xx_HAL_Driver/Src/stm32f4xx_hal_i2c.c ****      examples @ref HAL_I2C_MasterTxCpltCallback(), @ref HAL_I2C_MasterRxCpltCallback().
 263:Drivers/STM32F4xx_HAL_Driver/Src/stm32f4xx_hal_i2c.c ****      Exception done for MspInit and MspDeInit functions that are
 264:Drivers/STM32F4xx_HAL_Driver/Src/stm32f4xx_hal_i2c.c ****      reset to the legacy weak functions in the @ref HAL_I2C_Init()/ @ref HAL_I2C_DeInit() only when
 265:Drivers/STM32F4xx_HAL_Driver/Src/stm32f4xx_hal_i2c.c ****      these callbacks are null (not registered beforehand).
 266:Drivers/STM32F4xx_HAL_Driver/Src/stm32f4xx_hal_i2c.c ****      If MspInit or MspDeInit are not null, the @ref HAL_I2C_Init()/ @ref HAL_I2C_DeInit()
 267:Drivers/STM32F4xx_HAL_Driver/Src/stm32f4xx_hal_i2c.c ****      keep and use the user MspInit/MspDeInit callbacks (registered beforehand) whatever the state.
 268:Drivers/STM32F4xx_HAL_Driver/Src/stm32f4xx_hal_i2c.c ****     [..]
 269:Drivers/STM32F4xx_HAL_Driver/Src/stm32f4xx_hal_i2c.c ****      Callbacks can be registered/unregistered in @ref HAL_I2C_STATE_READY state only.
 270:Drivers/STM32F4xx_HAL_Driver/Src/stm32f4xx_hal_i2c.c ****      Exception done MspInit/MspDeInit functions that can be registered/unregistered
 271:Drivers/STM32F4xx_HAL_Driver/Src/stm32f4xx_hal_i2c.c ****      in @ref HAL_I2C_STATE_READY or @ref HAL_I2C_STATE_RESET state,
 272:Drivers/STM32F4xx_HAL_Driver/Src/stm32f4xx_hal_i2c.c ****      thus registered (user) MspInit/DeInit callbacks can be used during the Init/DeInit.
 273:Drivers/STM32F4xx_HAL_Driver/Src/stm32f4xx_hal_i2c.c ****      Then, the user first registers the MspInit/MspDeInit user callbacks
 274:Drivers/STM32F4xx_HAL_Driver/Src/stm32f4xx_hal_i2c.c ****      using @ref HAL_I2C_RegisterCallback() before calling @ref HAL_I2C_DeInit()
 275:Drivers/STM32F4xx_HAL_Driver/Src/stm32f4xx_hal_i2c.c ****      or @ref HAL_I2C_Init() function.
 276:Drivers/STM32F4xx_HAL_Driver/Src/stm32f4xx_hal_i2c.c ****     [..]
 277:Drivers/STM32F4xx_HAL_Driver/Src/stm32f4xx_hal_i2c.c ****      When the compilation flag USE_HAL_I2C_REGISTER_CALLBACKS is set to 0 or
 278:Drivers/STM32F4xx_HAL_Driver/Src/stm32f4xx_hal_i2c.c ****      not defined, the callback registration feature is not available and all callbacks
 279:Drivers/STM32F4xx_HAL_Driver/Src/stm32f4xx_hal_i2c.c ****      are set to the corresponding weak functions.
 280:Drivers/STM32F4xx_HAL_Driver/Src/stm32f4xx_hal_i2c.c **** 
 281:Drivers/STM32F4xx_HAL_Driver/Src/stm32f4xx_hal_i2c.c **** 
 282:Drivers/STM32F4xx_HAL_Driver/Src/stm32f4xx_hal_i2c.c **** 
 283:Drivers/STM32F4xx_HAL_Driver/Src/stm32f4xx_hal_i2c.c ****      [..]
 284:Drivers/STM32F4xx_HAL_Driver/Src/stm32f4xx_hal_i2c.c ****        (@) You can refer to the I2C HAL driver header file for more useful macros
 285:Drivers/STM32F4xx_HAL_Driver/Src/stm32f4xx_hal_i2c.c **** 
 286:Drivers/STM32F4xx_HAL_Driver/Src/stm32f4xx_hal_i2c.c ****   @endverbatim
 287:Drivers/STM32F4xx_HAL_Driver/Src/stm32f4xx_hal_i2c.c ****   ******************************************************************************
 288:Drivers/STM32F4xx_HAL_Driver/Src/stm32f4xx_hal_i2c.c ****   * @attention
 289:Drivers/STM32F4xx_HAL_Driver/Src/stm32f4xx_hal_i2c.c ****   *
 290:Drivers/STM32F4xx_HAL_Driver/Src/stm32f4xx_hal_i2c.c ****   * <h2><center>&copy; Copyright (c) 2016 STMicroelectronics.
 291:Drivers/STM32F4xx_HAL_Driver/Src/stm32f4xx_hal_i2c.c ****   * All rights reserved.</center></h2>
 292:Drivers/STM32F4xx_HAL_Driver/Src/stm32f4xx_hal_i2c.c ****   *
 293:Drivers/STM32F4xx_HAL_Driver/Src/stm32f4xx_hal_i2c.c ****   * This software component is licensed by ST under BSD 3-Clause license,
 294:Drivers/STM32F4xx_HAL_Driver/Src/stm32f4xx_hal_i2c.c ****   * the "License"; You may not use this file except in compliance with the
 295:Drivers/STM32F4xx_HAL_Driver/Src/stm32f4xx_hal_i2c.c ****   * License. You may obtain a copy of the License at:
 296:Drivers/STM32F4xx_HAL_Driver/Src/stm32f4xx_hal_i2c.c ****   *                        opensource.org/licenses/BSD-3-Clause
 297:Drivers/STM32F4xx_HAL_Driver/Src/stm32f4xx_hal_i2c.c ****   *
 298:Drivers/STM32F4xx_HAL_Driver/Src/stm32f4xx_hal_i2c.c ****   ******************************************************************************
 299:Drivers/STM32F4xx_HAL_Driver/Src/stm32f4xx_hal_i2c.c ****   */
 300:Drivers/STM32F4xx_HAL_Driver/Src/stm32f4xx_hal_i2c.c **** 
 301:Drivers/STM32F4xx_HAL_Driver/Src/stm32f4xx_hal_i2c.c **** /* Includes ------------------------------------------------------------------*/
 302:Drivers/STM32F4xx_HAL_Driver/Src/stm32f4xx_hal_i2c.c **** #include "stm32f4xx_hal.h"
 303:Drivers/STM32F4xx_HAL_Driver/Src/stm32f4xx_hal_i2c.c **** 
 304:Drivers/STM32F4xx_HAL_Driver/Src/stm32f4xx_hal_i2c.c **** /** @addtogroup STM32F4xx_HAL_Driver
 305:Drivers/STM32F4xx_HAL_Driver/Src/stm32f4xx_hal_i2c.c ****   * @{
 306:Drivers/STM32F4xx_HAL_Driver/Src/stm32f4xx_hal_i2c.c ****   */
ARM GAS  /tmp/ccC4l07N.s 			page 7


 307:Drivers/STM32F4xx_HAL_Driver/Src/stm32f4xx_hal_i2c.c **** 
 308:Drivers/STM32F4xx_HAL_Driver/Src/stm32f4xx_hal_i2c.c **** /** @defgroup I2C I2C
 309:Drivers/STM32F4xx_HAL_Driver/Src/stm32f4xx_hal_i2c.c ****   * @brief I2C HAL module driver
 310:Drivers/STM32F4xx_HAL_Driver/Src/stm32f4xx_hal_i2c.c ****   * @{
 311:Drivers/STM32F4xx_HAL_Driver/Src/stm32f4xx_hal_i2c.c ****   */
 312:Drivers/STM32F4xx_HAL_Driver/Src/stm32f4xx_hal_i2c.c **** 
 313:Drivers/STM32F4xx_HAL_Driver/Src/stm32f4xx_hal_i2c.c **** #ifdef HAL_I2C_MODULE_ENABLED
 314:Drivers/STM32F4xx_HAL_Driver/Src/stm32f4xx_hal_i2c.c **** 
 315:Drivers/STM32F4xx_HAL_Driver/Src/stm32f4xx_hal_i2c.c **** /* Private typedef -----------------------------------------------------------*/
 316:Drivers/STM32F4xx_HAL_Driver/Src/stm32f4xx_hal_i2c.c **** /* Private define ------------------------------------------------------------*/
 317:Drivers/STM32F4xx_HAL_Driver/Src/stm32f4xx_hal_i2c.c **** /** @addtogroup I2C_Private_Define
 318:Drivers/STM32F4xx_HAL_Driver/Src/stm32f4xx_hal_i2c.c ****   * @{
 319:Drivers/STM32F4xx_HAL_Driver/Src/stm32f4xx_hal_i2c.c ****   */
 320:Drivers/STM32F4xx_HAL_Driver/Src/stm32f4xx_hal_i2c.c **** #define I2C_TIMEOUT_FLAG          35U         /*!< Timeout 35 ms             */
 321:Drivers/STM32F4xx_HAL_Driver/Src/stm32f4xx_hal_i2c.c **** #define I2C_TIMEOUT_BUSY_FLAG     25U         /*!< Timeout 25 ms             */
 322:Drivers/STM32F4xx_HAL_Driver/Src/stm32f4xx_hal_i2c.c **** #define I2C_NO_OPTION_FRAME       0xFFFF0000U /*!< XferOptions default value */
 323:Drivers/STM32F4xx_HAL_Driver/Src/stm32f4xx_hal_i2c.c **** 
 324:Drivers/STM32F4xx_HAL_Driver/Src/stm32f4xx_hal_i2c.c **** /* Private define for @ref PreviousState usage */
 325:Drivers/STM32F4xx_HAL_Driver/Src/stm32f4xx_hal_i2c.c **** #define I2C_STATE_MSK             ((uint32_t)((uint32_t)((uint32_t)HAL_I2C_STATE_BUSY_TX | (uint32_
 326:Drivers/STM32F4xx_HAL_Driver/Src/stm32f4xx_hal_i2c.c **** #define I2C_STATE_NONE            ((uint32_t)(HAL_I2C_MODE_NONE))                                  
 327:Drivers/STM32F4xx_HAL_Driver/Src/stm32f4xx_hal_i2c.c **** #define I2C_STATE_MASTER_BUSY_TX  ((uint32_t)(((uint32_t)HAL_I2C_STATE_BUSY_TX & I2C_STATE_MSK) | (
 328:Drivers/STM32F4xx_HAL_Driver/Src/stm32f4xx_hal_i2c.c **** #define I2C_STATE_MASTER_BUSY_RX  ((uint32_t)(((uint32_t)HAL_I2C_STATE_BUSY_RX & I2C_STATE_MSK) | (
 329:Drivers/STM32F4xx_HAL_Driver/Src/stm32f4xx_hal_i2c.c **** #define I2C_STATE_SLAVE_BUSY_TX   ((uint32_t)(((uint32_t)HAL_I2C_STATE_BUSY_TX & I2C_STATE_MSK) | (
 330:Drivers/STM32F4xx_HAL_Driver/Src/stm32f4xx_hal_i2c.c **** #define I2C_STATE_SLAVE_BUSY_RX   ((uint32_t)(((uint32_t)HAL_I2C_STATE_BUSY_RX & I2C_STATE_MSK) | (
 331:Drivers/STM32F4xx_HAL_Driver/Src/stm32f4xx_hal_i2c.c **** 
 332:Drivers/STM32F4xx_HAL_Driver/Src/stm32f4xx_hal_i2c.c **** /**
 333:Drivers/STM32F4xx_HAL_Driver/Src/stm32f4xx_hal_i2c.c ****   * @}
 334:Drivers/STM32F4xx_HAL_Driver/Src/stm32f4xx_hal_i2c.c ****   */
 335:Drivers/STM32F4xx_HAL_Driver/Src/stm32f4xx_hal_i2c.c **** 
 336:Drivers/STM32F4xx_HAL_Driver/Src/stm32f4xx_hal_i2c.c **** /* Private macro -------------------------------------------------------------*/
 337:Drivers/STM32F4xx_HAL_Driver/Src/stm32f4xx_hal_i2c.c **** /* Private variables ---------------------------------------------------------*/
 338:Drivers/STM32F4xx_HAL_Driver/Src/stm32f4xx_hal_i2c.c **** /* Private function prototypes -----------------------------------------------*/
 339:Drivers/STM32F4xx_HAL_Driver/Src/stm32f4xx_hal_i2c.c **** 
 340:Drivers/STM32F4xx_HAL_Driver/Src/stm32f4xx_hal_i2c.c **** /** @defgroup I2C_Private_Functions I2C Private Functions
 341:Drivers/STM32F4xx_HAL_Driver/Src/stm32f4xx_hal_i2c.c ****   * @{
 342:Drivers/STM32F4xx_HAL_Driver/Src/stm32f4xx_hal_i2c.c ****   */
 343:Drivers/STM32F4xx_HAL_Driver/Src/stm32f4xx_hal_i2c.c **** /* Private functions to handle DMA transfer */
 344:Drivers/STM32F4xx_HAL_Driver/Src/stm32f4xx_hal_i2c.c **** static void I2C_DMAXferCplt(DMA_HandleTypeDef *hdma);
 345:Drivers/STM32F4xx_HAL_Driver/Src/stm32f4xx_hal_i2c.c **** static void I2C_DMAError(DMA_HandleTypeDef *hdma);
 346:Drivers/STM32F4xx_HAL_Driver/Src/stm32f4xx_hal_i2c.c **** static void I2C_DMAAbort(DMA_HandleTypeDef *hdma);
 347:Drivers/STM32F4xx_HAL_Driver/Src/stm32f4xx_hal_i2c.c **** 
 348:Drivers/STM32F4xx_HAL_Driver/Src/stm32f4xx_hal_i2c.c **** static void I2C_ITError(I2C_HandleTypeDef *hi2c);
 349:Drivers/STM32F4xx_HAL_Driver/Src/stm32f4xx_hal_i2c.c **** 
 350:Drivers/STM32F4xx_HAL_Driver/Src/stm32f4xx_hal_i2c.c **** static HAL_StatusTypeDef I2C_MasterRequestWrite(I2C_HandleTypeDef *hi2c, uint16_t DevAddress, uint3
 351:Drivers/STM32F4xx_HAL_Driver/Src/stm32f4xx_hal_i2c.c **** static HAL_StatusTypeDef I2C_MasterRequestRead(I2C_HandleTypeDef *hi2c, uint16_t DevAddress, uint32
 352:Drivers/STM32F4xx_HAL_Driver/Src/stm32f4xx_hal_i2c.c **** static HAL_StatusTypeDef I2C_RequestMemoryWrite(I2C_HandleTypeDef *hi2c, uint16_t DevAddress, uint1
 353:Drivers/STM32F4xx_HAL_Driver/Src/stm32f4xx_hal_i2c.c **** static HAL_StatusTypeDef I2C_RequestMemoryRead(I2C_HandleTypeDef *hi2c, uint16_t DevAddress, uint16
 354:Drivers/STM32F4xx_HAL_Driver/Src/stm32f4xx_hal_i2c.c **** 
 355:Drivers/STM32F4xx_HAL_Driver/Src/stm32f4xx_hal_i2c.c **** /* Private functions to handle flags during polling transfer */
 356:Drivers/STM32F4xx_HAL_Driver/Src/stm32f4xx_hal_i2c.c **** static HAL_StatusTypeDef I2C_WaitOnFlagUntilTimeout(I2C_HandleTypeDef *hi2c, uint32_t Flag, FlagSta
 357:Drivers/STM32F4xx_HAL_Driver/Src/stm32f4xx_hal_i2c.c **** static HAL_StatusTypeDef I2C_WaitOnMasterAddressFlagUntilTimeout(I2C_HandleTypeDef *hi2c, uint32_t 
 358:Drivers/STM32F4xx_HAL_Driver/Src/stm32f4xx_hal_i2c.c **** static HAL_StatusTypeDef I2C_WaitOnTXEFlagUntilTimeout(I2C_HandleTypeDef *hi2c, uint32_t Timeout, u
 359:Drivers/STM32F4xx_HAL_Driver/Src/stm32f4xx_hal_i2c.c **** static HAL_StatusTypeDef I2C_WaitOnBTFFlagUntilTimeout(I2C_HandleTypeDef *hi2c, uint32_t Timeout, u
 360:Drivers/STM32F4xx_HAL_Driver/Src/stm32f4xx_hal_i2c.c **** static HAL_StatusTypeDef I2C_WaitOnRXNEFlagUntilTimeout(I2C_HandleTypeDef *hi2c, uint32_t Timeout, 
 361:Drivers/STM32F4xx_HAL_Driver/Src/stm32f4xx_hal_i2c.c **** static HAL_StatusTypeDef I2C_WaitOnSTOPFlagUntilTimeout(I2C_HandleTypeDef *hi2c, uint32_t Timeout, 
 362:Drivers/STM32F4xx_HAL_Driver/Src/stm32f4xx_hal_i2c.c **** static HAL_StatusTypeDef I2C_IsAcknowledgeFailed(I2C_HandleTypeDef *hi2c);
 363:Drivers/STM32F4xx_HAL_Driver/Src/stm32f4xx_hal_i2c.c **** 
ARM GAS  /tmp/ccC4l07N.s 			page 8


 364:Drivers/STM32F4xx_HAL_Driver/Src/stm32f4xx_hal_i2c.c **** /* Private functions for I2C transfer IRQ handler */
 365:Drivers/STM32F4xx_HAL_Driver/Src/stm32f4xx_hal_i2c.c **** static void I2C_MasterTransmit_TXE(I2C_HandleTypeDef *hi2c);
 366:Drivers/STM32F4xx_HAL_Driver/Src/stm32f4xx_hal_i2c.c **** static void I2C_MasterTransmit_BTF(I2C_HandleTypeDef *hi2c);
 367:Drivers/STM32F4xx_HAL_Driver/Src/stm32f4xx_hal_i2c.c **** static void I2C_MasterReceive_RXNE(I2C_HandleTypeDef *hi2c);
 368:Drivers/STM32F4xx_HAL_Driver/Src/stm32f4xx_hal_i2c.c **** static void I2C_MasterReceive_BTF(I2C_HandleTypeDef *hi2c);
 369:Drivers/STM32F4xx_HAL_Driver/Src/stm32f4xx_hal_i2c.c **** static void I2C_Master_SB(I2C_HandleTypeDef *hi2c);
 370:Drivers/STM32F4xx_HAL_Driver/Src/stm32f4xx_hal_i2c.c **** static void I2C_Master_ADD10(I2C_HandleTypeDef *hi2c);
 371:Drivers/STM32F4xx_HAL_Driver/Src/stm32f4xx_hal_i2c.c **** static void I2C_Master_ADDR(I2C_HandleTypeDef *hi2c);
 372:Drivers/STM32F4xx_HAL_Driver/Src/stm32f4xx_hal_i2c.c **** 
 373:Drivers/STM32F4xx_HAL_Driver/Src/stm32f4xx_hal_i2c.c **** static void I2C_SlaveTransmit_TXE(I2C_HandleTypeDef *hi2c);
 374:Drivers/STM32F4xx_HAL_Driver/Src/stm32f4xx_hal_i2c.c **** static void I2C_SlaveTransmit_BTF(I2C_HandleTypeDef *hi2c);
 375:Drivers/STM32F4xx_HAL_Driver/Src/stm32f4xx_hal_i2c.c **** static void I2C_SlaveReceive_RXNE(I2C_HandleTypeDef *hi2c);
 376:Drivers/STM32F4xx_HAL_Driver/Src/stm32f4xx_hal_i2c.c **** static void I2C_SlaveReceive_BTF(I2C_HandleTypeDef *hi2c);
 377:Drivers/STM32F4xx_HAL_Driver/Src/stm32f4xx_hal_i2c.c **** static void I2C_Slave_ADDR(I2C_HandleTypeDef *hi2c, uint32_t IT2Flags);
 378:Drivers/STM32F4xx_HAL_Driver/Src/stm32f4xx_hal_i2c.c **** static void I2C_Slave_STOPF(I2C_HandleTypeDef *hi2c);
 379:Drivers/STM32F4xx_HAL_Driver/Src/stm32f4xx_hal_i2c.c **** static void I2C_Slave_AF(I2C_HandleTypeDef *hi2c);
 380:Drivers/STM32F4xx_HAL_Driver/Src/stm32f4xx_hal_i2c.c **** 
 381:Drivers/STM32F4xx_HAL_Driver/Src/stm32f4xx_hal_i2c.c **** static void I2C_MemoryTransmit_TXE_BTF(I2C_HandleTypeDef *hi2c);
 382:Drivers/STM32F4xx_HAL_Driver/Src/stm32f4xx_hal_i2c.c **** 
 383:Drivers/STM32F4xx_HAL_Driver/Src/stm32f4xx_hal_i2c.c **** /* Private function to Convert Specific options */
 384:Drivers/STM32F4xx_HAL_Driver/Src/stm32f4xx_hal_i2c.c **** static void I2C_ConvertOtherXferOptions(I2C_HandleTypeDef *hi2c);
 385:Drivers/STM32F4xx_HAL_Driver/Src/stm32f4xx_hal_i2c.c **** /**
 386:Drivers/STM32F4xx_HAL_Driver/Src/stm32f4xx_hal_i2c.c ****   * @}
 387:Drivers/STM32F4xx_HAL_Driver/Src/stm32f4xx_hal_i2c.c ****   */
 388:Drivers/STM32F4xx_HAL_Driver/Src/stm32f4xx_hal_i2c.c **** 
 389:Drivers/STM32F4xx_HAL_Driver/Src/stm32f4xx_hal_i2c.c **** /* Exported functions --------------------------------------------------------*/
 390:Drivers/STM32F4xx_HAL_Driver/Src/stm32f4xx_hal_i2c.c **** 
 391:Drivers/STM32F4xx_HAL_Driver/Src/stm32f4xx_hal_i2c.c **** /** @defgroup I2C_Exported_Functions I2C Exported Functions
 392:Drivers/STM32F4xx_HAL_Driver/Src/stm32f4xx_hal_i2c.c ****   * @{
 393:Drivers/STM32F4xx_HAL_Driver/Src/stm32f4xx_hal_i2c.c ****   */
 394:Drivers/STM32F4xx_HAL_Driver/Src/stm32f4xx_hal_i2c.c **** 
 395:Drivers/STM32F4xx_HAL_Driver/Src/stm32f4xx_hal_i2c.c **** /** @defgroup I2C_Exported_Functions_Group1 Initialization and de-initialization functions
 396:Drivers/STM32F4xx_HAL_Driver/Src/stm32f4xx_hal_i2c.c ****  *  @brief    Initialization and Configuration functions
 397:Drivers/STM32F4xx_HAL_Driver/Src/stm32f4xx_hal_i2c.c ****  *
 398:Drivers/STM32F4xx_HAL_Driver/Src/stm32f4xx_hal_i2c.c **** @verbatim
 399:Drivers/STM32F4xx_HAL_Driver/Src/stm32f4xx_hal_i2c.c ****  ===============================================================================
 400:Drivers/STM32F4xx_HAL_Driver/Src/stm32f4xx_hal_i2c.c ****               ##### Initialization and de-initialization functions #####
 401:Drivers/STM32F4xx_HAL_Driver/Src/stm32f4xx_hal_i2c.c ****  ===============================================================================
 402:Drivers/STM32F4xx_HAL_Driver/Src/stm32f4xx_hal_i2c.c ****     [..]  This subsection provides a set of functions allowing to initialize and
 403:Drivers/STM32F4xx_HAL_Driver/Src/stm32f4xx_hal_i2c.c ****           deinitialize the I2Cx peripheral:
 404:Drivers/STM32F4xx_HAL_Driver/Src/stm32f4xx_hal_i2c.c **** 
 405:Drivers/STM32F4xx_HAL_Driver/Src/stm32f4xx_hal_i2c.c ****       (+) User must Implement HAL_I2C_MspInit() function in which he configures
 406:Drivers/STM32F4xx_HAL_Driver/Src/stm32f4xx_hal_i2c.c ****           all related peripherals resources (CLOCK, GPIO, DMA, IT and NVIC).
 407:Drivers/STM32F4xx_HAL_Driver/Src/stm32f4xx_hal_i2c.c **** 
 408:Drivers/STM32F4xx_HAL_Driver/Src/stm32f4xx_hal_i2c.c ****       (+) Call the function HAL_I2C_Init() to configure the selected device with
 409:Drivers/STM32F4xx_HAL_Driver/Src/stm32f4xx_hal_i2c.c ****           the selected configuration:
 410:Drivers/STM32F4xx_HAL_Driver/Src/stm32f4xx_hal_i2c.c ****         (++) Communication Speed
 411:Drivers/STM32F4xx_HAL_Driver/Src/stm32f4xx_hal_i2c.c ****         (++) Duty cycle
 412:Drivers/STM32F4xx_HAL_Driver/Src/stm32f4xx_hal_i2c.c ****         (++) Addressing mode
 413:Drivers/STM32F4xx_HAL_Driver/Src/stm32f4xx_hal_i2c.c ****         (++) Own Address 1
 414:Drivers/STM32F4xx_HAL_Driver/Src/stm32f4xx_hal_i2c.c ****         (++) Dual Addressing mode
 415:Drivers/STM32F4xx_HAL_Driver/Src/stm32f4xx_hal_i2c.c ****         (++) Own Address 2
 416:Drivers/STM32F4xx_HAL_Driver/Src/stm32f4xx_hal_i2c.c ****         (++) General call mode
 417:Drivers/STM32F4xx_HAL_Driver/Src/stm32f4xx_hal_i2c.c ****         (++) Nostretch mode
 418:Drivers/STM32F4xx_HAL_Driver/Src/stm32f4xx_hal_i2c.c **** 
 419:Drivers/STM32F4xx_HAL_Driver/Src/stm32f4xx_hal_i2c.c ****       (+) Call the function HAL_I2C_DeInit() to restore the default configuration
 420:Drivers/STM32F4xx_HAL_Driver/Src/stm32f4xx_hal_i2c.c ****           of the selected I2Cx peripheral.
ARM GAS  /tmp/ccC4l07N.s 			page 9


 421:Drivers/STM32F4xx_HAL_Driver/Src/stm32f4xx_hal_i2c.c **** 
 422:Drivers/STM32F4xx_HAL_Driver/Src/stm32f4xx_hal_i2c.c **** @endverbatim
 423:Drivers/STM32F4xx_HAL_Driver/Src/stm32f4xx_hal_i2c.c ****   * @{
 424:Drivers/STM32F4xx_HAL_Driver/Src/stm32f4xx_hal_i2c.c ****   */
 425:Drivers/STM32F4xx_HAL_Driver/Src/stm32f4xx_hal_i2c.c **** 
 426:Drivers/STM32F4xx_HAL_Driver/Src/stm32f4xx_hal_i2c.c **** /**
 427:Drivers/STM32F4xx_HAL_Driver/Src/stm32f4xx_hal_i2c.c ****   * @brief  Initializes the I2C according to the specified parameters
 428:Drivers/STM32F4xx_HAL_Driver/Src/stm32f4xx_hal_i2c.c ****   *         in the I2C_InitTypeDef and initialize the associated handle.
 429:Drivers/STM32F4xx_HAL_Driver/Src/stm32f4xx_hal_i2c.c ****   * @param  hi2c Pointer to a I2C_HandleTypeDef structure that contains
 430:Drivers/STM32F4xx_HAL_Driver/Src/stm32f4xx_hal_i2c.c ****   *                the configuration information for the specified I2C.
 431:Drivers/STM32F4xx_HAL_Driver/Src/stm32f4xx_hal_i2c.c ****   * @retval HAL status
 432:Drivers/STM32F4xx_HAL_Driver/Src/stm32f4xx_hal_i2c.c ****   */
 433:Drivers/STM32F4xx_HAL_Driver/Src/stm32f4xx_hal_i2c.c **** HAL_StatusTypeDef HAL_I2C_Init(I2C_HandleTypeDef *hi2c)
 434:Drivers/STM32F4xx_HAL_Driver/Src/stm32f4xx_hal_i2c.c **** {
  34              		.loc 1 434 1
  35              		.cfi_startproc
  36              		@ args = 0, pretend = 0, frame = 16
  37              		@ frame_needed = 1, uses_anonymous_args = 0
  38 0000 80B5     		push	{r7, lr}
  39              	.LCFI0:
  40              		.cfi_def_cfa_offset 8
  41              		.cfi_offset 7, -8
  42              		.cfi_offset 14, -4
  43 0002 84B0     		sub	sp, sp, #16
  44              	.LCFI1:
  45              		.cfi_def_cfa_offset 24
  46 0004 00AF     		add	r7, sp, #0
  47              	.LCFI2:
  48              		.cfi_def_cfa_register 7
  49 0006 7860     		str	r0, [r7, #4]
 435:Drivers/STM32F4xx_HAL_Driver/Src/stm32f4xx_hal_i2c.c ****   uint32_t freqrange;
 436:Drivers/STM32F4xx_HAL_Driver/Src/stm32f4xx_hal_i2c.c ****   uint32_t pclk1;
 437:Drivers/STM32F4xx_HAL_Driver/Src/stm32f4xx_hal_i2c.c **** 
 438:Drivers/STM32F4xx_HAL_Driver/Src/stm32f4xx_hal_i2c.c ****   /* Check the I2C handle allocation */
 439:Drivers/STM32F4xx_HAL_Driver/Src/stm32f4xx_hal_i2c.c ****   if (hi2c == NULL)
  50              		.loc 1 439 6
  51 0008 7B68     		ldr	r3, [r7, #4]
  52 000a 002B     		cmp	r3, #0
  53 000c 01D1     		bne	.L2
 440:Drivers/STM32F4xx_HAL_Driver/Src/stm32f4xx_hal_i2c.c ****   {
 441:Drivers/STM32F4xx_HAL_Driver/Src/stm32f4xx_hal_i2c.c ****     return HAL_ERROR;
  54              		.loc 1 441 12
  55 000e 0123     		movs	r3, #1
  56 0010 F9E1     		b	.L3
  57              	.L2:
 442:Drivers/STM32F4xx_HAL_Driver/Src/stm32f4xx_hal_i2c.c ****   }
 443:Drivers/STM32F4xx_HAL_Driver/Src/stm32f4xx_hal_i2c.c **** 
 444:Drivers/STM32F4xx_HAL_Driver/Src/stm32f4xx_hal_i2c.c ****   /* Check the parameters */
 445:Drivers/STM32F4xx_HAL_Driver/Src/stm32f4xx_hal_i2c.c ****   assert_param(IS_I2C_ALL_INSTANCE(hi2c->Instance));
  58              		.loc 1 445 3
  59 0012 7B68     		ldr	r3, [r7, #4]
  60 0014 1B68     		ldr	r3, [r3]
  61 0016 9B4A     		ldr	r2, .L31
  62 0018 9342     		cmp	r3, r2
  63 001a 0ED0     		beq	.L4
  64              		.loc 1 445 3 is_stmt 0 discriminator 1
  65 001c 7B68     		ldr	r3, [r7, #4]
ARM GAS  /tmp/ccC4l07N.s 			page 10


  66 001e 1B68     		ldr	r3, [r3]
  67 0020 994A     		ldr	r2, .L31+4
  68 0022 9342     		cmp	r3, r2
  69 0024 09D0     		beq	.L4
  70              		.loc 1 445 3 discriminator 2
  71 0026 7B68     		ldr	r3, [r7, #4]
  72 0028 1B68     		ldr	r3, [r3]
  73 002a 984A     		ldr	r2, .L31+8
  74 002c 9342     		cmp	r3, r2
  75 002e 04D0     		beq	.L4
  76              		.loc 1 445 3 discriminator 3
  77 0030 40F2BD11 		movw	r1, #445
  78 0034 9648     		ldr	r0, .L31+12
  79 0036 FFF7FEFF 		bl	assert_failed
  80              	.L4:
 446:Drivers/STM32F4xx_HAL_Driver/Src/stm32f4xx_hal_i2c.c ****   assert_param(IS_I2C_CLOCK_SPEED(hi2c->Init.ClockSpeed));
  81              		.loc 1 446 3 is_stmt 1
  82 003a 7B68     		ldr	r3, [r7, #4]
  83 003c 5B68     		ldr	r3, [r3, #4]
  84 003e 002B     		cmp	r3, #0
  85 0040 04D0     		beq	.L5
  86              		.loc 1 446 3 is_stmt 0 discriminator 2
  87 0042 7B68     		ldr	r3, [r7, #4]
  88 0044 5B68     		ldr	r3, [r3, #4]
  89 0046 934A     		ldr	r2, .L31+16
  90 0048 9342     		cmp	r3, r2
  91 004a 04D9     		bls	.L6
  92              	.L5:
  93              		.loc 1 446 3 discriminator 3
  94 004c 4FF4DF71 		mov	r1, #446
  95 0050 8F48     		ldr	r0, .L31+12
  96 0052 FFF7FEFF 		bl	assert_failed
  97              	.L6:
 447:Drivers/STM32F4xx_HAL_Driver/Src/stm32f4xx_hal_i2c.c ****   assert_param(IS_I2C_DUTY_CYCLE(hi2c->Init.DutyCycle));
  98              		.loc 1 447 3 is_stmt 1
  99 0056 7B68     		ldr	r3, [r7, #4]
 100 0058 9B68     		ldr	r3, [r3, #8]
 101 005a 002B     		cmp	r3, #0
 102 005c 09D0     		beq	.L7
 103              		.loc 1 447 3 is_stmt 0 discriminator 1
 104 005e 7B68     		ldr	r3, [r7, #4]
 105 0060 9B68     		ldr	r3, [r3, #8]
 106 0062 B3F5804F 		cmp	r3, #16384
 107 0066 04D0     		beq	.L7
 108              		.loc 1 447 3 discriminator 2
 109 0068 40F2BF11 		movw	r1, #447
 110 006c 8848     		ldr	r0, .L31+12
 111 006e FFF7FEFF 		bl	assert_failed
 112              	.L7:
 448:Drivers/STM32F4xx_HAL_Driver/Src/stm32f4xx_hal_i2c.c ****   assert_param(IS_I2C_OWN_ADDRESS1(hi2c->Init.OwnAddress1));
 113              		.loc 1 448 3 is_stmt 1
 114 0072 7B68     		ldr	r3, [r7, #4]
 115 0074 DB68     		ldr	r3, [r3, #12]
 116 0076 23F47F73 		bic	r3, r3, #1020
 117 007a 23F00303 		bic	r3, r3, #3
 118 007e 002B     		cmp	r3, #0
 119 0080 04D0     		beq	.L8
ARM GAS  /tmp/ccC4l07N.s 			page 11


 120              		.loc 1 448 3 is_stmt 0 discriminator 1
 121 0082 4FF4E071 		mov	r1, #448
 122 0086 8248     		ldr	r0, .L31+12
 123 0088 FFF7FEFF 		bl	assert_failed
 124              	.L8:
 449:Drivers/STM32F4xx_HAL_Driver/Src/stm32f4xx_hal_i2c.c ****   assert_param(IS_I2C_ADDRESSING_MODE(hi2c->Init.AddressingMode));
 125              		.loc 1 449 3 is_stmt 1
 126 008c 7B68     		ldr	r3, [r7, #4]
 127 008e 1B69     		ldr	r3, [r3, #16]
 128 0090 B3F5804F 		cmp	r3, #16384
 129 0094 09D0     		beq	.L9
 130              		.loc 1 449 3 is_stmt 0 discriminator 1
 131 0096 7B68     		ldr	r3, [r7, #4]
 132 0098 1B69     		ldr	r3, [r3, #16]
 133 009a B3F5404F 		cmp	r3, #49152
 134 009e 04D0     		beq	.L9
 135              		.loc 1 449 3 discriminator 2
 136 00a0 40F2C111 		movw	r1, #449
 137 00a4 7A48     		ldr	r0, .L31+12
 138 00a6 FFF7FEFF 		bl	assert_failed
 139              	.L9:
 450:Drivers/STM32F4xx_HAL_Driver/Src/stm32f4xx_hal_i2c.c ****   assert_param(IS_I2C_DUAL_ADDRESS(hi2c->Init.DualAddressMode));
 140              		.loc 1 450 3 is_stmt 1
 141 00aa 7B68     		ldr	r3, [r7, #4]
 142 00ac 5B69     		ldr	r3, [r3, #20]
 143 00ae 002B     		cmp	r3, #0
 144 00b0 08D0     		beq	.L10
 145              		.loc 1 450 3 is_stmt 0 discriminator 1
 146 00b2 7B68     		ldr	r3, [r7, #4]
 147 00b4 5B69     		ldr	r3, [r3, #20]
 148 00b6 012B     		cmp	r3, #1
 149 00b8 04D0     		beq	.L10
 150              		.loc 1 450 3 discriminator 2
 151 00ba 4FF4E171 		mov	r1, #450
 152 00be 7448     		ldr	r0, .L31+12
 153 00c0 FFF7FEFF 		bl	assert_failed
 154              	.L10:
 451:Drivers/STM32F4xx_HAL_Driver/Src/stm32f4xx_hal_i2c.c ****   assert_param(IS_I2C_OWN_ADDRESS2(hi2c->Init.OwnAddress2));
 155              		.loc 1 451 3 is_stmt 1
 156 00c4 7B68     		ldr	r3, [r7, #4]
 157 00c6 9B69     		ldr	r3, [r3, #24]
 158 00c8 23F0FE03 		bic	r3, r3, #254
 159 00cc 002B     		cmp	r3, #0
 160 00ce 04D0     		beq	.L11
 161              		.loc 1 451 3 is_stmt 0 discriminator 1
 162 00d0 40F2C311 		movw	r1, #451
 163 00d4 6E48     		ldr	r0, .L31+12
 164 00d6 FFF7FEFF 		bl	assert_failed
 165              	.L11:
 452:Drivers/STM32F4xx_HAL_Driver/Src/stm32f4xx_hal_i2c.c ****   assert_param(IS_I2C_GENERAL_CALL(hi2c->Init.GeneralCallMode));
 166              		.loc 1 452 3 is_stmt 1
 167 00da 7B68     		ldr	r3, [r7, #4]
 168 00dc DB69     		ldr	r3, [r3, #28]
 169 00de 002B     		cmp	r3, #0
 170 00e0 08D0     		beq	.L12
 171              		.loc 1 452 3 is_stmt 0 discriminator 1
 172 00e2 7B68     		ldr	r3, [r7, #4]
ARM GAS  /tmp/ccC4l07N.s 			page 12


 173 00e4 DB69     		ldr	r3, [r3, #28]
 174 00e6 402B     		cmp	r3, #64
 175 00e8 04D0     		beq	.L12
 176              		.loc 1 452 3 discriminator 2
 177 00ea 4FF4E271 		mov	r1, #452
 178 00ee 6848     		ldr	r0, .L31+12
 179 00f0 FFF7FEFF 		bl	assert_failed
 180              	.L12:
 453:Drivers/STM32F4xx_HAL_Driver/Src/stm32f4xx_hal_i2c.c ****   assert_param(IS_I2C_NO_STRETCH(hi2c->Init.NoStretchMode));
 181              		.loc 1 453 3 is_stmt 1
 182 00f4 7B68     		ldr	r3, [r7, #4]
 183 00f6 1B6A     		ldr	r3, [r3, #32]
 184 00f8 002B     		cmp	r3, #0
 185 00fa 08D0     		beq	.L13
 186              		.loc 1 453 3 is_stmt 0 discriminator 1
 187 00fc 7B68     		ldr	r3, [r7, #4]
 188 00fe 1B6A     		ldr	r3, [r3, #32]
 189 0100 802B     		cmp	r3, #128
 190 0102 04D0     		beq	.L13
 191              		.loc 1 453 3 discriminator 2
 192 0104 40F2C511 		movw	r1, #453
 193 0108 6148     		ldr	r0, .L31+12
 194 010a FFF7FEFF 		bl	assert_failed
 195              	.L13:
 454:Drivers/STM32F4xx_HAL_Driver/Src/stm32f4xx_hal_i2c.c **** 
 455:Drivers/STM32F4xx_HAL_Driver/Src/stm32f4xx_hal_i2c.c ****   if (hi2c->State == HAL_I2C_STATE_RESET)
 196              		.loc 1 455 11 is_stmt 1
 197 010e 7B68     		ldr	r3, [r7, #4]
 198 0110 93F83D30 		ldrb	r3, [r3, #61]
 199 0114 DBB2     		uxtb	r3, r3
 200              		.loc 1 455 6
 201 0116 002B     		cmp	r3, #0
 202 0118 2CD1     		bne	.L14
 456:Drivers/STM32F4xx_HAL_Driver/Src/stm32f4xx_hal_i2c.c ****   {
 457:Drivers/STM32F4xx_HAL_Driver/Src/stm32f4xx_hal_i2c.c ****     /* Allocate lock resource and initialize it */
 458:Drivers/STM32F4xx_HAL_Driver/Src/stm32f4xx_hal_i2c.c ****     hi2c->Lock = HAL_UNLOCKED;
 203              		.loc 1 458 16
 204 011a 7B68     		ldr	r3, [r7, #4]
 205 011c 0022     		movs	r2, #0
 206 011e 83F83C20 		strb	r2, [r3, #60]
 459:Drivers/STM32F4xx_HAL_Driver/Src/stm32f4xx_hal_i2c.c **** 
 460:Drivers/STM32F4xx_HAL_Driver/Src/stm32f4xx_hal_i2c.c **** #if (USE_HAL_I2C_REGISTER_CALLBACKS == 1)
 461:Drivers/STM32F4xx_HAL_Driver/Src/stm32f4xx_hal_i2c.c ****     /* Init the I2C Callback settings */
 462:Drivers/STM32F4xx_HAL_Driver/Src/stm32f4xx_hal_i2c.c ****     hi2c->MasterTxCpltCallback = HAL_I2C_MasterTxCpltCallback; /* Legacy weak MasterTxCpltCallback 
 207              		.loc 1 462 32
 208 0122 7B68     		ldr	r3, [r7, #4]
 209 0124 5C4A     		ldr	r2, .L31+20
 210 0126 5A65     		str	r2, [r3, #84]
 463:Drivers/STM32F4xx_HAL_Driver/Src/stm32f4xx_hal_i2c.c ****     hi2c->MasterRxCpltCallback = HAL_I2C_MasterRxCpltCallback; /* Legacy weak MasterRxCpltCallback 
 211              		.loc 1 463 32
 212 0128 7B68     		ldr	r3, [r7, #4]
 213 012a 5C4A     		ldr	r2, .L31+24
 214 012c 9A65     		str	r2, [r3, #88]
 464:Drivers/STM32F4xx_HAL_Driver/Src/stm32f4xx_hal_i2c.c ****     hi2c->SlaveTxCpltCallback  = HAL_I2C_SlaveTxCpltCallback;  /* Legacy weak SlaveTxCpltCallback  
 215              		.loc 1 464 32
 216 012e 7B68     		ldr	r3, [r7, #4]
 217 0130 5B4A     		ldr	r2, .L31+28
ARM GAS  /tmp/ccC4l07N.s 			page 13


 218 0132 DA65     		str	r2, [r3, #92]
 465:Drivers/STM32F4xx_HAL_Driver/Src/stm32f4xx_hal_i2c.c ****     hi2c->SlaveRxCpltCallback  = HAL_I2C_SlaveRxCpltCallback;  /* Legacy weak SlaveRxCpltCallback  
 219              		.loc 1 465 32
 220 0134 7B68     		ldr	r3, [r7, #4]
 221 0136 5B4A     		ldr	r2, .L31+32
 222 0138 1A66     		str	r2, [r3, #96]
 466:Drivers/STM32F4xx_HAL_Driver/Src/stm32f4xx_hal_i2c.c ****     hi2c->ListenCpltCallback   = HAL_I2C_ListenCpltCallback;   /* Legacy weak ListenCpltCallback   
 223              		.loc 1 466 32
 224 013a 7B68     		ldr	r3, [r7, #4]
 225 013c 5A4A     		ldr	r2, .L31+36
 226 013e 5A66     		str	r2, [r3, #100]
 467:Drivers/STM32F4xx_HAL_Driver/Src/stm32f4xx_hal_i2c.c ****     hi2c->MemTxCpltCallback    = HAL_I2C_MemTxCpltCallback;    /* Legacy weak MemTxCpltCallback    
 227              		.loc 1 467 32
 228 0140 7B68     		ldr	r3, [r7, #4]
 229 0142 5A4A     		ldr	r2, .L31+40
 230 0144 9A66     		str	r2, [r3, #104]
 468:Drivers/STM32F4xx_HAL_Driver/Src/stm32f4xx_hal_i2c.c ****     hi2c->MemRxCpltCallback    = HAL_I2C_MemRxCpltCallback;    /* Legacy weak MemRxCpltCallback    
 231              		.loc 1 468 32
 232 0146 7B68     		ldr	r3, [r7, #4]
 233 0148 594A     		ldr	r2, .L31+44
 234 014a DA66     		str	r2, [r3, #108]
 469:Drivers/STM32F4xx_HAL_Driver/Src/stm32f4xx_hal_i2c.c ****     hi2c->ErrorCallback        = HAL_I2C_ErrorCallback;        /* Legacy weak ErrorCallback        
 235              		.loc 1 469 32
 236 014c 7B68     		ldr	r3, [r7, #4]
 237 014e 594A     		ldr	r2, .L31+48
 238 0150 1A67     		str	r2, [r3, #112]
 470:Drivers/STM32F4xx_HAL_Driver/Src/stm32f4xx_hal_i2c.c ****     hi2c->AbortCpltCallback    = HAL_I2C_AbortCpltCallback;    /* Legacy weak AbortCpltCallback    
 239              		.loc 1 470 32
 240 0152 7B68     		ldr	r3, [r7, #4]
 241 0154 584A     		ldr	r2, .L31+52
 242 0156 5A67     		str	r2, [r3, #116]
 471:Drivers/STM32F4xx_HAL_Driver/Src/stm32f4xx_hal_i2c.c ****     hi2c->AddrCallback         = HAL_I2C_AddrCallback;         /* Legacy weak AddrCallback         
 243              		.loc 1 471 32
 244 0158 7B68     		ldr	r3, [r7, #4]
 245 015a 584A     		ldr	r2, .L31+56
 246 015c 9A67     		str	r2, [r3, #120]
 472:Drivers/STM32F4xx_HAL_Driver/Src/stm32f4xx_hal_i2c.c **** 
 473:Drivers/STM32F4xx_HAL_Driver/Src/stm32f4xx_hal_i2c.c ****     if (hi2c->MspInitCallback == NULL)
 247              		.loc 1 473 13
 248 015e 7B68     		ldr	r3, [r7, #4]
 249 0160 DB6F     		ldr	r3, [r3, #124]
 250              		.loc 1 473 8
 251 0162 002B     		cmp	r3, #0
 252 0164 02D1     		bne	.L15
 474:Drivers/STM32F4xx_HAL_Driver/Src/stm32f4xx_hal_i2c.c ****     {
 475:Drivers/STM32F4xx_HAL_Driver/Src/stm32f4xx_hal_i2c.c ****       hi2c->MspInitCallback = HAL_I2C_MspInit; /* Legacy weak MspInit  */
 253              		.loc 1 475 29
 254 0166 7B68     		ldr	r3, [r7, #4]
 255 0168 554A     		ldr	r2, .L31+60
 256 016a DA67     		str	r2, [r3, #124]
 257              	.L15:
 476:Drivers/STM32F4xx_HAL_Driver/Src/stm32f4xx_hal_i2c.c ****     }
 477:Drivers/STM32F4xx_HAL_Driver/Src/stm32f4xx_hal_i2c.c **** 
 478:Drivers/STM32F4xx_HAL_Driver/Src/stm32f4xx_hal_i2c.c ****     /* Init the low level hardware : GPIO, CLOCK, NVIC */
 479:Drivers/STM32F4xx_HAL_Driver/Src/stm32f4xx_hal_i2c.c ****     hi2c->MspInitCallback(hi2c);
 258              		.loc 1 479 9
 259 016c 7B68     		ldr	r3, [r7, #4]
ARM GAS  /tmp/ccC4l07N.s 			page 14


 260 016e DB6F     		ldr	r3, [r3, #124]
 261              		.loc 1 479 5
 262 0170 7868     		ldr	r0, [r7, #4]
 263 0172 9847     		blx	r3
 264              	.LVL0:
 265              	.L14:
 480:Drivers/STM32F4xx_HAL_Driver/Src/stm32f4xx_hal_i2c.c **** #else
 481:Drivers/STM32F4xx_HAL_Driver/Src/stm32f4xx_hal_i2c.c ****     /* Init the low level hardware : GPIO, CLOCK, NVIC */
 482:Drivers/STM32F4xx_HAL_Driver/Src/stm32f4xx_hal_i2c.c ****     HAL_I2C_MspInit(hi2c);
 483:Drivers/STM32F4xx_HAL_Driver/Src/stm32f4xx_hal_i2c.c **** #endif /* USE_HAL_I2C_REGISTER_CALLBACKS */
 484:Drivers/STM32F4xx_HAL_Driver/Src/stm32f4xx_hal_i2c.c ****   }
 485:Drivers/STM32F4xx_HAL_Driver/Src/stm32f4xx_hal_i2c.c **** 
 486:Drivers/STM32F4xx_HAL_Driver/Src/stm32f4xx_hal_i2c.c ****   hi2c->State = HAL_I2C_STATE_BUSY;
 266              		.loc 1 486 15
 267 0174 7B68     		ldr	r3, [r7, #4]
 268 0176 2422     		movs	r2, #36
 269 0178 83F83D20 		strb	r2, [r3, #61]
 487:Drivers/STM32F4xx_HAL_Driver/Src/stm32f4xx_hal_i2c.c **** 
 488:Drivers/STM32F4xx_HAL_Driver/Src/stm32f4xx_hal_i2c.c ****   /* Disable the selected I2C peripheral */
 489:Drivers/STM32F4xx_HAL_Driver/Src/stm32f4xx_hal_i2c.c ****   __HAL_I2C_DISABLE(hi2c);
 270              		.loc 1 489 3
 271 017c 7B68     		ldr	r3, [r7, #4]
 272 017e 1B68     		ldr	r3, [r3]
 273 0180 1A68     		ldr	r2, [r3]
 274 0182 7B68     		ldr	r3, [r7, #4]
 275 0184 1B68     		ldr	r3, [r3]
 276 0186 22F00102 		bic	r2, r2, #1
 277 018a 1A60     		str	r2, [r3]
 490:Drivers/STM32F4xx_HAL_Driver/Src/stm32f4xx_hal_i2c.c **** 
 491:Drivers/STM32F4xx_HAL_Driver/Src/stm32f4xx_hal_i2c.c ****   /*Reset I2C*/
 492:Drivers/STM32F4xx_HAL_Driver/Src/stm32f4xx_hal_i2c.c ****   hi2c->Instance->CR1 |= I2C_CR1_SWRST;
 278              		.loc 1 492 7
 279 018c 7B68     		ldr	r3, [r7, #4]
 280 018e 1B68     		ldr	r3, [r3]
 281              		.loc 1 492 23
 282 0190 1A68     		ldr	r2, [r3]
 283              		.loc 1 492 7
 284 0192 7B68     		ldr	r3, [r7, #4]
 285 0194 1B68     		ldr	r3, [r3]
 286              		.loc 1 492 23
 287 0196 42F40042 		orr	r2, r2, #32768
 288 019a 1A60     		str	r2, [r3]
 493:Drivers/STM32F4xx_HAL_Driver/Src/stm32f4xx_hal_i2c.c ****   hi2c->Instance->CR1 &= ~I2C_CR1_SWRST;
 289              		.loc 1 493 7
 290 019c 7B68     		ldr	r3, [r7, #4]
 291 019e 1B68     		ldr	r3, [r3]
 292              		.loc 1 493 23
 293 01a0 1A68     		ldr	r2, [r3]
 294              		.loc 1 493 7
 295 01a2 7B68     		ldr	r3, [r7, #4]
 296 01a4 1B68     		ldr	r3, [r3]
 297              		.loc 1 493 23
 298 01a6 22F40042 		bic	r2, r2, #32768
 299 01aa 1A60     		str	r2, [r3]
 494:Drivers/STM32F4xx_HAL_Driver/Src/stm32f4xx_hal_i2c.c **** 
 495:Drivers/STM32F4xx_HAL_Driver/Src/stm32f4xx_hal_i2c.c ****   /* Get PCLK1 frequency */
 496:Drivers/STM32F4xx_HAL_Driver/Src/stm32f4xx_hal_i2c.c ****   pclk1 = HAL_RCC_GetPCLK1Freq();
ARM GAS  /tmp/ccC4l07N.s 			page 15


 300              		.loc 1 496 11
 301 01ac FFF7FEFF 		bl	HAL_RCC_GetPCLK1Freq
 302 01b0 F860     		str	r0, [r7, #12]
 497:Drivers/STM32F4xx_HAL_Driver/Src/stm32f4xx_hal_i2c.c **** 
 498:Drivers/STM32F4xx_HAL_Driver/Src/stm32f4xx_hal_i2c.c ****   /* Check the minimum allowed PCLK1 frequency */
 499:Drivers/STM32F4xx_HAL_Driver/Src/stm32f4xx_hal_i2c.c ****   if (I2C_MIN_PCLK_FREQ(pclk1, hi2c->Init.ClockSpeed) == 1U)
 303              		.loc 1 499 7
 304 01b2 7B68     		ldr	r3, [r7, #4]
 305 01b4 5B68     		ldr	r3, [r3, #4]
 306              		.loc 1 499 55
 307 01b6 434A     		ldr	r2, .L31+64
 308 01b8 9342     		cmp	r3, r2
 309 01ba 07D8     		bhi	.L16
 310              		.loc 1 499 55 is_stmt 0 discriminator 1
 311 01bc FB68     		ldr	r3, [r7, #12]
 312 01be 424A     		ldr	r2, .L31+68
 313 01c0 9342     		cmp	r3, r2
 314 01c2 94BF     		ite	ls
 315 01c4 0123     		movls	r3, #1
 316 01c6 0023     		movhi	r3, #0
 317 01c8 DBB2     		uxtb	r3, r3
 318 01ca 06E0     		b	.L17
 319              	.L16:
 320              		.loc 1 499 55 discriminator 2
 321 01cc FB68     		ldr	r3, [r7, #12]
 322 01ce 3F4A     		ldr	r2, .L31+72
 323 01d0 9342     		cmp	r3, r2
 324 01d2 94BF     		ite	ls
 325 01d4 0123     		movls	r3, #1
 326 01d6 0023     		movhi	r3, #0
 327 01d8 DBB2     		uxtb	r3, r3
 328              	.L17:
 329              		.loc 1 499 6 is_stmt 1 discriminator 4
 330 01da 002B     		cmp	r3, #0
 331 01dc 01D0     		beq	.L18
 500:Drivers/STM32F4xx_HAL_Driver/Src/stm32f4xx_hal_i2c.c ****   {
 501:Drivers/STM32F4xx_HAL_Driver/Src/stm32f4xx_hal_i2c.c ****     return HAL_ERROR;
 332              		.loc 1 501 12
 333 01de 0123     		movs	r3, #1
 334 01e0 11E1     		b	.L3
 335              	.L18:
 502:Drivers/STM32F4xx_HAL_Driver/Src/stm32f4xx_hal_i2c.c ****   }
 503:Drivers/STM32F4xx_HAL_Driver/Src/stm32f4xx_hal_i2c.c **** 
 504:Drivers/STM32F4xx_HAL_Driver/Src/stm32f4xx_hal_i2c.c ****   /* Calculate frequency range */
 505:Drivers/STM32F4xx_HAL_Driver/Src/stm32f4xx_hal_i2c.c ****   freqrange = I2C_FREQRANGE(pclk1);
 336              		.loc 1 505 13
 337 01e2 FB68     		ldr	r3, [r7, #12]
 338 01e4 3A4A     		ldr	r2, .L31+76
 339 01e6 A2FB0323 		umull	r2, r3, r2, r3
 340 01ea 9B0C     		lsrs	r3, r3, #18
 341 01ec BB60     		str	r3, [r7, #8]
 506:Drivers/STM32F4xx_HAL_Driver/Src/stm32f4xx_hal_i2c.c **** 
 507:Drivers/STM32F4xx_HAL_Driver/Src/stm32f4xx_hal_i2c.c ****   /*---------------------------- I2Cx CR2 Configuration ----------------------*/
 508:Drivers/STM32F4xx_HAL_Driver/Src/stm32f4xx_hal_i2c.c ****   /* Configure I2Cx: Frequency range */
 509:Drivers/STM32F4xx_HAL_Driver/Src/stm32f4xx_hal_i2c.c ****   MODIFY_REG(hi2c->Instance->CR2, I2C_CR2_FREQ, freqrange);
 342              		.loc 1 509 3
 343 01ee 7B68     		ldr	r3, [r7, #4]
ARM GAS  /tmp/ccC4l07N.s 			page 16


 344 01f0 1B68     		ldr	r3, [r3]
 345 01f2 5B68     		ldr	r3, [r3, #4]
 346 01f4 23F03F01 		bic	r1, r3, #63
 347 01f8 7B68     		ldr	r3, [r7, #4]
 348 01fa 1B68     		ldr	r3, [r3]
 349 01fc BA68     		ldr	r2, [r7, #8]
 350 01fe 0A43     		orrs	r2, r2, r1
 351 0200 5A60     		str	r2, [r3, #4]
 510:Drivers/STM32F4xx_HAL_Driver/Src/stm32f4xx_hal_i2c.c **** 
 511:Drivers/STM32F4xx_HAL_Driver/Src/stm32f4xx_hal_i2c.c ****   /*---------------------------- I2Cx TRISE Configuration --------------------*/
 512:Drivers/STM32F4xx_HAL_Driver/Src/stm32f4xx_hal_i2c.c ****   /* Configure I2Cx: Rise Time */
 513:Drivers/STM32F4xx_HAL_Driver/Src/stm32f4xx_hal_i2c.c ****   MODIFY_REG(hi2c->Instance->TRISE, I2C_TRISE_TRISE, I2C_RISE_TIME(freqrange, hi2c->Init.ClockSpeed
 352              		.loc 1 513 3
 353 0202 7B68     		ldr	r3, [r7, #4]
 354 0204 1B68     		ldr	r3, [r3]
 355 0206 1B6A     		ldr	r3, [r3, #32]
 356 0208 23F03F01 		bic	r1, r3, #63
 357 020c 7B68     		ldr	r3, [r7, #4]
 358 020e 5B68     		ldr	r3, [r3, #4]
 359 0210 2C4A     		ldr	r2, .L31+64
 360 0212 9342     		cmp	r3, r2
 361 0214 02D8     		bhi	.L19
 362              		.loc 1 513 3 is_stmt 0 discriminator 1
 363 0216 BB68     		ldr	r3, [r7, #8]
 364 0218 0133     		adds	r3, r3, #1
 365 021a 09E0     		b	.L20
 366              	.L19:
 367              		.loc 1 513 3 discriminator 2
 368 021c BB68     		ldr	r3, [r7, #8]
 369 021e 4FF49672 		mov	r2, #300
 370 0222 02FB03F3 		mul	r3, r2, r3
 371 0226 2B4A     		ldr	r2, .L31+80
 372 0228 A2FB0323 		umull	r2, r3, r2, r3
 373 022c 9B09     		lsrs	r3, r3, #6
 374 022e 0133     		adds	r3, r3, #1
 375              	.L20:
 376              		.loc 1 513 3 discriminator 4
 377 0230 7A68     		ldr	r2, [r7, #4]
 378 0232 1268     		ldr	r2, [r2]
 379 0234 0B43     		orrs	r3, r3, r1
 380 0236 1362     		str	r3, [r2, #32]
 514:Drivers/STM32F4xx_HAL_Driver/Src/stm32f4xx_hal_i2c.c **** 
 515:Drivers/STM32F4xx_HAL_Driver/Src/stm32f4xx_hal_i2c.c ****   /*---------------------------- I2Cx CCR Configuration ----------------------*/
 516:Drivers/STM32F4xx_HAL_Driver/Src/stm32f4xx_hal_i2c.c ****   /* Configure I2Cx: Speed */
 517:Drivers/STM32F4xx_HAL_Driver/Src/stm32f4xx_hal_i2c.c ****   MODIFY_REG(hi2c->Instance->CCR, (I2C_CCR_FS | I2C_CCR_DUTY | I2C_CCR_CCR), I2C_SPEED(pclk1, hi2c-
 381              		.loc 1 517 3 is_stmt 1 discriminator 4
 382 0238 7B68     		ldr	r3, [r7, #4]
 383 023a 1B68     		ldr	r3, [r3]
 384 023c DB69     		ldr	r3, [r3, #28]
 385 023e 23F44F42 		bic	r2, r3, #52992
 386 0242 22F0FF02 		bic	r2, r2, #255
 387 0246 7B68     		ldr	r3, [r7, #4]
 388 0248 5B68     		ldr	r3, [r3, #4]
 389 024a 1E49     		ldr	r1, .L31+64
 390 024c 8B42     		cmp	r3, r1
 391 024e 43D8     		bhi	.L21
 392              		.loc 1 517 3 is_stmt 0 discriminator 1
ARM GAS  /tmp/ccC4l07N.s 			page 17


 393 0250 FB68     		ldr	r3, [r7, #12]
 394 0252 591E     		subs	r1, r3, #1
 395 0254 7B68     		ldr	r3, [r7, #4]
 396 0256 5B68     		ldr	r3, [r3, #4]
 397 0258 5B00     		lsls	r3, r3, #1
 398 025a B1FBF3F3 		udiv	r3, r1, r3
 399 025e 591C     		adds	r1, r3, #1
 400 0260 40F6FC73 		movw	r3, #4092
 401 0264 0B40     		ands	r3, r3, r1
 402 0266 002B     		cmp	r3, #0
 403 0268 0AD0     		beq	.L22
 404              		.loc 1 517 3 discriminator 3
 405 026a FB68     		ldr	r3, [r7, #12]
 406 026c 591E     		subs	r1, r3, #1
 407 026e 7B68     		ldr	r3, [r7, #4]
 408 0270 5B68     		ldr	r3, [r3, #4]
 409 0272 5B00     		lsls	r3, r3, #1
 410 0274 B1FBF3F3 		udiv	r3, r1, r3
 411 0278 0133     		adds	r3, r3, #1
 412 027a C3F30B03 		ubfx	r3, r3, #0, #12
 413 027e 7BE0     		b	.L24
 414              	.L22:
 415              		.loc 1 517 3 discriminator 4
 416 0280 0423     		movs	r3, #4
 417 0282 79E0     		b	.L24
 418              	.L32:
 419              		.align	2
 420              	.L31:
 421 0284 00540040 		.word	1073763328
 422 0288 00580040 		.word	1073764352
 423 028c 005C0040 		.word	1073765376
 424 0290 00000000 		.word	.LC0
 425 0294 801A0600 		.word	400000
 426 0298 00000000 		.word	HAL_I2C_MasterTxCpltCallback
 427 029c 00000000 		.word	HAL_I2C_MasterRxCpltCallback
 428 02a0 00000000 		.word	HAL_I2C_SlaveTxCpltCallback
 429 02a4 00000000 		.word	HAL_I2C_SlaveRxCpltCallback
 430 02a8 00000000 		.word	HAL_I2C_ListenCpltCallback
 431 02ac 00000000 		.word	HAL_I2C_MemTxCpltCallback
 432 02b0 00000000 		.word	HAL_I2C_MemRxCpltCallback
 433 02b4 00000000 		.word	HAL_I2C_ErrorCallback
 434 02b8 00000000 		.word	HAL_I2C_AbortCpltCallback
 435 02bc 00000000 		.word	HAL_I2C_AddrCallback
 436 02c0 00000000 		.word	HAL_I2C_MspInit
 437 02c4 A0860100 		.word	100000
 438 02c8 7F841E00 		.word	1999999
 439 02cc FF083D00 		.word	3999999
 440 02d0 83DE1B43 		.word	1125899907
 441 02d4 D34D6210 		.word	274877907
 442              	.L21:
 443              		.loc 1 517 3 discriminator 2
 444 02d8 7B68     		ldr	r3, [r7, #4]
 445 02da 9B68     		ldr	r3, [r3, #8]
 446 02dc 002B     		cmp	r3, #0
 447 02de 11D1     		bne	.L25
 448              		.loc 1 517 3 discriminator 8
 449 02e0 FB68     		ldr	r3, [r7, #12]
ARM GAS  /tmp/ccC4l07N.s 			page 18


 450 02e2 581E     		subs	r0, r3, #1
 451 02e4 7B68     		ldr	r3, [r7, #4]
 452 02e6 5968     		ldr	r1, [r3, #4]
 453 02e8 0B46     		mov	r3, r1
 454 02ea 5B00     		lsls	r3, r3, #1
 455 02ec 0B44     		add	r3, r3, r1
 456 02ee B0FBF3F3 		udiv	r3, r0, r3
 457 02f2 0133     		adds	r3, r3, #1
 458 02f4 C3F30B03 		ubfx	r3, r3, #0, #12
 459 02f8 002B     		cmp	r3, #0
 460 02fa 0CBF     		ite	eq
 461 02fc 0123     		moveq	r3, #1
 462 02fe 0023     		movne	r3, #0
 463 0300 DBB2     		uxtb	r3, r3
 464 0302 12E0     		b	.L26
 465              	.L25:
 466              		.loc 1 517 3 discriminator 9
 467 0304 FB68     		ldr	r3, [r7, #12]
 468 0306 581E     		subs	r0, r3, #1
 469 0308 7B68     		ldr	r3, [r7, #4]
 470 030a 5968     		ldr	r1, [r3, #4]
 471 030c 0B46     		mov	r3, r1
 472 030e 9B00     		lsls	r3, r3, #2
 473 0310 0B44     		add	r3, r3, r1
 474 0312 9900     		lsls	r1, r3, #2
 475 0314 0B44     		add	r3, r3, r1
 476 0316 B0FBF3F3 		udiv	r3, r0, r3
 477 031a 0133     		adds	r3, r3, #1
 478 031c C3F30B03 		ubfx	r3, r3, #0, #12
 479 0320 002B     		cmp	r3, #0
 480 0322 0CBF     		ite	eq
 481 0324 0123     		moveq	r3, #1
 482 0326 0023     		movne	r3, #0
 483 0328 DBB2     		uxtb	r3, r3
 484              	.L26:
 485              		.loc 1 517 3 discriminator 11
 486 032a 002B     		cmp	r3, #0
 487 032c 01D0     		beq	.L27
 488              		.loc 1 517 3 discriminator 12
 489 032e 0123     		movs	r3, #1
 490 0330 22E0     		b	.L24
 491              	.L27:
 492              		.loc 1 517 3 discriminator 13
 493 0332 7B68     		ldr	r3, [r7, #4]
 494 0334 9B68     		ldr	r3, [r3, #8]
 495 0336 002B     		cmp	r3, #0
 496 0338 0ED1     		bne	.L29
 497              		.loc 1 517 3 discriminator 15
 498 033a FB68     		ldr	r3, [r7, #12]
 499 033c 581E     		subs	r0, r3, #1
 500 033e 7B68     		ldr	r3, [r7, #4]
 501 0340 5968     		ldr	r1, [r3, #4]
 502 0342 0B46     		mov	r3, r1
 503 0344 5B00     		lsls	r3, r3, #1
 504 0346 0B44     		add	r3, r3, r1
 505 0348 B0FBF3F3 		udiv	r3, r0, r3
 506 034c 0133     		adds	r3, r3, #1
ARM GAS  /tmp/ccC4l07N.s 			page 19


 507 034e C3F30B03 		ubfx	r3, r3, #0, #12
 508 0352 43F40043 		orr	r3, r3, #32768
 509 0356 0FE0     		b	.L24
 510              	.L29:
 511              		.loc 1 517 3 discriminator 16
 512 0358 FB68     		ldr	r3, [r7, #12]
 513 035a 581E     		subs	r0, r3, #1
 514 035c 7B68     		ldr	r3, [r7, #4]
 515 035e 5968     		ldr	r1, [r3, #4]
 516 0360 0B46     		mov	r3, r1
 517 0362 9B00     		lsls	r3, r3, #2
 518 0364 0B44     		add	r3, r3, r1
 519 0366 9900     		lsls	r1, r3, #2
 520 0368 0B44     		add	r3, r3, r1
 521 036a B0FBF3F3 		udiv	r3, r0, r3
 522 036e 0133     		adds	r3, r3, #1
 523 0370 C3F30B03 		ubfx	r3, r3, #0, #12
 524 0374 43F44043 		orr	r3, r3, #49152
 525              	.L24:
 526              		.loc 1 517 3 discriminator 20
 527 0378 7968     		ldr	r1, [r7, #4]
 528 037a 0968     		ldr	r1, [r1]
 529 037c 1343     		orrs	r3, r3, r2
 530 037e CB61     		str	r3, [r1, #28]
 518:Drivers/STM32F4xx_HAL_Driver/Src/stm32f4xx_hal_i2c.c **** 
 519:Drivers/STM32F4xx_HAL_Driver/Src/stm32f4xx_hal_i2c.c ****   /*---------------------------- I2Cx CR1 Configuration ----------------------*/
 520:Drivers/STM32F4xx_HAL_Driver/Src/stm32f4xx_hal_i2c.c ****   /* Configure I2Cx: Generalcall and NoStretch mode */
 521:Drivers/STM32F4xx_HAL_Driver/Src/stm32f4xx_hal_i2c.c ****   MODIFY_REG(hi2c->Instance->CR1, (I2C_CR1_ENGC | I2C_CR1_NOSTRETCH), (hi2c->Init.GeneralCallMode |
 531              		.loc 1 521 3 is_stmt 1 discriminator 20
 532 0380 7B68     		ldr	r3, [r7, #4]
 533 0382 1B68     		ldr	r3, [r3]
 534 0384 1B68     		ldr	r3, [r3]
 535 0386 23F0C001 		bic	r1, r3, #192
 536 038a 7B68     		ldr	r3, [r7, #4]
 537 038c DA69     		ldr	r2, [r3, #28]
 538 038e 7B68     		ldr	r3, [r7, #4]
 539 0390 1B6A     		ldr	r3, [r3, #32]
 540 0392 1A43     		orrs	r2, r2, r3
 541 0394 7B68     		ldr	r3, [r7, #4]
 542 0396 1B68     		ldr	r3, [r3]
 543 0398 0A43     		orrs	r2, r2, r1
 544 039a 1A60     		str	r2, [r3]
 522:Drivers/STM32F4xx_HAL_Driver/Src/stm32f4xx_hal_i2c.c **** 
 523:Drivers/STM32F4xx_HAL_Driver/Src/stm32f4xx_hal_i2c.c ****   /*---------------------------- I2Cx OAR1 Configuration ---------------------*/
 524:Drivers/STM32F4xx_HAL_Driver/Src/stm32f4xx_hal_i2c.c ****   /* Configure I2Cx: Own Address1 and addressing mode */
 525:Drivers/STM32F4xx_HAL_Driver/Src/stm32f4xx_hal_i2c.c ****   MODIFY_REG(hi2c->Instance->OAR1, (I2C_OAR1_ADDMODE | I2C_OAR1_ADD8_9 | I2C_OAR1_ADD1_7 | I2C_OAR1
 545              		.loc 1 525 3 discriminator 20
 546 039c 7B68     		ldr	r3, [r7, #4]
 547 039e 1B68     		ldr	r3, [r3]
 548 03a0 9B68     		ldr	r3, [r3, #8]
 549 03a2 23F40343 		bic	r3, r3, #33536
 550 03a6 23F0FF03 		bic	r3, r3, #255
 551 03aa 7A68     		ldr	r2, [r7, #4]
 552 03ac 1169     		ldr	r1, [r2, #16]
 553 03ae 7A68     		ldr	r2, [r7, #4]
 554 03b0 D268     		ldr	r2, [r2, #12]
 555 03b2 1143     		orrs	r1, r1, r2
ARM GAS  /tmp/ccC4l07N.s 			page 20


 556 03b4 7A68     		ldr	r2, [r7, #4]
 557 03b6 1268     		ldr	r2, [r2]
 558 03b8 0B43     		orrs	r3, r3, r1
 559 03ba 9360     		str	r3, [r2, #8]
 526:Drivers/STM32F4xx_HAL_Driver/Src/stm32f4xx_hal_i2c.c **** 
 527:Drivers/STM32F4xx_HAL_Driver/Src/stm32f4xx_hal_i2c.c ****   /*---------------------------- I2Cx OAR2 Configuration ---------------------*/
 528:Drivers/STM32F4xx_HAL_Driver/Src/stm32f4xx_hal_i2c.c ****   /* Configure I2Cx: Dual mode and Own Address2 */
 529:Drivers/STM32F4xx_HAL_Driver/Src/stm32f4xx_hal_i2c.c ****   MODIFY_REG(hi2c->Instance->OAR2, (I2C_OAR2_ENDUAL | I2C_OAR2_ADD2), (hi2c->Init.DualAddressMode |
 560              		.loc 1 529 3 discriminator 20
 561 03bc 7B68     		ldr	r3, [r7, #4]
 562 03be 1B68     		ldr	r3, [r3]
 563 03c0 DB68     		ldr	r3, [r3, #12]
 564 03c2 23F0FF01 		bic	r1, r3, #255
 565 03c6 7B68     		ldr	r3, [r7, #4]
 566 03c8 5A69     		ldr	r2, [r3, #20]
 567 03ca 7B68     		ldr	r3, [r7, #4]
 568 03cc 9B69     		ldr	r3, [r3, #24]
 569 03ce 1A43     		orrs	r2, r2, r3
 570 03d0 7B68     		ldr	r3, [r7, #4]
 571 03d2 1B68     		ldr	r3, [r3]
 572 03d4 0A43     		orrs	r2, r2, r1
 573 03d6 DA60     		str	r2, [r3, #12]
 530:Drivers/STM32F4xx_HAL_Driver/Src/stm32f4xx_hal_i2c.c **** 
 531:Drivers/STM32F4xx_HAL_Driver/Src/stm32f4xx_hal_i2c.c ****   /* Enable the selected I2C peripheral */
 532:Drivers/STM32F4xx_HAL_Driver/Src/stm32f4xx_hal_i2c.c ****   __HAL_I2C_ENABLE(hi2c);
 574              		.loc 1 532 3 discriminator 20
 575 03d8 7B68     		ldr	r3, [r7, #4]
 576 03da 1B68     		ldr	r3, [r3]
 577 03dc 1A68     		ldr	r2, [r3]
 578 03de 7B68     		ldr	r3, [r7, #4]
 579 03e0 1B68     		ldr	r3, [r3]
 580 03e2 42F00102 		orr	r2, r2, #1
 581 03e6 1A60     		str	r2, [r3]
 533:Drivers/STM32F4xx_HAL_Driver/Src/stm32f4xx_hal_i2c.c **** 
 534:Drivers/STM32F4xx_HAL_Driver/Src/stm32f4xx_hal_i2c.c ****   hi2c->ErrorCode = HAL_I2C_ERROR_NONE;
 582              		.loc 1 534 19 discriminator 20
 583 03e8 7B68     		ldr	r3, [r7, #4]
 584 03ea 0022     		movs	r2, #0
 585 03ec 1A64     		str	r2, [r3, #64]
 535:Drivers/STM32F4xx_HAL_Driver/Src/stm32f4xx_hal_i2c.c ****   hi2c->State = HAL_I2C_STATE_READY;
 586              		.loc 1 535 15 discriminator 20
 587 03ee 7B68     		ldr	r3, [r7, #4]
 588 03f0 2022     		movs	r2, #32
 589 03f2 83F83D20 		strb	r2, [r3, #61]
 536:Drivers/STM32F4xx_HAL_Driver/Src/stm32f4xx_hal_i2c.c ****   hi2c->PreviousState = I2C_STATE_NONE;
 590              		.loc 1 536 23 discriminator 20
 591 03f6 7B68     		ldr	r3, [r7, #4]
 592 03f8 0022     		movs	r2, #0
 593 03fa 1A63     		str	r2, [r3, #48]
 537:Drivers/STM32F4xx_HAL_Driver/Src/stm32f4xx_hal_i2c.c ****   hi2c->Mode = HAL_I2C_MODE_NONE;
 594              		.loc 1 537 14 discriminator 20
 595 03fc 7B68     		ldr	r3, [r7, #4]
 596 03fe 0022     		movs	r2, #0
 597 0400 83F83E20 		strb	r2, [r3, #62]
 538:Drivers/STM32F4xx_HAL_Driver/Src/stm32f4xx_hal_i2c.c **** 
 539:Drivers/STM32F4xx_HAL_Driver/Src/stm32f4xx_hal_i2c.c ****   return HAL_OK;
 598              		.loc 1 539 10 discriminator 20
ARM GAS  /tmp/ccC4l07N.s 			page 21


 599 0404 0023     		movs	r3, #0
 600              	.L3:
 540:Drivers/STM32F4xx_HAL_Driver/Src/stm32f4xx_hal_i2c.c **** }
 601              		.loc 1 540 1
 602 0406 1846     		mov	r0, r3
 603 0408 1037     		adds	r7, r7, #16
 604              	.LCFI3:
 605              		.cfi_def_cfa_offset 8
 606 040a BD46     		mov	sp, r7
 607              	.LCFI4:
 608              		.cfi_def_cfa_register 13
 609              		@ sp needed
 610 040c 80BD     		pop	{r7, pc}
 611              		.cfi_endproc
 612              	.LFE130:
 614 040e 00BF     		.section	.text.HAL_I2C_DeInit,"ax",%progbits
 615              		.align	1
 616              		.global	HAL_I2C_DeInit
 617              		.syntax unified
 618              		.thumb
 619              		.thumb_func
 620              		.fpu fpv4-sp-d16
 622              	HAL_I2C_DeInit:
 623              	.LFB131:
 541:Drivers/STM32F4xx_HAL_Driver/Src/stm32f4xx_hal_i2c.c **** 
 542:Drivers/STM32F4xx_HAL_Driver/Src/stm32f4xx_hal_i2c.c **** /**
 543:Drivers/STM32F4xx_HAL_Driver/Src/stm32f4xx_hal_i2c.c ****   * @brief  DeInitialize the I2C peripheral.
 544:Drivers/STM32F4xx_HAL_Driver/Src/stm32f4xx_hal_i2c.c ****   * @param  hi2c Pointer to a I2C_HandleTypeDef structure that contains
 545:Drivers/STM32F4xx_HAL_Driver/Src/stm32f4xx_hal_i2c.c ****   *         the configuration information for the specified I2C.
 546:Drivers/STM32F4xx_HAL_Driver/Src/stm32f4xx_hal_i2c.c ****   * @retval HAL status
 547:Drivers/STM32F4xx_HAL_Driver/Src/stm32f4xx_hal_i2c.c ****   */
 548:Drivers/STM32F4xx_HAL_Driver/Src/stm32f4xx_hal_i2c.c **** HAL_StatusTypeDef HAL_I2C_DeInit(I2C_HandleTypeDef *hi2c)
 549:Drivers/STM32F4xx_HAL_Driver/Src/stm32f4xx_hal_i2c.c **** {
 624              		.loc 1 549 1
 625              		.cfi_startproc
 626              		@ args = 0, pretend = 0, frame = 8
 627              		@ frame_needed = 1, uses_anonymous_args = 0
 628 0000 80B5     		push	{r7, lr}
 629              	.LCFI5:
 630              		.cfi_def_cfa_offset 8
 631              		.cfi_offset 7, -8
 632              		.cfi_offset 14, -4
 633 0002 82B0     		sub	sp, sp, #8
 634              	.LCFI6:
 635              		.cfi_def_cfa_offset 16
 636 0004 00AF     		add	r7, sp, #0
 637              	.LCFI7:
 638              		.cfi_def_cfa_register 7
 639 0006 7860     		str	r0, [r7, #4]
 550:Drivers/STM32F4xx_HAL_Driver/Src/stm32f4xx_hal_i2c.c ****   /* Check the I2C handle allocation */
 551:Drivers/STM32F4xx_HAL_Driver/Src/stm32f4xx_hal_i2c.c ****   if (hi2c == NULL)
 640              		.loc 1 551 6
 641 0008 7B68     		ldr	r3, [r7, #4]
 642 000a 002B     		cmp	r3, #0
 643 000c 01D1     		bne	.L34
 552:Drivers/STM32F4xx_HAL_Driver/Src/stm32f4xx_hal_i2c.c ****   {
 553:Drivers/STM32F4xx_HAL_Driver/Src/stm32f4xx_hal_i2c.c ****     return HAL_ERROR;
ARM GAS  /tmp/ccC4l07N.s 			page 22


 644              		.loc 1 553 12
 645 000e 0123     		movs	r3, #1
 646 0010 40E0     		b	.L35
 647              	.L34:
 554:Drivers/STM32F4xx_HAL_Driver/Src/stm32f4xx_hal_i2c.c ****   }
 555:Drivers/STM32F4xx_HAL_Driver/Src/stm32f4xx_hal_i2c.c **** 
 556:Drivers/STM32F4xx_HAL_Driver/Src/stm32f4xx_hal_i2c.c ****   /* Check the parameters */
 557:Drivers/STM32F4xx_HAL_Driver/Src/stm32f4xx_hal_i2c.c ****   assert_param(IS_I2C_ALL_INSTANCE(hi2c->Instance));
 648              		.loc 1 557 3
 649 0012 7B68     		ldr	r3, [r7, #4]
 650 0014 1B68     		ldr	r3, [r3]
 651 0016 214A     		ldr	r2, .L38
 652 0018 9342     		cmp	r3, r2
 653 001a 0ED0     		beq	.L36
 654              		.loc 1 557 3 is_stmt 0 discriminator 1
 655 001c 7B68     		ldr	r3, [r7, #4]
 656 001e 1B68     		ldr	r3, [r3]
 657 0020 1F4A     		ldr	r2, .L38+4
 658 0022 9342     		cmp	r3, r2
 659 0024 09D0     		beq	.L36
 660              		.loc 1 557 3 discriminator 2
 661 0026 7B68     		ldr	r3, [r7, #4]
 662 0028 1B68     		ldr	r3, [r3]
 663 002a 1E4A     		ldr	r2, .L38+8
 664 002c 9342     		cmp	r3, r2
 665 002e 04D0     		beq	.L36
 666              		.loc 1 557 3 discriminator 3
 667 0030 40F22D21 		movw	r1, #557
 668 0034 1C48     		ldr	r0, .L38+12
 669 0036 FFF7FEFF 		bl	assert_failed
 670              	.L36:
 558:Drivers/STM32F4xx_HAL_Driver/Src/stm32f4xx_hal_i2c.c **** 
 559:Drivers/STM32F4xx_HAL_Driver/Src/stm32f4xx_hal_i2c.c ****   hi2c->State = HAL_I2C_STATE_BUSY;
 671              		.loc 1 559 15 is_stmt 1
 672 003a 7B68     		ldr	r3, [r7, #4]
 673 003c 2422     		movs	r2, #36
 674 003e 83F83D20 		strb	r2, [r3, #61]
 560:Drivers/STM32F4xx_HAL_Driver/Src/stm32f4xx_hal_i2c.c **** 
 561:Drivers/STM32F4xx_HAL_Driver/Src/stm32f4xx_hal_i2c.c ****   /* Disable the I2C Peripheral Clock */
 562:Drivers/STM32F4xx_HAL_Driver/Src/stm32f4xx_hal_i2c.c ****   __HAL_I2C_DISABLE(hi2c);
 675              		.loc 1 562 3
 676 0042 7B68     		ldr	r3, [r7, #4]
 677 0044 1B68     		ldr	r3, [r3]
 678 0046 1A68     		ldr	r2, [r3]
 679 0048 7B68     		ldr	r3, [r7, #4]
 680 004a 1B68     		ldr	r3, [r3]
 681 004c 22F00102 		bic	r2, r2, #1
 682 0050 1A60     		str	r2, [r3]
 563:Drivers/STM32F4xx_HAL_Driver/Src/stm32f4xx_hal_i2c.c **** 
 564:Drivers/STM32F4xx_HAL_Driver/Src/stm32f4xx_hal_i2c.c **** #if (USE_HAL_I2C_REGISTER_CALLBACKS == 1)
 565:Drivers/STM32F4xx_HAL_Driver/Src/stm32f4xx_hal_i2c.c ****   if (hi2c->MspDeInitCallback == NULL)
 683              		.loc 1 565 11
 684 0052 7B68     		ldr	r3, [r7, #4]
 685 0054 D3F88030 		ldr	r3, [r3, #128]
 686              		.loc 1 565 6
 687 0058 002B     		cmp	r3, #0
 688 005a 03D1     		bne	.L37
ARM GAS  /tmp/ccC4l07N.s 			page 23


 566:Drivers/STM32F4xx_HAL_Driver/Src/stm32f4xx_hal_i2c.c ****   {
 567:Drivers/STM32F4xx_HAL_Driver/Src/stm32f4xx_hal_i2c.c ****     hi2c->MspDeInitCallback = HAL_I2C_MspDeInit; /* Legacy weak MspDeInit  */
 689              		.loc 1 567 29
 690 005c 7B68     		ldr	r3, [r7, #4]
 691 005e 134A     		ldr	r2, .L38+16
 692 0060 C3F88020 		str	r2, [r3, #128]
 693              	.L37:
 568:Drivers/STM32F4xx_HAL_Driver/Src/stm32f4xx_hal_i2c.c ****   }
 569:Drivers/STM32F4xx_HAL_Driver/Src/stm32f4xx_hal_i2c.c **** 
 570:Drivers/STM32F4xx_HAL_Driver/Src/stm32f4xx_hal_i2c.c ****   /* DeInit the low level hardware: GPIO, CLOCK, NVIC */
 571:Drivers/STM32F4xx_HAL_Driver/Src/stm32f4xx_hal_i2c.c ****   hi2c->MspDeInitCallback(hi2c);
 694              		.loc 1 571 7
 695 0064 7B68     		ldr	r3, [r7, #4]
 696 0066 D3F88030 		ldr	r3, [r3, #128]
 697              		.loc 1 571 3
 698 006a 7868     		ldr	r0, [r7, #4]
 699 006c 9847     		blx	r3
 700              	.LVL1:
 572:Drivers/STM32F4xx_HAL_Driver/Src/stm32f4xx_hal_i2c.c **** #else
 573:Drivers/STM32F4xx_HAL_Driver/Src/stm32f4xx_hal_i2c.c ****   /* DeInit the low level hardware: GPIO, CLOCK, NVIC */
 574:Drivers/STM32F4xx_HAL_Driver/Src/stm32f4xx_hal_i2c.c ****   HAL_I2C_MspDeInit(hi2c);
 575:Drivers/STM32F4xx_HAL_Driver/Src/stm32f4xx_hal_i2c.c **** #endif /* USE_HAL_I2C_REGISTER_CALLBACKS */
 576:Drivers/STM32F4xx_HAL_Driver/Src/stm32f4xx_hal_i2c.c **** 
 577:Drivers/STM32F4xx_HAL_Driver/Src/stm32f4xx_hal_i2c.c ****   hi2c->ErrorCode     = HAL_I2C_ERROR_NONE;
 701              		.loc 1 577 23
 702 006e 7B68     		ldr	r3, [r7, #4]
 703 0070 0022     		movs	r2, #0
 704 0072 1A64     		str	r2, [r3, #64]
 578:Drivers/STM32F4xx_HAL_Driver/Src/stm32f4xx_hal_i2c.c ****   hi2c->State         = HAL_I2C_STATE_RESET;
 705              		.loc 1 578 23
 706 0074 7B68     		ldr	r3, [r7, #4]
 707 0076 0022     		movs	r2, #0
 708 0078 83F83D20 		strb	r2, [r3, #61]
 579:Drivers/STM32F4xx_HAL_Driver/Src/stm32f4xx_hal_i2c.c ****   hi2c->PreviousState = I2C_STATE_NONE;
 709              		.loc 1 579 23
 710 007c 7B68     		ldr	r3, [r7, #4]
 711 007e 0022     		movs	r2, #0
 712 0080 1A63     		str	r2, [r3, #48]
 580:Drivers/STM32F4xx_HAL_Driver/Src/stm32f4xx_hal_i2c.c ****   hi2c->Mode          = HAL_I2C_MODE_NONE;
 713              		.loc 1 580 23
 714 0082 7B68     		ldr	r3, [r7, #4]
 715 0084 0022     		movs	r2, #0
 716 0086 83F83E20 		strb	r2, [r3, #62]
 581:Drivers/STM32F4xx_HAL_Driver/Src/stm32f4xx_hal_i2c.c **** 
 582:Drivers/STM32F4xx_HAL_Driver/Src/stm32f4xx_hal_i2c.c ****   /* Release Lock */
 583:Drivers/STM32F4xx_HAL_Driver/Src/stm32f4xx_hal_i2c.c ****   __HAL_UNLOCK(hi2c);
 717              		.loc 1 583 3
 718 008a 7B68     		ldr	r3, [r7, #4]
 719 008c 0022     		movs	r2, #0
 720 008e 83F83C20 		strb	r2, [r3, #60]
 584:Drivers/STM32F4xx_HAL_Driver/Src/stm32f4xx_hal_i2c.c **** 
 585:Drivers/STM32F4xx_HAL_Driver/Src/stm32f4xx_hal_i2c.c ****   return HAL_OK;
 721              		.loc 1 585 10
 722 0092 0023     		movs	r3, #0
 723              	.L35:
 586:Drivers/STM32F4xx_HAL_Driver/Src/stm32f4xx_hal_i2c.c **** }
 724              		.loc 1 586 1
ARM GAS  /tmp/ccC4l07N.s 			page 24


 725 0094 1846     		mov	r0, r3
 726 0096 0837     		adds	r7, r7, #8
 727              	.LCFI8:
 728              		.cfi_def_cfa_offset 8
 729 0098 BD46     		mov	sp, r7
 730              	.LCFI9:
 731              		.cfi_def_cfa_register 13
 732              		@ sp needed
 733 009a 80BD     		pop	{r7, pc}
 734              	.L39:
 735              		.align	2
 736              	.L38:
 737 009c 00540040 		.word	1073763328
 738 00a0 00580040 		.word	1073764352
 739 00a4 005C0040 		.word	1073765376
 740 00a8 00000000 		.word	.LC0
 741 00ac 00000000 		.word	HAL_I2C_MspDeInit
 742              		.cfi_endproc
 743              	.LFE131:
 745              		.section	.text.HAL_I2C_MspInit,"ax",%progbits
 746              		.align	1
 747              		.weak	HAL_I2C_MspInit
 748              		.syntax unified
 749              		.thumb
 750              		.thumb_func
 751              		.fpu fpv4-sp-d16
 753              	HAL_I2C_MspInit:
 754              	.LFB132:
 587:Drivers/STM32F4xx_HAL_Driver/Src/stm32f4xx_hal_i2c.c **** 
 588:Drivers/STM32F4xx_HAL_Driver/Src/stm32f4xx_hal_i2c.c **** /**
 589:Drivers/STM32F4xx_HAL_Driver/Src/stm32f4xx_hal_i2c.c ****   * @brief  Initialize the I2C MSP.
 590:Drivers/STM32F4xx_HAL_Driver/Src/stm32f4xx_hal_i2c.c ****   * @param  hi2c Pointer to a I2C_HandleTypeDef structure that contains
 591:Drivers/STM32F4xx_HAL_Driver/Src/stm32f4xx_hal_i2c.c ****   *         the configuration information for the specified I2C.
 592:Drivers/STM32F4xx_HAL_Driver/Src/stm32f4xx_hal_i2c.c ****   * @retval None
 593:Drivers/STM32F4xx_HAL_Driver/Src/stm32f4xx_hal_i2c.c ****   */
 594:Drivers/STM32F4xx_HAL_Driver/Src/stm32f4xx_hal_i2c.c **** __weak void HAL_I2C_MspInit(I2C_HandleTypeDef *hi2c)
 595:Drivers/STM32F4xx_HAL_Driver/Src/stm32f4xx_hal_i2c.c **** {
 755              		.loc 1 595 1
 756              		.cfi_startproc
 757              		@ args = 0, pretend = 0, frame = 8
 758              		@ frame_needed = 1, uses_anonymous_args = 0
 759              		@ link register save eliminated.
 760 0000 80B4     		push	{r7}
 761              	.LCFI10:
 762              		.cfi_def_cfa_offset 4
 763              		.cfi_offset 7, -4
 764 0002 83B0     		sub	sp, sp, #12
 765              	.LCFI11:
 766              		.cfi_def_cfa_offset 16
 767 0004 00AF     		add	r7, sp, #0
 768              	.LCFI12:
 769              		.cfi_def_cfa_register 7
 770 0006 7860     		str	r0, [r7, #4]
 596:Drivers/STM32F4xx_HAL_Driver/Src/stm32f4xx_hal_i2c.c ****   /* Prevent unused argument(s) compilation warning */
 597:Drivers/STM32F4xx_HAL_Driver/Src/stm32f4xx_hal_i2c.c ****   UNUSED(hi2c);
 598:Drivers/STM32F4xx_HAL_Driver/Src/stm32f4xx_hal_i2c.c **** 
 599:Drivers/STM32F4xx_HAL_Driver/Src/stm32f4xx_hal_i2c.c ****   /* NOTE : This function should not be modified, when the callback is needed,
ARM GAS  /tmp/ccC4l07N.s 			page 25


 600:Drivers/STM32F4xx_HAL_Driver/Src/stm32f4xx_hal_i2c.c ****             the HAL_I2C_MspInit could be implemented in the user file
 601:Drivers/STM32F4xx_HAL_Driver/Src/stm32f4xx_hal_i2c.c ****    */
 602:Drivers/STM32F4xx_HAL_Driver/Src/stm32f4xx_hal_i2c.c **** }
 771              		.loc 1 602 1
 772 0008 00BF     		nop
 773 000a 0C37     		adds	r7, r7, #12
 774              	.LCFI13:
 775              		.cfi_def_cfa_offset 4
 776 000c BD46     		mov	sp, r7
 777              	.LCFI14:
 778              		.cfi_def_cfa_register 13
 779              		@ sp needed
 780 000e 5DF8047B 		ldr	r7, [sp], #4
 781              	.LCFI15:
 782              		.cfi_restore 7
 783              		.cfi_def_cfa_offset 0
 784 0012 7047     		bx	lr
 785              		.cfi_endproc
 786              	.LFE132:
 788              		.section	.text.HAL_I2C_MspDeInit,"ax",%progbits
 789              		.align	1
 790              		.weak	HAL_I2C_MspDeInit
 791              		.syntax unified
 792              		.thumb
 793              		.thumb_func
 794              		.fpu fpv4-sp-d16
 796              	HAL_I2C_MspDeInit:
 797              	.LFB133:
 603:Drivers/STM32F4xx_HAL_Driver/Src/stm32f4xx_hal_i2c.c **** 
 604:Drivers/STM32F4xx_HAL_Driver/Src/stm32f4xx_hal_i2c.c **** /**
 605:Drivers/STM32F4xx_HAL_Driver/Src/stm32f4xx_hal_i2c.c ****   * @brief  DeInitialize the I2C MSP.
 606:Drivers/STM32F4xx_HAL_Driver/Src/stm32f4xx_hal_i2c.c ****   * @param  hi2c Pointer to a I2C_HandleTypeDef structure that contains
 607:Drivers/STM32F4xx_HAL_Driver/Src/stm32f4xx_hal_i2c.c ****   *         the configuration information for the specified I2C.
 608:Drivers/STM32F4xx_HAL_Driver/Src/stm32f4xx_hal_i2c.c ****   * @retval None
 609:Drivers/STM32F4xx_HAL_Driver/Src/stm32f4xx_hal_i2c.c ****   */
 610:Drivers/STM32F4xx_HAL_Driver/Src/stm32f4xx_hal_i2c.c **** __weak void HAL_I2C_MspDeInit(I2C_HandleTypeDef *hi2c)
 611:Drivers/STM32F4xx_HAL_Driver/Src/stm32f4xx_hal_i2c.c **** {
 798              		.loc 1 611 1
 799              		.cfi_startproc
 800              		@ args = 0, pretend = 0, frame = 8
 801              		@ frame_needed = 1, uses_anonymous_args = 0
 802              		@ link register save eliminated.
 803 0000 80B4     		push	{r7}
 804              	.LCFI16:
 805              		.cfi_def_cfa_offset 4
 806              		.cfi_offset 7, -4
 807 0002 83B0     		sub	sp, sp, #12
 808              	.LCFI17:
 809              		.cfi_def_cfa_offset 16
 810 0004 00AF     		add	r7, sp, #0
 811              	.LCFI18:
 812              		.cfi_def_cfa_register 7
 813 0006 7860     		str	r0, [r7, #4]
 612:Drivers/STM32F4xx_HAL_Driver/Src/stm32f4xx_hal_i2c.c ****   /* Prevent unused argument(s) compilation warning */
 613:Drivers/STM32F4xx_HAL_Driver/Src/stm32f4xx_hal_i2c.c ****   UNUSED(hi2c);
 614:Drivers/STM32F4xx_HAL_Driver/Src/stm32f4xx_hal_i2c.c **** 
 615:Drivers/STM32F4xx_HAL_Driver/Src/stm32f4xx_hal_i2c.c ****   /* NOTE : This function should not be modified, when the callback is needed,
ARM GAS  /tmp/ccC4l07N.s 			page 26


 616:Drivers/STM32F4xx_HAL_Driver/Src/stm32f4xx_hal_i2c.c ****             the HAL_I2C_MspDeInit could be implemented in the user file
 617:Drivers/STM32F4xx_HAL_Driver/Src/stm32f4xx_hal_i2c.c ****    */
 618:Drivers/STM32F4xx_HAL_Driver/Src/stm32f4xx_hal_i2c.c **** }
 814              		.loc 1 618 1
 815 0008 00BF     		nop
 816 000a 0C37     		adds	r7, r7, #12
 817              	.LCFI19:
 818              		.cfi_def_cfa_offset 4
 819 000c BD46     		mov	sp, r7
 820              	.LCFI20:
 821              		.cfi_def_cfa_register 13
 822              		@ sp needed
 823 000e 5DF8047B 		ldr	r7, [sp], #4
 824              	.LCFI21:
 825              		.cfi_restore 7
 826              		.cfi_def_cfa_offset 0
 827 0012 7047     		bx	lr
 828              		.cfi_endproc
 829              	.LFE133:
 831              		.section	.text.HAL_I2C_RegisterCallback,"ax",%progbits
 832              		.align	1
 833              		.global	HAL_I2C_RegisterCallback
 834              		.syntax unified
 835              		.thumb
 836              		.thumb_func
 837              		.fpu fpv4-sp-d16
 839              	HAL_I2C_RegisterCallback:
 840              	.LFB134:
 619:Drivers/STM32F4xx_HAL_Driver/Src/stm32f4xx_hal_i2c.c **** 
 620:Drivers/STM32F4xx_HAL_Driver/Src/stm32f4xx_hal_i2c.c **** #if (USE_HAL_I2C_REGISTER_CALLBACKS == 1)
 621:Drivers/STM32F4xx_HAL_Driver/Src/stm32f4xx_hal_i2c.c **** /**
 622:Drivers/STM32F4xx_HAL_Driver/Src/stm32f4xx_hal_i2c.c ****   * @brief  Register a User I2C Callback
 623:Drivers/STM32F4xx_HAL_Driver/Src/stm32f4xx_hal_i2c.c ****   *         To be used instead of the weak predefined callback
 624:Drivers/STM32F4xx_HAL_Driver/Src/stm32f4xx_hal_i2c.c ****   * @param  hi2c Pointer to a I2C_HandleTypeDef structure that contains
 625:Drivers/STM32F4xx_HAL_Driver/Src/stm32f4xx_hal_i2c.c ****   *                the configuration information for the specified I2C.
 626:Drivers/STM32F4xx_HAL_Driver/Src/stm32f4xx_hal_i2c.c ****   * @param  CallbackID ID of the callback to be registered
 627:Drivers/STM32F4xx_HAL_Driver/Src/stm32f4xx_hal_i2c.c ****   *         This parameter can be one of the following values:
 628:Drivers/STM32F4xx_HAL_Driver/Src/stm32f4xx_hal_i2c.c ****   *          @arg @ref HAL_I2C_MASTER_TX_COMPLETE_CB_ID Master Tx Transfer completed callback ID
 629:Drivers/STM32F4xx_HAL_Driver/Src/stm32f4xx_hal_i2c.c ****   *          @arg @ref HAL_I2C_MASTER_RX_COMPLETE_CB_ID Master Rx Transfer completed callback ID
 630:Drivers/STM32F4xx_HAL_Driver/Src/stm32f4xx_hal_i2c.c ****   *          @arg @ref HAL_I2C_SLAVE_TX_COMPLETE_CB_ID Slave Tx Transfer completed callback ID
 631:Drivers/STM32F4xx_HAL_Driver/Src/stm32f4xx_hal_i2c.c ****   *          @arg @ref HAL_I2C_SLAVE_RX_COMPLETE_CB_ID Slave Rx Transfer completed callback ID
 632:Drivers/STM32F4xx_HAL_Driver/Src/stm32f4xx_hal_i2c.c ****   *          @arg @ref HAL_I2C_LISTEN_COMPLETE_CB_ID Listen Complete callback ID
 633:Drivers/STM32F4xx_HAL_Driver/Src/stm32f4xx_hal_i2c.c ****   *          @arg @ref HAL_I2C_MEM_TX_COMPLETE_CB_ID Memory Tx Transfer callback ID
 634:Drivers/STM32F4xx_HAL_Driver/Src/stm32f4xx_hal_i2c.c ****   *          @arg @ref HAL_I2C_MEM_RX_COMPLETE_CB_ID Memory Rx Transfer completed callback ID
 635:Drivers/STM32F4xx_HAL_Driver/Src/stm32f4xx_hal_i2c.c ****   *          @arg @ref HAL_I2C_ERROR_CB_ID Error callback ID
 636:Drivers/STM32F4xx_HAL_Driver/Src/stm32f4xx_hal_i2c.c ****   *          @arg @ref HAL_I2C_ABORT_CB_ID Abort callback ID
 637:Drivers/STM32F4xx_HAL_Driver/Src/stm32f4xx_hal_i2c.c ****   *          @arg @ref HAL_I2C_MSPINIT_CB_ID MspInit callback ID
 638:Drivers/STM32F4xx_HAL_Driver/Src/stm32f4xx_hal_i2c.c ****   *          @arg @ref HAL_I2C_MSPDEINIT_CB_ID MspDeInit callback ID
 639:Drivers/STM32F4xx_HAL_Driver/Src/stm32f4xx_hal_i2c.c ****   * @param  pCallback pointer to the Callback function
 640:Drivers/STM32F4xx_HAL_Driver/Src/stm32f4xx_hal_i2c.c ****   * @retval HAL status
 641:Drivers/STM32F4xx_HAL_Driver/Src/stm32f4xx_hal_i2c.c ****   */
 642:Drivers/STM32F4xx_HAL_Driver/Src/stm32f4xx_hal_i2c.c **** HAL_StatusTypeDef HAL_I2C_RegisterCallback(I2C_HandleTypeDef *hi2c, HAL_I2C_CallbackIDTypeDef Callb
 643:Drivers/STM32F4xx_HAL_Driver/Src/stm32f4xx_hal_i2c.c **** {
 841              		.loc 1 643 1
 842              		.cfi_startproc
 843              		@ args = 0, pretend = 0, frame = 24
 844              		@ frame_needed = 1, uses_anonymous_args = 0
ARM GAS  /tmp/ccC4l07N.s 			page 27


 845              		@ link register save eliminated.
 846 0000 80B4     		push	{r7}
 847              	.LCFI22:
 848              		.cfi_def_cfa_offset 4
 849              		.cfi_offset 7, -4
 850 0002 87B0     		sub	sp, sp, #28
 851              	.LCFI23:
 852              		.cfi_def_cfa_offset 32
 853 0004 00AF     		add	r7, sp, #0
 854              	.LCFI24:
 855              		.cfi_def_cfa_register 7
 856 0006 F860     		str	r0, [r7, #12]
 857 0008 0B46     		mov	r3, r1
 858 000a 7A60     		str	r2, [r7, #4]
 859 000c FB72     		strb	r3, [r7, #11]
 644:Drivers/STM32F4xx_HAL_Driver/Src/stm32f4xx_hal_i2c.c ****   HAL_StatusTypeDef status = HAL_OK;
 860              		.loc 1 644 21
 861 000e 0023     		movs	r3, #0
 862 0010 FB75     		strb	r3, [r7, #23]
 645:Drivers/STM32F4xx_HAL_Driver/Src/stm32f4xx_hal_i2c.c **** 
 646:Drivers/STM32F4xx_HAL_Driver/Src/stm32f4xx_hal_i2c.c ****   if (pCallback == NULL)
 863              		.loc 1 646 6
 864 0012 7B68     		ldr	r3, [r7, #4]
 865 0014 002B     		cmp	r3, #0
 866 0016 07D1     		bne	.L43
 647:Drivers/STM32F4xx_HAL_Driver/Src/stm32f4xx_hal_i2c.c ****   {
 648:Drivers/STM32F4xx_HAL_Driver/Src/stm32f4xx_hal_i2c.c ****     /* Update the error code */
 649:Drivers/STM32F4xx_HAL_Driver/Src/stm32f4xx_hal_i2c.c ****     hi2c->ErrorCode |= HAL_I2C_ERROR_INVALID_CALLBACK;
 867              		.loc 1 649 21
 868 0018 FB68     		ldr	r3, [r7, #12]
 869 001a 1B6C     		ldr	r3, [r3, #64]
 870 001c 43F48072 		orr	r2, r3, #256
 871 0020 FB68     		ldr	r3, [r7, #12]
 872 0022 1A64     		str	r2, [r3, #64]
 650:Drivers/STM32F4xx_HAL_Driver/Src/stm32f4xx_hal_i2c.c **** 
 651:Drivers/STM32F4xx_HAL_Driver/Src/stm32f4xx_hal_i2c.c ****     return HAL_ERROR;
 873              		.loc 1 651 12
 874 0024 0123     		movs	r3, #1
 875 0026 8EE0     		b	.L44
 876              	.L43:
 652:Drivers/STM32F4xx_HAL_Driver/Src/stm32f4xx_hal_i2c.c ****   }
 653:Drivers/STM32F4xx_HAL_Driver/Src/stm32f4xx_hal_i2c.c ****   /* Process locked */
 654:Drivers/STM32F4xx_HAL_Driver/Src/stm32f4xx_hal_i2c.c ****   __HAL_LOCK(hi2c);
 877              		.loc 1 654 3
 878 0028 FB68     		ldr	r3, [r7, #12]
 879 002a 93F83C30 		ldrb	r3, [r3, #60]	@ zero_extendqisi2
 880 002e 012B     		cmp	r3, #1
 881 0030 01D1     		bne	.L45
 882              		.loc 1 654 3 is_stmt 0 discriminator 1
 883 0032 0223     		movs	r3, #2
 884 0034 87E0     		b	.L44
 885              	.L45:
 886              		.loc 1 654 3 discriminator 2
 887 0036 FB68     		ldr	r3, [r7, #12]
 888 0038 0122     		movs	r2, #1
 889 003a 83F83C20 		strb	r2, [r3, #60]
 655:Drivers/STM32F4xx_HAL_Driver/Src/stm32f4xx_hal_i2c.c **** 
ARM GAS  /tmp/ccC4l07N.s 			page 28


 656:Drivers/STM32F4xx_HAL_Driver/Src/stm32f4xx_hal_i2c.c ****   if (HAL_I2C_STATE_READY == hi2c->State)
 890              		.loc 1 656 34 is_stmt 1 discriminator 2
 891 003e FB68     		ldr	r3, [r7, #12]
 892 0040 93F83D30 		ldrb	r3, [r3, #61]
 893 0044 DBB2     		uxtb	r3, r3
 894              		.loc 1 656 6 discriminator 2
 895 0046 202B     		cmp	r3, #32
 896 0048 52D1     		bne	.L46
 657:Drivers/STM32F4xx_HAL_Driver/Src/stm32f4xx_hal_i2c.c ****   {
 658:Drivers/STM32F4xx_HAL_Driver/Src/stm32f4xx_hal_i2c.c ****     switch (CallbackID)
 897              		.loc 1 658 5
 898 004a FB7A     		ldrb	r3, [r7, #11]	@ zero_extendqisi2
 899 004c 0A2B     		cmp	r3, #10
 900 004e 46D8     		bhi	.L47
 901 0050 01A2     		adr	r2, .L49
 902 0052 52F823F0 		ldr	pc, [r2, r3, lsl #2]
 903 0056 00BF     		.p2align 2
 904              	.L49:
 905 0058 85000000 		.word	.L59+1
 906 005c 8D000000 		.word	.L58+1
 907 0060 95000000 		.word	.L57+1
 908 0064 9D000000 		.word	.L56+1
 909 0068 A5000000 		.word	.L55+1
 910 006c AD000000 		.word	.L54+1
 911 0070 B5000000 		.word	.L53+1
 912 0074 BD000000 		.word	.L52+1
 913 0078 C5000000 		.word	.L51+1
 914 007c CD000000 		.word	.L50+1
 915 0080 D5000000 		.word	.L48+1
 916              		.p2align 1
 917              	.L59:
 659:Drivers/STM32F4xx_HAL_Driver/Src/stm32f4xx_hal_i2c.c ****     {
 660:Drivers/STM32F4xx_HAL_Driver/Src/stm32f4xx_hal_i2c.c ****       case HAL_I2C_MASTER_TX_COMPLETE_CB_ID :
 661:Drivers/STM32F4xx_HAL_Driver/Src/stm32f4xx_hal_i2c.c ****         hi2c->MasterTxCpltCallback = pCallback;
 918              		.loc 1 661 36
 919 0084 FB68     		ldr	r3, [r7, #12]
 920 0086 7A68     		ldr	r2, [r7, #4]
 921 0088 5A65     		str	r2, [r3, #84]
 662:Drivers/STM32F4xx_HAL_Driver/Src/stm32f4xx_hal_i2c.c ****         break;
 922              		.loc 1 662 9
 923 008a 57E0     		b	.L61
 924              	.L58:
 663:Drivers/STM32F4xx_HAL_Driver/Src/stm32f4xx_hal_i2c.c **** 
 664:Drivers/STM32F4xx_HAL_Driver/Src/stm32f4xx_hal_i2c.c ****       case HAL_I2C_MASTER_RX_COMPLETE_CB_ID :
 665:Drivers/STM32F4xx_HAL_Driver/Src/stm32f4xx_hal_i2c.c ****         hi2c->MasterRxCpltCallback = pCallback;
 925              		.loc 1 665 36
 926 008c FB68     		ldr	r3, [r7, #12]
 927 008e 7A68     		ldr	r2, [r7, #4]
 928 0090 9A65     		str	r2, [r3, #88]
 666:Drivers/STM32F4xx_HAL_Driver/Src/stm32f4xx_hal_i2c.c ****         break;
 929              		.loc 1 666 9
 930 0092 53E0     		b	.L61
 931              	.L57:
 667:Drivers/STM32F4xx_HAL_Driver/Src/stm32f4xx_hal_i2c.c **** 
 668:Drivers/STM32F4xx_HAL_Driver/Src/stm32f4xx_hal_i2c.c ****       case HAL_I2C_SLAVE_TX_COMPLETE_CB_ID :
 669:Drivers/STM32F4xx_HAL_Driver/Src/stm32f4xx_hal_i2c.c ****         hi2c->SlaveTxCpltCallback = pCallback;
 932              		.loc 1 669 35
ARM GAS  /tmp/ccC4l07N.s 			page 29


 933 0094 FB68     		ldr	r3, [r7, #12]
 934 0096 7A68     		ldr	r2, [r7, #4]
 935 0098 DA65     		str	r2, [r3, #92]
 670:Drivers/STM32F4xx_HAL_Driver/Src/stm32f4xx_hal_i2c.c ****         break;
 936              		.loc 1 670 9
 937 009a 4FE0     		b	.L61
 938              	.L56:
 671:Drivers/STM32F4xx_HAL_Driver/Src/stm32f4xx_hal_i2c.c **** 
 672:Drivers/STM32F4xx_HAL_Driver/Src/stm32f4xx_hal_i2c.c ****       case HAL_I2C_SLAVE_RX_COMPLETE_CB_ID :
 673:Drivers/STM32F4xx_HAL_Driver/Src/stm32f4xx_hal_i2c.c ****         hi2c->SlaveRxCpltCallback = pCallback;
 939              		.loc 1 673 35
 940 009c FB68     		ldr	r3, [r7, #12]
 941 009e 7A68     		ldr	r2, [r7, #4]
 942 00a0 1A66     		str	r2, [r3, #96]
 674:Drivers/STM32F4xx_HAL_Driver/Src/stm32f4xx_hal_i2c.c ****         break;
 943              		.loc 1 674 9
 944 00a2 4BE0     		b	.L61
 945              	.L55:
 675:Drivers/STM32F4xx_HAL_Driver/Src/stm32f4xx_hal_i2c.c **** 
 676:Drivers/STM32F4xx_HAL_Driver/Src/stm32f4xx_hal_i2c.c ****       case HAL_I2C_LISTEN_COMPLETE_CB_ID :
 677:Drivers/STM32F4xx_HAL_Driver/Src/stm32f4xx_hal_i2c.c ****         hi2c->ListenCpltCallback = pCallback;
 946              		.loc 1 677 34
 947 00a4 FB68     		ldr	r3, [r7, #12]
 948 00a6 7A68     		ldr	r2, [r7, #4]
 949 00a8 5A66     		str	r2, [r3, #100]
 678:Drivers/STM32F4xx_HAL_Driver/Src/stm32f4xx_hal_i2c.c ****         break;
 950              		.loc 1 678 9
 951 00aa 47E0     		b	.L61
 952              	.L54:
 679:Drivers/STM32F4xx_HAL_Driver/Src/stm32f4xx_hal_i2c.c **** 
 680:Drivers/STM32F4xx_HAL_Driver/Src/stm32f4xx_hal_i2c.c ****       case HAL_I2C_MEM_TX_COMPLETE_CB_ID :
 681:Drivers/STM32F4xx_HAL_Driver/Src/stm32f4xx_hal_i2c.c ****         hi2c->MemTxCpltCallback = pCallback;
 953              		.loc 1 681 33
 954 00ac FB68     		ldr	r3, [r7, #12]
 955 00ae 7A68     		ldr	r2, [r7, #4]
 956 00b0 9A66     		str	r2, [r3, #104]
 682:Drivers/STM32F4xx_HAL_Driver/Src/stm32f4xx_hal_i2c.c ****         break;
 957              		.loc 1 682 9
 958 00b2 43E0     		b	.L61
 959              	.L53:
 683:Drivers/STM32F4xx_HAL_Driver/Src/stm32f4xx_hal_i2c.c **** 
 684:Drivers/STM32F4xx_HAL_Driver/Src/stm32f4xx_hal_i2c.c ****       case HAL_I2C_MEM_RX_COMPLETE_CB_ID :
 685:Drivers/STM32F4xx_HAL_Driver/Src/stm32f4xx_hal_i2c.c ****         hi2c->MemRxCpltCallback = pCallback;
 960              		.loc 1 685 33
 961 00b4 FB68     		ldr	r3, [r7, #12]
 962 00b6 7A68     		ldr	r2, [r7, #4]
 963 00b8 DA66     		str	r2, [r3, #108]
 686:Drivers/STM32F4xx_HAL_Driver/Src/stm32f4xx_hal_i2c.c ****         break;
 964              		.loc 1 686 9
 965 00ba 3FE0     		b	.L61
 966              	.L52:
 687:Drivers/STM32F4xx_HAL_Driver/Src/stm32f4xx_hal_i2c.c **** 
 688:Drivers/STM32F4xx_HAL_Driver/Src/stm32f4xx_hal_i2c.c ****       case HAL_I2C_ERROR_CB_ID :
 689:Drivers/STM32F4xx_HAL_Driver/Src/stm32f4xx_hal_i2c.c ****         hi2c->ErrorCallback = pCallback;
 967              		.loc 1 689 29
 968 00bc FB68     		ldr	r3, [r7, #12]
 969 00be 7A68     		ldr	r2, [r7, #4]
ARM GAS  /tmp/ccC4l07N.s 			page 30


 970 00c0 1A67     		str	r2, [r3, #112]
 690:Drivers/STM32F4xx_HAL_Driver/Src/stm32f4xx_hal_i2c.c ****         break;
 971              		.loc 1 690 9
 972 00c2 3BE0     		b	.L61
 973              	.L51:
 691:Drivers/STM32F4xx_HAL_Driver/Src/stm32f4xx_hal_i2c.c **** 
 692:Drivers/STM32F4xx_HAL_Driver/Src/stm32f4xx_hal_i2c.c ****       case HAL_I2C_ABORT_CB_ID :
 693:Drivers/STM32F4xx_HAL_Driver/Src/stm32f4xx_hal_i2c.c ****         hi2c->AbortCpltCallback = pCallback;
 974              		.loc 1 693 33
 975 00c4 FB68     		ldr	r3, [r7, #12]
 976 00c6 7A68     		ldr	r2, [r7, #4]
 977 00c8 5A67     		str	r2, [r3, #116]
 694:Drivers/STM32F4xx_HAL_Driver/Src/stm32f4xx_hal_i2c.c ****         break;
 978              		.loc 1 694 9
 979 00ca 37E0     		b	.L61
 980              	.L50:
 695:Drivers/STM32F4xx_HAL_Driver/Src/stm32f4xx_hal_i2c.c **** 
 696:Drivers/STM32F4xx_HAL_Driver/Src/stm32f4xx_hal_i2c.c ****       case HAL_I2C_MSPINIT_CB_ID :
 697:Drivers/STM32F4xx_HAL_Driver/Src/stm32f4xx_hal_i2c.c ****         hi2c->MspInitCallback = pCallback;
 981              		.loc 1 697 31
 982 00cc FB68     		ldr	r3, [r7, #12]
 983 00ce 7A68     		ldr	r2, [r7, #4]
 984 00d0 DA67     		str	r2, [r3, #124]
 698:Drivers/STM32F4xx_HAL_Driver/Src/stm32f4xx_hal_i2c.c ****         break;
 985              		.loc 1 698 9
 986 00d2 33E0     		b	.L61
 987              	.L48:
 699:Drivers/STM32F4xx_HAL_Driver/Src/stm32f4xx_hal_i2c.c **** 
 700:Drivers/STM32F4xx_HAL_Driver/Src/stm32f4xx_hal_i2c.c ****       case HAL_I2C_MSPDEINIT_CB_ID :
 701:Drivers/STM32F4xx_HAL_Driver/Src/stm32f4xx_hal_i2c.c ****         hi2c->MspDeInitCallback = pCallback;
 988              		.loc 1 701 33
 989 00d4 FB68     		ldr	r3, [r7, #12]
 990 00d6 7A68     		ldr	r2, [r7, #4]
 991 00d8 C3F88020 		str	r2, [r3, #128]
 702:Drivers/STM32F4xx_HAL_Driver/Src/stm32f4xx_hal_i2c.c ****         break;
 992              		.loc 1 702 9
 993 00dc 2EE0     		b	.L61
 994              	.L47:
 703:Drivers/STM32F4xx_HAL_Driver/Src/stm32f4xx_hal_i2c.c **** 
 704:Drivers/STM32F4xx_HAL_Driver/Src/stm32f4xx_hal_i2c.c ****       default :
 705:Drivers/STM32F4xx_HAL_Driver/Src/stm32f4xx_hal_i2c.c ****         /* Update the error code */
 706:Drivers/STM32F4xx_HAL_Driver/Src/stm32f4xx_hal_i2c.c ****         hi2c->ErrorCode |= HAL_I2C_ERROR_INVALID_CALLBACK;
 995              		.loc 1 706 25
 996 00de FB68     		ldr	r3, [r7, #12]
 997 00e0 1B6C     		ldr	r3, [r3, #64]
 998 00e2 43F48072 		orr	r2, r3, #256
 999 00e6 FB68     		ldr	r3, [r7, #12]
 1000 00e8 1A64     		str	r2, [r3, #64]
 707:Drivers/STM32F4xx_HAL_Driver/Src/stm32f4xx_hal_i2c.c **** 
 708:Drivers/STM32F4xx_HAL_Driver/Src/stm32f4xx_hal_i2c.c ****         /* Return error status */
 709:Drivers/STM32F4xx_HAL_Driver/Src/stm32f4xx_hal_i2c.c ****         status =  HAL_ERROR;
 1001              		.loc 1 709 16
 1002 00ea 0123     		movs	r3, #1
 1003 00ec FB75     		strb	r3, [r7, #23]
 710:Drivers/STM32F4xx_HAL_Driver/Src/stm32f4xx_hal_i2c.c ****         break;
 1004              		.loc 1 710 9
 1005 00ee 25E0     		b	.L61
ARM GAS  /tmp/ccC4l07N.s 			page 31


 1006              	.L46:
 711:Drivers/STM32F4xx_HAL_Driver/Src/stm32f4xx_hal_i2c.c ****     }
 712:Drivers/STM32F4xx_HAL_Driver/Src/stm32f4xx_hal_i2c.c ****   }
 713:Drivers/STM32F4xx_HAL_Driver/Src/stm32f4xx_hal_i2c.c ****   else if (HAL_I2C_STATE_RESET == hi2c->State)
 1007              		.loc 1 713 39
 1008 00f0 FB68     		ldr	r3, [r7, #12]
 1009 00f2 93F83D30 		ldrb	r3, [r3, #61]
 1010 00f6 DBB2     		uxtb	r3, r3
 1011              		.loc 1 713 11
 1012 00f8 002B     		cmp	r3, #0
 1013 00fa 17D1     		bne	.L62
 714:Drivers/STM32F4xx_HAL_Driver/Src/stm32f4xx_hal_i2c.c ****   {
 715:Drivers/STM32F4xx_HAL_Driver/Src/stm32f4xx_hal_i2c.c ****     switch (CallbackID)
 1014              		.loc 1 715 5
 1015 00fc FB7A     		ldrb	r3, [r7, #11]	@ zero_extendqisi2
 1016 00fe 092B     		cmp	r3, #9
 1017 0100 02D0     		beq	.L63
 1018 0102 0A2B     		cmp	r3, #10
 1019 0104 04D0     		beq	.L64
 1020 0106 08E0     		b	.L67
 1021              	.L63:
 716:Drivers/STM32F4xx_HAL_Driver/Src/stm32f4xx_hal_i2c.c ****     {
 717:Drivers/STM32F4xx_HAL_Driver/Src/stm32f4xx_hal_i2c.c ****       case HAL_I2C_MSPINIT_CB_ID :
 718:Drivers/STM32F4xx_HAL_Driver/Src/stm32f4xx_hal_i2c.c ****         hi2c->MspInitCallback = pCallback;
 1022              		.loc 1 718 31
 1023 0108 FB68     		ldr	r3, [r7, #12]
 1024 010a 7A68     		ldr	r2, [r7, #4]
 1025 010c DA67     		str	r2, [r3, #124]
 719:Drivers/STM32F4xx_HAL_Driver/Src/stm32f4xx_hal_i2c.c ****         break;
 1026              		.loc 1 719 9
 1027 010e 15E0     		b	.L61
 1028              	.L64:
 720:Drivers/STM32F4xx_HAL_Driver/Src/stm32f4xx_hal_i2c.c **** 
 721:Drivers/STM32F4xx_HAL_Driver/Src/stm32f4xx_hal_i2c.c ****       case HAL_I2C_MSPDEINIT_CB_ID :
 722:Drivers/STM32F4xx_HAL_Driver/Src/stm32f4xx_hal_i2c.c ****         hi2c->MspDeInitCallback = pCallback;
 1029              		.loc 1 722 33
 1030 0110 FB68     		ldr	r3, [r7, #12]
 1031 0112 7A68     		ldr	r2, [r7, #4]
 1032 0114 C3F88020 		str	r2, [r3, #128]
 723:Drivers/STM32F4xx_HAL_Driver/Src/stm32f4xx_hal_i2c.c ****         break;
 1033              		.loc 1 723 9
 1034 0118 10E0     		b	.L61
 1035              	.L67:
 724:Drivers/STM32F4xx_HAL_Driver/Src/stm32f4xx_hal_i2c.c **** 
 725:Drivers/STM32F4xx_HAL_Driver/Src/stm32f4xx_hal_i2c.c ****       default :
 726:Drivers/STM32F4xx_HAL_Driver/Src/stm32f4xx_hal_i2c.c ****         /* Update the error code */
 727:Drivers/STM32F4xx_HAL_Driver/Src/stm32f4xx_hal_i2c.c ****         hi2c->ErrorCode |= HAL_I2C_ERROR_INVALID_CALLBACK;
 1036              		.loc 1 727 25
 1037 011a FB68     		ldr	r3, [r7, #12]
 1038 011c 1B6C     		ldr	r3, [r3, #64]
 1039 011e 43F48072 		orr	r2, r3, #256
 1040 0122 FB68     		ldr	r3, [r7, #12]
 1041 0124 1A64     		str	r2, [r3, #64]
 728:Drivers/STM32F4xx_HAL_Driver/Src/stm32f4xx_hal_i2c.c **** 
 729:Drivers/STM32F4xx_HAL_Driver/Src/stm32f4xx_hal_i2c.c ****         /* Return error status */
 730:Drivers/STM32F4xx_HAL_Driver/Src/stm32f4xx_hal_i2c.c ****         status =  HAL_ERROR;
 1042              		.loc 1 730 16
ARM GAS  /tmp/ccC4l07N.s 			page 32


 1043 0126 0123     		movs	r3, #1
 1044 0128 FB75     		strb	r3, [r7, #23]
 731:Drivers/STM32F4xx_HAL_Driver/Src/stm32f4xx_hal_i2c.c ****         break;
 1045              		.loc 1 731 9
 1046 012a 07E0     		b	.L61
 1047              	.L62:
 732:Drivers/STM32F4xx_HAL_Driver/Src/stm32f4xx_hal_i2c.c ****     }
 733:Drivers/STM32F4xx_HAL_Driver/Src/stm32f4xx_hal_i2c.c ****   }
 734:Drivers/STM32F4xx_HAL_Driver/Src/stm32f4xx_hal_i2c.c ****   else
 735:Drivers/STM32F4xx_HAL_Driver/Src/stm32f4xx_hal_i2c.c ****   {
 736:Drivers/STM32F4xx_HAL_Driver/Src/stm32f4xx_hal_i2c.c ****     /* Update the error code */
 737:Drivers/STM32F4xx_HAL_Driver/Src/stm32f4xx_hal_i2c.c ****     hi2c->ErrorCode |= HAL_I2C_ERROR_INVALID_CALLBACK;
 1048              		.loc 1 737 21
 1049 012c FB68     		ldr	r3, [r7, #12]
 1050 012e 1B6C     		ldr	r3, [r3, #64]
 1051 0130 43F48072 		orr	r2, r3, #256
 1052 0134 FB68     		ldr	r3, [r7, #12]
 1053 0136 1A64     		str	r2, [r3, #64]
 738:Drivers/STM32F4xx_HAL_Driver/Src/stm32f4xx_hal_i2c.c **** 
 739:Drivers/STM32F4xx_HAL_Driver/Src/stm32f4xx_hal_i2c.c ****     /* Return error status */
 740:Drivers/STM32F4xx_HAL_Driver/Src/stm32f4xx_hal_i2c.c ****     status =  HAL_ERROR;
 1054              		.loc 1 740 12
 1055 0138 0123     		movs	r3, #1
 1056 013a FB75     		strb	r3, [r7, #23]
 1057              	.L61:
 741:Drivers/STM32F4xx_HAL_Driver/Src/stm32f4xx_hal_i2c.c ****   }
 742:Drivers/STM32F4xx_HAL_Driver/Src/stm32f4xx_hal_i2c.c **** 
 743:Drivers/STM32F4xx_HAL_Driver/Src/stm32f4xx_hal_i2c.c ****   /* Release Lock */
 744:Drivers/STM32F4xx_HAL_Driver/Src/stm32f4xx_hal_i2c.c ****   __HAL_UNLOCK(hi2c);
 1058              		.loc 1 744 3
 1059 013c FB68     		ldr	r3, [r7, #12]
 1060 013e 0022     		movs	r2, #0
 1061 0140 83F83C20 		strb	r2, [r3, #60]
 745:Drivers/STM32F4xx_HAL_Driver/Src/stm32f4xx_hal_i2c.c ****   return status;
 1062              		.loc 1 745 10
 1063 0144 FB7D     		ldrb	r3, [r7, #23]	@ zero_extendqisi2
 1064              	.L44:
 746:Drivers/STM32F4xx_HAL_Driver/Src/stm32f4xx_hal_i2c.c **** }
 1065              		.loc 1 746 1
 1066 0146 1846     		mov	r0, r3
 1067 0148 1C37     		adds	r7, r7, #28
 1068              	.LCFI25:
 1069              		.cfi_def_cfa_offset 4
 1070 014a BD46     		mov	sp, r7
 1071              	.LCFI26:
 1072              		.cfi_def_cfa_register 13
 1073              		@ sp needed
 1074 014c 5DF8047B 		ldr	r7, [sp], #4
 1075              	.LCFI27:
 1076              		.cfi_restore 7
 1077              		.cfi_def_cfa_offset 0
 1078 0150 7047     		bx	lr
 1079              		.cfi_endproc
 1080              	.LFE134:
 1082 0152 00BF     		.section	.text.HAL_I2C_UnRegisterCallback,"ax",%progbits
 1083              		.align	1
 1084              		.global	HAL_I2C_UnRegisterCallback
ARM GAS  /tmp/ccC4l07N.s 			page 33


 1085              		.syntax unified
 1086              		.thumb
 1087              		.thumb_func
 1088              		.fpu fpv4-sp-d16
 1090              	HAL_I2C_UnRegisterCallback:
 1091              	.LFB135:
 747:Drivers/STM32F4xx_HAL_Driver/Src/stm32f4xx_hal_i2c.c **** 
 748:Drivers/STM32F4xx_HAL_Driver/Src/stm32f4xx_hal_i2c.c **** /**
 749:Drivers/STM32F4xx_HAL_Driver/Src/stm32f4xx_hal_i2c.c ****   * @brief  Unregister an I2C Callback
 750:Drivers/STM32F4xx_HAL_Driver/Src/stm32f4xx_hal_i2c.c ****   *         I2C callback is redirected to the weak predefined callback
 751:Drivers/STM32F4xx_HAL_Driver/Src/stm32f4xx_hal_i2c.c ****   * @param  hi2c Pointer to a I2C_HandleTypeDef structure that contains
 752:Drivers/STM32F4xx_HAL_Driver/Src/stm32f4xx_hal_i2c.c ****   *                the configuration information for the specified I2C.
 753:Drivers/STM32F4xx_HAL_Driver/Src/stm32f4xx_hal_i2c.c ****   * @param  CallbackID ID of the callback to be unregistered
 754:Drivers/STM32F4xx_HAL_Driver/Src/stm32f4xx_hal_i2c.c ****   *         This parameter can be one of the following values:
 755:Drivers/STM32F4xx_HAL_Driver/Src/stm32f4xx_hal_i2c.c ****   *         This parameter can be one of the following values:
 756:Drivers/STM32F4xx_HAL_Driver/Src/stm32f4xx_hal_i2c.c ****   *          @arg @ref HAL_I2C_MASTER_TX_COMPLETE_CB_ID Master Tx Transfer completed callback ID
 757:Drivers/STM32F4xx_HAL_Driver/Src/stm32f4xx_hal_i2c.c ****   *          @arg @ref HAL_I2C_MASTER_RX_COMPLETE_CB_ID Master Rx Transfer completed callback ID
 758:Drivers/STM32F4xx_HAL_Driver/Src/stm32f4xx_hal_i2c.c ****   *          @arg @ref HAL_I2C_SLAVE_TX_COMPLETE_CB_ID Slave Tx Transfer completed callback ID
 759:Drivers/STM32F4xx_HAL_Driver/Src/stm32f4xx_hal_i2c.c ****   *          @arg @ref HAL_I2C_SLAVE_RX_COMPLETE_CB_ID Slave Rx Transfer completed callback ID
 760:Drivers/STM32F4xx_HAL_Driver/Src/stm32f4xx_hal_i2c.c ****   *          @arg @ref HAL_I2C_LISTEN_COMPLETE_CB_ID Listen Complete callback ID
 761:Drivers/STM32F4xx_HAL_Driver/Src/stm32f4xx_hal_i2c.c ****   *          @arg @ref HAL_I2C_MEM_TX_COMPLETE_CB_ID Memory Tx Transfer callback ID
 762:Drivers/STM32F4xx_HAL_Driver/Src/stm32f4xx_hal_i2c.c ****   *          @arg @ref HAL_I2C_MEM_RX_COMPLETE_CB_ID Memory Rx Transfer completed callback ID
 763:Drivers/STM32F4xx_HAL_Driver/Src/stm32f4xx_hal_i2c.c ****   *          @arg @ref HAL_I2C_ERROR_CB_ID Error callback ID
 764:Drivers/STM32F4xx_HAL_Driver/Src/stm32f4xx_hal_i2c.c ****   *          @arg @ref HAL_I2C_ABORT_CB_ID Abort callback ID
 765:Drivers/STM32F4xx_HAL_Driver/Src/stm32f4xx_hal_i2c.c ****   *          @arg @ref HAL_I2C_MSPINIT_CB_ID MspInit callback ID
 766:Drivers/STM32F4xx_HAL_Driver/Src/stm32f4xx_hal_i2c.c ****   *          @arg @ref HAL_I2C_MSPDEINIT_CB_ID MspDeInit callback ID
 767:Drivers/STM32F4xx_HAL_Driver/Src/stm32f4xx_hal_i2c.c ****   * @retval HAL status
 768:Drivers/STM32F4xx_HAL_Driver/Src/stm32f4xx_hal_i2c.c ****   */
 769:Drivers/STM32F4xx_HAL_Driver/Src/stm32f4xx_hal_i2c.c **** HAL_StatusTypeDef HAL_I2C_UnRegisterCallback(I2C_HandleTypeDef *hi2c, HAL_I2C_CallbackIDTypeDef Cal
 770:Drivers/STM32F4xx_HAL_Driver/Src/stm32f4xx_hal_i2c.c **** {
 1092              		.loc 1 770 1
 1093              		.cfi_startproc
 1094              		@ args = 0, pretend = 0, frame = 16
 1095              		@ frame_needed = 1, uses_anonymous_args = 0
 1096              		@ link register save eliminated.
 1097 0000 80B4     		push	{r7}
 1098              	.LCFI28:
 1099              		.cfi_def_cfa_offset 4
 1100              		.cfi_offset 7, -4
 1101 0002 85B0     		sub	sp, sp, #20
 1102              	.LCFI29:
 1103              		.cfi_def_cfa_offset 24
 1104 0004 00AF     		add	r7, sp, #0
 1105              	.LCFI30:
 1106              		.cfi_def_cfa_register 7
 1107 0006 7860     		str	r0, [r7, #4]
 1108 0008 0B46     		mov	r3, r1
 1109 000a FB70     		strb	r3, [r7, #3]
 771:Drivers/STM32F4xx_HAL_Driver/Src/stm32f4xx_hal_i2c.c ****   HAL_StatusTypeDef status = HAL_OK;
 1110              		.loc 1 771 21
 1111 000c 0023     		movs	r3, #0
 1112 000e FB73     		strb	r3, [r7, #15]
 772:Drivers/STM32F4xx_HAL_Driver/Src/stm32f4xx_hal_i2c.c **** 
 773:Drivers/STM32F4xx_HAL_Driver/Src/stm32f4xx_hal_i2c.c ****   /* Process locked */
 774:Drivers/STM32F4xx_HAL_Driver/Src/stm32f4xx_hal_i2c.c ****   __HAL_LOCK(hi2c);
 1113              		.loc 1 774 3
 1114 0010 7B68     		ldr	r3, [r7, #4]
ARM GAS  /tmp/ccC4l07N.s 			page 34


 1115 0012 93F83C30 		ldrb	r3, [r3, #60]	@ zero_extendqisi2
 1116 0016 012B     		cmp	r3, #1
 1117 0018 01D1     		bne	.L69
 1118              		.loc 1 774 3 is_stmt 0 discriminator 1
 1119 001a 0223     		movs	r3, #2
 1120 001c 87E0     		b	.L70
 1121              	.L69:
 1122              		.loc 1 774 3 discriminator 2
 1123 001e 7B68     		ldr	r3, [r7, #4]
 1124 0020 0122     		movs	r2, #1
 1125 0022 83F83C20 		strb	r2, [r3, #60]
 775:Drivers/STM32F4xx_HAL_Driver/Src/stm32f4xx_hal_i2c.c **** 
 776:Drivers/STM32F4xx_HAL_Driver/Src/stm32f4xx_hal_i2c.c ****   if (HAL_I2C_STATE_READY == hi2c->State)
 1126              		.loc 1 776 34 is_stmt 1 discriminator 2
 1127 0026 7B68     		ldr	r3, [r7, #4]
 1128 0028 93F83D30 		ldrb	r3, [r3, #61]
 1129 002c DBB2     		uxtb	r3, r3
 1130              		.loc 1 776 6 discriminator 2
 1131 002e 202B     		cmp	r3, #32
 1132 0030 52D1     		bne	.L71
 777:Drivers/STM32F4xx_HAL_Driver/Src/stm32f4xx_hal_i2c.c ****   {
 778:Drivers/STM32F4xx_HAL_Driver/Src/stm32f4xx_hal_i2c.c ****     switch (CallbackID)
 1133              		.loc 1 778 5
 1134 0032 FB78     		ldrb	r3, [r7, #3]	@ zero_extendqisi2
 1135 0034 0A2B     		cmp	r3, #10
 1136 0036 46D8     		bhi	.L72
 1137 0038 01A2     		adr	r2, .L74
 1138 003a 52F823F0 		ldr	pc, [r2, r3, lsl #2]
 1139 003e 00BF     		.p2align 2
 1140              	.L74:
 1141 0040 6D000000 		.word	.L84+1
 1142 0044 75000000 		.word	.L83+1
 1143 0048 7D000000 		.word	.L82+1
 1144 004c 85000000 		.word	.L81+1
 1145 0050 8D000000 		.word	.L80+1
 1146 0054 95000000 		.word	.L79+1
 1147 0058 9D000000 		.word	.L78+1
 1148 005c A5000000 		.word	.L77+1
 1149 0060 AD000000 		.word	.L76+1
 1150 0064 B5000000 		.word	.L75+1
 1151 0068 BD000000 		.word	.L73+1
 1152              		.p2align 1
 1153              	.L84:
 779:Drivers/STM32F4xx_HAL_Driver/Src/stm32f4xx_hal_i2c.c ****     {
 780:Drivers/STM32F4xx_HAL_Driver/Src/stm32f4xx_hal_i2c.c ****       case HAL_I2C_MASTER_TX_COMPLETE_CB_ID :
 781:Drivers/STM32F4xx_HAL_Driver/Src/stm32f4xx_hal_i2c.c ****         hi2c->MasterTxCpltCallback = HAL_I2C_MasterTxCpltCallback; /* Legacy weak MasterTxCpltCallb
 1154              		.loc 1 781 36
 1155 006c 7B68     		ldr	r3, [r7, #4]
 1156 006e 334A     		ldr	r2, .L93
 1157 0070 5A65     		str	r2, [r3, #84]
 782:Drivers/STM32F4xx_HAL_Driver/Src/stm32f4xx_hal_i2c.c ****         break;
 1158              		.loc 1 782 9
 1159 0072 57E0     		b	.L86
 1160              	.L83:
 783:Drivers/STM32F4xx_HAL_Driver/Src/stm32f4xx_hal_i2c.c **** 
 784:Drivers/STM32F4xx_HAL_Driver/Src/stm32f4xx_hal_i2c.c ****       case HAL_I2C_MASTER_RX_COMPLETE_CB_ID :
 785:Drivers/STM32F4xx_HAL_Driver/Src/stm32f4xx_hal_i2c.c ****         hi2c->MasterRxCpltCallback = HAL_I2C_MasterRxCpltCallback; /* Legacy weak MasterRxCpltCallb
ARM GAS  /tmp/ccC4l07N.s 			page 35


 1161              		.loc 1 785 36
 1162 0074 7B68     		ldr	r3, [r7, #4]
 1163 0076 324A     		ldr	r2, .L93+4
 1164 0078 9A65     		str	r2, [r3, #88]
 786:Drivers/STM32F4xx_HAL_Driver/Src/stm32f4xx_hal_i2c.c ****         break;
 1165              		.loc 1 786 9
 1166 007a 53E0     		b	.L86
 1167              	.L82:
 787:Drivers/STM32F4xx_HAL_Driver/Src/stm32f4xx_hal_i2c.c **** 
 788:Drivers/STM32F4xx_HAL_Driver/Src/stm32f4xx_hal_i2c.c ****       case HAL_I2C_SLAVE_TX_COMPLETE_CB_ID :
 789:Drivers/STM32F4xx_HAL_Driver/Src/stm32f4xx_hal_i2c.c ****         hi2c->SlaveTxCpltCallback = HAL_I2C_SlaveTxCpltCallback;   /* Legacy weak SlaveTxCpltCallba
 1168              		.loc 1 789 35
 1169 007c 7B68     		ldr	r3, [r7, #4]
 1170 007e 314A     		ldr	r2, .L93+8
 1171 0080 DA65     		str	r2, [r3, #92]
 790:Drivers/STM32F4xx_HAL_Driver/Src/stm32f4xx_hal_i2c.c ****         break;
 1172              		.loc 1 790 9
 1173 0082 4FE0     		b	.L86
 1174              	.L81:
 791:Drivers/STM32F4xx_HAL_Driver/Src/stm32f4xx_hal_i2c.c **** 
 792:Drivers/STM32F4xx_HAL_Driver/Src/stm32f4xx_hal_i2c.c ****       case HAL_I2C_SLAVE_RX_COMPLETE_CB_ID :
 793:Drivers/STM32F4xx_HAL_Driver/Src/stm32f4xx_hal_i2c.c ****         hi2c->SlaveRxCpltCallback = HAL_I2C_SlaveRxCpltCallback;   /* Legacy weak SlaveRxCpltCallba
 1175              		.loc 1 793 35
 1176 0084 7B68     		ldr	r3, [r7, #4]
 1177 0086 304A     		ldr	r2, .L93+12
 1178 0088 1A66     		str	r2, [r3, #96]
 794:Drivers/STM32F4xx_HAL_Driver/Src/stm32f4xx_hal_i2c.c ****         break;
 1179              		.loc 1 794 9
 1180 008a 4BE0     		b	.L86
 1181              	.L80:
 795:Drivers/STM32F4xx_HAL_Driver/Src/stm32f4xx_hal_i2c.c **** 
 796:Drivers/STM32F4xx_HAL_Driver/Src/stm32f4xx_hal_i2c.c ****       case HAL_I2C_LISTEN_COMPLETE_CB_ID :
 797:Drivers/STM32F4xx_HAL_Driver/Src/stm32f4xx_hal_i2c.c ****         hi2c->ListenCpltCallback = HAL_I2C_ListenCpltCallback;     /* Legacy weak ListenCpltCallbac
 1182              		.loc 1 797 34
 1183 008c 7B68     		ldr	r3, [r7, #4]
 1184 008e 2F4A     		ldr	r2, .L93+16
 1185 0090 5A66     		str	r2, [r3, #100]
 798:Drivers/STM32F4xx_HAL_Driver/Src/stm32f4xx_hal_i2c.c ****         break;
 1186              		.loc 1 798 9
 1187 0092 47E0     		b	.L86
 1188              	.L79:
 799:Drivers/STM32F4xx_HAL_Driver/Src/stm32f4xx_hal_i2c.c **** 
 800:Drivers/STM32F4xx_HAL_Driver/Src/stm32f4xx_hal_i2c.c ****       case HAL_I2C_MEM_TX_COMPLETE_CB_ID :
 801:Drivers/STM32F4xx_HAL_Driver/Src/stm32f4xx_hal_i2c.c ****         hi2c->MemTxCpltCallback = HAL_I2C_MemTxCpltCallback;       /* Legacy weak MemTxCpltCallback
 1189              		.loc 1 801 33
 1190 0094 7B68     		ldr	r3, [r7, #4]
 1191 0096 2E4A     		ldr	r2, .L93+20
 1192 0098 9A66     		str	r2, [r3, #104]
 802:Drivers/STM32F4xx_HAL_Driver/Src/stm32f4xx_hal_i2c.c ****         break;
 1193              		.loc 1 802 9
 1194 009a 43E0     		b	.L86
 1195              	.L78:
 803:Drivers/STM32F4xx_HAL_Driver/Src/stm32f4xx_hal_i2c.c **** 
 804:Drivers/STM32F4xx_HAL_Driver/Src/stm32f4xx_hal_i2c.c ****       case HAL_I2C_MEM_RX_COMPLETE_CB_ID :
 805:Drivers/STM32F4xx_HAL_Driver/Src/stm32f4xx_hal_i2c.c ****         hi2c->MemRxCpltCallback = HAL_I2C_MemRxCpltCallback;       /* Legacy weak MemRxCpltCallback
 1196              		.loc 1 805 33
 1197 009c 7B68     		ldr	r3, [r7, #4]
ARM GAS  /tmp/ccC4l07N.s 			page 36


 1198 009e 2D4A     		ldr	r2, .L93+24
 1199 00a0 DA66     		str	r2, [r3, #108]
 806:Drivers/STM32F4xx_HAL_Driver/Src/stm32f4xx_hal_i2c.c ****         break;
 1200              		.loc 1 806 9
 1201 00a2 3FE0     		b	.L86
 1202              	.L77:
 807:Drivers/STM32F4xx_HAL_Driver/Src/stm32f4xx_hal_i2c.c **** 
 808:Drivers/STM32F4xx_HAL_Driver/Src/stm32f4xx_hal_i2c.c ****       case HAL_I2C_ERROR_CB_ID :
 809:Drivers/STM32F4xx_HAL_Driver/Src/stm32f4xx_hal_i2c.c ****         hi2c->ErrorCallback = HAL_I2C_ErrorCallback;               /* Legacy weak ErrorCallback    
 1203              		.loc 1 809 29
 1204 00a4 7B68     		ldr	r3, [r7, #4]
 1205 00a6 2C4A     		ldr	r2, .L93+28
 1206 00a8 1A67     		str	r2, [r3, #112]
 810:Drivers/STM32F4xx_HAL_Driver/Src/stm32f4xx_hal_i2c.c ****         break;
 1207              		.loc 1 810 9
 1208 00aa 3BE0     		b	.L86
 1209              	.L76:
 811:Drivers/STM32F4xx_HAL_Driver/Src/stm32f4xx_hal_i2c.c **** 
 812:Drivers/STM32F4xx_HAL_Driver/Src/stm32f4xx_hal_i2c.c ****       case HAL_I2C_ABORT_CB_ID :
 813:Drivers/STM32F4xx_HAL_Driver/Src/stm32f4xx_hal_i2c.c ****         hi2c->AbortCpltCallback = HAL_I2C_AbortCpltCallback;       /* Legacy weak AbortCpltCallback
 1210              		.loc 1 813 33
 1211 00ac 7B68     		ldr	r3, [r7, #4]
 1212 00ae 2B4A     		ldr	r2, .L93+32
 1213 00b0 5A67     		str	r2, [r3, #116]
 814:Drivers/STM32F4xx_HAL_Driver/Src/stm32f4xx_hal_i2c.c ****         break;
 1214              		.loc 1 814 9
 1215 00b2 37E0     		b	.L86
 1216              	.L75:
 815:Drivers/STM32F4xx_HAL_Driver/Src/stm32f4xx_hal_i2c.c **** 
 816:Drivers/STM32F4xx_HAL_Driver/Src/stm32f4xx_hal_i2c.c ****       case HAL_I2C_MSPINIT_CB_ID :
 817:Drivers/STM32F4xx_HAL_Driver/Src/stm32f4xx_hal_i2c.c ****         hi2c->MspInitCallback = HAL_I2C_MspInit;                   /* Legacy weak MspInit          
 1217              		.loc 1 817 31
 1218 00b4 7B68     		ldr	r3, [r7, #4]
 1219 00b6 2A4A     		ldr	r2, .L93+36
 1220 00b8 DA67     		str	r2, [r3, #124]
 818:Drivers/STM32F4xx_HAL_Driver/Src/stm32f4xx_hal_i2c.c ****         break;
 1221              		.loc 1 818 9
 1222 00ba 33E0     		b	.L86
 1223              	.L73:
 819:Drivers/STM32F4xx_HAL_Driver/Src/stm32f4xx_hal_i2c.c **** 
 820:Drivers/STM32F4xx_HAL_Driver/Src/stm32f4xx_hal_i2c.c ****       case HAL_I2C_MSPDEINIT_CB_ID :
 821:Drivers/STM32F4xx_HAL_Driver/Src/stm32f4xx_hal_i2c.c ****         hi2c->MspDeInitCallback = HAL_I2C_MspDeInit;               /* Legacy weak MspDeInit        
 1224              		.loc 1 821 33
 1225 00bc 7B68     		ldr	r3, [r7, #4]
 1226 00be 294A     		ldr	r2, .L93+40
 1227 00c0 C3F88020 		str	r2, [r3, #128]
 822:Drivers/STM32F4xx_HAL_Driver/Src/stm32f4xx_hal_i2c.c ****         break;
 1228              		.loc 1 822 9
 1229 00c4 2EE0     		b	.L86
 1230              	.L72:
 823:Drivers/STM32F4xx_HAL_Driver/Src/stm32f4xx_hal_i2c.c **** 
 824:Drivers/STM32F4xx_HAL_Driver/Src/stm32f4xx_hal_i2c.c ****       default :
 825:Drivers/STM32F4xx_HAL_Driver/Src/stm32f4xx_hal_i2c.c ****         /* Update the error code */
 826:Drivers/STM32F4xx_HAL_Driver/Src/stm32f4xx_hal_i2c.c ****         hi2c->ErrorCode |= HAL_I2C_ERROR_INVALID_CALLBACK;
 1231              		.loc 1 826 25
 1232 00c6 7B68     		ldr	r3, [r7, #4]
 1233 00c8 1B6C     		ldr	r3, [r3, #64]
ARM GAS  /tmp/ccC4l07N.s 			page 37


 1234 00ca 43F48072 		orr	r2, r3, #256
 1235 00ce 7B68     		ldr	r3, [r7, #4]
 1236 00d0 1A64     		str	r2, [r3, #64]
 827:Drivers/STM32F4xx_HAL_Driver/Src/stm32f4xx_hal_i2c.c **** 
 828:Drivers/STM32F4xx_HAL_Driver/Src/stm32f4xx_hal_i2c.c ****         /* Return error status */
 829:Drivers/STM32F4xx_HAL_Driver/Src/stm32f4xx_hal_i2c.c ****         status =  HAL_ERROR;
 1237              		.loc 1 829 16
 1238 00d2 0123     		movs	r3, #1
 1239 00d4 FB73     		strb	r3, [r7, #15]
 830:Drivers/STM32F4xx_HAL_Driver/Src/stm32f4xx_hal_i2c.c ****         break;
 1240              		.loc 1 830 9
 1241 00d6 25E0     		b	.L86
 1242              	.L71:
 831:Drivers/STM32F4xx_HAL_Driver/Src/stm32f4xx_hal_i2c.c ****     }
 832:Drivers/STM32F4xx_HAL_Driver/Src/stm32f4xx_hal_i2c.c ****   }
 833:Drivers/STM32F4xx_HAL_Driver/Src/stm32f4xx_hal_i2c.c ****   else if (HAL_I2C_STATE_RESET == hi2c->State)
 1243              		.loc 1 833 39
 1244 00d8 7B68     		ldr	r3, [r7, #4]
 1245 00da 93F83D30 		ldrb	r3, [r3, #61]
 1246 00de DBB2     		uxtb	r3, r3
 1247              		.loc 1 833 11
 1248 00e0 002B     		cmp	r3, #0
 1249 00e2 17D1     		bne	.L87
 834:Drivers/STM32F4xx_HAL_Driver/Src/stm32f4xx_hal_i2c.c ****   {
 835:Drivers/STM32F4xx_HAL_Driver/Src/stm32f4xx_hal_i2c.c ****     switch (CallbackID)
 1250              		.loc 1 835 5
 1251 00e4 FB78     		ldrb	r3, [r7, #3]	@ zero_extendqisi2
 1252 00e6 092B     		cmp	r3, #9
 1253 00e8 02D0     		beq	.L88
 1254 00ea 0A2B     		cmp	r3, #10
 1255 00ec 04D0     		beq	.L89
 1256 00ee 08E0     		b	.L92
 1257              	.L88:
 836:Drivers/STM32F4xx_HAL_Driver/Src/stm32f4xx_hal_i2c.c ****     {
 837:Drivers/STM32F4xx_HAL_Driver/Src/stm32f4xx_hal_i2c.c ****       case HAL_I2C_MSPINIT_CB_ID :
 838:Drivers/STM32F4xx_HAL_Driver/Src/stm32f4xx_hal_i2c.c ****         hi2c->MspInitCallback = HAL_I2C_MspInit;                   /* Legacy weak MspInit          
 1258              		.loc 1 838 31
 1259 00f0 7B68     		ldr	r3, [r7, #4]
 1260 00f2 1B4A     		ldr	r2, .L93+36
 1261 00f4 DA67     		str	r2, [r3, #124]
 839:Drivers/STM32F4xx_HAL_Driver/Src/stm32f4xx_hal_i2c.c ****         break;
 1262              		.loc 1 839 9
 1263 00f6 15E0     		b	.L86
 1264              	.L89:
 840:Drivers/STM32F4xx_HAL_Driver/Src/stm32f4xx_hal_i2c.c **** 
 841:Drivers/STM32F4xx_HAL_Driver/Src/stm32f4xx_hal_i2c.c ****       case HAL_I2C_MSPDEINIT_CB_ID :
 842:Drivers/STM32F4xx_HAL_Driver/Src/stm32f4xx_hal_i2c.c ****         hi2c->MspDeInitCallback = HAL_I2C_MspDeInit;               /* Legacy weak MspDeInit        
 1265              		.loc 1 842 33
 1266 00f8 7B68     		ldr	r3, [r7, #4]
 1267 00fa 1A4A     		ldr	r2, .L93+40
 1268 00fc C3F88020 		str	r2, [r3, #128]
 843:Drivers/STM32F4xx_HAL_Driver/Src/stm32f4xx_hal_i2c.c ****         break;
 1269              		.loc 1 843 9
 1270 0100 10E0     		b	.L86
 1271              	.L92:
 844:Drivers/STM32F4xx_HAL_Driver/Src/stm32f4xx_hal_i2c.c **** 
 845:Drivers/STM32F4xx_HAL_Driver/Src/stm32f4xx_hal_i2c.c ****       default :
ARM GAS  /tmp/ccC4l07N.s 			page 38


 846:Drivers/STM32F4xx_HAL_Driver/Src/stm32f4xx_hal_i2c.c ****         /* Update the error code */
 847:Drivers/STM32F4xx_HAL_Driver/Src/stm32f4xx_hal_i2c.c ****         hi2c->ErrorCode |= HAL_I2C_ERROR_INVALID_CALLBACK;
 1272              		.loc 1 847 25
 1273 0102 7B68     		ldr	r3, [r7, #4]
 1274 0104 1B6C     		ldr	r3, [r3, #64]
 1275 0106 43F48072 		orr	r2, r3, #256
 1276 010a 7B68     		ldr	r3, [r7, #4]
 1277 010c 1A64     		str	r2, [r3, #64]
 848:Drivers/STM32F4xx_HAL_Driver/Src/stm32f4xx_hal_i2c.c **** 
 849:Drivers/STM32F4xx_HAL_Driver/Src/stm32f4xx_hal_i2c.c ****         /* Return error status */
 850:Drivers/STM32F4xx_HAL_Driver/Src/stm32f4xx_hal_i2c.c ****         status =  HAL_ERROR;
 1278              		.loc 1 850 16
 1279 010e 0123     		movs	r3, #1
 1280 0110 FB73     		strb	r3, [r7, #15]
 851:Drivers/STM32F4xx_HAL_Driver/Src/stm32f4xx_hal_i2c.c ****         break;
 1281              		.loc 1 851 9
 1282 0112 07E0     		b	.L86
 1283              	.L87:
 852:Drivers/STM32F4xx_HAL_Driver/Src/stm32f4xx_hal_i2c.c ****     }
 853:Drivers/STM32F4xx_HAL_Driver/Src/stm32f4xx_hal_i2c.c ****   }
 854:Drivers/STM32F4xx_HAL_Driver/Src/stm32f4xx_hal_i2c.c ****   else
 855:Drivers/STM32F4xx_HAL_Driver/Src/stm32f4xx_hal_i2c.c ****   {
 856:Drivers/STM32F4xx_HAL_Driver/Src/stm32f4xx_hal_i2c.c ****     /* Update the error code */
 857:Drivers/STM32F4xx_HAL_Driver/Src/stm32f4xx_hal_i2c.c ****     hi2c->ErrorCode |= HAL_I2C_ERROR_INVALID_CALLBACK;
 1284              		.loc 1 857 21
 1285 0114 7B68     		ldr	r3, [r7, #4]
 1286 0116 1B6C     		ldr	r3, [r3, #64]
 1287 0118 43F48072 		orr	r2, r3, #256
 1288 011c 7B68     		ldr	r3, [r7, #4]
 1289 011e 1A64     		str	r2, [r3, #64]
 858:Drivers/STM32F4xx_HAL_Driver/Src/stm32f4xx_hal_i2c.c **** 
 859:Drivers/STM32F4xx_HAL_Driver/Src/stm32f4xx_hal_i2c.c ****     /* Return error status */
 860:Drivers/STM32F4xx_HAL_Driver/Src/stm32f4xx_hal_i2c.c ****     status =  HAL_ERROR;
 1290              		.loc 1 860 12
 1291 0120 0123     		movs	r3, #1
 1292 0122 FB73     		strb	r3, [r7, #15]
 1293              	.L86:
 861:Drivers/STM32F4xx_HAL_Driver/Src/stm32f4xx_hal_i2c.c ****   }
 862:Drivers/STM32F4xx_HAL_Driver/Src/stm32f4xx_hal_i2c.c **** 
 863:Drivers/STM32F4xx_HAL_Driver/Src/stm32f4xx_hal_i2c.c ****   /* Release Lock */
 864:Drivers/STM32F4xx_HAL_Driver/Src/stm32f4xx_hal_i2c.c ****   __HAL_UNLOCK(hi2c);
 1294              		.loc 1 864 3
 1295 0124 7B68     		ldr	r3, [r7, #4]
 1296 0126 0022     		movs	r2, #0
 1297 0128 83F83C20 		strb	r2, [r3, #60]
 865:Drivers/STM32F4xx_HAL_Driver/Src/stm32f4xx_hal_i2c.c ****   return status;
 1298              		.loc 1 865 10
 1299 012c FB7B     		ldrb	r3, [r7, #15]	@ zero_extendqisi2
 1300              	.L70:
 866:Drivers/STM32F4xx_HAL_Driver/Src/stm32f4xx_hal_i2c.c **** }
 1301              		.loc 1 866 1
 1302 012e 1846     		mov	r0, r3
 1303 0130 1437     		adds	r7, r7, #20
 1304              	.LCFI31:
 1305              		.cfi_def_cfa_offset 4
 1306 0132 BD46     		mov	sp, r7
 1307              	.LCFI32:
ARM GAS  /tmp/ccC4l07N.s 			page 39


 1308              		.cfi_def_cfa_register 13
 1309              		@ sp needed
 1310 0134 5DF8047B 		ldr	r7, [sp], #4
 1311              	.LCFI33:
 1312              		.cfi_restore 7
 1313              		.cfi_def_cfa_offset 0
 1314 0138 7047     		bx	lr
 1315              	.L94:
 1316 013a 00BF     		.align	2
 1317              	.L93:
 1318 013c 00000000 		.word	HAL_I2C_MasterTxCpltCallback
 1319 0140 00000000 		.word	HAL_I2C_MasterRxCpltCallback
 1320 0144 00000000 		.word	HAL_I2C_SlaveTxCpltCallback
 1321 0148 00000000 		.word	HAL_I2C_SlaveRxCpltCallback
 1322 014c 00000000 		.word	HAL_I2C_ListenCpltCallback
 1323 0150 00000000 		.word	HAL_I2C_MemTxCpltCallback
 1324 0154 00000000 		.word	HAL_I2C_MemRxCpltCallback
 1325 0158 00000000 		.word	HAL_I2C_ErrorCallback
 1326 015c 00000000 		.word	HAL_I2C_AbortCpltCallback
 1327 0160 00000000 		.word	HAL_I2C_MspInit
 1328 0164 00000000 		.word	HAL_I2C_MspDeInit
 1329              		.cfi_endproc
 1330              	.LFE135:
 1332              		.section	.text.HAL_I2C_RegisterAddrCallback,"ax",%progbits
 1333              		.align	1
 1334              		.global	HAL_I2C_RegisterAddrCallback
 1335              		.syntax unified
 1336              		.thumb
 1337              		.thumb_func
 1338              		.fpu fpv4-sp-d16
 1340              	HAL_I2C_RegisterAddrCallback:
 1341              	.LFB136:
 867:Drivers/STM32F4xx_HAL_Driver/Src/stm32f4xx_hal_i2c.c **** 
 868:Drivers/STM32F4xx_HAL_Driver/Src/stm32f4xx_hal_i2c.c **** /**
 869:Drivers/STM32F4xx_HAL_Driver/Src/stm32f4xx_hal_i2c.c ****   * @brief  Register the Slave Address Match I2C Callback
 870:Drivers/STM32F4xx_HAL_Driver/Src/stm32f4xx_hal_i2c.c ****   *         To be used instead of the weak HAL_I2C_AddrCallback() predefined callback
 871:Drivers/STM32F4xx_HAL_Driver/Src/stm32f4xx_hal_i2c.c ****   * @param  hi2c Pointer to a I2C_HandleTypeDef structure that contains
 872:Drivers/STM32F4xx_HAL_Driver/Src/stm32f4xx_hal_i2c.c ****   *                the configuration information for the specified I2C.
 873:Drivers/STM32F4xx_HAL_Driver/Src/stm32f4xx_hal_i2c.c ****   * @param  pCallback pointer to the Address Match Callback function
 874:Drivers/STM32F4xx_HAL_Driver/Src/stm32f4xx_hal_i2c.c ****   * @retval HAL status
 875:Drivers/STM32F4xx_HAL_Driver/Src/stm32f4xx_hal_i2c.c ****   */
 876:Drivers/STM32F4xx_HAL_Driver/Src/stm32f4xx_hal_i2c.c **** HAL_StatusTypeDef HAL_I2C_RegisterAddrCallback(I2C_HandleTypeDef *hi2c, pI2C_AddrCallbackTypeDef pC
 877:Drivers/STM32F4xx_HAL_Driver/Src/stm32f4xx_hal_i2c.c **** {
 1342              		.loc 1 877 1
 1343              		.cfi_startproc
 1344              		@ args = 0, pretend = 0, frame = 16
 1345              		@ frame_needed = 1, uses_anonymous_args = 0
 1346              		@ link register save eliminated.
 1347 0000 80B4     		push	{r7}
 1348              	.LCFI34:
 1349              		.cfi_def_cfa_offset 4
 1350              		.cfi_offset 7, -4
 1351 0002 85B0     		sub	sp, sp, #20
 1352              	.LCFI35:
 1353              		.cfi_def_cfa_offset 24
 1354 0004 00AF     		add	r7, sp, #0
 1355              	.LCFI36:
ARM GAS  /tmp/ccC4l07N.s 			page 40


 1356              		.cfi_def_cfa_register 7
 1357 0006 7860     		str	r0, [r7, #4]
 1358 0008 3960     		str	r1, [r7]
 878:Drivers/STM32F4xx_HAL_Driver/Src/stm32f4xx_hal_i2c.c ****   HAL_StatusTypeDef status = HAL_OK;
 1359              		.loc 1 878 21
 1360 000a 0023     		movs	r3, #0
 1361 000c FB73     		strb	r3, [r7, #15]
 879:Drivers/STM32F4xx_HAL_Driver/Src/stm32f4xx_hal_i2c.c **** 
 880:Drivers/STM32F4xx_HAL_Driver/Src/stm32f4xx_hal_i2c.c ****   if (pCallback == NULL)
 1362              		.loc 1 880 6
 1363 000e 3B68     		ldr	r3, [r7]
 1364 0010 002B     		cmp	r3, #0
 1365 0012 07D1     		bne	.L96
 881:Drivers/STM32F4xx_HAL_Driver/Src/stm32f4xx_hal_i2c.c ****   {
 882:Drivers/STM32F4xx_HAL_Driver/Src/stm32f4xx_hal_i2c.c ****     /* Update the error code */
 883:Drivers/STM32F4xx_HAL_Driver/Src/stm32f4xx_hal_i2c.c ****     hi2c->ErrorCode |= HAL_I2C_ERROR_INVALID_CALLBACK;
 1366              		.loc 1 883 21
 1367 0014 7B68     		ldr	r3, [r7, #4]
 1368 0016 1B6C     		ldr	r3, [r3, #64]
 1369 0018 43F48072 		orr	r2, r3, #256
 1370 001c 7B68     		ldr	r3, [r7, #4]
 1371 001e 1A64     		str	r2, [r3, #64]
 884:Drivers/STM32F4xx_HAL_Driver/Src/stm32f4xx_hal_i2c.c **** 
 885:Drivers/STM32F4xx_HAL_Driver/Src/stm32f4xx_hal_i2c.c ****     return HAL_ERROR;
 1372              		.loc 1 885 12
 1373 0020 0123     		movs	r3, #1
 1374 0022 21E0     		b	.L97
 1375              	.L96:
 886:Drivers/STM32F4xx_HAL_Driver/Src/stm32f4xx_hal_i2c.c ****   }
 887:Drivers/STM32F4xx_HAL_Driver/Src/stm32f4xx_hal_i2c.c ****   /* Process locked */
 888:Drivers/STM32F4xx_HAL_Driver/Src/stm32f4xx_hal_i2c.c ****   __HAL_LOCK(hi2c);
 1376              		.loc 1 888 3
 1377 0024 7B68     		ldr	r3, [r7, #4]
 1378 0026 93F83C30 		ldrb	r3, [r3, #60]	@ zero_extendqisi2
 1379 002a 012B     		cmp	r3, #1
 1380 002c 01D1     		bne	.L98
 1381              		.loc 1 888 3 is_stmt 0 discriminator 1
 1382 002e 0223     		movs	r3, #2
 1383 0030 1AE0     		b	.L97
 1384              	.L98:
 1385              		.loc 1 888 3 discriminator 2
 1386 0032 7B68     		ldr	r3, [r7, #4]
 1387 0034 0122     		movs	r2, #1
 1388 0036 83F83C20 		strb	r2, [r3, #60]
 889:Drivers/STM32F4xx_HAL_Driver/Src/stm32f4xx_hal_i2c.c **** 
 890:Drivers/STM32F4xx_HAL_Driver/Src/stm32f4xx_hal_i2c.c ****   if (HAL_I2C_STATE_READY == hi2c->State)
 1389              		.loc 1 890 34 is_stmt 1 discriminator 2
 1390 003a 7B68     		ldr	r3, [r7, #4]
 1391 003c 93F83D30 		ldrb	r3, [r3, #61]
 1392 0040 DBB2     		uxtb	r3, r3
 1393              		.loc 1 890 6 discriminator 2
 1394 0042 202B     		cmp	r3, #32
 1395 0044 03D1     		bne	.L99
 891:Drivers/STM32F4xx_HAL_Driver/Src/stm32f4xx_hal_i2c.c ****   {
 892:Drivers/STM32F4xx_HAL_Driver/Src/stm32f4xx_hal_i2c.c ****     hi2c->AddrCallback = pCallback;
 1396              		.loc 1 892 24
 1397 0046 7B68     		ldr	r3, [r7, #4]
ARM GAS  /tmp/ccC4l07N.s 			page 41


 1398 0048 3A68     		ldr	r2, [r7]
 1399 004a 9A67     		str	r2, [r3, #120]
 1400 004c 07E0     		b	.L100
 1401              	.L99:
 893:Drivers/STM32F4xx_HAL_Driver/Src/stm32f4xx_hal_i2c.c ****   }
 894:Drivers/STM32F4xx_HAL_Driver/Src/stm32f4xx_hal_i2c.c ****   else
 895:Drivers/STM32F4xx_HAL_Driver/Src/stm32f4xx_hal_i2c.c ****   {
 896:Drivers/STM32F4xx_HAL_Driver/Src/stm32f4xx_hal_i2c.c ****     /* Update the error code */
 897:Drivers/STM32F4xx_HAL_Driver/Src/stm32f4xx_hal_i2c.c ****     hi2c->ErrorCode |= HAL_I2C_ERROR_INVALID_CALLBACK;
 1402              		.loc 1 897 21
 1403 004e 7B68     		ldr	r3, [r7, #4]
 1404 0050 1B6C     		ldr	r3, [r3, #64]
 1405 0052 43F48072 		orr	r2, r3, #256
 1406 0056 7B68     		ldr	r3, [r7, #4]
 1407 0058 1A64     		str	r2, [r3, #64]
 898:Drivers/STM32F4xx_HAL_Driver/Src/stm32f4xx_hal_i2c.c **** 
 899:Drivers/STM32F4xx_HAL_Driver/Src/stm32f4xx_hal_i2c.c ****     /* Return error status */
 900:Drivers/STM32F4xx_HAL_Driver/Src/stm32f4xx_hal_i2c.c ****     status =  HAL_ERROR;
 1408              		.loc 1 900 12
 1409 005a 0123     		movs	r3, #1
 1410 005c FB73     		strb	r3, [r7, #15]
 1411              	.L100:
 901:Drivers/STM32F4xx_HAL_Driver/Src/stm32f4xx_hal_i2c.c ****   }
 902:Drivers/STM32F4xx_HAL_Driver/Src/stm32f4xx_hal_i2c.c **** 
 903:Drivers/STM32F4xx_HAL_Driver/Src/stm32f4xx_hal_i2c.c ****   /* Release Lock */
 904:Drivers/STM32F4xx_HAL_Driver/Src/stm32f4xx_hal_i2c.c ****   __HAL_UNLOCK(hi2c);
 1412              		.loc 1 904 3
 1413 005e 7B68     		ldr	r3, [r7, #4]
 1414 0060 0022     		movs	r2, #0
 1415 0062 83F83C20 		strb	r2, [r3, #60]
 905:Drivers/STM32F4xx_HAL_Driver/Src/stm32f4xx_hal_i2c.c ****   return status;
 1416              		.loc 1 905 10
 1417 0066 FB7B     		ldrb	r3, [r7, #15]	@ zero_extendqisi2
 1418              	.L97:
 906:Drivers/STM32F4xx_HAL_Driver/Src/stm32f4xx_hal_i2c.c **** }
 1419              		.loc 1 906 1
 1420 0068 1846     		mov	r0, r3
 1421 006a 1437     		adds	r7, r7, #20
 1422              	.LCFI37:
 1423              		.cfi_def_cfa_offset 4
 1424 006c BD46     		mov	sp, r7
 1425              	.LCFI38:
 1426              		.cfi_def_cfa_register 13
 1427              		@ sp needed
 1428 006e 5DF8047B 		ldr	r7, [sp], #4
 1429              	.LCFI39:
 1430              		.cfi_restore 7
 1431              		.cfi_def_cfa_offset 0
 1432 0072 7047     		bx	lr
 1433              		.cfi_endproc
 1434              	.LFE136:
 1436              		.section	.text.HAL_I2C_UnRegisterAddrCallback,"ax",%progbits
 1437              		.align	1
 1438              		.global	HAL_I2C_UnRegisterAddrCallback
 1439              		.syntax unified
 1440              		.thumb
 1441              		.thumb_func
ARM GAS  /tmp/ccC4l07N.s 			page 42


 1442              		.fpu fpv4-sp-d16
 1444              	HAL_I2C_UnRegisterAddrCallback:
 1445              	.LFB137:
 907:Drivers/STM32F4xx_HAL_Driver/Src/stm32f4xx_hal_i2c.c **** 
 908:Drivers/STM32F4xx_HAL_Driver/Src/stm32f4xx_hal_i2c.c **** /**
 909:Drivers/STM32F4xx_HAL_Driver/Src/stm32f4xx_hal_i2c.c ****   * @brief  UnRegister the Slave Address Match I2C Callback
 910:Drivers/STM32F4xx_HAL_Driver/Src/stm32f4xx_hal_i2c.c ****   *         Info Ready I2C Callback is redirected to the weak HAL_I2C_AddrCallback() predefined cal
 911:Drivers/STM32F4xx_HAL_Driver/Src/stm32f4xx_hal_i2c.c ****   * @param  hi2c Pointer to a I2C_HandleTypeDef structure that contains
 912:Drivers/STM32F4xx_HAL_Driver/Src/stm32f4xx_hal_i2c.c ****   *                the configuration information for the specified I2C.
 913:Drivers/STM32F4xx_HAL_Driver/Src/stm32f4xx_hal_i2c.c ****   * @retval HAL status
 914:Drivers/STM32F4xx_HAL_Driver/Src/stm32f4xx_hal_i2c.c ****   */
 915:Drivers/STM32F4xx_HAL_Driver/Src/stm32f4xx_hal_i2c.c **** HAL_StatusTypeDef HAL_I2C_UnRegisterAddrCallback(I2C_HandleTypeDef *hi2c)
 916:Drivers/STM32F4xx_HAL_Driver/Src/stm32f4xx_hal_i2c.c **** {
 1446              		.loc 1 916 1
 1447              		.cfi_startproc
 1448              		@ args = 0, pretend = 0, frame = 16
 1449              		@ frame_needed = 1, uses_anonymous_args = 0
 1450              		@ link register save eliminated.
 1451 0000 80B4     		push	{r7}
 1452              	.LCFI40:
 1453              		.cfi_def_cfa_offset 4
 1454              		.cfi_offset 7, -4
 1455 0002 85B0     		sub	sp, sp, #20
 1456              	.LCFI41:
 1457              		.cfi_def_cfa_offset 24
 1458 0004 00AF     		add	r7, sp, #0
 1459              	.LCFI42:
 1460              		.cfi_def_cfa_register 7
 1461 0006 7860     		str	r0, [r7, #4]
 917:Drivers/STM32F4xx_HAL_Driver/Src/stm32f4xx_hal_i2c.c ****   HAL_StatusTypeDef status = HAL_OK;
 1462              		.loc 1 917 21
 1463 0008 0023     		movs	r3, #0
 1464 000a FB73     		strb	r3, [r7, #15]
 918:Drivers/STM32F4xx_HAL_Driver/Src/stm32f4xx_hal_i2c.c **** 
 919:Drivers/STM32F4xx_HAL_Driver/Src/stm32f4xx_hal_i2c.c ****   /* Process locked */
 920:Drivers/STM32F4xx_HAL_Driver/Src/stm32f4xx_hal_i2c.c ****   __HAL_LOCK(hi2c);
 1465              		.loc 1 920 3
 1466 000c 7B68     		ldr	r3, [r7, #4]
 1467 000e 93F83C30 		ldrb	r3, [r3, #60]	@ zero_extendqisi2
 1468 0012 012B     		cmp	r3, #1
 1469 0014 01D1     		bne	.L102
 1470              		.loc 1 920 3 is_stmt 0 discriminator 1
 1471 0016 0223     		movs	r3, #2
 1472 0018 1AE0     		b	.L103
 1473              	.L102:
 1474              		.loc 1 920 3 discriminator 2
 1475 001a 7B68     		ldr	r3, [r7, #4]
 1476 001c 0122     		movs	r2, #1
 1477 001e 83F83C20 		strb	r2, [r3, #60]
 921:Drivers/STM32F4xx_HAL_Driver/Src/stm32f4xx_hal_i2c.c **** 
 922:Drivers/STM32F4xx_HAL_Driver/Src/stm32f4xx_hal_i2c.c ****   if (HAL_I2C_STATE_READY == hi2c->State)
 1478              		.loc 1 922 34 is_stmt 1 discriminator 2
 1479 0022 7B68     		ldr	r3, [r7, #4]
 1480 0024 93F83D30 		ldrb	r3, [r3, #61]
 1481 0028 DBB2     		uxtb	r3, r3
 1482              		.loc 1 922 6 discriminator 2
 1483 002a 202B     		cmp	r3, #32
ARM GAS  /tmp/ccC4l07N.s 			page 43


 1484 002c 03D1     		bne	.L104
 923:Drivers/STM32F4xx_HAL_Driver/Src/stm32f4xx_hal_i2c.c ****   {
 924:Drivers/STM32F4xx_HAL_Driver/Src/stm32f4xx_hal_i2c.c ****     hi2c->AddrCallback = HAL_I2C_AddrCallback; /* Legacy weak AddrCallback  */
 1485              		.loc 1 924 24
 1486 002e 7B68     		ldr	r3, [r7, #4]
 1487 0030 0A4A     		ldr	r2, .L106
 1488 0032 9A67     		str	r2, [r3, #120]
 1489 0034 07E0     		b	.L105
 1490              	.L104:
 925:Drivers/STM32F4xx_HAL_Driver/Src/stm32f4xx_hal_i2c.c ****   }
 926:Drivers/STM32F4xx_HAL_Driver/Src/stm32f4xx_hal_i2c.c ****   else
 927:Drivers/STM32F4xx_HAL_Driver/Src/stm32f4xx_hal_i2c.c ****   {
 928:Drivers/STM32F4xx_HAL_Driver/Src/stm32f4xx_hal_i2c.c ****     /* Update the error code */
 929:Drivers/STM32F4xx_HAL_Driver/Src/stm32f4xx_hal_i2c.c ****     hi2c->ErrorCode |= HAL_I2C_ERROR_INVALID_CALLBACK;
 1491              		.loc 1 929 21
 1492 0036 7B68     		ldr	r3, [r7, #4]
 1493 0038 1B6C     		ldr	r3, [r3, #64]
 1494 003a 43F48072 		orr	r2, r3, #256
 1495 003e 7B68     		ldr	r3, [r7, #4]
 1496 0040 1A64     		str	r2, [r3, #64]
 930:Drivers/STM32F4xx_HAL_Driver/Src/stm32f4xx_hal_i2c.c **** 
 931:Drivers/STM32F4xx_HAL_Driver/Src/stm32f4xx_hal_i2c.c ****     /* Return error status */
 932:Drivers/STM32F4xx_HAL_Driver/Src/stm32f4xx_hal_i2c.c ****     status =  HAL_ERROR;
 1497              		.loc 1 932 12
 1498 0042 0123     		movs	r3, #1
 1499 0044 FB73     		strb	r3, [r7, #15]
 1500              	.L105:
 933:Drivers/STM32F4xx_HAL_Driver/Src/stm32f4xx_hal_i2c.c ****   }
 934:Drivers/STM32F4xx_HAL_Driver/Src/stm32f4xx_hal_i2c.c **** 
 935:Drivers/STM32F4xx_HAL_Driver/Src/stm32f4xx_hal_i2c.c ****   /* Release Lock */
 936:Drivers/STM32F4xx_HAL_Driver/Src/stm32f4xx_hal_i2c.c ****   __HAL_UNLOCK(hi2c);
 1501              		.loc 1 936 3
 1502 0046 7B68     		ldr	r3, [r7, #4]
 1503 0048 0022     		movs	r2, #0
 1504 004a 83F83C20 		strb	r2, [r3, #60]
 937:Drivers/STM32F4xx_HAL_Driver/Src/stm32f4xx_hal_i2c.c ****   return status;
 1505              		.loc 1 937 10
 1506 004e FB7B     		ldrb	r3, [r7, #15]	@ zero_extendqisi2
 1507              	.L103:
 938:Drivers/STM32F4xx_HAL_Driver/Src/stm32f4xx_hal_i2c.c **** }
 1508              		.loc 1 938 1
 1509 0050 1846     		mov	r0, r3
 1510 0052 1437     		adds	r7, r7, #20
 1511              	.LCFI43:
 1512              		.cfi_def_cfa_offset 4
 1513 0054 BD46     		mov	sp, r7
 1514              	.LCFI44:
 1515              		.cfi_def_cfa_register 13
 1516              		@ sp needed
 1517 0056 5DF8047B 		ldr	r7, [sp], #4
 1518              	.LCFI45:
 1519              		.cfi_restore 7
 1520              		.cfi_def_cfa_offset 0
 1521 005a 7047     		bx	lr
 1522              	.L107:
 1523              		.align	2
 1524              	.L106:
ARM GAS  /tmp/ccC4l07N.s 			page 44


 1525 005c 00000000 		.word	HAL_I2C_AddrCallback
 1526              		.cfi_endproc
 1527              	.LFE137:
 1529              		.section	.text.HAL_I2C_Master_Transmit,"ax",%progbits
 1530              		.align	1
 1531              		.global	HAL_I2C_Master_Transmit
 1532              		.syntax unified
 1533              		.thumb
 1534              		.thumb_func
 1535              		.fpu fpv4-sp-d16
 1537              	HAL_I2C_Master_Transmit:
 1538              	.LFB138:
 939:Drivers/STM32F4xx_HAL_Driver/Src/stm32f4xx_hal_i2c.c **** 
 940:Drivers/STM32F4xx_HAL_Driver/Src/stm32f4xx_hal_i2c.c **** #endif /* USE_HAL_I2C_REGISTER_CALLBACKS */
 941:Drivers/STM32F4xx_HAL_Driver/Src/stm32f4xx_hal_i2c.c **** 
 942:Drivers/STM32F4xx_HAL_Driver/Src/stm32f4xx_hal_i2c.c **** /**
 943:Drivers/STM32F4xx_HAL_Driver/Src/stm32f4xx_hal_i2c.c ****   * @}
 944:Drivers/STM32F4xx_HAL_Driver/Src/stm32f4xx_hal_i2c.c ****   */
 945:Drivers/STM32F4xx_HAL_Driver/Src/stm32f4xx_hal_i2c.c **** 
 946:Drivers/STM32F4xx_HAL_Driver/Src/stm32f4xx_hal_i2c.c **** /** @defgroup I2C_Exported_Functions_Group2 Input and Output operation functions
 947:Drivers/STM32F4xx_HAL_Driver/Src/stm32f4xx_hal_i2c.c ****  *  @brief   Data transfers functions
 948:Drivers/STM32F4xx_HAL_Driver/Src/stm32f4xx_hal_i2c.c ****  *
 949:Drivers/STM32F4xx_HAL_Driver/Src/stm32f4xx_hal_i2c.c **** @verbatim
 950:Drivers/STM32F4xx_HAL_Driver/Src/stm32f4xx_hal_i2c.c ****  ===============================================================================
 951:Drivers/STM32F4xx_HAL_Driver/Src/stm32f4xx_hal_i2c.c ****                       ##### IO operation functions #####
 952:Drivers/STM32F4xx_HAL_Driver/Src/stm32f4xx_hal_i2c.c ****  ===============================================================================
 953:Drivers/STM32F4xx_HAL_Driver/Src/stm32f4xx_hal_i2c.c ****     [..]
 954:Drivers/STM32F4xx_HAL_Driver/Src/stm32f4xx_hal_i2c.c ****     This subsection provides a set of functions allowing to manage the I2C data
 955:Drivers/STM32F4xx_HAL_Driver/Src/stm32f4xx_hal_i2c.c ****     transfers.
 956:Drivers/STM32F4xx_HAL_Driver/Src/stm32f4xx_hal_i2c.c **** 
 957:Drivers/STM32F4xx_HAL_Driver/Src/stm32f4xx_hal_i2c.c ****     (#) There are two modes of transfer:
 958:Drivers/STM32F4xx_HAL_Driver/Src/stm32f4xx_hal_i2c.c ****        (++) Blocking mode : The communication is performed in the polling mode.
 959:Drivers/STM32F4xx_HAL_Driver/Src/stm32f4xx_hal_i2c.c ****             The status of all data processing is returned by the same function
 960:Drivers/STM32F4xx_HAL_Driver/Src/stm32f4xx_hal_i2c.c ****             after finishing transfer.
 961:Drivers/STM32F4xx_HAL_Driver/Src/stm32f4xx_hal_i2c.c ****        (++) No-Blocking mode : The communication is performed using Interrupts
 962:Drivers/STM32F4xx_HAL_Driver/Src/stm32f4xx_hal_i2c.c ****             or DMA. These functions return the status of the transfer startup.
 963:Drivers/STM32F4xx_HAL_Driver/Src/stm32f4xx_hal_i2c.c ****             The end of the data processing will be indicated through the
 964:Drivers/STM32F4xx_HAL_Driver/Src/stm32f4xx_hal_i2c.c ****             dedicated I2C IRQ when using Interrupt mode or the DMA IRQ when
 965:Drivers/STM32F4xx_HAL_Driver/Src/stm32f4xx_hal_i2c.c ****             using DMA mode.
 966:Drivers/STM32F4xx_HAL_Driver/Src/stm32f4xx_hal_i2c.c **** 
 967:Drivers/STM32F4xx_HAL_Driver/Src/stm32f4xx_hal_i2c.c ****     (#) Blocking mode functions are :
 968:Drivers/STM32F4xx_HAL_Driver/Src/stm32f4xx_hal_i2c.c ****         (++) HAL_I2C_Master_Transmit()
 969:Drivers/STM32F4xx_HAL_Driver/Src/stm32f4xx_hal_i2c.c ****         (++) HAL_I2C_Master_Receive()
 970:Drivers/STM32F4xx_HAL_Driver/Src/stm32f4xx_hal_i2c.c ****         (++) HAL_I2C_Slave_Transmit()
 971:Drivers/STM32F4xx_HAL_Driver/Src/stm32f4xx_hal_i2c.c ****         (++) HAL_I2C_Slave_Receive()
 972:Drivers/STM32F4xx_HAL_Driver/Src/stm32f4xx_hal_i2c.c ****         (++) HAL_I2C_Mem_Write()
 973:Drivers/STM32F4xx_HAL_Driver/Src/stm32f4xx_hal_i2c.c ****         (++) HAL_I2C_Mem_Read()
 974:Drivers/STM32F4xx_HAL_Driver/Src/stm32f4xx_hal_i2c.c ****         (++) HAL_I2C_IsDeviceReady()
 975:Drivers/STM32F4xx_HAL_Driver/Src/stm32f4xx_hal_i2c.c **** 
 976:Drivers/STM32F4xx_HAL_Driver/Src/stm32f4xx_hal_i2c.c ****     (#) No-Blocking mode functions with Interrupt are :
 977:Drivers/STM32F4xx_HAL_Driver/Src/stm32f4xx_hal_i2c.c ****         (++) HAL_I2C_Master_Transmit_IT()
 978:Drivers/STM32F4xx_HAL_Driver/Src/stm32f4xx_hal_i2c.c ****         (++) HAL_I2C_Master_Receive_IT()
 979:Drivers/STM32F4xx_HAL_Driver/Src/stm32f4xx_hal_i2c.c ****         (++) HAL_I2C_Slave_Transmit_IT()
 980:Drivers/STM32F4xx_HAL_Driver/Src/stm32f4xx_hal_i2c.c ****         (++) HAL_I2C_Slave_Receive_IT()
 981:Drivers/STM32F4xx_HAL_Driver/Src/stm32f4xx_hal_i2c.c ****         (++) HAL_I2C_Mem_Write_IT()
 982:Drivers/STM32F4xx_HAL_Driver/Src/stm32f4xx_hal_i2c.c ****         (++) HAL_I2C_Mem_Read_IT()
 983:Drivers/STM32F4xx_HAL_Driver/Src/stm32f4xx_hal_i2c.c ****         (++) HAL_I2C_Master_Seq_Transmit_IT()
ARM GAS  /tmp/ccC4l07N.s 			page 45


 984:Drivers/STM32F4xx_HAL_Driver/Src/stm32f4xx_hal_i2c.c ****         (++) HAL_I2C_Master_Seq_Receive_IT()
 985:Drivers/STM32F4xx_HAL_Driver/Src/stm32f4xx_hal_i2c.c ****         (++) HAL_I2C_Slave_Seq_Transmit_IT()
 986:Drivers/STM32F4xx_HAL_Driver/Src/stm32f4xx_hal_i2c.c ****         (++) HAL_I2C_Slave_Seq_Receive_IT()
 987:Drivers/STM32F4xx_HAL_Driver/Src/stm32f4xx_hal_i2c.c ****         (++) HAL_I2C_EnableListen_IT()
 988:Drivers/STM32F4xx_HAL_Driver/Src/stm32f4xx_hal_i2c.c ****         (++) HAL_I2C_DisableListen_IT()
 989:Drivers/STM32F4xx_HAL_Driver/Src/stm32f4xx_hal_i2c.c ****         (++) HAL_I2C_Master_Abort_IT()
 990:Drivers/STM32F4xx_HAL_Driver/Src/stm32f4xx_hal_i2c.c **** 
 991:Drivers/STM32F4xx_HAL_Driver/Src/stm32f4xx_hal_i2c.c ****     (#) No-Blocking mode functions with DMA are :
 992:Drivers/STM32F4xx_HAL_Driver/Src/stm32f4xx_hal_i2c.c ****         (++) HAL_I2C_Master_Transmit_DMA()
 993:Drivers/STM32F4xx_HAL_Driver/Src/stm32f4xx_hal_i2c.c ****         (++) HAL_I2C_Master_Receive_DMA()
 994:Drivers/STM32F4xx_HAL_Driver/Src/stm32f4xx_hal_i2c.c ****         (++) HAL_I2C_Slave_Transmit_DMA()
 995:Drivers/STM32F4xx_HAL_Driver/Src/stm32f4xx_hal_i2c.c ****         (++) HAL_I2C_Slave_Receive_DMA()
 996:Drivers/STM32F4xx_HAL_Driver/Src/stm32f4xx_hal_i2c.c ****         (++) HAL_I2C_Mem_Write_DMA()
 997:Drivers/STM32F4xx_HAL_Driver/Src/stm32f4xx_hal_i2c.c ****         (++) HAL_I2C_Mem_Read_DMA()
 998:Drivers/STM32F4xx_HAL_Driver/Src/stm32f4xx_hal_i2c.c ****         (++) HAL_I2C_Master_Seq_Transmit_DMA()
 999:Drivers/STM32F4xx_HAL_Driver/Src/stm32f4xx_hal_i2c.c ****         (++) HAL_I2C_Master_Seq_Receive_DMA()
1000:Drivers/STM32F4xx_HAL_Driver/Src/stm32f4xx_hal_i2c.c ****         (++) HAL_I2C_Slave_Seq_Transmit_DMA()
1001:Drivers/STM32F4xx_HAL_Driver/Src/stm32f4xx_hal_i2c.c ****         (++) HAL_I2C_Slave_Seq_Receive_DMA()
1002:Drivers/STM32F4xx_HAL_Driver/Src/stm32f4xx_hal_i2c.c **** 
1003:Drivers/STM32F4xx_HAL_Driver/Src/stm32f4xx_hal_i2c.c ****     (#) A set of Transfer Complete Callbacks are provided in non Blocking mode:
1004:Drivers/STM32F4xx_HAL_Driver/Src/stm32f4xx_hal_i2c.c ****         (++) HAL_I2C_MasterTxCpltCallback()
1005:Drivers/STM32F4xx_HAL_Driver/Src/stm32f4xx_hal_i2c.c ****         (++) HAL_I2C_MasterRxCpltCallback()
1006:Drivers/STM32F4xx_HAL_Driver/Src/stm32f4xx_hal_i2c.c ****         (++) HAL_I2C_SlaveTxCpltCallback()
1007:Drivers/STM32F4xx_HAL_Driver/Src/stm32f4xx_hal_i2c.c ****         (++) HAL_I2C_SlaveRxCpltCallback()
1008:Drivers/STM32F4xx_HAL_Driver/Src/stm32f4xx_hal_i2c.c ****         (++) HAL_I2C_MemTxCpltCallback()
1009:Drivers/STM32F4xx_HAL_Driver/Src/stm32f4xx_hal_i2c.c ****         (++) HAL_I2C_MemRxCpltCallback()
1010:Drivers/STM32F4xx_HAL_Driver/Src/stm32f4xx_hal_i2c.c ****         (++) HAL_I2C_AddrCallback()
1011:Drivers/STM32F4xx_HAL_Driver/Src/stm32f4xx_hal_i2c.c ****         (++) HAL_I2C_ListenCpltCallback()
1012:Drivers/STM32F4xx_HAL_Driver/Src/stm32f4xx_hal_i2c.c ****         (++) HAL_I2C_ErrorCallback()
1013:Drivers/STM32F4xx_HAL_Driver/Src/stm32f4xx_hal_i2c.c ****         (++) HAL_I2C_AbortCpltCallback()
1014:Drivers/STM32F4xx_HAL_Driver/Src/stm32f4xx_hal_i2c.c **** 
1015:Drivers/STM32F4xx_HAL_Driver/Src/stm32f4xx_hal_i2c.c **** @endverbatim
1016:Drivers/STM32F4xx_HAL_Driver/Src/stm32f4xx_hal_i2c.c ****   * @{
1017:Drivers/STM32F4xx_HAL_Driver/Src/stm32f4xx_hal_i2c.c ****   */
1018:Drivers/STM32F4xx_HAL_Driver/Src/stm32f4xx_hal_i2c.c **** 
1019:Drivers/STM32F4xx_HAL_Driver/Src/stm32f4xx_hal_i2c.c **** /**
1020:Drivers/STM32F4xx_HAL_Driver/Src/stm32f4xx_hal_i2c.c ****   * @brief  Transmits in master mode an amount of data in blocking mode.
1021:Drivers/STM32F4xx_HAL_Driver/Src/stm32f4xx_hal_i2c.c ****   * @param  hi2c Pointer to a I2C_HandleTypeDef structure that contains
1022:Drivers/STM32F4xx_HAL_Driver/Src/stm32f4xx_hal_i2c.c ****   *                the configuration information for the specified I2C.
1023:Drivers/STM32F4xx_HAL_Driver/Src/stm32f4xx_hal_i2c.c ****   * @param  DevAddress Target device address: The device 7 bits address value
1024:Drivers/STM32F4xx_HAL_Driver/Src/stm32f4xx_hal_i2c.c ****   *         in datasheet must be shifted to the left before calling the interface
1025:Drivers/STM32F4xx_HAL_Driver/Src/stm32f4xx_hal_i2c.c ****   * @param  pData Pointer to data buffer
1026:Drivers/STM32F4xx_HAL_Driver/Src/stm32f4xx_hal_i2c.c ****   * @param  Size Amount of data to be sent
1027:Drivers/STM32F4xx_HAL_Driver/Src/stm32f4xx_hal_i2c.c ****   * @param  Timeout Timeout duration
1028:Drivers/STM32F4xx_HAL_Driver/Src/stm32f4xx_hal_i2c.c ****   * @retval HAL status
1029:Drivers/STM32F4xx_HAL_Driver/Src/stm32f4xx_hal_i2c.c ****   */
1030:Drivers/STM32F4xx_HAL_Driver/Src/stm32f4xx_hal_i2c.c **** HAL_StatusTypeDef HAL_I2C_Master_Transmit(I2C_HandleTypeDef *hi2c, uint16_t DevAddress, uint8_t *pD
1031:Drivers/STM32F4xx_HAL_Driver/Src/stm32f4xx_hal_i2c.c **** {
 1539              		.loc 1 1031 1
 1540              		.cfi_startproc
 1541              		@ args = 4, pretend = 0, frame = 24
 1542              		@ frame_needed = 1, uses_anonymous_args = 0
 1543 0000 80B5     		push	{r7, lr}
 1544              	.LCFI46:
 1545              		.cfi_def_cfa_offset 8
 1546              		.cfi_offset 7, -8
 1547              		.cfi_offset 14, -4
ARM GAS  /tmp/ccC4l07N.s 			page 46


 1548 0002 88B0     		sub	sp, sp, #32
 1549              	.LCFI47:
 1550              		.cfi_def_cfa_offset 40
 1551 0004 02AF     		add	r7, sp, #8
 1552              	.LCFI48:
 1553              		.cfi_def_cfa 7, 32
 1554 0006 F860     		str	r0, [r7, #12]
 1555 0008 7A60     		str	r2, [r7, #4]
 1556 000a 1A46     		mov	r2, r3
 1557 000c 0B46     		mov	r3, r1	@ movhi
 1558 000e 7B81     		strh	r3, [r7, #10]	@ movhi
 1559 0010 1346     		mov	r3, r2	@ movhi
 1560 0012 3B81     		strh	r3, [r7, #8]	@ movhi
1032:Drivers/STM32F4xx_HAL_Driver/Src/stm32f4xx_hal_i2c.c ****   /* Init tickstart for timeout management*/
1033:Drivers/STM32F4xx_HAL_Driver/Src/stm32f4xx_hal_i2c.c ****   uint32_t tickstart = HAL_GetTick();
 1561              		.loc 1 1033 24
 1562 0014 FFF7FEFF 		bl	HAL_GetTick
 1563 0018 7861     		str	r0, [r7, #20]
1034:Drivers/STM32F4xx_HAL_Driver/Src/stm32f4xx_hal_i2c.c **** 
1035:Drivers/STM32F4xx_HAL_Driver/Src/stm32f4xx_hal_i2c.c ****   if (hi2c->State == HAL_I2C_STATE_READY)
 1564              		.loc 1 1035 11
 1565 001a FB68     		ldr	r3, [r7, #12]
 1566 001c 93F83D30 		ldrb	r3, [r3, #61]
 1567 0020 DBB2     		uxtb	r3, r3
 1568              		.loc 1 1035 6
 1569 0022 202B     		cmp	r3, #32
 1570 0024 40F0E080 		bne	.L109
1036:Drivers/STM32F4xx_HAL_Driver/Src/stm32f4xx_hal_i2c.c ****   {
1037:Drivers/STM32F4xx_HAL_Driver/Src/stm32f4xx_hal_i2c.c ****     /* Wait until BUSY flag is reset */
1038:Drivers/STM32F4xx_HAL_Driver/Src/stm32f4xx_hal_i2c.c ****     if (I2C_WaitOnFlagUntilTimeout(hi2c, I2C_FLAG_BUSY, SET, I2C_TIMEOUT_BUSY_FLAG, tickstart) != H
 1571              		.loc 1 1038 9
 1572 0028 7B69     		ldr	r3, [r7, #20]
 1573 002a 0093     		str	r3, [sp]
 1574 002c 1923     		movs	r3, #25
 1575 002e 0122     		movs	r2, #1
 1576 0030 7049     		ldr	r1, .L121
 1577 0032 F868     		ldr	r0, [r7, #12]
 1578 0034 FFF7FEFF 		bl	I2C_WaitOnFlagUntilTimeout
 1579 0038 0346     		mov	r3, r0
 1580              		.loc 1 1038 8
 1581 003a 002B     		cmp	r3, #0
 1582 003c 01D0     		beq	.L110
1039:Drivers/STM32F4xx_HAL_Driver/Src/stm32f4xx_hal_i2c.c ****     {
1040:Drivers/STM32F4xx_HAL_Driver/Src/stm32f4xx_hal_i2c.c ****       return HAL_BUSY;
 1583              		.loc 1 1040 14
 1584 003e 0223     		movs	r3, #2
 1585 0040 D3E0     		b	.L111
 1586              	.L110:
1041:Drivers/STM32F4xx_HAL_Driver/Src/stm32f4xx_hal_i2c.c ****     }
1042:Drivers/STM32F4xx_HAL_Driver/Src/stm32f4xx_hal_i2c.c **** 
1043:Drivers/STM32F4xx_HAL_Driver/Src/stm32f4xx_hal_i2c.c ****     /* Process Locked */
1044:Drivers/STM32F4xx_HAL_Driver/Src/stm32f4xx_hal_i2c.c ****     __HAL_LOCK(hi2c);
 1587              		.loc 1 1044 5
 1588 0042 FB68     		ldr	r3, [r7, #12]
 1589 0044 93F83C30 		ldrb	r3, [r3, #60]	@ zero_extendqisi2
 1590 0048 012B     		cmp	r3, #1
 1591 004a 01D1     		bne	.L112
ARM GAS  /tmp/ccC4l07N.s 			page 47


 1592              		.loc 1 1044 5 is_stmt 0 discriminator 1
 1593 004c 0223     		movs	r3, #2
 1594 004e CCE0     		b	.L111
 1595              	.L112:
 1596              		.loc 1 1044 5 discriminator 2
 1597 0050 FB68     		ldr	r3, [r7, #12]
 1598 0052 0122     		movs	r2, #1
 1599 0054 83F83C20 		strb	r2, [r3, #60]
1045:Drivers/STM32F4xx_HAL_Driver/Src/stm32f4xx_hal_i2c.c **** 
1046:Drivers/STM32F4xx_HAL_Driver/Src/stm32f4xx_hal_i2c.c ****     /* Check if the I2C is already enabled */
1047:Drivers/STM32F4xx_HAL_Driver/Src/stm32f4xx_hal_i2c.c ****     if ((hi2c->Instance->CR1 & I2C_CR1_PE) != I2C_CR1_PE)
 1600              		.loc 1 1047 14 is_stmt 1 discriminator 2
 1601 0058 FB68     		ldr	r3, [r7, #12]
 1602 005a 1B68     		ldr	r3, [r3]
 1603              		.loc 1 1047 24 discriminator 2
 1604 005c 1B68     		ldr	r3, [r3]
 1605              		.loc 1 1047 30 discriminator 2
 1606 005e 03F00103 		and	r3, r3, #1
 1607              		.loc 1 1047 8 discriminator 2
 1608 0062 012B     		cmp	r3, #1
 1609 0064 07D0     		beq	.L113
1048:Drivers/STM32F4xx_HAL_Driver/Src/stm32f4xx_hal_i2c.c ****     {
1049:Drivers/STM32F4xx_HAL_Driver/Src/stm32f4xx_hal_i2c.c ****       /* Enable I2C peripheral */
1050:Drivers/STM32F4xx_HAL_Driver/Src/stm32f4xx_hal_i2c.c ****       __HAL_I2C_ENABLE(hi2c);
 1610              		.loc 1 1050 7
 1611 0066 FB68     		ldr	r3, [r7, #12]
 1612 0068 1B68     		ldr	r3, [r3]
 1613 006a 1A68     		ldr	r2, [r3]
 1614 006c FB68     		ldr	r3, [r7, #12]
 1615 006e 1B68     		ldr	r3, [r3]
 1616 0070 42F00102 		orr	r2, r2, #1
 1617 0074 1A60     		str	r2, [r3]
 1618              	.L113:
1051:Drivers/STM32F4xx_HAL_Driver/Src/stm32f4xx_hal_i2c.c ****     }
1052:Drivers/STM32F4xx_HAL_Driver/Src/stm32f4xx_hal_i2c.c **** 
1053:Drivers/STM32F4xx_HAL_Driver/Src/stm32f4xx_hal_i2c.c ****     /* Disable Pos */
1054:Drivers/STM32F4xx_HAL_Driver/Src/stm32f4xx_hal_i2c.c ****     CLEAR_BIT(hi2c->Instance->CR1, I2C_CR1_POS);
 1619              		.loc 1 1054 5
 1620 0076 FB68     		ldr	r3, [r7, #12]
 1621 0078 1B68     		ldr	r3, [r3]
 1622 007a 1A68     		ldr	r2, [r3]
 1623 007c FB68     		ldr	r3, [r7, #12]
 1624 007e 1B68     		ldr	r3, [r3]
 1625 0080 22F40062 		bic	r2, r2, #2048
 1626 0084 1A60     		str	r2, [r3]
1055:Drivers/STM32F4xx_HAL_Driver/Src/stm32f4xx_hal_i2c.c **** 
1056:Drivers/STM32F4xx_HAL_Driver/Src/stm32f4xx_hal_i2c.c ****     hi2c->State       = HAL_I2C_STATE_BUSY_TX;
 1627              		.loc 1 1056 23
 1628 0086 FB68     		ldr	r3, [r7, #12]
 1629 0088 2122     		movs	r2, #33
 1630 008a 83F83D20 		strb	r2, [r3, #61]
1057:Drivers/STM32F4xx_HAL_Driver/Src/stm32f4xx_hal_i2c.c ****     hi2c->Mode        = HAL_I2C_MODE_MASTER;
 1631              		.loc 1 1057 23
 1632 008e FB68     		ldr	r3, [r7, #12]
 1633 0090 1022     		movs	r2, #16
 1634 0092 83F83E20 		strb	r2, [r3, #62]
1058:Drivers/STM32F4xx_HAL_Driver/Src/stm32f4xx_hal_i2c.c ****     hi2c->ErrorCode   = HAL_I2C_ERROR_NONE;
ARM GAS  /tmp/ccC4l07N.s 			page 48


 1635              		.loc 1 1058 23
 1636 0096 FB68     		ldr	r3, [r7, #12]
 1637 0098 0022     		movs	r2, #0
 1638 009a 1A64     		str	r2, [r3, #64]
1059:Drivers/STM32F4xx_HAL_Driver/Src/stm32f4xx_hal_i2c.c **** 
1060:Drivers/STM32F4xx_HAL_Driver/Src/stm32f4xx_hal_i2c.c ****     /* Prepare transfer parameters */
1061:Drivers/STM32F4xx_HAL_Driver/Src/stm32f4xx_hal_i2c.c ****     hi2c->pBuffPtr    = pData;
 1639              		.loc 1 1061 23
 1640 009c FB68     		ldr	r3, [r7, #12]
 1641 009e 7A68     		ldr	r2, [r7, #4]
 1642 00a0 5A62     		str	r2, [r3, #36]
1062:Drivers/STM32F4xx_HAL_Driver/Src/stm32f4xx_hal_i2c.c ****     hi2c->XferCount   = Size;
 1643              		.loc 1 1062 23
 1644 00a2 FB68     		ldr	r3, [r7, #12]
 1645 00a4 3A89     		ldrh	r2, [r7, #8]	@ movhi
 1646 00a6 5A85     		strh	r2, [r3, #42]	@ movhi
1063:Drivers/STM32F4xx_HAL_Driver/Src/stm32f4xx_hal_i2c.c ****     hi2c->XferSize    = hi2c->XferCount;
 1647              		.loc 1 1063 29
 1648 00a8 FB68     		ldr	r3, [r7, #12]
 1649 00aa 5B8D     		ldrh	r3, [r3, #42]	@ movhi
 1650 00ac 9AB2     		uxth	r2, r3
 1651              		.loc 1 1063 23
 1652 00ae FB68     		ldr	r3, [r7, #12]
 1653 00b0 1A85     		strh	r2, [r3, #40]	@ movhi
1064:Drivers/STM32F4xx_HAL_Driver/Src/stm32f4xx_hal_i2c.c ****     hi2c->XferOptions = I2C_NO_OPTION_FRAME;
 1654              		.loc 1 1064 23
 1655 00b2 FB68     		ldr	r3, [r7, #12]
 1656 00b4 504A     		ldr	r2, .L121+4
 1657 00b6 DA62     		str	r2, [r3, #44]
1065:Drivers/STM32F4xx_HAL_Driver/Src/stm32f4xx_hal_i2c.c **** 
1066:Drivers/STM32F4xx_HAL_Driver/Src/stm32f4xx_hal_i2c.c ****     /* Send Slave Address */
1067:Drivers/STM32F4xx_HAL_Driver/Src/stm32f4xx_hal_i2c.c ****     if (I2C_MasterRequestWrite(hi2c, DevAddress, Timeout, tickstart) != HAL_OK)
 1658              		.loc 1 1067 9
 1659 00b8 7989     		ldrh	r1, [r7, #10]
 1660 00ba 7B69     		ldr	r3, [r7, #20]
 1661 00bc 3A6A     		ldr	r2, [r7, #32]
 1662 00be F868     		ldr	r0, [r7, #12]
 1663 00c0 FFF7FEFF 		bl	I2C_MasterRequestWrite
 1664 00c4 0346     		mov	r3, r0
 1665              		.loc 1 1067 8
 1666 00c6 002B     		cmp	r3, #0
 1667 00c8 01D0     		beq	.L114
1068:Drivers/STM32F4xx_HAL_Driver/Src/stm32f4xx_hal_i2c.c ****     {
1069:Drivers/STM32F4xx_HAL_Driver/Src/stm32f4xx_hal_i2c.c ****       return HAL_ERROR;
 1668              		.loc 1 1069 14
 1669 00ca 0123     		movs	r3, #1
 1670 00cc 8DE0     		b	.L111
 1671              	.L114:
 1672              	.LBB2:
1070:Drivers/STM32F4xx_HAL_Driver/Src/stm32f4xx_hal_i2c.c ****     }
1071:Drivers/STM32F4xx_HAL_Driver/Src/stm32f4xx_hal_i2c.c **** 
1072:Drivers/STM32F4xx_HAL_Driver/Src/stm32f4xx_hal_i2c.c ****     /* Clear ADDR flag */
1073:Drivers/STM32F4xx_HAL_Driver/Src/stm32f4xx_hal_i2c.c ****     __HAL_I2C_CLEAR_ADDRFLAG(hi2c);
 1673              		.loc 1 1073 5
 1674 00ce 0023     		movs	r3, #0
 1675 00d0 3B61     		str	r3, [r7, #16]
 1676 00d2 FB68     		ldr	r3, [r7, #12]
ARM GAS  /tmp/ccC4l07N.s 			page 49


 1677 00d4 1B68     		ldr	r3, [r3]
 1678 00d6 5B69     		ldr	r3, [r3, #20]
 1679 00d8 3B61     		str	r3, [r7, #16]
 1680 00da FB68     		ldr	r3, [r7, #12]
 1681 00dc 1B68     		ldr	r3, [r3]
 1682 00de 9B69     		ldr	r3, [r3, #24]
 1683 00e0 3B61     		str	r3, [r7, #16]
 1684 00e2 3B69     		ldr	r3, [r7, #16]
 1685              	.LBE2:
1074:Drivers/STM32F4xx_HAL_Driver/Src/stm32f4xx_hal_i2c.c **** 
1075:Drivers/STM32F4xx_HAL_Driver/Src/stm32f4xx_hal_i2c.c ****     while (hi2c->XferSize > 0U)
 1686              		.loc 1 1075 11
 1687 00e4 66E0     		b	.L115
 1688              	.L120:
1076:Drivers/STM32F4xx_HAL_Driver/Src/stm32f4xx_hal_i2c.c ****     {
1077:Drivers/STM32F4xx_HAL_Driver/Src/stm32f4xx_hal_i2c.c ****       /* Wait until TXE flag is set */
1078:Drivers/STM32F4xx_HAL_Driver/Src/stm32f4xx_hal_i2c.c ****       if (I2C_WaitOnTXEFlagUntilTimeout(hi2c, Timeout, tickstart) != HAL_OK)
 1689              		.loc 1 1078 11
 1690 00e6 7A69     		ldr	r2, [r7, #20]
 1691 00e8 396A     		ldr	r1, [r7, #32]
 1692 00ea F868     		ldr	r0, [r7, #12]
 1693 00ec FFF7FEFF 		bl	I2C_WaitOnTXEFlagUntilTimeout
 1694 00f0 0346     		mov	r3, r0
 1695              		.loc 1 1078 10
 1696 00f2 002B     		cmp	r3, #0
 1697 00f4 0DD0     		beq	.L116
1079:Drivers/STM32F4xx_HAL_Driver/Src/stm32f4xx_hal_i2c.c ****       {
1080:Drivers/STM32F4xx_HAL_Driver/Src/stm32f4xx_hal_i2c.c ****         if (hi2c->ErrorCode == HAL_I2C_ERROR_AF)
 1698              		.loc 1 1080 17
 1699 00f6 FB68     		ldr	r3, [r7, #12]
 1700 00f8 1B6C     		ldr	r3, [r3, #64]
 1701              		.loc 1 1080 12
 1702 00fa 042B     		cmp	r3, #4
 1703 00fc 07D1     		bne	.L117
1081:Drivers/STM32F4xx_HAL_Driver/Src/stm32f4xx_hal_i2c.c ****         {
1082:Drivers/STM32F4xx_HAL_Driver/Src/stm32f4xx_hal_i2c.c ****           /* Generate Stop */
1083:Drivers/STM32F4xx_HAL_Driver/Src/stm32f4xx_hal_i2c.c ****           SET_BIT(hi2c->Instance->CR1, I2C_CR1_STOP);
 1704              		.loc 1 1083 11
 1705 00fe FB68     		ldr	r3, [r7, #12]
 1706 0100 1B68     		ldr	r3, [r3]
 1707 0102 1A68     		ldr	r2, [r3]
 1708 0104 FB68     		ldr	r3, [r7, #12]
 1709 0106 1B68     		ldr	r3, [r3]
 1710 0108 42F40072 		orr	r2, r2, #512
 1711 010c 1A60     		str	r2, [r3]
 1712              	.L117:
1084:Drivers/STM32F4xx_HAL_Driver/Src/stm32f4xx_hal_i2c.c ****         }
1085:Drivers/STM32F4xx_HAL_Driver/Src/stm32f4xx_hal_i2c.c ****         return HAL_ERROR;
 1713              		.loc 1 1085 16
 1714 010e 0123     		movs	r3, #1
 1715 0110 6BE0     		b	.L111
 1716              	.L116:
1086:Drivers/STM32F4xx_HAL_Driver/Src/stm32f4xx_hal_i2c.c ****       }
1087:Drivers/STM32F4xx_HAL_Driver/Src/stm32f4xx_hal_i2c.c **** 
1088:Drivers/STM32F4xx_HAL_Driver/Src/stm32f4xx_hal_i2c.c ****       /* Write data to DR */
1089:Drivers/STM32F4xx_HAL_Driver/Src/stm32f4xx_hal_i2c.c ****       hi2c->Instance->DR = *hi2c->pBuffPtr;
 1717              		.loc 1 1089 33
ARM GAS  /tmp/ccC4l07N.s 			page 50


 1718 0112 FB68     		ldr	r3, [r7, #12]
 1719 0114 5B6A     		ldr	r3, [r3, #36]
 1720              		.loc 1 1089 28
 1721 0116 1A78     		ldrb	r2, [r3]	@ zero_extendqisi2
 1722              		.loc 1 1089 11
 1723 0118 FB68     		ldr	r3, [r7, #12]
 1724 011a 1B68     		ldr	r3, [r3]
 1725              		.loc 1 1089 26
 1726 011c 1A61     		str	r2, [r3, #16]
1090:Drivers/STM32F4xx_HAL_Driver/Src/stm32f4xx_hal_i2c.c **** 
1091:Drivers/STM32F4xx_HAL_Driver/Src/stm32f4xx_hal_i2c.c ****       /* Increment Buffer pointer */
1092:Drivers/STM32F4xx_HAL_Driver/Src/stm32f4xx_hal_i2c.c ****       hi2c->pBuffPtr++;
 1727              		.loc 1 1092 11
 1728 011e FB68     		ldr	r3, [r7, #12]
 1729 0120 5B6A     		ldr	r3, [r3, #36]
 1730              		.loc 1 1092 21
 1731 0122 5A1C     		adds	r2, r3, #1
 1732 0124 FB68     		ldr	r3, [r7, #12]
 1733 0126 5A62     		str	r2, [r3, #36]
1093:Drivers/STM32F4xx_HAL_Driver/Src/stm32f4xx_hal_i2c.c **** 
1094:Drivers/STM32F4xx_HAL_Driver/Src/stm32f4xx_hal_i2c.c ****       /* Update counter */
1095:Drivers/STM32F4xx_HAL_Driver/Src/stm32f4xx_hal_i2c.c ****       hi2c->XferCount--;
 1734              		.loc 1 1095 11
 1735 0128 FB68     		ldr	r3, [r7, #12]
 1736 012a 5B8D     		ldrh	r3, [r3, #42]	@ movhi
 1737 012c 9BB2     		uxth	r3, r3
 1738              		.loc 1 1095 22
 1739 012e 013B     		subs	r3, r3, #1
 1740 0130 9AB2     		uxth	r2, r3
 1741 0132 FB68     		ldr	r3, [r7, #12]
 1742 0134 5A85     		strh	r2, [r3, #42]	@ movhi
1096:Drivers/STM32F4xx_HAL_Driver/Src/stm32f4xx_hal_i2c.c ****       hi2c->XferSize--;
 1743              		.loc 1 1096 11
 1744 0136 FB68     		ldr	r3, [r7, #12]
 1745 0138 1B8D     		ldrh	r3, [r3, #40]
 1746              		.loc 1 1096 21
 1747 013a 013B     		subs	r3, r3, #1
 1748 013c 9AB2     		uxth	r2, r3
 1749 013e FB68     		ldr	r3, [r7, #12]
 1750 0140 1A85     		strh	r2, [r3, #40]	@ movhi
1097:Drivers/STM32F4xx_HAL_Driver/Src/stm32f4xx_hal_i2c.c **** 
1098:Drivers/STM32F4xx_HAL_Driver/Src/stm32f4xx_hal_i2c.c ****       if ((__HAL_I2C_GET_FLAG(hi2c, I2C_FLAG_BTF) == SET) && (hi2c->XferSize != 0U))
 1751              		.loc 1 1098 12
 1752 0142 FB68     		ldr	r3, [r7, #12]
 1753 0144 1B68     		ldr	r3, [r3]
 1754 0146 5B69     		ldr	r3, [r3, #20]
 1755 0148 03F00403 		and	r3, r3, #4
 1756              		.loc 1 1098 10
 1757 014c 042B     		cmp	r3, #4
 1758 014e 1BD1     		bne	.L118
 1759              		.loc 1 1098 67 discriminator 1
 1760 0150 FB68     		ldr	r3, [r7, #12]
 1761 0152 1B8D     		ldrh	r3, [r3, #40]
 1762              		.loc 1 1098 59 discriminator 1
 1763 0154 002B     		cmp	r3, #0
 1764 0156 17D0     		beq	.L118
1099:Drivers/STM32F4xx_HAL_Driver/Src/stm32f4xx_hal_i2c.c ****       {
ARM GAS  /tmp/ccC4l07N.s 			page 51


1100:Drivers/STM32F4xx_HAL_Driver/Src/stm32f4xx_hal_i2c.c ****         /* Write data to DR */
1101:Drivers/STM32F4xx_HAL_Driver/Src/stm32f4xx_hal_i2c.c ****         hi2c->Instance->DR = *hi2c->pBuffPtr;
 1765              		.loc 1 1101 35
 1766 0158 FB68     		ldr	r3, [r7, #12]
 1767 015a 5B6A     		ldr	r3, [r3, #36]
 1768              		.loc 1 1101 30
 1769 015c 1A78     		ldrb	r2, [r3]	@ zero_extendqisi2
 1770              		.loc 1 1101 13
 1771 015e FB68     		ldr	r3, [r7, #12]
 1772 0160 1B68     		ldr	r3, [r3]
 1773              		.loc 1 1101 28
 1774 0162 1A61     		str	r2, [r3, #16]
1102:Drivers/STM32F4xx_HAL_Driver/Src/stm32f4xx_hal_i2c.c **** 
1103:Drivers/STM32F4xx_HAL_Driver/Src/stm32f4xx_hal_i2c.c ****         /* Increment Buffer pointer */
1104:Drivers/STM32F4xx_HAL_Driver/Src/stm32f4xx_hal_i2c.c ****         hi2c->pBuffPtr++;
 1775              		.loc 1 1104 13
 1776 0164 FB68     		ldr	r3, [r7, #12]
 1777 0166 5B6A     		ldr	r3, [r3, #36]
 1778              		.loc 1 1104 23
 1779 0168 5A1C     		adds	r2, r3, #1
 1780 016a FB68     		ldr	r3, [r7, #12]
 1781 016c 5A62     		str	r2, [r3, #36]
1105:Drivers/STM32F4xx_HAL_Driver/Src/stm32f4xx_hal_i2c.c **** 
1106:Drivers/STM32F4xx_HAL_Driver/Src/stm32f4xx_hal_i2c.c ****         /* Update counter */
1107:Drivers/STM32F4xx_HAL_Driver/Src/stm32f4xx_hal_i2c.c ****         hi2c->XferCount--;
 1782              		.loc 1 1107 13
 1783 016e FB68     		ldr	r3, [r7, #12]
 1784 0170 5B8D     		ldrh	r3, [r3, #42]	@ movhi
 1785 0172 9BB2     		uxth	r3, r3
 1786              		.loc 1 1107 24
 1787 0174 013B     		subs	r3, r3, #1
 1788 0176 9AB2     		uxth	r2, r3
 1789 0178 FB68     		ldr	r3, [r7, #12]
 1790 017a 5A85     		strh	r2, [r3, #42]	@ movhi
1108:Drivers/STM32F4xx_HAL_Driver/Src/stm32f4xx_hal_i2c.c ****         hi2c->XferSize--;
 1791              		.loc 1 1108 13
 1792 017c FB68     		ldr	r3, [r7, #12]
 1793 017e 1B8D     		ldrh	r3, [r3, #40]
 1794              		.loc 1 1108 23
 1795 0180 013B     		subs	r3, r3, #1
 1796 0182 9AB2     		uxth	r2, r3
 1797 0184 FB68     		ldr	r3, [r7, #12]
 1798 0186 1A85     		strh	r2, [r3, #40]	@ movhi
 1799              	.L118:
1109:Drivers/STM32F4xx_HAL_Driver/Src/stm32f4xx_hal_i2c.c ****       }
1110:Drivers/STM32F4xx_HAL_Driver/Src/stm32f4xx_hal_i2c.c **** 
1111:Drivers/STM32F4xx_HAL_Driver/Src/stm32f4xx_hal_i2c.c ****       /* Wait until BTF flag is set */
1112:Drivers/STM32F4xx_HAL_Driver/Src/stm32f4xx_hal_i2c.c ****       if (I2C_WaitOnBTFFlagUntilTimeout(hi2c, Timeout, tickstart) != HAL_OK)
 1800              		.loc 1 1112 11
 1801 0188 7A69     		ldr	r2, [r7, #20]
 1802 018a 396A     		ldr	r1, [r7, #32]
 1803 018c F868     		ldr	r0, [r7, #12]
 1804 018e FFF7FEFF 		bl	I2C_WaitOnBTFFlagUntilTimeout
 1805 0192 0346     		mov	r3, r0
 1806              		.loc 1 1112 10
 1807 0194 002B     		cmp	r3, #0
 1808 0196 0DD0     		beq	.L115
ARM GAS  /tmp/ccC4l07N.s 			page 52


1113:Drivers/STM32F4xx_HAL_Driver/Src/stm32f4xx_hal_i2c.c ****       {
1114:Drivers/STM32F4xx_HAL_Driver/Src/stm32f4xx_hal_i2c.c ****         if (hi2c->ErrorCode == HAL_I2C_ERROR_AF)
 1809              		.loc 1 1114 17
 1810 0198 FB68     		ldr	r3, [r7, #12]
 1811 019a 1B6C     		ldr	r3, [r3, #64]
 1812              		.loc 1 1114 12
 1813 019c 042B     		cmp	r3, #4
 1814 019e 07D1     		bne	.L119
1115:Drivers/STM32F4xx_HAL_Driver/Src/stm32f4xx_hal_i2c.c ****         {
1116:Drivers/STM32F4xx_HAL_Driver/Src/stm32f4xx_hal_i2c.c ****           /* Generate Stop */
1117:Drivers/STM32F4xx_HAL_Driver/Src/stm32f4xx_hal_i2c.c ****           SET_BIT(hi2c->Instance->CR1, I2C_CR1_STOP);
 1815              		.loc 1 1117 11
 1816 01a0 FB68     		ldr	r3, [r7, #12]
 1817 01a2 1B68     		ldr	r3, [r3]
 1818 01a4 1A68     		ldr	r2, [r3]
 1819 01a6 FB68     		ldr	r3, [r7, #12]
 1820 01a8 1B68     		ldr	r3, [r3]
 1821 01aa 42F40072 		orr	r2, r2, #512
 1822 01ae 1A60     		str	r2, [r3]
 1823              	.L119:
1118:Drivers/STM32F4xx_HAL_Driver/Src/stm32f4xx_hal_i2c.c ****         }
1119:Drivers/STM32F4xx_HAL_Driver/Src/stm32f4xx_hal_i2c.c ****         return HAL_ERROR;
 1824              		.loc 1 1119 16
 1825 01b0 0123     		movs	r3, #1
 1826 01b2 1AE0     		b	.L111
 1827              	.L115:
1075:Drivers/STM32F4xx_HAL_Driver/Src/stm32f4xx_hal_i2c.c ****     {
 1828              		.loc 1 1075 16
 1829 01b4 FB68     		ldr	r3, [r7, #12]
 1830 01b6 1B8D     		ldrh	r3, [r3, #40]
1075:Drivers/STM32F4xx_HAL_Driver/Src/stm32f4xx_hal_i2c.c ****     {
 1831              		.loc 1 1075 11
 1832 01b8 002B     		cmp	r3, #0
 1833 01ba 94D1     		bne	.L120
1120:Drivers/STM32F4xx_HAL_Driver/Src/stm32f4xx_hal_i2c.c ****       }
1121:Drivers/STM32F4xx_HAL_Driver/Src/stm32f4xx_hal_i2c.c ****     }
1122:Drivers/STM32F4xx_HAL_Driver/Src/stm32f4xx_hal_i2c.c **** 
1123:Drivers/STM32F4xx_HAL_Driver/Src/stm32f4xx_hal_i2c.c ****     /* Generate Stop */
1124:Drivers/STM32F4xx_HAL_Driver/Src/stm32f4xx_hal_i2c.c ****     SET_BIT(hi2c->Instance->CR1, I2C_CR1_STOP);
 1834              		.loc 1 1124 5
 1835 01bc FB68     		ldr	r3, [r7, #12]
 1836 01be 1B68     		ldr	r3, [r3]
 1837 01c0 1A68     		ldr	r2, [r3]
 1838 01c2 FB68     		ldr	r3, [r7, #12]
 1839 01c4 1B68     		ldr	r3, [r3]
 1840 01c6 42F40072 		orr	r2, r2, #512
 1841 01ca 1A60     		str	r2, [r3]
1125:Drivers/STM32F4xx_HAL_Driver/Src/stm32f4xx_hal_i2c.c **** 
1126:Drivers/STM32F4xx_HAL_Driver/Src/stm32f4xx_hal_i2c.c ****     hi2c->State = HAL_I2C_STATE_READY;
 1842              		.loc 1 1126 17
 1843 01cc FB68     		ldr	r3, [r7, #12]
 1844 01ce 2022     		movs	r2, #32
 1845 01d0 83F83D20 		strb	r2, [r3, #61]
1127:Drivers/STM32F4xx_HAL_Driver/Src/stm32f4xx_hal_i2c.c ****     hi2c->Mode = HAL_I2C_MODE_NONE;
 1846              		.loc 1 1127 16
 1847 01d4 FB68     		ldr	r3, [r7, #12]
 1848 01d6 0022     		movs	r2, #0
ARM GAS  /tmp/ccC4l07N.s 			page 53


 1849 01d8 83F83E20 		strb	r2, [r3, #62]
1128:Drivers/STM32F4xx_HAL_Driver/Src/stm32f4xx_hal_i2c.c **** 
1129:Drivers/STM32F4xx_HAL_Driver/Src/stm32f4xx_hal_i2c.c ****     /* Process Unlocked */
1130:Drivers/STM32F4xx_HAL_Driver/Src/stm32f4xx_hal_i2c.c ****     __HAL_UNLOCK(hi2c);
 1850              		.loc 1 1130 5
 1851 01dc FB68     		ldr	r3, [r7, #12]
 1852 01de 0022     		movs	r2, #0
 1853 01e0 83F83C20 		strb	r2, [r3, #60]
1131:Drivers/STM32F4xx_HAL_Driver/Src/stm32f4xx_hal_i2c.c **** 
1132:Drivers/STM32F4xx_HAL_Driver/Src/stm32f4xx_hal_i2c.c ****     return HAL_OK;
 1854              		.loc 1 1132 12
 1855 01e4 0023     		movs	r3, #0
 1856 01e6 00E0     		b	.L111
 1857              	.L109:
1133:Drivers/STM32F4xx_HAL_Driver/Src/stm32f4xx_hal_i2c.c ****   }
1134:Drivers/STM32F4xx_HAL_Driver/Src/stm32f4xx_hal_i2c.c ****   else
1135:Drivers/STM32F4xx_HAL_Driver/Src/stm32f4xx_hal_i2c.c ****   {
1136:Drivers/STM32F4xx_HAL_Driver/Src/stm32f4xx_hal_i2c.c ****     return HAL_BUSY;
 1858              		.loc 1 1136 12
 1859 01e8 0223     		movs	r3, #2
 1860              	.L111:
1137:Drivers/STM32F4xx_HAL_Driver/Src/stm32f4xx_hal_i2c.c ****   }
1138:Drivers/STM32F4xx_HAL_Driver/Src/stm32f4xx_hal_i2c.c **** }
 1861              		.loc 1 1138 1
 1862 01ea 1846     		mov	r0, r3
 1863 01ec 1837     		adds	r7, r7, #24
 1864              	.LCFI49:
 1865              		.cfi_def_cfa_offset 8
 1866 01ee BD46     		mov	sp, r7
 1867              	.LCFI50:
 1868              		.cfi_def_cfa_register 13
 1869              		@ sp needed
 1870 01f0 80BD     		pop	{r7, pc}
 1871              	.L122:
 1872 01f2 00BF     		.align	2
 1873              	.L121:
 1874 01f4 02001000 		.word	1048578
 1875 01f8 0000FFFF 		.word	-65536
 1876              		.cfi_endproc
 1877              	.LFE138:
 1879              		.section	.text.HAL_I2C_Master_Receive,"ax",%progbits
 1880              		.align	1
 1881              		.global	HAL_I2C_Master_Receive
 1882              		.syntax unified
 1883              		.thumb
 1884              		.thumb_func
 1885              		.fpu fpv4-sp-d16
 1887              	HAL_I2C_Master_Receive:
 1888              	.LFB139:
1139:Drivers/STM32F4xx_HAL_Driver/Src/stm32f4xx_hal_i2c.c **** 
1140:Drivers/STM32F4xx_HAL_Driver/Src/stm32f4xx_hal_i2c.c **** /**
1141:Drivers/STM32F4xx_HAL_Driver/Src/stm32f4xx_hal_i2c.c ****   * @brief  Receives in master mode an amount of data in blocking mode.
1142:Drivers/STM32F4xx_HAL_Driver/Src/stm32f4xx_hal_i2c.c ****   * @param  hi2c Pointer to a I2C_HandleTypeDef structure that contains
1143:Drivers/STM32F4xx_HAL_Driver/Src/stm32f4xx_hal_i2c.c ****   *                the configuration information for the specified I2C.
1144:Drivers/STM32F4xx_HAL_Driver/Src/stm32f4xx_hal_i2c.c ****   * @param  DevAddress Target device address: The device 7 bits address value
1145:Drivers/STM32F4xx_HAL_Driver/Src/stm32f4xx_hal_i2c.c ****   *         in datasheet must be shifted to the left before calling the interface
1146:Drivers/STM32F4xx_HAL_Driver/Src/stm32f4xx_hal_i2c.c ****   * @param  pData Pointer to data buffer
ARM GAS  /tmp/ccC4l07N.s 			page 54


1147:Drivers/STM32F4xx_HAL_Driver/Src/stm32f4xx_hal_i2c.c ****   * @param  Size Amount of data to be sent
1148:Drivers/STM32F4xx_HAL_Driver/Src/stm32f4xx_hal_i2c.c ****   * @param  Timeout Timeout duration
1149:Drivers/STM32F4xx_HAL_Driver/Src/stm32f4xx_hal_i2c.c ****   * @retval HAL status
1150:Drivers/STM32F4xx_HAL_Driver/Src/stm32f4xx_hal_i2c.c ****   */
1151:Drivers/STM32F4xx_HAL_Driver/Src/stm32f4xx_hal_i2c.c **** HAL_StatusTypeDef HAL_I2C_Master_Receive(I2C_HandleTypeDef *hi2c, uint16_t DevAddress, uint8_t *pDa
1152:Drivers/STM32F4xx_HAL_Driver/Src/stm32f4xx_hal_i2c.c **** {
 1889              		.loc 1 1152 1
 1890              		.cfi_startproc
 1891              		@ args = 4, pretend = 0, frame = 40
 1892              		@ frame_needed = 1, uses_anonymous_args = 0
 1893 0000 80B5     		push	{r7, lr}
 1894              	.LCFI51:
 1895              		.cfi_def_cfa_offset 8
 1896              		.cfi_offset 7, -8
 1897              		.cfi_offset 14, -4
 1898 0002 8CB0     		sub	sp, sp, #48
 1899              	.LCFI52:
 1900              		.cfi_def_cfa_offset 56
 1901 0004 02AF     		add	r7, sp, #8
 1902              	.LCFI53:
 1903              		.cfi_def_cfa 7, 48
 1904 0006 F860     		str	r0, [r7, #12]
 1905 0008 7A60     		str	r2, [r7, #4]
 1906 000a 1A46     		mov	r2, r3
 1907 000c 0B46     		mov	r3, r1	@ movhi
 1908 000e 7B81     		strh	r3, [r7, #10]	@ movhi
 1909 0010 1346     		mov	r3, r2	@ movhi
 1910 0012 3B81     		strh	r3, [r7, #8]	@ movhi
1153:Drivers/STM32F4xx_HAL_Driver/Src/stm32f4xx_hal_i2c.c ****   /* Init tickstart for timeout management*/
1154:Drivers/STM32F4xx_HAL_Driver/Src/stm32f4xx_hal_i2c.c ****   uint32_t tickstart = HAL_GetTick();
 1911              		.loc 1 1154 24
 1912 0014 FFF7FEFF 		bl	HAL_GetTick
 1913 0018 7862     		str	r0, [r7, #36]
1155:Drivers/STM32F4xx_HAL_Driver/Src/stm32f4xx_hal_i2c.c **** 
1156:Drivers/STM32F4xx_HAL_Driver/Src/stm32f4xx_hal_i2c.c ****   if (hi2c->State == HAL_I2C_STATE_READY)
 1914              		.loc 1 1156 11
 1915 001a FB68     		ldr	r3, [r7, #12]
 1916 001c 93F83D30 		ldrb	r3, [r3, #61]
 1917 0020 DBB2     		uxtb	r3, r3
 1918              		.loc 1 1156 6
 1919 0022 202B     		cmp	r3, #32
 1920 0024 40F00B82 		bne	.L124
1157:Drivers/STM32F4xx_HAL_Driver/Src/stm32f4xx_hal_i2c.c ****   {
1158:Drivers/STM32F4xx_HAL_Driver/Src/stm32f4xx_hal_i2c.c ****     /* Wait until BUSY flag is reset */
1159:Drivers/STM32F4xx_HAL_Driver/Src/stm32f4xx_hal_i2c.c ****     if (I2C_WaitOnFlagUntilTimeout(hi2c, I2C_FLAG_BUSY, SET, I2C_TIMEOUT_BUSY_FLAG, tickstart) != H
 1921              		.loc 1 1159 9
 1922 0028 7B6A     		ldr	r3, [r7, #36]
 1923 002a 0093     		str	r3, [sp]
 1924 002c 1923     		movs	r3, #25
 1925 002e 0122     		movs	r2, #1
 1926 0030 7C49     		ldr	r1, .L144
 1927 0032 F868     		ldr	r0, [r7, #12]
 1928 0034 FFF7FEFF 		bl	I2C_WaitOnFlagUntilTimeout
 1929 0038 0346     		mov	r3, r0
 1930              		.loc 1 1159 8
 1931 003a 002B     		cmp	r3, #0
 1932 003c 01D0     		beq	.L125
ARM GAS  /tmp/ccC4l07N.s 			page 55


1160:Drivers/STM32F4xx_HAL_Driver/Src/stm32f4xx_hal_i2c.c ****     {
1161:Drivers/STM32F4xx_HAL_Driver/Src/stm32f4xx_hal_i2c.c ****       return HAL_BUSY;
 1933              		.loc 1 1161 14
 1934 003e 0223     		movs	r3, #2
 1935 0040 FEE1     		b	.L126
 1936              	.L125:
1162:Drivers/STM32F4xx_HAL_Driver/Src/stm32f4xx_hal_i2c.c ****     }
1163:Drivers/STM32F4xx_HAL_Driver/Src/stm32f4xx_hal_i2c.c **** 
1164:Drivers/STM32F4xx_HAL_Driver/Src/stm32f4xx_hal_i2c.c ****     /* Process Locked */
1165:Drivers/STM32F4xx_HAL_Driver/Src/stm32f4xx_hal_i2c.c ****     __HAL_LOCK(hi2c);
 1937              		.loc 1 1165 5
 1938 0042 FB68     		ldr	r3, [r7, #12]
 1939 0044 93F83C30 		ldrb	r3, [r3, #60]	@ zero_extendqisi2
 1940 0048 012B     		cmp	r3, #1
 1941 004a 01D1     		bne	.L127
 1942              		.loc 1 1165 5 is_stmt 0 discriminator 1
 1943 004c 0223     		movs	r3, #2
 1944 004e F7E1     		b	.L126
 1945              	.L127:
 1946              		.loc 1 1165 5 discriminator 2
 1947 0050 FB68     		ldr	r3, [r7, #12]
 1948 0052 0122     		movs	r2, #1
 1949 0054 83F83C20 		strb	r2, [r3, #60]
1166:Drivers/STM32F4xx_HAL_Driver/Src/stm32f4xx_hal_i2c.c **** 
1167:Drivers/STM32F4xx_HAL_Driver/Src/stm32f4xx_hal_i2c.c ****     /* Check if the I2C is already enabled */
1168:Drivers/STM32F4xx_HAL_Driver/Src/stm32f4xx_hal_i2c.c ****     if ((hi2c->Instance->CR1 & I2C_CR1_PE) != I2C_CR1_PE)
 1950              		.loc 1 1168 14 is_stmt 1 discriminator 2
 1951 0058 FB68     		ldr	r3, [r7, #12]
 1952 005a 1B68     		ldr	r3, [r3]
 1953              		.loc 1 1168 24 discriminator 2
 1954 005c 1B68     		ldr	r3, [r3]
 1955              		.loc 1 1168 30 discriminator 2
 1956 005e 03F00103 		and	r3, r3, #1
 1957              		.loc 1 1168 8 discriminator 2
 1958 0062 012B     		cmp	r3, #1
 1959 0064 07D0     		beq	.L128
1169:Drivers/STM32F4xx_HAL_Driver/Src/stm32f4xx_hal_i2c.c ****     {
1170:Drivers/STM32F4xx_HAL_Driver/Src/stm32f4xx_hal_i2c.c ****       /* Enable I2C peripheral */
1171:Drivers/STM32F4xx_HAL_Driver/Src/stm32f4xx_hal_i2c.c ****       __HAL_I2C_ENABLE(hi2c);
 1960              		.loc 1 1171 7
 1961 0066 FB68     		ldr	r3, [r7, #12]
 1962 0068 1B68     		ldr	r3, [r3]
 1963 006a 1A68     		ldr	r2, [r3]
 1964 006c FB68     		ldr	r3, [r7, #12]
 1965 006e 1B68     		ldr	r3, [r3]
 1966 0070 42F00102 		orr	r2, r2, #1
 1967 0074 1A60     		str	r2, [r3]
 1968              	.L128:
1172:Drivers/STM32F4xx_HAL_Driver/Src/stm32f4xx_hal_i2c.c ****     }
1173:Drivers/STM32F4xx_HAL_Driver/Src/stm32f4xx_hal_i2c.c **** 
1174:Drivers/STM32F4xx_HAL_Driver/Src/stm32f4xx_hal_i2c.c ****     /* Disable Pos */
1175:Drivers/STM32F4xx_HAL_Driver/Src/stm32f4xx_hal_i2c.c ****     CLEAR_BIT(hi2c->Instance->CR1, I2C_CR1_POS);
 1969              		.loc 1 1175 5
 1970 0076 FB68     		ldr	r3, [r7, #12]
 1971 0078 1B68     		ldr	r3, [r3]
 1972 007a 1A68     		ldr	r2, [r3]
 1973 007c FB68     		ldr	r3, [r7, #12]
ARM GAS  /tmp/ccC4l07N.s 			page 56


 1974 007e 1B68     		ldr	r3, [r3]
 1975 0080 22F40062 		bic	r2, r2, #2048
 1976 0084 1A60     		str	r2, [r3]
1176:Drivers/STM32F4xx_HAL_Driver/Src/stm32f4xx_hal_i2c.c **** 
1177:Drivers/STM32F4xx_HAL_Driver/Src/stm32f4xx_hal_i2c.c ****     hi2c->State       = HAL_I2C_STATE_BUSY_RX;
 1977              		.loc 1 1177 23
 1978 0086 FB68     		ldr	r3, [r7, #12]
 1979 0088 2222     		movs	r2, #34
 1980 008a 83F83D20 		strb	r2, [r3, #61]
1178:Drivers/STM32F4xx_HAL_Driver/Src/stm32f4xx_hal_i2c.c ****     hi2c->Mode        = HAL_I2C_MODE_MASTER;
 1981              		.loc 1 1178 23
 1982 008e FB68     		ldr	r3, [r7, #12]
 1983 0090 1022     		movs	r2, #16
 1984 0092 83F83E20 		strb	r2, [r3, #62]
1179:Drivers/STM32F4xx_HAL_Driver/Src/stm32f4xx_hal_i2c.c ****     hi2c->ErrorCode   = HAL_I2C_ERROR_NONE;
 1985              		.loc 1 1179 23
 1986 0096 FB68     		ldr	r3, [r7, #12]
 1987 0098 0022     		movs	r2, #0
 1988 009a 1A64     		str	r2, [r3, #64]
1180:Drivers/STM32F4xx_HAL_Driver/Src/stm32f4xx_hal_i2c.c **** 
1181:Drivers/STM32F4xx_HAL_Driver/Src/stm32f4xx_hal_i2c.c ****     /* Prepare transfer parameters */
1182:Drivers/STM32F4xx_HAL_Driver/Src/stm32f4xx_hal_i2c.c ****     hi2c->pBuffPtr    = pData;
 1989              		.loc 1 1182 23
 1990 009c FB68     		ldr	r3, [r7, #12]
 1991 009e 7A68     		ldr	r2, [r7, #4]
 1992 00a0 5A62     		str	r2, [r3, #36]
1183:Drivers/STM32F4xx_HAL_Driver/Src/stm32f4xx_hal_i2c.c ****     hi2c->XferCount   = Size;
 1993              		.loc 1 1183 23
 1994 00a2 FB68     		ldr	r3, [r7, #12]
 1995 00a4 3A89     		ldrh	r2, [r7, #8]	@ movhi
 1996 00a6 5A85     		strh	r2, [r3, #42]	@ movhi
1184:Drivers/STM32F4xx_HAL_Driver/Src/stm32f4xx_hal_i2c.c ****     hi2c->XferSize    = hi2c->XferCount;
 1997              		.loc 1 1184 29
 1998 00a8 FB68     		ldr	r3, [r7, #12]
 1999 00aa 5B8D     		ldrh	r3, [r3, #42]	@ movhi
 2000 00ac 9AB2     		uxth	r2, r3
 2001              		.loc 1 1184 23
 2002 00ae FB68     		ldr	r3, [r7, #12]
 2003 00b0 1A85     		strh	r2, [r3, #40]	@ movhi
1185:Drivers/STM32F4xx_HAL_Driver/Src/stm32f4xx_hal_i2c.c ****     hi2c->XferOptions = I2C_NO_OPTION_FRAME;
 2004              		.loc 1 1185 23
 2005 00b2 FB68     		ldr	r3, [r7, #12]
 2006 00b4 5C4A     		ldr	r2, .L144+4
 2007 00b6 DA62     		str	r2, [r3, #44]
1186:Drivers/STM32F4xx_HAL_Driver/Src/stm32f4xx_hal_i2c.c **** 
1187:Drivers/STM32F4xx_HAL_Driver/Src/stm32f4xx_hal_i2c.c ****     /* Send Slave Address */
1188:Drivers/STM32F4xx_HAL_Driver/Src/stm32f4xx_hal_i2c.c ****     if (I2C_MasterRequestRead(hi2c, DevAddress, Timeout, tickstart) != HAL_OK)
 2008              		.loc 1 1188 9
 2009 00b8 7989     		ldrh	r1, [r7, #10]
 2010 00ba 7B6A     		ldr	r3, [r7, #36]
 2011 00bc 3A6B     		ldr	r2, [r7, #48]
 2012 00be F868     		ldr	r0, [r7, #12]
 2013 00c0 FFF7FEFF 		bl	I2C_MasterRequestRead
 2014 00c4 0346     		mov	r3, r0
 2015              		.loc 1 1188 8
 2016 00c6 002B     		cmp	r3, #0
 2017 00c8 01D0     		beq	.L129
ARM GAS  /tmp/ccC4l07N.s 			page 57


1189:Drivers/STM32F4xx_HAL_Driver/Src/stm32f4xx_hal_i2c.c ****     {
1190:Drivers/STM32F4xx_HAL_Driver/Src/stm32f4xx_hal_i2c.c ****       return HAL_ERROR;
 2018              		.loc 1 1190 14
 2019 00ca 0123     		movs	r3, #1
 2020 00cc B8E1     		b	.L126
 2021              	.L129:
1191:Drivers/STM32F4xx_HAL_Driver/Src/stm32f4xx_hal_i2c.c ****     }
1192:Drivers/STM32F4xx_HAL_Driver/Src/stm32f4xx_hal_i2c.c **** 
1193:Drivers/STM32F4xx_HAL_Driver/Src/stm32f4xx_hal_i2c.c ****     if (hi2c->XferSize == 0U)
 2022              		.loc 1 1193 13
 2023 00ce FB68     		ldr	r3, [r7, #12]
 2024 00d0 1B8D     		ldrh	r3, [r3, #40]
 2025              		.loc 1 1193 8
 2026 00d2 002B     		cmp	r3, #0
 2027 00d4 13D1     		bne	.L130
 2028              	.LBB3:
1194:Drivers/STM32F4xx_HAL_Driver/Src/stm32f4xx_hal_i2c.c ****     {
1195:Drivers/STM32F4xx_HAL_Driver/Src/stm32f4xx_hal_i2c.c ****       /* Clear ADDR flag */
1196:Drivers/STM32F4xx_HAL_Driver/Src/stm32f4xx_hal_i2c.c ****       __HAL_I2C_CLEAR_ADDRFLAG(hi2c);
 2029              		.loc 1 1196 7
 2030 00d6 0023     		movs	r3, #0
 2031 00d8 3B62     		str	r3, [r7, #32]
 2032 00da FB68     		ldr	r3, [r7, #12]
 2033 00dc 1B68     		ldr	r3, [r3]
 2034 00de 5B69     		ldr	r3, [r3, #20]
 2035 00e0 3B62     		str	r3, [r7, #32]
 2036 00e2 FB68     		ldr	r3, [r7, #12]
 2037 00e4 1B68     		ldr	r3, [r3]
 2038 00e6 9B69     		ldr	r3, [r3, #24]
 2039 00e8 3B62     		str	r3, [r7, #32]
 2040 00ea 3B6A     		ldr	r3, [r7, #32]
 2041              	.LBE3:
1197:Drivers/STM32F4xx_HAL_Driver/Src/stm32f4xx_hal_i2c.c **** 
1198:Drivers/STM32F4xx_HAL_Driver/Src/stm32f4xx_hal_i2c.c ****       /* Generate Stop */
1199:Drivers/STM32F4xx_HAL_Driver/Src/stm32f4xx_hal_i2c.c ****       SET_BIT(hi2c->Instance->CR1, I2C_CR1_STOP);
 2042              		.loc 1 1199 7
 2043 00ec FB68     		ldr	r3, [r7, #12]
 2044 00ee 1B68     		ldr	r3, [r3]
 2045 00f0 1A68     		ldr	r2, [r3]
 2046 00f2 FB68     		ldr	r3, [r7, #12]
 2047 00f4 1B68     		ldr	r3, [r3]
 2048 00f6 42F40072 		orr	r2, r2, #512
 2049 00fa 1A60     		str	r2, [r3]
 2050 00fc 8CE1     		b	.L134
 2051              	.L130:
1200:Drivers/STM32F4xx_HAL_Driver/Src/stm32f4xx_hal_i2c.c ****     }
1201:Drivers/STM32F4xx_HAL_Driver/Src/stm32f4xx_hal_i2c.c ****     else if (hi2c->XferSize == 1U)
 2052              		.loc 1 1201 18
 2053 00fe FB68     		ldr	r3, [r7, #12]
 2054 0100 1B8D     		ldrh	r3, [r3, #40]
 2055              		.loc 1 1201 13
 2056 0102 012B     		cmp	r3, #1
 2057 0104 1BD1     		bne	.L132
1202:Drivers/STM32F4xx_HAL_Driver/Src/stm32f4xx_hal_i2c.c ****     {
1203:Drivers/STM32F4xx_HAL_Driver/Src/stm32f4xx_hal_i2c.c ****       /* Disable Acknowledge */
1204:Drivers/STM32F4xx_HAL_Driver/Src/stm32f4xx_hal_i2c.c ****       CLEAR_BIT(hi2c->Instance->CR1, I2C_CR1_ACK);
 2058              		.loc 1 1204 7
ARM GAS  /tmp/ccC4l07N.s 			page 58


 2059 0106 FB68     		ldr	r3, [r7, #12]
 2060 0108 1B68     		ldr	r3, [r3]
 2061 010a 1A68     		ldr	r2, [r3]
 2062 010c FB68     		ldr	r3, [r7, #12]
 2063 010e 1B68     		ldr	r3, [r3]
 2064 0110 22F48062 		bic	r2, r2, #1024
 2065 0114 1A60     		str	r2, [r3]
 2066              	.LBB4:
1205:Drivers/STM32F4xx_HAL_Driver/Src/stm32f4xx_hal_i2c.c **** 
1206:Drivers/STM32F4xx_HAL_Driver/Src/stm32f4xx_hal_i2c.c ****       /* Clear ADDR flag */
1207:Drivers/STM32F4xx_HAL_Driver/Src/stm32f4xx_hal_i2c.c ****       __HAL_I2C_CLEAR_ADDRFLAG(hi2c);
 2067              		.loc 1 1207 7
 2068 0116 0023     		movs	r3, #0
 2069 0118 FB61     		str	r3, [r7, #28]
 2070 011a FB68     		ldr	r3, [r7, #12]
 2071 011c 1B68     		ldr	r3, [r3]
 2072 011e 5B69     		ldr	r3, [r3, #20]
 2073 0120 FB61     		str	r3, [r7, #28]
 2074 0122 FB68     		ldr	r3, [r7, #12]
 2075 0124 1B68     		ldr	r3, [r3]
 2076 0126 9B69     		ldr	r3, [r3, #24]
 2077 0128 FB61     		str	r3, [r7, #28]
 2078 012a FB69     		ldr	r3, [r7, #28]
 2079              	.LBE4:
1208:Drivers/STM32F4xx_HAL_Driver/Src/stm32f4xx_hal_i2c.c **** 
1209:Drivers/STM32F4xx_HAL_Driver/Src/stm32f4xx_hal_i2c.c ****       /* Generate Stop */
1210:Drivers/STM32F4xx_HAL_Driver/Src/stm32f4xx_hal_i2c.c ****       SET_BIT(hi2c->Instance->CR1, I2C_CR1_STOP);
 2080              		.loc 1 1210 7
 2081 012c FB68     		ldr	r3, [r7, #12]
 2082 012e 1B68     		ldr	r3, [r3]
 2083 0130 1A68     		ldr	r2, [r3]
 2084 0132 FB68     		ldr	r3, [r7, #12]
 2085 0134 1B68     		ldr	r3, [r3]
 2086 0136 42F40072 		orr	r2, r2, #512
 2087 013a 1A60     		str	r2, [r3]
 2088 013c 6CE1     		b	.L134
 2089              	.L132:
1211:Drivers/STM32F4xx_HAL_Driver/Src/stm32f4xx_hal_i2c.c ****     }
1212:Drivers/STM32F4xx_HAL_Driver/Src/stm32f4xx_hal_i2c.c ****     else if (hi2c->XferSize == 2U)
 2090              		.loc 1 1212 18
 2091 013e FB68     		ldr	r3, [r7, #12]
 2092 0140 1B8D     		ldrh	r3, [r3, #40]
 2093              		.loc 1 1212 13
 2094 0142 022B     		cmp	r3, #2
 2095 0144 1BD1     		bne	.L133
1213:Drivers/STM32F4xx_HAL_Driver/Src/stm32f4xx_hal_i2c.c ****     {
1214:Drivers/STM32F4xx_HAL_Driver/Src/stm32f4xx_hal_i2c.c ****       /* Disable Acknowledge */
1215:Drivers/STM32F4xx_HAL_Driver/Src/stm32f4xx_hal_i2c.c ****       CLEAR_BIT(hi2c->Instance->CR1, I2C_CR1_ACK);
 2096              		.loc 1 1215 7
 2097 0146 FB68     		ldr	r3, [r7, #12]
 2098 0148 1B68     		ldr	r3, [r3]
 2099 014a 1A68     		ldr	r2, [r3]
 2100 014c FB68     		ldr	r3, [r7, #12]
 2101 014e 1B68     		ldr	r3, [r3]
 2102 0150 22F48062 		bic	r2, r2, #1024
 2103 0154 1A60     		str	r2, [r3]
1216:Drivers/STM32F4xx_HAL_Driver/Src/stm32f4xx_hal_i2c.c **** 
ARM GAS  /tmp/ccC4l07N.s 			page 59


1217:Drivers/STM32F4xx_HAL_Driver/Src/stm32f4xx_hal_i2c.c ****       /* Enable Pos */
1218:Drivers/STM32F4xx_HAL_Driver/Src/stm32f4xx_hal_i2c.c ****       SET_BIT(hi2c->Instance->CR1, I2C_CR1_POS);
 2104              		.loc 1 1218 7
 2105 0156 FB68     		ldr	r3, [r7, #12]
 2106 0158 1B68     		ldr	r3, [r3]
 2107 015a 1A68     		ldr	r2, [r3]
 2108 015c FB68     		ldr	r3, [r7, #12]
 2109 015e 1B68     		ldr	r3, [r3]
 2110 0160 42F40062 		orr	r2, r2, #2048
 2111 0164 1A60     		str	r2, [r3]
 2112              	.LBB5:
1219:Drivers/STM32F4xx_HAL_Driver/Src/stm32f4xx_hal_i2c.c **** 
1220:Drivers/STM32F4xx_HAL_Driver/Src/stm32f4xx_hal_i2c.c ****       /* Clear ADDR flag */
1221:Drivers/STM32F4xx_HAL_Driver/Src/stm32f4xx_hal_i2c.c ****       __HAL_I2C_CLEAR_ADDRFLAG(hi2c);
 2113              		.loc 1 1221 7
 2114 0166 0023     		movs	r3, #0
 2115 0168 BB61     		str	r3, [r7, #24]
 2116 016a FB68     		ldr	r3, [r7, #12]
 2117 016c 1B68     		ldr	r3, [r3]
 2118 016e 5B69     		ldr	r3, [r3, #20]
 2119 0170 BB61     		str	r3, [r7, #24]
 2120 0172 FB68     		ldr	r3, [r7, #12]
 2121 0174 1B68     		ldr	r3, [r3]
 2122 0176 9B69     		ldr	r3, [r3, #24]
 2123 0178 BB61     		str	r3, [r7, #24]
 2124 017a BB69     		ldr	r3, [r7, #24]
 2125              	.LBE5:
 2126 017c 4CE1     		b	.L134
 2127              	.L133:
1222:Drivers/STM32F4xx_HAL_Driver/Src/stm32f4xx_hal_i2c.c ****     }
1223:Drivers/STM32F4xx_HAL_Driver/Src/stm32f4xx_hal_i2c.c ****     else
1224:Drivers/STM32F4xx_HAL_Driver/Src/stm32f4xx_hal_i2c.c ****     {
1225:Drivers/STM32F4xx_HAL_Driver/Src/stm32f4xx_hal_i2c.c ****       /* Enable Acknowledge */
1226:Drivers/STM32F4xx_HAL_Driver/Src/stm32f4xx_hal_i2c.c ****       SET_BIT(hi2c->Instance->CR1, I2C_CR1_ACK);
 2128              		.loc 1 1226 7
 2129 017e FB68     		ldr	r3, [r7, #12]
 2130 0180 1B68     		ldr	r3, [r3]
 2131 0182 1A68     		ldr	r2, [r3]
 2132 0184 FB68     		ldr	r3, [r7, #12]
 2133 0186 1B68     		ldr	r3, [r3]
 2134 0188 42F48062 		orr	r2, r2, #1024
 2135 018c 1A60     		str	r2, [r3]
 2136              	.LBB6:
1227:Drivers/STM32F4xx_HAL_Driver/Src/stm32f4xx_hal_i2c.c **** 
1228:Drivers/STM32F4xx_HAL_Driver/Src/stm32f4xx_hal_i2c.c ****       /* Clear ADDR flag */
1229:Drivers/STM32F4xx_HAL_Driver/Src/stm32f4xx_hal_i2c.c ****       __HAL_I2C_CLEAR_ADDRFLAG(hi2c);
 2137              		.loc 1 1229 7
 2138 018e 0023     		movs	r3, #0
 2139 0190 7B61     		str	r3, [r7, #20]
 2140 0192 FB68     		ldr	r3, [r7, #12]
 2141 0194 1B68     		ldr	r3, [r3]
 2142 0196 5B69     		ldr	r3, [r3, #20]
 2143 0198 7B61     		str	r3, [r7, #20]
 2144 019a FB68     		ldr	r3, [r7, #12]
 2145 019c 1B68     		ldr	r3, [r3]
 2146 019e 9B69     		ldr	r3, [r3, #24]
 2147 01a0 7B61     		str	r3, [r7, #20]
ARM GAS  /tmp/ccC4l07N.s 			page 60


 2148 01a2 7B69     		ldr	r3, [r7, #20]
 2149              	.LBE6:
1230:Drivers/STM32F4xx_HAL_Driver/Src/stm32f4xx_hal_i2c.c ****     }
1231:Drivers/STM32F4xx_HAL_Driver/Src/stm32f4xx_hal_i2c.c **** 
1232:Drivers/STM32F4xx_HAL_Driver/Src/stm32f4xx_hal_i2c.c ****     while (hi2c->XferSize > 0U)
 2150              		.loc 1 1232 11
 2151 01a4 38E1     		b	.L134
 2152              	.L143:
1233:Drivers/STM32F4xx_HAL_Driver/Src/stm32f4xx_hal_i2c.c ****     {
1234:Drivers/STM32F4xx_HAL_Driver/Src/stm32f4xx_hal_i2c.c ****       if (hi2c->XferSize <= 3U)
 2153              		.loc 1 1234 15
 2154 01a6 FB68     		ldr	r3, [r7, #12]
 2155 01a8 1B8D     		ldrh	r3, [r3, #40]
 2156              		.loc 1 1234 10
 2157 01aa 032B     		cmp	r3, #3
 2158 01ac 00F2F180 		bhi	.L135
1235:Drivers/STM32F4xx_HAL_Driver/Src/stm32f4xx_hal_i2c.c ****       {
1236:Drivers/STM32F4xx_HAL_Driver/Src/stm32f4xx_hal_i2c.c ****         /* One byte */
1237:Drivers/STM32F4xx_HAL_Driver/Src/stm32f4xx_hal_i2c.c ****         if (hi2c->XferSize == 1U)
 2159              		.loc 1 1237 17
 2160 01b0 FB68     		ldr	r3, [r7, #12]
 2161 01b2 1B8D     		ldrh	r3, [r3, #40]
 2162              		.loc 1 1237 12
 2163 01b4 012B     		cmp	r3, #1
 2164 01b6 23D1     		bne	.L136
1238:Drivers/STM32F4xx_HAL_Driver/Src/stm32f4xx_hal_i2c.c ****         {
1239:Drivers/STM32F4xx_HAL_Driver/Src/stm32f4xx_hal_i2c.c ****           /* Wait until RXNE flag is set */
1240:Drivers/STM32F4xx_HAL_Driver/Src/stm32f4xx_hal_i2c.c ****           if (I2C_WaitOnRXNEFlagUntilTimeout(hi2c, Timeout, tickstart) != HAL_OK)
 2165              		.loc 1 1240 15
 2166 01b8 7A6A     		ldr	r2, [r7, #36]
 2167 01ba 396B     		ldr	r1, [r7, #48]
 2168 01bc F868     		ldr	r0, [r7, #12]
 2169 01be FFF7FEFF 		bl	I2C_WaitOnRXNEFlagUntilTimeout
 2170 01c2 0346     		mov	r3, r0
 2171              		.loc 1 1240 14
 2172 01c4 002B     		cmp	r3, #0
 2173 01c6 01D0     		beq	.L137
1241:Drivers/STM32F4xx_HAL_Driver/Src/stm32f4xx_hal_i2c.c ****           {
1242:Drivers/STM32F4xx_HAL_Driver/Src/stm32f4xx_hal_i2c.c ****             return HAL_ERROR;
 2174              		.loc 1 1242 20
 2175 01c8 0123     		movs	r3, #1
 2176 01ca 39E1     		b	.L126
 2177              	.L137:
1243:Drivers/STM32F4xx_HAL_Driver/Src/stm32f4xx_hal_i2c.c ****           }
1244:Drivers/STM32F4xx_HAL_Driver/Src/stm32f4xx_hal_i2c.c **** 
1245:Drivers/STM32F4xx_HAL_Driver/Src/stm32f4xx_hal_i2c.c ****           /* Read data from DR */
1246:Drivers/STM32F4xx_HAL_Driver/Src/stm32f4xx_hal_i2c.c ****           *hi2c->pBuffPtr = (uint8_t)hi2c->Instance->DR;
 2178              		.loc 1 1246 42
 2179 01cc FB68     		ldr	r3, [r7, #12]
 2180 01ce 1B68     		ldr	r3, [r3]
 2181              		.loc 1 1246 52
 2182 01d0 1A69     		ldr	r2, [r3, #16]
 2183              		.loc 1 1246 16
 2184 01d2 FB68     		ldr	r3, [r7, #12]
 2185 01d4 5B6A     		ldr	r3, [r3, #36]
 2186              		.loc 1 1246 29
 2187 01d6 D2B2     		uxtb	r2, r2
ARM GAS  /tmp/ccC4l07N.s 			page 61


 2188              		.loc 1 1246 27
 2189 01d8 1A70     		strb	r2, [r3]
1247:Drivers/STM32F4xx_HAL_Driver/Src/stm32f4xx_hal_i2c.c **** 
1248:Drivers/STM32F4xx_HAL_Driver/Src/stm32f4xx_hal_i2c.c ****           /* Increment Buffer pointer */
1249:Drivers/STM32F4xx_HAL_Driver/Src/stm32f4xx_hal_i2c.c ****           hi2c->pBuffPtr++;
 2190              		.loc 1 1249 15
 2191 01da FB68     		ldr	r3, [r7, #12]
 2192 01dc 5B6A     		ldr	r3, [r3, #36]
 2193              		.loc 1 1249 25
 2194 01de 5A1C     		adds	r2, r3, #1
 2195 01e0 FB68     		ldr	r3, [r7, #12]
 2196 01e2 5A62     		str	r2, [r3, #36]
1250:Drivers/STM32F4xx_HAL_Driver/Src/stm32f4xx_hal_i2c.c **** 
1251:Drivers/STM32F4xx_HAL_Driver/Src/stm32f4xx_hal_i2c.c ****           /* Update counter */
1252:Drivers/STM32F4xx_HAL_Driver/Src/stm32f4xx_hal_i2c.c ****           hi2c->XferSize--;
 2197              		.loc 1 1252 15
 2198 01e4 FB68     		ldr	r3, [r7, #12]
 2199 01e6 1B8D     		ldrh	r3, [r3, #40]
 2200              		.loc 1 1252 25
 2201 01e8 013B     		subs	r3, r3, #1
 2202 01ea 9AB2     		uxth	r2, r3
 2203 01ec FB68     		ldr	r3, [r7, #12]
 2204 01ee 1A85     		strh	r2, [r3, #40]	@ movhi
1253:Drivers/STM32F4xx_HAL_Driver/Src/stm32f4xx_hal_i2c.c ****           hi2c->XferCount--;
 2205              		.loc 1 1253 15
 2206 01f0 FB68     		ldr	r3, [r7, #12]
 2207 01f2 5B8D     		ldrh	r3, [r3, #42]	@ movhi
 2208 01f4 9BB2     		uxth	r3, r3
 2209              		.loc 1 1253 26
 2210 01f6 013B     		subs	r3, r3, #1
 2211 01f8 9AB2     		uxth	r2, r3
 2212 01fa FB68     		ldr	r3, [r7, #12]
 2213 01fc 5A85     		strh	r2, [r3, #42]	@ movhi
 2214 01fe 0BE1     		b	.L134
 2215              	.L136:
1254:Drivers/STM32F4xx_HAL_Driver/Src/stm32f4xx_hal_i2c.c ****         }
1255:Drivers/STM32F4xx_HAL_Driver/Src/stm32f4xx_hal_i2c.c ****         /* Two bytes */
1256:Drivers/STM32F4xx_HAL_Driver/Src/stm32f4xx_hal_i2c.c ****         else if (hi2c->XferSize == 2U)
 2216              		.loc 1 1256 22
 2217 0200 FB68     		ldr	r3, [r7, #12]
 2218 0202 1B8D     		ldrh	r3, [r3, #40]
 2219              		.loc 1 1256 17
 2220 0204 022B     		cmp	r3, #2
 2221 0206 4ED1     		bne	.L138
1257:Drivers/STM32F4xx_HAL_Driver/Src/stm32f4xx_hal_i2c.c ****         {
1258:Drivers/STM32F4xx_HAL_Driver/Src/stm32f4xx_hal_i2c.c ****           /* Wait until BTF flag is set */
1259:Drivers/STM32F4xx_HAL_Driver/Src/stm32f4xx_hal_i2c.c ****           if (I2C_WaitOnFlagUntilTimeout(hi2c, I2C_FLAG_BTF, RESET, Timeout, tickstart) != HAL_OK)
 2222              		.loc 1 1259 15
 2223 0208 7B6A     		ldr	r3, [r7, #36]
 2224 020a 0093     		str	r3, [sp]
 2225 020c 3B6B     		ldr	r3, [r7, #48]
 2226 020e 0022     		movs	r2, #0
 2227 0210 0649     		ldr	r1, .L144+8
 2228 0212 F868     		ldr	r0, [r7, #12]
 2229 0214 FFF7FEFF 		bl	I2C_WaitOnFlagUntilTimeout
 2230 0218 0346     		mov	r3, r0
 2231              		.loc 1 1259 14
ARM GAS  /tmp/ccC4l07N.s 			page 62


 2232 021a 002B     		cmp	r3, #0
 2233 021c 08D0     		beq	.L139
1260:Drivers/STM32F4xx_HAL_Driver/Src/stm32f4xx_hal_i2c.c ****           {
1261:Drivers/STM32F4xx_HAL_Driver/Src/stm32f4xx_hal_i2c.c ****             return HAL_ERROR;
 2234              		.loc 1 1261 20
 2235 021e 0123     		movs	r3, #1
 2236 0220 0EE1     		b	.L126
 2237              	.L145:
 2238 0222 00BF     		.align	2
 2239              	.L144:
 2240 0224 02001000 		.word	1048578
 2241 0228 0000FFFF 		.word	-65536
 2242 022c 04000100 		.word	65540
 2243              	.L139:
1262:Drivers/STM32F4xx_HAL_Driver/Src/stm32f4xx_hal_i2c.c ****           }
1263:Drivers/STM32F4xx_HAL_Driver/Src/stm32f4xx_hal_i2c.c **** 
1264:Drivers/STM32F4xx_HAL_Driver/Src/stm32f4xx_hal_i2c.c ****           /* Generate Stop */
1265:Drivers/STM32F4xx_HAL_Driver/Src/stm32f4xx_hal_i2c.c ****           SET_BIT(hi2c->Instance->CR1, I2C_CR1_STOP);
 2244              		.loc 1 1265 11
 2245 0230 FB68     		ldr	r3, [r7, #12]
 2246 0232 1B68     		ldr	r3, [r3]
 2247 0234 1A68     		ldr	r2, [r3]
 2248 0236 FB68     		ldr	r3, [r7, #12]
 2249 0238 1B68     		ldr	r3, [r3]
 2250 023a 42F40072 		orr	r2, r2, #512
 2251 023e 1A60     		str	r2, [r3]
1266:Drivers/STM32F4xx_HAL_Driver/Src/stm32f4xx_hal_i2c.c **** 
1267:Drivers/STM32F4xx_HAL_Driver/Src/stm32f4xx_hal_i2c.c ****           /* Read data from DR */
1268:Drivers/STM32F4xx_HAL_Driver/Src/stm32f4xx_hal_i2c.c ****           *hi2c->pBuffPtr = (uint8_t)hi2c->Instance->DR;
 2252              		.loc 1 1268 42
 2253 0240 FB68     		ldr	r3, [r7, #12]
 2254 0242 1B68     		ldr	r3, [r3]
 2255              		.loc 1 1268 52
 2256 0244 1A69     		ldr	r2, [r3, #16]
 2257              		.loc 1 1268 16
 2258 0246 FB68     		ldr	r3, [r7, #12]
 2259 0248 5B6A     		ldr	r3, [r3, #36]
 2260              		.loc 1 1268 29
 2261 024a D2B2     		uxtb	r2, r2
 2262              		.loc 1 1268 27
 2263 024c 1A70     		strb	r2, [r3]
1269:Drivers/STM32F4xx_HAL_Driver/Src/stm32f4xx_hal_i2c.c **** 
1270:Drivers/STM32F4xx_HAL_Driver/Src/stm32f4xx_hal_i2c.c ****           /* Increment Buffer pointer */
1271:Drivers/STM32F4xx_HAL_Driver/Src/stm32f4xx_hal_i2c.c ****           hi2c->pBuffPtr++;
 2264              		.loc 1 1271 15
 2265 024e FB68     		ldr	r3, [r7, #12]
 2266 0250 5B6A     		ldr	r3, [r3, #36]
 2267              		.loc 1 1271 25
 2268 0252 5A1C     		adds	r2, r3, #1
 2269 0254 FB68     		ldr	r3, [r7, #12]
 2270 0256 5A62     		str	r2, [r3, #36]
1272:Drivers/STM32F4xx_HAL_Driver/Src/stm32f4xx_hal_i2c.c **** 
1273:Drivers/STM32F4xx_HAL_Driver/Src/stm32f4xx_hal_i2c.c ****           /* Update counter */
1274:Drivers/STM32F4xx_HAL_Driver/Src/stm32f4xx_hal_i2c.c ****           hi2c->XferSize--;
 2271              		.loc 1 1274 15
 2272 0258 FB68     		ldr	r3, [r7, #12]
 2273 025a 1B8D     		ldrh	r3, [r3, #40]
ARM GAS  /tmp/ccC4l07N.s 			page 63


 2274              		.loc 1 1274 25
 2275 025c 013B     		subs	r3, r3, #1
 2276 025e 9AB2     		uxth	r2, r3
 2277 0260 FB68     		ldr	r3, [r7, #12]
 2278 0262 1A85     		strh	r2, [r3, #40]	@ movhi
1275:Drivers/STM32F4xx_HAL_Driver/Src/stm32f4xx_hal_i2c.c ****           hi2c->XferCount--;
 2279              		.loc 1 1275 15
 2280 0264 FB68     		ldr	r3, [r7, #12]
 2281 0266 5B8D     		ldrh	r3, [r3, #42]	@ movhi
 2282 0268 9BB2     		uxth	r3, r3
 2283              		.loc 1 1275 26
 2284 026a 013B     		subs	r3, r3, #1
 2285 026c 9AB2     		uxth	r2, r3
 2286 026e FB68     		ldr	r3, [r7, #12]
 2287 0270 5A85     		strh	r2, [r3, #42]	@ movhi
1276:Drivers/STM32F4xx_HAL_Driver/Src/stm32f4xx_hal_i2c.c **** 
1277:Drivers/STM32F4xx_HAL_Driver/Src/stm32f4xx_hal_i2c.c ****           /* Read data from DR */
1278:Drivers/STM32F4xx_HAL_Driver/Src/stm32f4xx_hal_i2c.c ****           *hi2c->pBuffPtr = (uint8_t)hi2c->Instance->DR;
 2288              		.loc 1 1278 42
 2289 0272 FB68     		ldr	r3, [r7, #12]
 2290 0274 1B68     		ldr	r3, [r3]
 2291              		.loc 1 1278 52
 2292 0276 1A69     		ldr	r2, [r3, #16]
 2293              		.loc 1 1278 16
 2294 0278 FB68     		ldr	r3, [r7, #12]
 2295 027a 5B6A     		ldr	r3, [r3, #36]
 2296              		.loc 1 1278 29
 2297 027c D2B2     		uxtb	r2, r2
 2298              		.loc 1 1278 27
 2299 027e 1A70     		strb	r2, [r3]
1279:Drivers/STM32F4xx_HAL_Driver/Src/stm32f4xx_hal_i2c.c **** 
1280:Drivers/STM32F4xx_HAL_Driver/Src/stm32f4xx_hal_i2c.c ****           /* Increment Buffer pointer */
1281:Drivers/STM32F4xx_HAL_Driver/Src/stm32f4xx_hal_i2c.c ****           hi2c->pBuffPtr++;
 2300              		.loc 1 1281 15
 2301 0280 FB68     		ldr	r3, [r7, #12]
 2302 0282 5B6A     		ldr	r3, [r3, #36]
 2303              		.loc 1 1281 25
 2304 0284 5A1C     		adds	r2, r3, #1
 2305 0286 FB68     		ldr	r3, [r7, #12]
 2306 0288 5A62     		str	r2, [r3, #36]
1282:Drivers/STM32F4xx_HAL_Driver/Src/stm32f4xx_hal_i2c.c **** 
1283:Drivers/STM32F4xx_HAL_Driver/Src/stm32f4xx_hal_i2c.c ****           /* Update counter */
1284:Drivers/STM32F4xx_HAL_Driver/Src/stm32f4xx_hal_i2c.c ****           hi2c->XferSize--;
 2307              		.loc 1 1284 15
 2308 028a FB68     		ldr	r3, [r7, #12]
 2309 028c 1B8D     		ldrh	r3, [r3, #40]
 2310              		.loc 1 1284 25
 2311 028e 013B     		subs	r3, r3, #1
 2312 0290 9AB2     		uxth	r2, r3
 2313 0292 FB68     		ldr	r3, [r7, #12]
 2314 0294 1A85     		strh	r2, [r3, #40]	@ movhi
1285:Drivers/STM32F4xx_HAL_Driver/Src/stm32f4xx_hal_i2c.c ****           hi2c->XferCount--;
 2315              		.loc 1 1285 15
 2316 0296 FB68     		ldr	r3, [r7, #12]
 2317 0298 5B8D     		ldrh	r3, [r3, #42]	@ movhi
 2318 029a 9BB2     		uxth	r3, r3
 2319              		.loc 1 1285 26
ARM GAS  /tmp/ccC4l07N.s 			page 64


 2320 029c 013B     		subs	r3, r3, #1
 2321 029e 9AB2     		uxth	r2, r3
 2322 02a0 FB68     		ldr	r3, [r7, #12]
 2323 02a2 5A85     		strh	r2, [r3, #42]	@ movhi
 2324 02a4 B8E0     		b	.L134
 2325              	.L138:
1286:Drivers/STM32F4xx_HAL_Driver/Src/stm32f4xx_hal_i2c.c ****         }
1287:Drivers/STM32F4xx_HAL_Driver/Src/stm32f4xx_hal_i2c.c ****         /* 3 Last bytes */
1288:Drivers/STM32F4xx_HAL_Driver/Src/stm32f4xx_hal_i2c.c ****         else
1289:Drivers/STM32F4xx_HAL_Driver/Src/stm32f4xx_hal_i2c.c ****         {
1290:Drivers/STM32F4xx_HAL_Driver/Src/stm32f4xx_hal_i2c.c ****           /* Wait until BTF flag is set */
1291:Drivers/STM32F4xx_HAL_Driver/Src/stm32f4xx_hal_i2c.c ****           if (I2C_WaitOnFlagUntilTimeout(hi2c, I2C_FLAG_BTF, RESET, Timeout, tickstart) != HAL_OK)
 2326              		.loc 1 1291 15
 2327 02a6 7B6A     		ldr	r3, [r7, #36]
 2328 02a8 0093     		str	r3, [sp]
 2329 02aa 3B6B     		ldr	r3, [r7, #48]
 2330 02ac 0022     		movs	r2, #0
 2331 02ae 6649     		ldr	r1, .L146
 2332 02b0 F868     		ldr	r0, [r7, #12]
 2333 02b2 FFF7FEFF 		bl	I2C_WaitOnFlagUntilTimeout
 2334 02b6 0346     		mov	r3, r0
 2335              		.loc 1 1291 14
 2336 02b8 002B     		cmp	r3, #0
 2337 02ba 01D0     		beq	.L140
1292:Drivers/STM32F4xx_HAL_Driver/Src/stm32f4xx_hal_i2c.c ****           {
1293:Drivers/STM32F4xx_HAL_Driver/Src/stm32f4xx_hal_i2c.c ****             return HAL_ERROR;
 2338              		.loc 1 1293 20
 2339 02bc 0123     		movs	r3, #1
 2340 02be BFE0     		b	.L126
 2341              	.L140:
1294:Drivers/STM32F4xx_HAL_Driver/Src/stm32f4xx_hal_i2c.c ****           }
1295:Drivers/STM32F4xx_HAL_Driver/Src/stm32f4xx_hal_i2c.c **** 
1296:Drivers/STM32F4xx_HAL_Driver/Src/stm32f4xx_hal_i2c.c ****           /* Disable Acknowledge */
1297:Drivers/STM32F4xx_HAL_Driver/Src/stm32f4xx_hal_i2c.c ****           CLEAR_BIT(hi2c->Instance->CR1, I2C_CR1_ACK);
 2342              		.loc 1 1297 11
 2343 02c0 FB68     		ldr	r3, [r7, #12]
 2344 02c2 1B68     		ldr	r3, [r3]
 2345 02c4 1A68     		ldr	r2, [r3]
 2346 02c6 FB68     		ldr	r3, [r7, #12]
 2347 02c8 1B68     		ldr	r3, [r3]
 2348 02ca 22F48062 		bic	r2, r2, #1024
 2349 02ce 1A60     		str	r2, [r3]
1298:Drivers/STM32F4xx_HAL_Driver/Src/stm32f4xx_hal_i2c.c **** 
1299:Drivers/STM32F4xx_HAL_Driver/Src/stm32f4xx_hal_i2c.c ****           /* Read data from DR */
1300:Drivers/STM32F4xx_HAL_Driver/Src/stm32f4xx_hal_i2c.c ****           *hi2c->pBuffPtr = (uint8_t)hi2c->Instance->DR;
 2350              		.loc 1 1300 42
 2351 02d0 FB68     		ldr	r3, [r7, #12]
 2352 02d2 1B68     		ldr	r3, [r3]
 2353              		.loc 1 1300 52
 2354 02d4 1A69     		ldr	r2, [r3, #16]
 2355              		.loc 1 1300 16
 2356 02d6 FB68     		ldr	r3, [r7, #12]
 2357 02d8 5B6A     		ldr	r3, [r3, #36]
 2358              		.loc 1 1300 29
 2359 02da D2B2     		uxtb	r2, r2
 2360              		.loc 1 1300 27
 2361 02dc 1A70     		strb	r2, [r3]
ARM GAS  /tmp/ccC4l07N.s 			page 65


1301:Drivers/STM32F4xx_HAL_Driver/Src/stm32f4xx_hal_i2c.c **** 
1302:Drivers/STM32F4xx_HAL_Driver/Src/stm32f4xx_hal_i2c.c ****           /* Increment Buffer pointer */
1303:Drivers/STM32F4xx_HAL_Driver/Src/stm32f4xx_hal_i2c.c ****           hi2c->pBuffPtr++;
 2362              		.loc 1 1303 15
 2363 02de FB68     		ldr	r3, [r7, #12]
 2364 02e0 5B6A     		ldr	r3, [r3, #36]
 2365              		.loc 1 1303 25
 2366 02e2 5A1C     		adds	r2, r3, #1
 2367 02e4 FB68     		ldr	r3, [r7, #12]
 2368 02e6 5A62     		str	r2, [r3, #36]
1304:Drivers/STM32F4xx_HAL_Driver/Src/stm32f4xx_hal_i2c.c **** 
1305:Drivers/STM32F4xx_HAL_Driver/Src/stm32f4xx_hal_i2c.c ****           /* Update counter */
1306:Drivers/STM32F4xx_HAL_Driver/Src/stm32f4xx_hal_i2c.c ****           hi2c->XferSize--;
 2369              		.loc 1 1306 15
 2370 02e8 FB68     		ldr	r3, [r7, #12]
 2371 02ea 1B8D     		ldrh	r3, [r3, #40]
 2372              		.loc 1 1306 25
 2373 02ec 013B     		subs	r3, r3, #1
 2374 02ee 9AB2     		uxth	r2, r3
 2375 02f0 FB68     		ldr	r3, [r7, #12]
 2376 02f2 1A85     		strh	r2, [r3, #40]	@ movhi
1307:Drivers/STM32F4xx_HAL_Driver/Src/stm32f4xx_hal_i2c.c ****           hi2c->XferCount--;
 2377              		.loc 1 1307 15
 2378 02f4 FB68     		ldr	r3, [r7, #12]
 2379 02f6 5B8D     		ldrh	r3, [r3, #42]	@ movhi
 2380 02f8 9BB2     		uxth	r3, r3
 2381              		.loc 1 1307 26
 2382 02fa 013B     		subs	r3, r3, #1
 2383 02fc 9AB2     		uxth	r2, r3
 2384 02fe FB68     		ldr	r3, [r7, #12]
 2385 0300 5A85     		strh	r2, [r3, #42]	@ movhi
1308:Drivers/STM32F4xx_HAL_Driver/Src/stm32f4xx_hal_i2c.c **** 
1309:Drivers/STM32F4xx_HAL_Driver/Src/stm32f4xx_hal_i2c.c ****           /* Wait until BTF flag is set */
1310:Drivers/STM32F4xx_HAL_Driver/Src/stm32f4xx_hal_i2c.c ****           if (I2C_WaitOnFlagUntilTimeout(hi2c, I2C_FLAG_BTF, RESET, Timeout, tickstart) != HAL_OK)
 2386              		.loc 1 1310 15
 2387 0302 7B6A     		ldr	r3, [r7, #36]
 2388 0304 0093     		str	r3, [sp]
 2389 0306 3B6B     		ldr	r3, [r7, #48]
 2390 0308 0022     		movs	r2, #0
 2391 030a 4F49     		ldr	r1, .L146
 2392 030c F868     		ldr	r0, [r7, #12]
 2393 030e FFF7FEFF 		bl	I2C_WaitOnFlagUntilTimeout
 2394 0312 0346     		mov	r3, r0
 2395              		.loc 1 1310 14
 2396 0314 002B     		cmp	r3, #0
 2397 0316 01D0     		beq	.L141
1311:Drivers/STM32F4xx_HAL_Driver/Src/stm32f4xx_hal_i2c.c ****           {
1312:Drivers/STM32F4xx_HAL_Driver/Src/stm32f4xx_hal_i2c.c ****             return HAL_ERROR;
 2398              		.loc 1 1312 20
 2399 0318 0123     		movs	r3, #1
 2400 031a 91E0     		b	.L126
 2401              	.L141:
1313:Drivers/STM32F4xx_HAL_Driver/Src/stm32f4xx_hal_i2c.c ****           }
1314:Drivers/STM32F4xx_HAL_Driver/Src/stm32f4xx_hal_i2c.c **** 
1315:Drivers/STM32F4xx_HAL_Driver/Src/stm32f4xx_hal_i2c.c ****           /* Generate Stop */
1316:Drivers/STM32F4xx_HAL_Driver/Src/stm32f4xx_hal_i2c.c ****           SET_BIT(hi2c->Instance->CR1, I2C_CR1_STOP);
 2402              		.loc 1 1316 11
ARM GAS  /tmp/ccC4l07N.s 			page 66


 2403 031c FB68     		ldr	r3, [r7, #12]
 2404 031e 1B68     		ldr	r3, [r3]
 2405 0320 1A68     		ldr	r2, [r3]
 2406 0322 FB68     		ldr	r3, [r7, #12]
 2407 0324 1B68     		ldr	r3, [r3]
 2408 0326 42F40072 		orr	r2, r2, #512
 2409 032a 1A60     		str	r2, [r3]
1317:Drivers/STM32F4xx_HAL_Driver/Src/stm32f4xx_hal_i2c.c **** 
1318:Drivers/STM32F4xx_HAL_Driver/Src/stm32f4xx_hal_i2c.c ****           /* Read data from DR */
1319:Drivers/STM32F4xx_HAL_Driver/Src/stm32f4xx_hal_i2c.c ****           *hi2c->pBuffPtr = (uint8_t)hi2c->Instance->DR;
 2410              		.loc 1 1319 42
 2411 032c FB68     		ldr	r3, [r7, #12]
 2412 032e 1B68     		ldr	r3, [r3]
 2413              		.loc 1 1319 52
 2414 0330 1A69     		ldr	r2, [r3, #16]
 2415              		.loc 1 1319 16
 2416 0332 FB68     		ldr	r3, [r7, #12]
 2417 0334 5B6A     		ldr	r3, [r3, #36]
 2418              		.loc 1 1319 29
 2419 0336 D2B2     		uxtb	r2, r2
 2420              		.loc 1 1319 27
 2421 0338 1A70     		strb	r2, [r3]
1320:Drivers/STM32F4xx_HAL_Driver/Src/stm32f4xx_hal_i2c.c **** 
1321:Drivers/STM32F4xx_HAL_Driver/Src/stm32f4xx_hal_i2c.c ****           /* Increment Buffer pointer */
1322:Drivers/STM32F4xx_HAL_Driver/Src/stm32f4xx_hal_i2c.c ****           hi2c->pBuffPtr++;
 2422              		.loc 1 1322 15
 2423 033a FB68     		ldr	r3, [r7, #12]
 2424 033c 5B6A     		ldr	r3, [r3, #36]
 2425              		.loc 1 1322 25
 2426 033e 5A1C     		adds	r2, r3, #1
 2427 0340 FB68     		ldr	r3, [r7, #12]
 2428 0342 5A62     		str	r2, [r3, #36]
1323:Drivers/STM32F4xx_HAL_Driver/Src/stm32f4xx_hal_i2c.c **** 
1324:Drivers/STM32F4xx_HAL_Driver/Src/stm32f4xx_hal_i2c.c ****           /* Update counter */
1325:Drivers/STM32F4xx_HAL_Driver/Src/stm32f4xx_hal_i2c.c ****           hi2c->XferSize--;
 2429              		.loc 1 1325 15
 2430 0344 FB68     		ldr	r3, [r7, #12]
 2431 0346 1B8D     		ldrh	r3, [r3, #40]
 2432              		.loc 1 1325 25
 2433 0348 013B     		subs	r3, r3, #1
 2434 034a 9AB2     		uxth	r2, r3
 2435 034c FB68     		ldr	r3, [r7, #12]
 2436 034e 1A85     		strh	r2, [r3, #40]	@ movhi
1326:Drivers/STM32F4xx_HAL_Driver/Src/stm32f4xx_hal_i2c.c ****           hi2c->XferCount--;
 2437              		.loc 1 1326 15
 2438 0350 FB68     		ldr	r3, [r7, #12]
 2439 0352 5B8D     		ldrh	r3, [r3, #42]	@ movhi
 2440 0354 9BB2     		uxth	r3, r3
 2441              		.loc 1 1326 26
 2442 0356 013B     		subs	r3, r3, #1
 2443 0358 9AB2     		uxth	r2, r3
 2444 035a FB68     		ldr	r3, [r7, #12]
 2445 035c 5A85     		strh	r2, [r3, #42]	@ movhi
1327:Drivers/STM32F4xx_HAL_Driver/Src/stm32f4xx_hal_i2c.c **** 
1328:Drivers/STM32F4xx_HAL_Driver/Src/stm32f4xx_hal_i2c.c ****           /* Read data from DR */
1329:Drivers/STM32F4xx_HAL_Driver/Src/stm32f4xx_hal_i2c.c ****           *hi2c->pBuffPtr = (uint8_t)hi2c->Instance->DR;
 2446              		.loc 1 1329 42
ARM GAS  /tmp/ccC4l07N.s 			page 67


 2447 035e FB68     		ldr	r3, [r7, #12]
 2448 0360 1B68     		ldr	r3, [r3]
 2449              		.loc 1 1329 52
 2450 0362 1A69     		ldr	r2, [r3, #16]
 2451              		.loc 1 1329 16
 2452 0364 FB68     		ldr	r3, [r7, #12]
 2453 0366 5B6A     		ldr	r3, [r3, #36]
 2454              		.loc 1 1329 29
 2455 0368 D2B2     		uxtb	r2, r2
 2456              		.loc 1 1329 27
 2457 036a 1A70     		strb	r2, [r3]
1330:Drivers/STM32F4xx_HAL_Driver/Src/stm32f4xx_hal_i2c.c **** 
1331:Drivers/STM32F4xx_HAL_Driver/Src/stm32f4xx_hal_i2c.c ****           /* Increment Buffer pointer */
1332:Drivers/STM32F4xx_HAL_Driver/Src/stm32f4xx_hal_i2c.c ****           hi2c->pBuffPtr++;
 2458              		.loc 1 1332 15
 2459 036c FB68     		ldr	r3, [r7, #12]
 2460 036e 5B6A     		ldr	r3, [r3, #36]
 2461              		.loc 1 1332 25
 2462 0370 5A1C     		adds	r2, r3, #1
 2463 0372 FB68     		ldr	r3, [r7, #12]
 2464 0374 5A62     		str	r2, [r3, #36]
1333:Drivers/STM32F4xx_HAL_Driver/Src/stm32f4xx_hal_i2c.c **** 
1334:Drivers/STM32F4xx_HAL_Driver/Src/stm32f4xx_hal_i2c.c ****           /* Update counter */
1335:Drivers/STM32F4xx_HAL_Driver/Src/stm32f4xx_hal_i2c.c ****           hi2c->XferSize--;
 2465              		.loc 1 1335 15
 2466 0376 FB68     		ldr	r3, [r7, #12]
 2467 0378 1B8D     		ldrh	r3, [r3, #40]
 2468              		.loc 1 1335 25
 2469 037a 013B     		subs	r3, r3, #1
 2470 037c 9AB2     		uxth	r2, r3
 2471 037e FB68     		ldr	r3, [r7, #12]
 2472 0380 1A85     		strh	r2, [r3, #40]	@ movhi
1336:Drivers/STM32F4xx_HAL_Driver/Src/stm32f4xx_hal_i2c.c ****           hi2c->XferCount--;
 2473              		.loc 1 1336 15
 2474 0382 FB68     		ldr	r3, [r7, #12]
 2475 0384 5B8D     		ldrh	r3, [r3, #42]	@ movhi
 2476 0386 9BB2     		uxth	r3, r3
 2477              		.loc 1 1336 26
 2478 0388 013B     		subs	r3, r3, #1
 2479 038a 9AB2     		uxth	r2, r3
 2480 038c FB68     		ldr	r3, [r7, #12]
 2481 038e 5A85     		strh	r2, [r3, #42]	@ movhi
 2482 0390 42E0     		b	.L134
 2483              	.L135:
1337:Drivers/STM32F4xx_HAL_Driver/Src/stm32f4xx_hal_i2c.c ****         }
1338:Drivers/STM32F4xx_HAL_Driver/Src/stm32f4xx_hal_i2c.c ****       }
1339:Drivers/STM32F4xx_HAL_Driver/Src/stm32f4xx_hal_i2c.c ****       else
1340:Drivers/STM32F4xx_HAL_Driver/Src/stm32f4xx_hal_i2c.c ****       {
1341:Drivers/STM32F4xx_HAL_Driver/Src/stm32f4xx_hal_i2c.c ****         /* Wait until RXNE flag is set */
1342:Drivers/STM32F4xx_HAL_Driver/Src/stm32f4xx_hal_i2c.c ****         if (I2C_WaitOnRXNEFlagUntilTimeout(hi2c, Timeout, tickstart) != HAL_OK)
 2484              		.loc 1 1342 13
 2485 0392 7A6A     		ldr	r2, [r7, #36]
 2486 0394 396B     		ldr	r1, [r7, #48]
 2487 0396 F868     		ldr	r0, [r7, #12]
 2488 0398 FFF7FEFF 		bl	I2C_WaitOnRXNEFlagUntilTimeout
 2489 039c 0346     		mov	r3, r0
 2490              		.loc 1 1342 12
ARM GAS  /tmp/ccC4l07N.s 			page 68


 2491 039e 002B     		cmp	r3, #0
 2492 03a0 01D0     		beq	.L142
1343:Drivers/STM32F4xx_HAL_Driver/Src/stm32f4xx_hal_i2c.c ****         {
1344:Drivers/STM32F4xx_HAL_Driver/Src/stm32f4xx_hal_i2c.c ****           return HAL_ERROR;
 2493              		.loc 1 1344 18
 2494 03a2 0123     		movs	r3, #1
 2495 03a4 4CE0     		b	.L126
 2496              	.L142:
1345:Drivers/STM32F4xx_HAL_Driver/Src/stm32f4xx_hal_i2c.c ****         }
1346:Drivers/STM32F4xx_HAL_Driver/Src/stm32f4xx_hal_i2c.c **** 
1347:Drivers/STM32F4xx_HAL_Driver/Src/stm32f4xx_hal_i2c.c ****         /* Read data from DR */
1348:Drivers/STM32F4xx_HAL_Driver/Src/stm32f4xx_hal_i2c.c ****         *hi2c->pBuffPtr = (uint8_t)hi2c->Instance->DR;
 2497              		.loc 1 1348 40
 2498 03a6 FB68     		ldr	r3, [r7, #12]
 2499 03a8 1B68     		ldr	r3, [r3]
 2500              		.loc 1 1348 50
 2501 03aa 1A69     		ldr	r2, [r3, #16]
 2502              		.loc 1 1348 14
 2503 03ac FB68     		ldr	r3, [r7, #12]
 2504 03ae 5B6A     		ldr	r3, [r3, #36]
 2505              		.loc 1 1348 27
 2506 03b0 D2B2     		uxtb	r2, r2
 2507              		.loc 1 1348 25
 2508 03b2 1A70     		strb	r2, [r3]
1349:Drivers/STM32F4xx_HAL_Driver/Src/stm32f4xx_hal_i2c.c **** 
1350:Drivers/STM32F4xx_HAL_Driver/Src/stm32f4xx_hal_i2c.c ****         /* Increment Buffer pointer */
1351:Drivers/STM32F4xx_HAL_Driver/Src/stm32f4xx_hal_i2c.c ****         hi2c->pBuffPtr++;
 2509              		.loc 1 1351 13
 2510 03b4 FB68     		ldr	r3, [r7, #12]
 2511 03b6 5B6A     		ldr	r3, [r3, #36]
 2512              		.loc 1 1351 23
 2513 03b8 5A1C     		adds	r2, r3, #1
 2514 03ba FB68     		ldr	r3, [r7, #12]
 2515 03bc 5A62     		str	r2, [r3, #36]
1352:Drivers/STM32F4xx_HAL_Driver/Src/stm32f4xx_hal_i2c.c **** 
1353:Drivers/STM32F4xx_HAL_Driver/Src/stm32f4xx_hal_i2c.c ****         /* Update counter */
1354:Drivers/STM32F4xx_HAL_Driver/Src/stm32f4xx_hal_i2c.c ****         hi2c->XferSize--;
 2516              		.loc 1 1354 13
 2517 03be FB68     		ldr	r3, [r7, #12]
 2518 03c0 1B8D     		ldrh	r3, [r3, #40]
 2519              		.loc 1 1354 23
 2520 03c2 013B     		subs	r3, r3, #1
 2521 03c4 9AB2     		uxth	r2, r3
 2522 03c6 FB68     		ldr	r3, [r7, #12]
 2523 03c8 1A85     		strh	r2, [r3, #40]	@ movhi
1355:Drivers/STM32F4xx_HAL_Driver/Src/stm32f4xx_hal_i2c.c ****         hi2c->XferCount--;
 2524              		.loc 1 1355 13
 2525 03ca FB68     		ldr	r3, [r7, #12]
 2526 03cc 5B8D     		ldrh	r3, [r3, #42]	@ movhi
 2527 03ce 9BB2     		uxth	r3, r3
 2528              		.loc 1 1355 24
 2529 03d0 013B     		subs	r3, r3, #1
 2530 03d2 9AB2     		uxth	r2, r3
 2531 03d4 FB68     		ldr	r3, [r7, #12]
 2532 03d6 5A85     		strh	r2, [r3, #42]	@ movhi
1356:Drivers/STM32F4xx_HAL_Driver/Src/stm32f4xx_hal_i2c.c **** 
1357:Drivers/STM32F4xx_HAL_Driver/Src/stm32f4xx_hal_i2c.c ****         if (__HAL_I2C_GET_FLAG(hi2c, I2C_FLAG_BTF) == SET)
ARM GAS  /tmp/ccC4l07N.s 			page 69


 2533              		.loc 1 1357 13
 2534 03d8 FB68     		ldr	r3, [r7, #12]
 2535 03da 1B68     		ldr	r3, [r3]
 2536 03dc 5B69     		ldr	r3, [r3, #20]
 2537 03de 03F00403 		and	r3, r3, #4
 2538              		.loc 1 1357 12
 2539 03e2 042B     		cmp	r3, #4
 2540 03e4 18D1     		bne	.L134
1358:Drivers/STM32F4xx_HAL_Driver/Src/stm32f4xx_hal_i2c.c ****         {
1359:Drivers/STM32F4xx_HAL_Driver/Src/stm32f4xx_hal_i2c.c ****           /* Read data from DR */
1360:Drivers/STM32F4xx_HAL_Driver/Src/stm32f4xx_hal_i2c.c ****           *hi2c->pBuffPtr = (uint8_t)hi2c->Instance->DR;
 2541              		.loc 1 1360 42
 2542 03e6 FB68     		ldr	r3, [r7, #12]
 2543 03e8 1B68     		ldr	r3, [r3]
 2544              		.loc 1 1360 52
 2545 03ea 1A69     		ldr	r2, [r3, #16]
 2546              		.loc 1 1360 16
 2547 03ec FB68     		ldr	r3, [r7, #12]
 2548 03ee 5B6A     		ldr	r3, [r3, #36]
 2549              		.loc 1 1360 29
 2550 03f0 D2B2     		uxtb	r2, r2
 2551              		.loc 1 1360 27
 2552 03f2 1A70     		strb	r2, [r3]
1361:Drivers/STM32F4xx_HAL_Driver/Src/stm32f4xx_hal_i2c.c **** 
1362:Drivers/STM32F4xx_HAL_Driver/Src/stm32f4xx_hal_i2c.c ****           /* Increment Buffer pointer */
1363:Drivers/STM32F4xx_HAL_Driver/Src/stm32f4xx_hal_i2c.c ****           hi2c->pBuffPtr++;
 2553              		.loc 1 1363 15
 2554 03f4 FB68     		ldr	r3, [r7, #12]
 2555 03f6 5B6A     		ldr	r3, [r3, #36]
 2556              		.loc 1 1363 25
 2557 03f8 5A1C     		adds	r2, r3, #1
 2558 03fa FB68     		ldr	r3, [r7, #12]
 2559 03fc 5A62     		str	r2, [r3, #36]
1364:Drivers/STM32F4xx_HAL_Driver/Src/stm32f4xx_hal_i2c.c **** 
1365:Drivers/STM32F4xx_HAL_Driver/Src/stm32f4xx_hal_i2c.c ****           /* Update counter */
1366:Drivers/STM32F4xx_HAL_Driver/Src/stm32f4xx_hal_i2c.c ****           hi2c->XferSize--;
 2560              		.loc 1 1366 15
 2561 03fe FB68     		ldr	r3, [r7, #12]
 2562 0400 1B8D     		ldrh	r3, [r3, #40]
 2563              		.loc 1 1366 25
 2564 0402 013B     		subs	r3, r3, #1
 2565 0404 9AB2     		uxth	r2, r3
 2566 0406 FB68     		ldr	r3, [r7, #12]
 2567 0408 1A85     		strh	r2, [r3, #40]	@ movhi
1367:Drivers/STM32F4xx_HAL_Driver/Src/stm32f4xx_hal_i2c.c ****           hi2c->XferCount--;
 2568              		.loc 1 1367 15
 2569 040a FB68     		ldr	r3, [r7, #12]
 2570 040c 5B8D     		ldrh	r3, [r3, #42]	@ movhi
 2571 040e 9BB2     		uxth	r3, r3
 2572              		.loc 1 1367 26
 2573 0410 013B     		subs	r3, r3, #1
 2574 0412 9AB2     		uxth	r2, r3
 2575 0414 FB68     		ldr	r3, [r7, #12]
 2576 0416 5A85     		strh	r2, [r3, #42]	@ movhi
 2577              	.L134:
1232:Drivers/STM32F4xx_HAL_Driver/Src/stm32f4xx_hal_i2c.c ****     {
 2578              		.loc 1 1232 16
ARM GAS  /tmp/ccC4l07N.s 			page 70


 2579 0418 FB68     		ldr	r3, [r7, #12]
 2580 041a 1B8D     		ldrh	r3, [r3, #40]
1232:Drivers/STM32F4xx_HAL_Driver/Src/stm32f4xx_hal_i2c.c ****     {
 2581              		.loc 1 1232 11
 2582 041c 002B     		cmp	r3, #0
 2583 041e 7FF4C2AE 		bne	.L143
1368:Drivers/STM32F4xx_HAL_Driver/Src/stm32f4xx_hal_i2c.c ****         }
1369:Drivers/STM32F4xx_HAL_Driver/Src/stm32f4xx_hal_i2c.c ****       }
1370:Drivers/STM32F4xx_HAL_Driver/Src/stm32f4xx_hal_i2c.c ****     }
1371:Drivers/STM32F4xx_HAL_Driver/Src/stm32f4xx_hal_i2c.c **** 
1372:Drivers/STM32F4xx_HAL_Driver/Src/stm32f4xx_hal_i2c.c ****     hi2c->State = HAL_I2C_STATE_READY;
 2584              		.loc 1 1372 17
 2585 0422 FB68     		ldr	r3, [r7, #12]
 2586 0424 2022     		movs	r2, #32
 2587 0426 83F83D20 		strb	r2, [r3, #61]
1373:Drivers/STM32F4xx_HAL_Driver/Src/stm32f4xx_hal_i2c.c ****     hi2c->Mode = HAL_I2C_MODE_NONE;
 2588              		.loc 1 1373 16
 2589 042a FB68     		ldr	r3, [r7, #12]
 2590 042c 0022     		movs	r2, #0
 2591 042e 83F83E20 		strb	r2, [r3, #62]
1374:Drivers/STM32F4xx_HAL_Driver/Src/stm32f4xx_hal_i2c.c **** 
1375:Drivers/STM32F4xx_HAL_Driver/Src/stm32f4xx_hal_i2c.c ****     /* Process Unlocked */
1376:Drivers/STM32F4xx_HAL_Driver/Src/stm32f4xx_hal_i2c.c ****     __HAL_UNLOCK(hi2c);
 2592              		.loc 1 1376 5
 2593 0432 FB68     		ldr	r3, [r7, #12]
 2594 0434 0022     		movs	r2, #0
 2595 0436 83F83C20 		strb	r2, [r3, #60]
1377:Drivers/STM32F4xx_HAL_Driver/Src/stm32f4xx_hal_i2c.c **** 
1378:Drivers/STM32F4xx_HAL_Driver/Src/stm32f4xx_hal_i2c.c ****     return HAL_OK;
 2596              		.loc 1 1378 12
 2597 043a 0023     		movs	r3, #0
 2598 043c 00E0     		b	.L126
 2599              	.L124:
1379:Drivers/STM32F4xx_HAL_Driver/Src/stm32f4xx_hal_i2c.c ****   }
1380:Drivers/STM32F4xx_HAL_Driver/Src/stm32f4xx_hal_i2c.c ****   else
1381:Drivers/STM32F4xx_HAL_Driver/Src/stm32f4xx_hal_i2c.c ****   {
1382:Drivers/STM32F4xx_HAL_Driver/Src/stm32f4xx_hal_i2c.c ****     return HAL_BUSY;
 2600              		.loc 1 1382 12
 2601 043e 0223     		movs	r3, #2
 2602              	.L126:
1383:Drivers/STM32F4xx_HAL_Driver/Src/stm32f4xx_hal_i2c.c ****   }
1384:Drivers/STM32F4xx_HAL_Driver/Src/stm32f4xx_hal_i2c.c **** }
 2603              		.loc 1 1384 1
 2604 0440 1846     		mov	r0, r3
 2605 0442 2837     		adds	r7, r7, #40
 2606              	.LCFI54:
 2607              		.cfi_def_cfa_offset 8
 2608 0444 BD46     		mov	sp, r7
 2609              	.LCFI55:
 2610              		.cfi_def_cfa_register 13
 2611              		@ sp needed
 2612 0446 80BD     		pop	{r7, pc}
 2613              	.L147:
 2614              		.align	2
 2615              	.L146:
 2616 0448 04000100 		.word	65540
 2617              		.cfi_endproc
ARM GAS  /tmp/ccC4l07N.s 			page 71


 2618              	.LFE139:
 2620              		.section	.text.HAL_I2C_Slave_Transmit,"ax",%progbits
 2621              		.align	1
 2622              		.global	HAL_I2C_Slave_Transmit
 2623              		.syntax unified
 2624              		.thumb
 2625              		.thumb_func
 2626              		.fpu fpv4-sp-d16
 2628              	HAL_I2C_Slave_Transmit:
 2629              	.LFB140:
1385:Drivers/STM32F4xx_HAL_Driver/Src/stm32f4xx_hal_i2c.c **** 
1386:Drivers/STM32F4xx_HAL_Driver/Src/stm32f4xx_hal_i2c.c **** /**
1387:Drivers/STM32F4xx_HAL_Driver/Src/stm32f4xx_hal_i2c.c ****   * @brief  Transmits in slave mode an amount of data in blocking mode.
1388:Drivers/STM32F4xx_HAL_Driver/Src/stm32f4xx_hal_i2c.c ****   * @param  hi2c Pointer to a I2C_HandleTypeDef structure that contains
1389:Drivers/STM32F4xx_HAL_Driver/Src/stm32f4xx_hal_i2c.c ****   *                the configuration information for the specified I2C.
1390:Drivers/STM32F4xx_HAL_Driver/Src/stm32f4xx_hal_i2c.c ****   * @param  pData Pointer to data buffer
1391:Drivers/STM32F4xx_HAL_Driver/Src/stm32f4xx_hal_i2c.c ****   * @param  Size Amount of data to be sent
1392:Drivers/STM32F4xx_HAL_Driver/Src/stm32f4xx_hal_i2c.c ****   * @param  Timeout Timeout duration
1393:Drivers/STM32F4xx_HAL_Driver/Src/stm32f4xx_hal_i2c.c ****   * @retval HAL status
1394:Drivers/STM32F4xx_HAL_Driver/Src/stm32f4xx_hal_i2c.c ****   */
1395:Drivers/STM32F4xx_HAL_Driver/Src/stm32f4xx_hal_i2c.c **** HAL_StatusTypeDef HAL_I2C_Slave_Transmit(I2C_HandleTypeDef *hi2c, uint8_t *pData, uint16_t Size, ui
1396:Drivers/STM32F4xx_HAL_Driver/Src/stm32f4xx_hal_i2c.c **** {
 2630              		.loc 1 1396 1
 2631              		.cfi_startproc
 2632              		@ args = 0, pretend = 0, frame = 32
 2633              		@ frame_needed = 1, uses_anonymous_args = 0
 2634 0000 80B5     		push	{r7, lr}
 2635              	.LCFI56:
 2636              		.cfi_def_cfa_offset 8
 2637              		.cfi_offset 7, -8
 2638              		.cfi_offset 14, -4
 2639 0002 8AB0     		sub	sp, sp, #40
 2640              	.LCFI57:
 2641              		.cfi_def_cfa_offset 48
 2642 0004 02AF     		add	r7, sp, #8
 2643              	.LCFI58:
 2644              		.cfi_def_cfa 7, 40
 2645 0006 F860     		str	r0, [r7, #12]
 2646 0008 B960     		str	r1, [r7, #8]
 2647 000a 3B60     		str	r3, [r7]
 2648 000c 1346     		mov	r3, r2	@ movhi
 2649 000e FB80     		strh	r3, [r7, #6]	@ movhi
1397:Drivers/STM32F4xx_HAL_Driver/Src/stm32f4xx_hal_i2c.c ****   /* Init tickstart for timeout management*/
1398:Drivers/STM32F4xx_HAL_Driver/Src/stm32f4xx_hal_i2c.c ****   uint32_t tickstart = HAL_GetTick();
 2650              		.loc 1 1398 24
 2651 0010 FFF7FEFF 		bl	HAL_GetTick
 2652 0014 F861     		str	r0, [r7, #28]
1399:Drivers/STM32F4xx_HAL_Driver/Src/stm32f4xx_hal_i2c.c **** 
1400:Drivers/STM32F4xx_HAL_Driver/Src/stm32f4xx_hal_i2c.c ****   if (hi2c->State == HAL_I2C_STATE_READY)
 2653              		.loc 1 1400 11
 2654 0016 FB68     		ldr	r3, [r7, #12]
 2655 0018 93F83D30 		ldrb	r3, [r3, #61]
 2656 001c DBB2     		uxtb	r3, r3
 2657              		.loc 1 1400 6
 2658 001e 202B     		cmp	r3, #32
 2659 0020 40F0FB80 		bne	.L149
1401:Drivers/STM32F4xx_HAL_Driver/Src/stm32f4xx_hal_i2c.c ****   {
ARM GAS  /tmp/ccC4l07N.s 			page 72


1402:Drivers/STM32F4xx_HAL_Driver/Src/stm32f4xx_hal_i2c.c ****     if ((pData == NULL) || (Size == 0U))
 2660              		.loc 1 1402 8
 2661 0024 BB68     		ldr	r3, [r7, #8]
 2662 0026 002B     		cmp	r3, #0
 2663 0028 02D0     		beq	.L150
 2664              		.loc 1 1402 25 discriminator 1
 2665 002a FB88     		ldrh	r3, [r7, #6]
 2666 002c 002B     		cmp	r3, #0
 2667 002e 01D1     		bne	.L151
 2668              	.L150:
1403:Drivers/STM32F4xx_HAL_Driver/Src/stm32f4xx_hal_i2c.c ****     {
1404:Drivers/STM32F4xx_HAL_Driver/Src/stm32f4xx_hal_i2c.c ****       return  HAL_ERROR;
 2669              		.loc 1 1404 15
 2670 0030 0123     		movs	r3, #1
 2671 0032 F3E0     		b	.L152
 2672              	.L151:
1405:Drivers/STM32F4xx_HAL_Driver/Src/stm32f4xx_hal_i2c.c ****     }
1406:Drivers/STM32F4xx_HAL_Driver/Src/stm32f4xx_hal_i2c.c **** 
1407:Drivers/STM32F4xx_HAL_Driver/Src/stm32f4xx_hal_i2c.c ****     /* Process Locked */
1408:Drivers/STM32F4xx_HAL_Driver/Src/stm32f4xx_hal_i2c.c ****     __HAL_LOCK(hi2c);
 2673              		.loc 1 1408 5
 2674 0034 FB68     		ldr	r3, [r7, #12]
 2675 0036 93F83C30 		ldrb	r3, [r3, #60]	@ zero_extendqisi2
 2676 003a 012B     		cmp	r3, #1
 2677 003c 01D1     		bne	.L153
 2678              		.loc 1 1408 5 is_stmt 0 discriminator 1
 2679 003e 0223     		movs	r3, #2
 2680 0040 ECE0     		b	.L152
 2681              	.L153:
 2682              		.loc 1 1408 5 discriminator 2
 2683 0042 FB68     		ldr	r3, [r7, #12]
 2684 0044 0122     		movs	r2, #1
 2685 0046 83F83C20 		strb	r2, [r3, #60]
1409:Drivers/STM32F4xx_HAL_Driver/Src/stm32f4xx_hal_i2c.c **** 
1410:Drivers/STM32F4xx_HAL_Driver/Src/stm32f4xx_hal_i2c.c ****     /* Check if the I2C is already enabled */
1411:Drivers/STM32F4xx_HAL_Driver/Src/stm32f4xx_hal_i2c.c ****     if ((hi2c->Instance->CR1 & I2C_CR1_PE) != I2C_CR1_PE)
 2686              		.loc 1 1411 14 is_stmt 1 discriminator 2
 2687 004a FB68     		ldr	r3, [r7, #12]
 2688 004c 1B68     		ldr	r3, [r3]
 2689              		.loc 1 1411 24 discriminator 2
 2690 004e 1B68     		ldr	r3, [r3]
 2691              		.loc 1 1411 30 discriminator 2
 2692 0050 03F00103 		and	r3, r3, #1
 2693              		.loc 1 1411 8 discriminator 2
 2694 0054 012B     		cmp	r3, #1
 2695 0056 07D0     		beq	.L154
1412:Drivers/STM32F4xx_HAL_Driver/Src/stm32f4xx_hal_i2c.c ****     {
1413:Drivers/STM32F4xx_HAL_Driver/Src/stm32f4xx_hal_i2c.c ****       /* Enable I2C peripheral */
1414:Drivers/STM32F4xx_HAL_Driver/Src/stm32f4xx_hal_i2c.c ****       __HAL_I2C_ENABLE(hi2c);
 2696              		.loc 1 1414 7
 2697 0058 FB68     		ldr	r3, [r7, #12]
 2698 005a 1B68     		ldr	r3, [r3]
 2699 005c 1A68     		ldr	r2, [r3]
 2700 005e FB68     		ldr	r3, [r7, #12]
 2701 0060 1B68     		ldr	r3, [r3]
 2702 0062 42F00102 		orr	r2, r2, #1
 2703 0066 1A60     		str	r2, [r3]
ARM GAS  /tmp/ccC4l07N.s 			page 73


 2704              	.L154:
1415:Drivers/STM32F4xx_HAL_Driver/Src/stm32f4xx_hal_i2c.c ****     }
1416:Drivers/STM32F4xx_HAL_Driver/Src/stm32f4xx_hal_i2c.c **** 
1417:Drivers/STM32F4xx_HAL_Driver/Src/stm32f4xx_hal_i2c.c ****     /* Disable Pos */
1418:Drivers/STM32F4xx_HAL_Driver/Src/stm32f4xx_hal_i2c.c ****     CLEAR_BIT(hi2c->Instance->CR1, I2C_CR1_POS);
 2705              		.loc 1 1418 5
 2706 0068 FB68     		ldr	r3, [r7, #12]
 2707 006a 1B68     		ldr	r3, [r3]
 2708 006c 1A68     		ldr	r2, [r3]
 2709 006e FB68     		ldr	r3, [r7, #12]
 2710 0070 1B68     		ldr	r3, [r3]
 2711 0072 22F40062 		bic	r2, r2, #2048
 2712 0076 1A60     		str	r2, [r3]
1419:Drivers/STM32F4xx_HAL_Driver/Src/stm32f4xx_hal_i2c.c **** 
1420:Drivers/STM32F4xx_HAL_Driver/Src/stm32f4xx_hal_i2c.c ****     hi2c->State       = HAL_I2C_STATE_BUSY_TX;
 2713              		.loc 1 1420 23
 2714 0078 FB68     		ldr	r3, [r7, #12]
 2715 007a 2122     		movs	r2, #33
 2716 007c 83F83D20 		strb	r2, [r3, #61]
1421:Drivers/STM32F4xx_HAL_Driver/Src/stm32f4xx_hal_i2c.c ****     hi2c->Mode        = HAL_I2C_MODE_SLAVE;
 2717              		.loc 1 1421 23
 2718 0080 FB68     		ldr	r3, [r7, #12]
 2719 0082 2022     		movs	r2, #32
 2720 0084 83F83E20 		strb	r2, [r3, #62]
1422:Drivers/STM32F4xx_HAL_Driver/Src/stm32f4xx_hal_i2c.c ****     hi2c->ErrorCode   = HAL_I2C_ERROR_NONE;
 2721              		.loc 1 1422 23
 2722 0088 FB68     		ldr	r3, [r7, #12]
 2723 008a 0022     		movs	r2, #0
 2724 008c 1A64     		str	r2, [r3, #64]
1423:Drivers/STM32F4xx_HAL_Driver/Src/stm32f4xx_hal_i2c.c **** 
1424:Drivers/STM32F4xx_HAL_Driver/Src/stm32f4xx_hal_i2c.c ****     /* Prepare transfer parameters */
1425:Drivers/STM32F4xx_HAL_Driver/Src/stm32f4xx_hal_i2c.c ****     hi2c->pBuffPtr    = pData;
 2725              		.loc 1 1425 23
 2726 008e FB68     		ldr	r3, [r7, #12]
 2727 0090 BA68     		ldr	r2, [r7, #8]
 2728 0092 5A62     		str	r2, [r3, #36]
1426:Drivers/STM32F4xx_HAL_Driver/Src/stm32f4xx_hal_i2c.c ****     hi2c->XferCount   = Size;
 2729              		.loc 1 1426 23
 2730 0094 FB68     		ldr	r3, [r7, #12]
 2731 0096 FA88     		ldrh	r2, [r7, #6]	@ movhi
 2732 0098 5A85     		strh	r2, [r3, #42]	@ movhi
1427:Drivers/STM32F4xx_HAL_Driver/Src/stm32f4xx_hal_i2c.c ****     hi2c->XferSize    = hi2c->XferCount;
