ARM GAS  /tmp/ccqnyf0j.s 			page 1


   1              		.cpu cortex-m4
   2              		.eabi_attribute 27, 1
   3              		.eabi_attribute 28, 1
   4              		.eabi_attribute 20, 1
   5              		.eabi_attribute 21, 1
   6              		.eabi_attribute 23, 3
   7              		.eabi_attribute 24, 1
   8              		.eabi_attribute 25, 1
   9              		.eabi_attribute 26, 1
  10              		.eabi_attribute 30, 6
  11              		.eabi_attribute 34, 1
  12              		.eabi_attribute 18, 4
  13              		.file	"stm32f4xx_hal_adc_ex.c"
  14              		.text
  15              	.Ltext0:
  16              		.cfi_sections	.debug_frame
  17              		.section	.text.HAL_ADCEx_InjectedStart,"ax",%progbits
  18              		.align	1
  19              		.global	HAL_ADCEx_InjectedStart
  20              		.arch armv7e-m
  21              		.syntax unified
  22              		.thumb
  23              		.thumb_func
  24              		.fpu fpv4-sp-d16
  26              	HAL_ADCEx_InjectedStart:
  27              	.LFB130:
  28              		.file 1 "Drivers/STM32F4xx_HAL_Driver/Src/stm32f4xx_hal_adc_ex.c"
   1:Drivers/STM32F4xx_HAL_Driver/Src/stm32f4xx_hal_adc_ex.c **** /**
   2:Drivers/STM32F4xx_HAL_Driver/Src/stm32f4xx_hal_adc_ex.c ****   ******************************************************************************
   3:Drivers/STM32F4xx_HAL_Driver/Src/stm32f4xx_hal_adc_ex.c ****   * @file    stm32f4xx_hal_adc_ex.c
   4:Drivers/STM32F4xx_HAL_Driver/Src/stm32f4xx_hal_adc_ex.c ****   * @author  MCD Application Team
   5:Drivers/STM32F4xx_HAL_Driver/Src/stm32f4xx_hal_adc_ex.c ****   * @brief   This file provides firmware functions to manage the following
   6:Drivers/STM32F4xx_HAL_Driver/Src/stm32f4xx_hal_adc_ex.c ****   *          functionalities of the ADC extension peripheral:
   7:Drivers/STM32F4xx_HAL_Driver/Src/stm32f4xx_hal_adc_ex.c ****   *           + Extended features functions
   8:Drivers/STM32F4xx_HAL_Driver/Src/stm32f4xx_hal_adc_ex.c ****   *
   9:Drivers/STM32F4xx_HAL_Driver/Src/stm32f4xx_hal_adc_ex.c ****   @verbatim
  10:Drivers/STM32F4xx_HAL_Driver/Src/stm32f4xx_hal_adc_ex.c ****   ==============================================================================
  11:Drivers/STM32F4xx_HAL_Driver/Src/stm32f4xx_hal_adc_ex.c ****                     ##### How to use this driver #####
  12:Drivers/STM32F4xx_HAL_Driver/Src/stm32f4xx_hal_adc_ex.c ****   ==============================================================================
  13:Drivers/STM32F4xx_HAL_Driver/Src/stm32f4xx_hal_adc_ex.c ****     [..]
  14:Drivers/STM32F4xx_HAL_Driver/Src/stm32f4xx_hal_adc_ex.c ****     (#)Initialize the ADC low level resources by implementing the HAL_ADC_MspInit():
  15:Drivers/STM32F4xx_HAL_Driver/Src/stm32f4xx_hal_adc_ex.c ****        (##) Enable the ADC interface clock using __HAL_RCC_ADC_CLK_ENABLE()
  16:Drivers/STM32F4xx_HAL_Driver/Src/stm32f4xx_hal_adc_ex.c ****        (##) ADC pins configuration
  17:Drivers/STM32F4xx_HAL_Driver/Src/stm32f4xx_hal_adc_ex.c ****              (+++) Enable the clock for the ADC GPIOs using the following function:
  18:Drivers/STM32F4xx_HAL_Driver/Src/stm32f4xx_hal_adc_ex.c ****                    __HAL_RCC_GPIOx_CLK_ENABLE()
  19:Drivers/STM32F4xx_HAL_Driver/Src/stm32f4xx_hal_adc_ex.c ****              (+++) Configure these ADC pins in analog mode using HAL_GPIO_Init()
  20:Drivers/STM32F4xx_HAL_Driver/Src/stm32f4xx_hal_adc_ex.c ****        (##) In case of using interrupts (e.g. HAL_ADC_Start_IT())
  21:Drivers/STM32F4xx_HAL_Driver/Src/stm32f4xx_hal_adc_ex.c ****              (+++) Configure the ADC interrupt priority using HAL_NVIC_SetPriority()
  22:Drivers/STM32F4xx_HAL_Driver/Src/stm32f4xx_hal_adc_ex.c ****              (+++) Enable the ADC IRQ handler using HAL_NVIC_EnableIRQ()
  23:Drivers/STM32F4xx_HAL_Driver/Src/stm32f4xx_hal_adc_ex.c ****              (+++) In ADC IRQ handler, call HAL_ADC_IRQHandler()
  24:Drivers/STM32F4xx_HAL_Driver/Src/stm32f4xx_hal_adc_ex.c ****       (##) In case of using DMA to control data transfer (e.g. HAL_ADC_Start_DMA())
  25:Drivers/STM32F4xx_HAL_Driver/Src/stm32f4xx_hal_adc_ex.c ****              (+++) Enable the DMAx interface clock using __HAL_RCC_DMAx_CLK_ENABLE()
  26:Drivers/STM32F4xx_HAL_Driver/Src/stm32f4xx_hal_adc_ex.c ****              (+++) Configure and enable two DMA streams stream for managing data
  27:Drivers/STM32F4xx_HAL_Driver/Src/stm32f4xx_hal_adc_ex.c ****                  transfer from peripheral to memory (output stream)
  28:Drivers/STM32F4xx_HAL_Driver/Src/stm32f4xx_hal_adc_ex.c ****              (+++) Associate the initialized DMA handle to the ADC DMA handle
  29:Drivers/STM32F4xx_HAL_Driver/Src/stm32f4xx_hal_adc_ex.c ****                  using  __HAL_LINKDMA()
  30:Drivers/STM32F4xx_HAL_Driver/Src/stm32f4xx_hal_adc_ex.c ****              (+++) Configure the priority and enable the NVIC for the transfer complete
ARM GAS  /tmp/ccqnyf0j.s 			page 2


  31:Drivers/STM32F4xx_HAL_Driver/Src/stm32f4xx_hal_adc_ex.c ****                  interrupt on the two DMA Streams. The output stream should have higher
  32:Drivers/STM32F4xx_HAL_Driver/Src/stm32f4xx_hal_adc_ex.c ****                  priority than the input stream.
  33:Drivers/STM32F4xx_HAL_Driver/Src/stm32f4xx_hal_adc_ex.c ****      (#) Configure the ADC Prescaler, conversion resolution and data alignment
  34:Drivers/STM32F4xx_HAL_Driver/Src/stm32f4xx_hal_adc_ex.c ****          using the HAL_ADC_Init() function.
  35:Drivers/STM32F4xx_HAL_Driver/Src/stm32f4xx_hal_adc_ex.c **** 
  36:Drivers/STM32F4xx_HAL_Driver/Src/stm32f4xx_hal_adc_ex.c ****      (#) Configure the ADC Injected channels group features, use HAL_ADC_Init()
  37:Drivers/STM32F4xx_HAL_Driver/Src/stm32f4xx_hal_adc_ex.c ****          and HAL_ADC_ConfigChannel() functions.
  38:Drivers/STM32F4xx_HAL_Driver/Src/stm32f4xx_hal_adc_ex.c **** 
  39:Drivers/STM32F4xx_HAL_Driver/Src/stm32f4xx_hal_adc_ex.c ****      (#) Three operation modes are available within this driver:
  40:Drivers/STM32F4xx_HAL_Driver/Src/stm32f4xx_hal_adc_ex.c **** 
  41:Drivers/STM32F4xx_HAL_Driver/Src/stm32f4xx_hal_adc_ex.c ****      *** Polling mode IO operation ***
  42:Drivers/STM32F4xx_HAL_Driver/Src/stm32f4xx_hal_adc_ex.c ****      =================================
  43:Drivers/STM32F4xx_HAL_Driver/Src/stm32f4xx_hal_adc_ex.c ****      [..]
  44:Drivers/STM32F4xx_HAL_Driver/Src/stm32f4xx_hal_adc_ex.c ****        (+) Start the ADC peripheral using HAL_ADCEx_InjectedStart()
  45:Drivers/STM32F4xx_HAL_Driver/Src/stm32f4xx_hal_adc_ex.c ****        (+) Wait for end of conversion using HAL_ADC_PollForConversion(), at this stage
  46:Drivers/STM32F4xx_HAL_Driver/Src/stm32f4xx_hal_adc_ex.c ****            user can specify the value of timeout according to his end application
  47:Drivers/STM32F4xx_HAL_Driver/Src/stm32f4xx_hal_adc_ex.c ****        (+) To read the ADC converted values, use the HAL_ADCEx_InjectedGetValue() function.
  48:Drivers/STM32F4xx_HAL_Driver/Src/stm32f4xx_hal_adc_ex.c ****        (+) Stop the ADC peripheral using HAL_ADCEx_InjectedStop()
  49:Drivers/STM32F4xx_HAL_Driver/Src/stm32f4xx_hal_adc_ex.c **** 
  50:Drivers/STM32F4xx_HAL_Driver/Src/stm32f4xx_hal_adc_ex.c ****      *** Interrupt mode IO operation ***
  51:Drivers/STM32F4xx_HAL_Driver/Src/stm32f4xx_hal_adc_ex.c ****      ===================================
  52:Drivers/STM32F4xx_HAL_Driver/Src/stm32f4xx_hal_adc_ex.c ****      [..]
  53:Drivers/STM32F4xx_HAL_Driver/Src/stm32f4xx_hal_adc_ex.c ****        (+) Start the ADC peripheral using HAL_ADCEx_InjectedStart_IT()
  54:Drivers/STM32F4xx_HAL_Driver/Src/stm32f4xx_hal_adc_ex.c ****        (+) Use HAL_ADC_IRQHandler() called under ADC_IRQHandler() Interrupt subroutine
  55:Drivers/STM32F4xx_HAL_Driver/Src/stm32f4xx_hal_adc_ex.c ****        (+) At ADC end of conversion HAL_ADCEx_InjectedConvCpltCallback() function is executed and u
  56:Drivers/STM32F4xx_HAL_Driver/Src/stm32f4xx_hal_adc_ex.c ****             add his own code by customization of function pointer HAL_ADCEx_InjectedConvCpltCallbac
  57:Drivers/STM32F4xx_HAL_Driver/Src/stm32f4xx_hal_adc_ex.c ****        (+) In case of ADC Error, HAL_ADCEx_InjectedErrorCallback() function is executed and user ca
  58:Drivers/STM32F4xx_HAL_Driver/Src/stm32f4xx_hal_adc_ex.c ****             add his own code by customization of function pointer HAL_ADCEx_InjectedErrorCallback
  59:Drivers/STM32F4xx_HAL_Driver/Src/stm32f4xx_hal_adc_ex.c ****        (+) Stop the ADC peripheral using HAL_ADCEx_InjectedStop_IT()
  60:Drivers/STM32F4xx_HAL_Driver/Src/stm32f4xx_hal_adc_ex.c **** 
  61:Drivers/STM32F4xx_HAL_Driver/Src/stm32f4xx_hal_adc_ex.c ****      *** Multi mode ADCs Regular channels configuration ***
  62:Drivers/STM32F4xx_HAL_Driver/Src/stm32f4xx_hal_adc_ex.c ****      ======================================================
  63:Drivers/STM32F4xx_HAL_Driver/Src/stm32f4xx_hal_adc_ex.c ****      [..]
  64:Drivers/STM32F4xx_HAL_Driver/Src/stm32f4xx_hal_adc_ex.c ****        (+) Select the Multi mode ADC regular channels features (dual or triple mode)
  65:Drivers/STM32F4xx_HAL_Driver/Src/stm32f4xx_hal_adc_ex.c ****           and configure the DMA mode using HAL_ADCEx_MultiModeConfigChannel() functions.
  66:Drivers/STM32F4xx_HAL_Driver/Src/stm32f4xx_hal_adc_ex.c ****        (+) Start the ADC peripheral using HAL_ADCEx_MultiModeStart_DMA(), at this stage the user sp
  67:Drivers/STM32F4xx_HAL_Driver/Src/stm32f4xx_hal_adc_ex.c ****            of data to be transferred at each end of conversion
  68:Drivers/STM32F4xx_HAL_Driver/Src/stm32f4xx_hal_adc_ex.c ****        (+) Read the ADCs converted values using the HAL_ADCEx_MultiModeGetValue() function.
  69:Drivers/STM32F4xx_HAL_Driver/Src/stm32f4xx_hal_adc_ex.c **** 
  70:Drivers/STM32F4xx_HAL_Driver/Src/stm32f4xx_hal_adc_ex.c **** 
  71:Drivers/STM32F4xx_HAL_Driver/Src/stm32f4xx_hal_adc_ex.c ****     @endverbatim
  72:Drivers/STM32F4xx_HAL_Driver/Src/stm32f4xx_hal_adc_ex.c ****   ******************************************************************************
  73:Drivers/STM32F4xx_HAL_Driver/Src/stm32f4xx_hal_adc_ex.c ****   * @attention
  74:Drivers/STM32F4xx_HAL_Driver/Src/stm32f4xx_hal_adc_ex.c ****   *
  75:Drivers/STM32F4xx_HAL_Driver/Src/stm32f4xx_hal_adc_ex.c ****   * <h2><center>&copy; Copyright (c) 2017 STMicroelectronics.
  76:Drivers/STM32F4xx_HAL_Driver/Src/stm32f4xx_hal_adc_ex.c ****   * All rights reserved.</center></h2>
  77:Drivers/STM32F4xx_HAL_Driver/Src/stm32f4xx_hal_adc_ex.c ****   *
  78:Drivers/STM32F4xx_HAL_Driver/Src/stm32f4xx_hal_adc_ex.c ****   * This software component is licensed by ST under BSD 3-Clause license,
  79:Drivers/STM32F4xx_HAL_Driver/Src/stm32f4xx_hal_adc_ex.c ****   * the "License"; You may not use this file except in compliance with the
  80:Drivers/STM32F4xx_HAL_Driver/Src/stm32f4xx_hal_adc_ex.c ****   * License. You may obtain a copy of the License at:
  81:Drivers/STM32F4xx_HAL_Driver/Src/stm32f4xx_hal_adc_ex.c ****   *                        opensource.org/licenses/BSD-3-Clause
  82:Drivers/STM32F4xx_HAL_Driver/Src/stm32f4xx_hal_adc_ex.c ****   *
  83:Drivers/STM32F4xx_HAL_Driver/Src/stm32f4xx_hal_adc_ex.c ****   ******************************************************************************
  84:Drivers/STM32F4xx_HAL_Driver/Src/stm32f4xx_hal_adc_ex.c ****   */
  85:Drivers/STM32F4xx_HAL_Driver/Src/stm32f4xx_hal_adc_ex.c **** 
  86:Drivers/STM32F4xx_HAL_Driver/Src/stm32f4xx_hal_adc_ex.c **** /* Includes ------------------------------------------------------------------*/
  87:Drivers/STM32F4xx_HAL_Driver/Src/stm32f4xx_hal_adc_ex.c **** #include "stm32f4xx_hal.h"
ARM GAS  /tmp/ccqnyf0j.s 			page 3


  88:Drivers/STM32F4xx_HAL_Driver/Src/stm32f4xx_hal_adc_ex.c **** 
  89:Drivers/STM32F4xx_HAL_Driver/Src/stm32f4xx_hal_adc_ex.c **** /** @addtogroup STM32F4xx_HAL_Driver
  90:Drivers/STM32F4xx_HAL_Driver/Src/stm32f4xx_hal_adc_ex.c ****   * @{
  91:Drivers/STM32F4xx_HAL_Driver/Src/stm32f4xx_hal_adc_ex.c ****   */
  92:Drivers/STM32F4xx_HAL_Driver/Src/stm32f4xx_hal_adc_ex.c **** 
  93:Drivers/STM32F4xx_HAL_Driver/Src/stm32f4xx_hal_adc_ex.c **** /** @defgroup ADCEx ADCEx
  94:Drivers/STM32F4xx_HAL_Driver/Src/stm32f4xx_hal_adc_ex.c ****   * @brief ADC Extended driver modules
  95:Drivers/STM32F4xx_HAL_Driver/Src/stm32f4xx_hal_adc_ex.c ****   * @{
  96:Drivers/STM32F4xx_HAL_Driver/Src/stm32f4xx_hal_adc_ex.c ****   */ 
  97:Drivers/STM32F4xx_HAL_Driver/Src/stm32f4xx_hal_adc_ex.c **** 
  98:Drivers/STM32F4xx_HAL_Driver/Src/stm32f4xx_hal_adc_ex.c **** #ifdef HAL_ADC_MODULE_ENABLED
  99:Drivers/STM32F4xx_HAL_Driver/Src/stm32f4xx_hal_adc_ex.c ****     
 100:Drivers/STM32F4xx_HAL_Driver/Src/stm32f4xx_hal_adc_ex.c **** /* Private typedef -----------------------------------------------------------*/
 101:Drivers/STM32F4xx_HAL_Driver/Src/stm32f4xx_hal_adc_ex.c **** /* Private define ------------------------------------------------------------*/ 
 102:Drivers/STM32F4xx_HAL_Driver/Src/stm32f4xx_hal_adc_ex.c **** /* Private macro -------------------------------------------------------------*/
 103:Drivers/STM32F4xx_HAL_Driver/Src/stm32f4xx_hal_adc_ex.c **** /* Private variables ---------------------------------------------------------*/
 104:Drivers/STM32F4xx_HAL_Driver/Src/stm32f4xx_hal_adc_ex.c **** /** @addtogroup ADCEx_Private_Functions
 105:Drivers/STM32F4xx_HAL_Driver/Src/stm32f4xx_hal_adc_ex.c ****   * @{
 106:Drivers/STM32F4xx_HAL_Driver/Src/stm32f4xx_hal_adc_ex.c ****   */
 107:Drivers/STM32F4xx_HAL_Driver/Src/stm32f4xx_hal_adc_ex.c **** /* Private function prototypes -----------------------------------------------*/
 108:Drivers/STM32F4xx_HAL_Driver/Src/stm32f4xx_hal_adc_ex.c **** static void ADC_MultiModeDMAConvCplt(DMA_HandleTypeDef *hdma);
 109:Drivers/STM32F4xx_HAL_Driver/Src/stm32f4xx_hal_adc_ex.c **** static void ADC_MultiModeDMAError(DMA_HandleTypeDef *hdma);
 110:Drivers/STM32F4xx_HAL_Driver/Src/stm32f4xx_hal_adc_ex.c **** static void ADC_MultiModeDMAHalfConvCplt(DMA_HandleTypeDef *hdma); 
 111:Drivers/STM32F4xx_HAL_Driver/Src/stm32f4xx_hal_adc_ex.c **** /**
 112:Drivers/STM32F4xx_HAL_Driver/Src/stm32f4xx_hal_adc_ex.c ****   * @}
 113:Drivers/STM32F4xx_HAL_Driver/Src/stm32f4xx_hal_adc_ex.c ****   */
 114:Drivers/STM32F4xx_HAL_Driver/Src/stm32f4xx_hal_adc_ex.c **** 
 115:Drivers/STM32F4xx_HAL_Driver/Src/stm32f4xx_hal_adc_ex.c **** /* Exported functions --------------------------------------------------------*/
 116:Drivers/STM32F4xx_HAL_Driver/Src/stm32f4xx_hal_adc_ex.c **** /** @defgroup ADCEx_Exported_Functions ADC Exported Functions
 117:Drivers/STM32F4xx_HAL_Driver/Src/stm32f4xx_hal_adc_ex.c ****   * @{
 118:Drivers/STM32F4xx_HAL_Driver/Src/stm32f4xx_hal_adc_ex.c ****   */
 119:Drivers/STM32F4xx_HAL_Driver/Src/stm32f4xx_hal_adc_ex.c **** 
 120:Drivers/STM32F4xx_HAL_Driver/Src/stm32f4xx_hal_adc_ex.c **** /** @defgroup ADCEx_Exported_Functions_Group1  Extended features functions 
 121:Drivers/STM32F4xx_HAL_Driver/Src/stm32f4xx_hal_adc_ex.c ****   *  @brief    Extended features functions  
 122:Drivers/STM32F4xx_HAL_Driver/Src/stm32f4xx_hal_adc_ex.c ****   *
 123:Drivers/STM32F4xx_HAL_Driver/Src/stm32f4xx_hal_adc_ex.c **** @verbatim   
 124:Drivers/STM32F4xx_HAL_Driver/Src/stm32f4xx_hal_adc_ex.c ****  ===============================================================================
 125:Drivers/STM32F4xx_HAL_Driver/Src/stm32f4xx_hal_adc_ex.c ****                  ##### Extended features functions #####
 126:Drivers/STM32F4xx_HAL_Driver/Src/stm32f4xx_hal_adc_ex.c ****  ===============================================================================  
 127:Drivers/STM32F4xx_HAL_Driver/Src/stm32f4xx_hal_adc_ex.c ****     [..]  This section provides functions allowing to:
 128:Drivers/STM32F4xx_HAL_Driver/Src/stm32f4xx_hal_adc_ex.c ****       (+) Start conversion of injected channel.
 129:Drivers/STM32F4xx_HAL_Driver/Src/stm32f4xx_hal_adc_ex.c ****       (+) Stop conversion of injected channel.
 130:Drivers/STM32F4xx_HAL_Driver/Src/stm32f4xx_hal_adc_ex.c ****       (+) Start multimode and enable DMA transfer.
 131:Drivers/STM32F4xx_HAL_Driver/Src/stm32f4xx_hal_adc_ex.c ****       (+) Stop multimode and disable DMA transfer.
 132:Drivers/STM32F4xx_HAL_Driver/Src/stm32f4xx_hal_adc_ex.c ****       (+) Get result of injected channel conversion.
 133:Drivers/STM32F4xx_HAL_Driver/Src/stm32f4xx_hal_adc_ex.c ****       (+) Get result of multimode conversion.
 134:Drivers/STM32F4xx_HAL_Driver/Src/stm32f4xx_hal_adc_ex.c ****       (+) Configure injected channels.
 135:Drivers/STM32F4xx_HAL_Driver/Src/stm32f4xx_hal_adc_ex.c ****       (+) Configure multimode.
 136:Drivers/STM32F4xx_HAL_Driver/Src/stm32f4xx_hal_adc_ex.c ****                
 137:Drivers/STM32F4xx_HAL_Driver/Src/stm32f4xx_hal_adc_ex.c **** @endverbatim
 138:Drivers/STM32F4xx_HAL_Driver/Src/stm32f4xx_hal_adc_ex.c ****   * @{
 139:Drivers/STM32F4xx_HAL_Driver/Src/stm32f4xx_hal_adc_ex.c ****   */
 140:Drivers/STM32F4xx_HAL_Driver/Src/stm32f4xx_hal_adc_ex.c **** 
 141:Drivers/STM32F4xx_HAL_Driver/Src/stm32f4xx_hal_adc_ex.c **** /**
 142:Drivers/STM32F4xx_HAL_Driver/Src/stm32f4xx_hal_adc_ex.c ****   * @brief  Enables the selected ADC software start conversion of the injected channels.
 143:Drivers/STM32F4xx_HAL_Driver/Src/stm32f4xx_hal_adc_ex.c ****   * @param  hadc pointer to a ADC_HandleTypeDef structure that contains
 144:Drivers/STM32F4xx_HAL_Driver/Src/stm32f4xx_hal_adc_ex.c ****   *         the configuration information for the specified ADC.
ARM GAS  /tmp/ccqnyf0j.s 			page 4


 145:Drivers/STM32F4xx_HAL_Driver/Src/stm32f4xx_hal_adc_ex.c ****   * @retval HAL status
 146:Drivers/STM32F4xx_HAL_Driver/Src/stm32f4xx_hal_adc_ex.c ****   */
 147:Drivers/STM32F4xx_HAL_Driver/Src/stm32f4xx_hal_adc_ex.c **** HAL_StatusTypeDef HAL_ADCEx_InjectedStart(ADC_HandleTypeDef* hadc)
 148:Drivers/STM32F4xx_HAL_Driver/Src/stm32f4xx_hal_adc_ex.c **** {
  29              		.loc 1 148 1
  30              		.cfi_startproc
  31              		@ args = 0, pretend = 0, frame = 24
  32              		@ frame_needed = 1, uses_anonymous_args = 0
  33              		@ link register save eliminated.
  34 0000 80B4     		push	{r7}
  35              	.LCFI0:
  36              		.cfi_def_cfa_offset 4
  37              		.cfi_offset 7, -4
  38 0002 87B0     		sub	sp, sp, #28
  39              	.LCFI1:
  40              		.cfi_def_cfa_offset 32
  41 0004 00AF     		add	r7, sp, #0
  42              	.LCFI2:
  43              		.cfi_def_cfa_register 7
  44 0006 7860     		str	r0, [r7, #4]
 149:Drivers/STM32F4xx_HAL_Driver/Src/stm32f4xx_hal_adc_ex.c ****   __IO uint32_t counter = 0U;
  45              		.loc 1 149 17
  46 0008 0023     		movs	r3, #0
  47 000a BB60     		str	r3, [r7, #8]
 150:Drivers/STM32F4xx_HAL_Driver/Src/stm32f4xx_hal_adc_ex.c ****   uint32_t tmp1 = 0U, tmp2 = 0U;
  48              		.loc 1 150 12
  49 000c 0023     		movs	r3, #0
  50 000e 7B61     		str	r3, [r7, #20]
  51              		.loc 1 150 23
  52 0010 0023     		movs	r3, #0
  53 0012 3B61     		str	r3, [r7, #16]
 151:Drivers/STM32F4xx_HAL_Driver/Src/stm32f4xx_hal_adc_ex.c ****   ADC_Common_TypeDef *tmpADC_Common;
 152:Drivers/STM32F4xx_HAL_Driver/Src/stm32f4xx_hal_adc_ex.c ****   
 153:Drivers/STM32F4xx_HAL_Driver/Src/stm32f4xx_hal_adc_ex.c ****   /* Process locked */
 154:Drivers/STM32F4xx_HAL_Driver/Src/stm32f4xx_hal_adc_ex.c ****   __HAL_LOCK(hadc);
  54              		.loc 1 154 3
  55 0014 7B68     		ldr	r3, [r7, #4]
  56 0016 93F83C30 		ldrb	r3, [r3, #60]	@ zero_extendqisi2
  57 001a 012B     		cmp	r3, #1
  58 001c 01D1     		bne	.L2
  59              		.loc 1 154 3 is_stmt 0 discriminator 1
  60 001e 0223     		movs	r3, #2
  61 0020 9DE0     		b	.L3
  62              	.L2:
  63              		.loc 1 154 3 discriminator 2
  64 0022 7B68     		ldr	r3, [r7, #4]
  65 0024 0122     		movs	r2, #1
  66 0026 83F83C20 		strb	r2, [r3, #60]
 155:Drivers/STM32F4xx_HAL_Driver/Src/stm32f4xx_hal_adc_ex.c ****   
 156:Drivers/STM32F4xx_HAL_Driver/Src/stm32f4xx_hal_adc_ex.c ****   /* Enable the ADC peripheral */
 157:Drivers/STM32F4xx_HAL_Driver/Src/stm32f4xx_hal_adc_ex.c ****   
 158:Drivers/STM32F4xx_HAL_Driver/Src/stm32f4xx_hal_adc_ex.c ****   /* Check if ADC peripheral is disabled in order to enable it and wait during 
 159:Drivers/STM32F4xx_HAL_Driver/Src/stm32f4xx_hal_adc_ex.c ****      Tstab time the ADC's stabilization */
 160:Drivers/STM32F4xx_HAL_Driver/Src/stm32f4xx_hal_adc_ex.c ****   if((hadc->Instance->CR2 & ADC_CR2_ADON) != ADC_CR2_ADON)
  67              		.loc 1 160 11 is_stmt 1 discriminator 2
  68 002a 7B68     		ldr	r3, [r7, #4]
  69 002c 1B68     		ldr	r3, [r3]
ARM GAS  /tmp/ccqnyf0j.s 			page 5


  70              		.loc 1 160 21 discriminator 2
  71 002e 9B68     		ldr	r3, [r3, #8]
  72              		.loc 1 160 27 discriminator 2
  73 0030 03F00103 		and	r3, r3, #1
  74              		.loc 1 160 5 discriminator 2
  75 0034 012B     		cmp	r3, #1
  76 0036 18D0     		beq	.L4
 161:Drivers/STM32F4xx_HAL_Driver/Src/stm32f4xx_hal_adc_ex.c ****   {  
 162:Drivers/STM32F4xx_HAL_Driver/Src/stm32f4xx_hal_adc_ex.c ****     /* Enable the Peripheral */
 163:Drivers/STM32F4xx_HAL_Driver/Src/stm32f4xx_hal_adc_ex.c ****     __HAL_ADC_ENABLE(hadc);
  77              		.loc 1 163 5
  78 0038 7B68     		ldr	r3, [r7, #4]
  79 003a 1B68     		ldr	r3, [r3]
  80 003c 9A68     		ldr	r2, [r3, #8]
  81 003e 7B68     		ldr	r3, [r7, #4]
  82 0040 1B68     		ldr	r3, [r3]
  83 0042 42F00102 		orr	r2, r2, #1
  84 0046 9A60     		str	r2, [r3, #8]
 164:Drivers/STM32F4xx_HAL_Driver/Src/stm32f4xx_hal_adc_ex.c ****     
 165:Drivers/STM32F4xx_HAL_Driver/Src/stm32f4xx_hal_adc_ex.c ****     /* Delay for ADC stabilization time */
 166:Drivers/STM32F4xx_HAL_Driver/Src/stm32f4xx_hal_adc_ex.c ****     /* Compute number of CPU cycles to wait for */
 167:Drivers/STM32F4xx_HAL_Driver/Src/stm32f4xx_hal_adc_ex.c ****     counter = (ADC_STAB_DELAY_US * (SystemCoreClock / 1000000U));
  85              		.loc 1 167 53
  86 0048 484B     		ldr	r3, .L10
  87 004a 1B68     		ldr	r3, [r3]
  88 004c 484A     		ldr	r2, .L10+4
  89 004e A2FB0323 		umull	r2, r3, r2, r3
  90 0052 9A0C     		lsrs	r2, r3, #18
  91              		.loc 1 167 34
  92 0054 1346     		mov	r3, r2
  93 0056 5B00     		lsls	r3, r3, #1
  94 0058 1344     		add	r3, r3, r2
  95              		.loc 1 167 13
  96 005a BB60     		str	r3, [r7, #8]
 168:Drivers/STM32F4xx_HAL_Driver/Src/stm32f4xx_hal_adc_ex.c ****     while(counter != 0U)
  97              		.loc 1 168 10
  98 005c 02E0     		b	.L5
  99              	.L6:
 169:Drivers/STM32F4xx_HAL_Driver/Src/stm32f4xx_hal_adc_ex.c ****     {
 170:Drivers/STM32F4xx_HAL_Driver/Src/stm32f4xx_hal_adc_ex.c ****       counter--;
 100              		.loc 1 170 14
 101 005e BB68     		ldr	r3, [r7, #8]
 102 0060 013B     		subs	r3, r3, #1
 103 0062 BB60     		str	r3, [r7, #8]
 104              	.L5:
 168:Drivers/STM32F4xx_HAL_Driver/Src/stm32f4xx_hal_adc_ex.c ****     while(counter != 0U)
 105              		.loc 1 168 19
 106 0064 BB68     		ldr	r3, [r7, #8]
 168:Drivers/STM32F4xx_HAL_Driver/Src/stm32f4xx_hal_adc_ex.c ****     while(counter != 0U)
 107              		.loc 1 168 10
 108 0066 002B     		cmp	r3, #0
 109 0068 F9D1     		bne	.L6
 110              	.L4:
 171:Drivers/STM32F4xx_HAL_Driver/Src/stm32f4xx_hal_adc_ex.c ****     }
 172:Drivers/STM32F4xx_HAL_Driver/Src/stm32f4xx_hal_adc_ex.c ****   }
 173:Drivers/STM32F4xx_HAL_Driver/Src/stm32f4xx_hal_adc_ex.c ****   
 174:Drivers/STM32F4xx_HAL_Driver/Src/stm32f4xx_hal_adc_ex.c ****   /* Start conversion if ADC is effectively enabled */
ARM GAS  /tmp/ccqnyf0j.s 			page 6


 175:Drivers/STM32F4xx_HAL_Driver/Src/stm32f4xx_hal_adc_ex.c ****   if(HAL_IS_BIT_SET(hadc->Instance->CR2, ADC_CR2_ADON))
 111              		.loc 1 175 6
 112 006a 7B68     		ldr	r3, [r7, #4]
 113 006c 1B68     		ldr	r3, [r3]
 114 006e 9B68     		ldr	r3, [r3, #8]
 115 0070 03F00103 		and	r3, r3, #1
 116              		.loc 1 175 5
 117 0074 012B     		cmp	r3, #1
 118 0076 71D1     		bne	.L7
 176:Drivers/STM32F4xx_HAL_Driver/Src/stm32f4xx_hal_adc_ex.c ****   {
 177:Drivers/STM32F4xx_HAL_Driver/Src/stm32f4xx_hal_adc_ex.c ****     /* Set ADC state                                                          */
 178:Drivers/STM32F4xx_HAL_Driver/Src/stm32f4xx_hal_adc_ex.c ****     /* - Clear state bitfield related to injected group conversion results    */
 179:Drivers/STM32F4xx_HAL_Driver/Src/stm32f4xx_hal_adc_ex.c ****     /* - Set state bitfield related to injected operation                     */
 180:Drivers/STM32F4xx_HAL_Driver/Src/stm32f4xx_hal_adc_ex.c ****     ADC_STATE_CLR_SET(hadc->State,
 119              		.loc 1 180 5
 120 0078 7B68     		ldr	r3, [r7, #4]
 121 007a 1B6C     		ldr	r3, [r3, #64]
 122 007c 23F44053 		bic	r3, r3, #12288
 123 0080 23F00103 		bic	r3, r3, #1
 124 0084 43F48052 		orr	r2, r3, #4096
 125 0088 7B68     		ldr	r3, [r7, #4]
 126 008a 1A64     		str	r2, [r3, #64]
 181:Drivers/STM32F4xx_HAL_Driver/Src/stm32f4xx_hal_adc_ex.c ****                       HAL_ADC_STATE_READY | HAL_ADC_STATE_INJ_EOC,
 182:Drivers/STM32F4xx_HAL_Driver/Src/stm32f4xx_hal_adc_ex.c ****                       HAL_ADC_STATE_INJ_BUSY);
 183:Drivers/STM32F4xx_HAL_Driver/Src/stm32f4xx_hal_adc_ex.c ****     
 184:Drivers/STM32F4xx_HAL_Driver/Src/stm32f4xx_hal_adc_ex.c ****     /* Check if a regular conversion is ongoing */
 185:Drivers/STM32F4xx_HAL_Driver/Src/stm32f4xx_hal_adc_ex.c ****     /* Note: On this device, there is no ADC error code fields related to     */
 186:Drivers/STM32F4xx_HAL_Driver/Src/stm32f4xx_hal_adc_ex.c ****     /*       conversions on group injected only. In case of conversion on     */
 187:Drivers/STM32F4xx_HAL_Driver/Src/stm32f4xx_hal_adc_ex.c ****     /*       going on group regular, no error code is reset.                  */
 188:Drivers/STM32F4xx_HAL_Driver/Src/stm32f4xx_hal_adc_ex.c ****     if (HAL_IS_BIT_CLR(hadc->State, HAL_ADC_STATE_REG_BUSY))
 127              		.loc 1 188 9
 128 008c 7B68     		ldr	r3, [r7, #4]
 129 008e 1B6C     		ldr	r3, [r3, #64]
 130 0090 03F48073 		and	r3, r3, #256
 131              		.loc 1 188 8
 132 0094 002B     		cmp	r3, #0
 133 0096 02D1     		bne	.L8
 189:Drivers/STM32F4xx_HAL_Driver/Src/stm32f4xx_hal_adc_ex.c ****     {
 190:Drivers/STM32F4xx_HAL_Driver/Src/stm32f4xx_hal_adc_ex.c ****       /* Reset ADC all error code fields */
 191:Drivers/STM32F4xx_HAL_Driver/Src/stm32f4xx_hal_adc_ex.c ****       ADC_CLEAR_ERRORCODE(hadc);
 134              		.loc 1 191 7
 135 0098 7B68     		ldr	r3, [r7, #4]
 136 009a 0022     		movs	r2, #0
 137 009c 5A64     		str	r2, [r3, #68]
 138              	.L8:
 192:Drivers/STM32F4xx_HAL_Driver/Src/stm32f4xx_hal_adc_ex.c ****     }
 193:Drivers/STM32F4xx_HAL_Driver/Src/stm32f4xx_hal_adc_ex.c ****     
 194:Drivers/STM32F4xx_HAL_Driver/Src/stm32f4xx_hal_adc_ex.c ****     /* Process unlocked */
 195:Drivers/STM32F4xx_HAL_Driver/Src/stm32f4xx_hal_adc_ex.c ****     /* Unlock before starting ADC conversions: in case of potential           */
 196:Drivers/STM32F4xx_HAL_Driver/Src/stm32f4xx_hal_adc_ex.c ****     /* interruption, to let the process to ADC IRQ Handler.                   */
 197:Drivers/STM32F4xx_HAL_Driver/Src/stm32f4xx_hal_adc_ex.c ****     __HAL_UNLOCK(hadc);
 139              		.loc 1 197 5
 140 009e 7B68     		ldr	r3, [r7, #4]
 141 00a0 0022     		movs	r2, #0
 142 00a2 83F83C20 		strb	r2, [r3, #60]
 198:Drivers/STM32F4xx_HAL_Driver/Src/stm32f4xx_hal_adc_ex.c ****     
 199:Drivers/STM32F4xx_HAL_Driver/Src/stm32f4xx_hal_adc_ex.c ****     /* Clear injected group conversion flag */
ARM GAS  /tmp/ccqnyf0j.s 			page 7


 200:Drivers/STM32F4xx_HAL_Driver/Src/stm32f4xx_hal_adc_ex.c ****     /* (To ensure of no unknown state from potential previous ADC operations) */
 201:Drivers/STM32F4xx_HAL_Driver/Src/stm32f4xx_hal_adc_ex.c ****     __HAL_ADC_CLEAR_FLAG(hadc, ADC_FLAG_JEOC);
 143              		.loc 1 201 5
 144 00a6 7B68     		ldr	r3, [r7, #4]
 145 00a8 1B68     		ldr	r3, [r3]
 146 00aa 6FF00402 		mvn	r2, #4
 147 00ae 1A60     		str	r2, [r3]
 202:Drivers/STM32F4xx_HAL_Driver/Src/stm32f4xx_hal_adc_ex.c **** 
 203:Drivers/STM32F4xx_HAL_Driver/Src/stm32f4xx_hal_adc_ex.c ****     /* Pointer to the common control register to which is belonging hadc    */
 204:Drivers/STM32F4xx_HAL_Driver/Src/stm32f4xx_hal_adc_ex.c ****     /* (Depending on STM32F4 product, there may be up to 3 ADC and 1 common */
 205:Drivers/STM32F4xx_HAL_Driver/Src/stm32f4xx_hal_adc_ex.c ****     /* control register)                                                    */
 206:Drivers/STM32F4xx_HAL_Driver/Src/stm32f4xx_hal_adc_ex.c ****     tmpADC_Common = ADC_COMMON_REGISTER(hadc);
 148              		.loc 1 206 19
 149 00b0 304B     		ldr	r3, .L10+8
 150 00b2 FB60     		str	r3, [r7, #12]
 207:Drivers/STM32F4xx_HAL_Driver/Src/stm32f4xx_hal_adc_ex.c **** 
 208:Drivers/STM32F4xx_HAL_Driver/Src/stm32f4xx_hal_adc_ex.c ****     /* Check if Multimode enabled */
 209:Drivers/STM32F4xx_HAL_Driver/Src/stm32f4xx_hal_adc_ex.c ****     if(HAL_IS_BIT_CLR(tmpADC_Common->CCR, ADC_CCR_MULTI))
 151              		.loc 1 209 8
 152 00b4 FB68     		ldr	r3, [r7, #12]
 153 00b6 5B68     		ldr	r3, [r3, #4]
 154 00b8 03F01F03 		and	r3, r3, #31
 155              		.loc 1 209 7
 156 00bc 002B     		cmp	r3, #0
 157 00be 24D1     		bne	.L9
 210:Drivers/STM32F4xx_HAL_Driver/Src/stm32f4xx_hal_adc_ex.c ****     {
 211:Drivers/STM32F4xx_HAL_Driver/Src/stm32f4xx_hal_adc_ex.c ****       tmp1 = HAL_IS_BIT_CLR(hadc->Instance->CR2, ADC_CR2_JEXTEN);
 158              		.loc 1 211 14
 159 00c0 7B68     		ldr	r3, [r7, #4]
 160 00c2 1B68     		ldr	r3, [r3]
 161 00c4 9B68     		ldr	r3, [r3, #8]
 162 00c6 03F44013 		and	r3, r3, #3145728
 163 00ca 002B     		cmp	r3, #0
 164 00cc 0CBF     		ite	eq
 165 00ce 0123     		moveq	r3, #1
 166 00d0 0023     		movne	r3, #0
 167 00d2 DBB2     		uxtb	r3, r3
 168              		.loc 1 211 12
 169 00d4 7B61     		str	r3, [r7, #20]
 212:Drivers/STM32F4xx_HAL_Driver/Src/stm32f4xx_hal_adc_ex.c ****       tmp2 = HAL_IS_BIT_CLR(hadc->Instance->CR1, ADC_CR1_JAUTO);
 170              		.loc 1 212 14
 171 00d6 7B68     		ldr	r3, [r7, #4]
 172 00d8 1B68     		ldr	r3, [r3]
 173 00da 5B68     		ldr	r3, [r3, #4]
 174 00dc 03F48063 		and	r3, r3, #1024
 175 00e0 002B     		cmp	r3, #0
 176 00e2 0CBF     		ite	eq
 177 00e4 0123     		moveq	r3, #1
 178 00e6 0023     		movne	r3, #0
 179 00e8 DBB2     		uxtb	r3, r3
 180              		.loc 1 212 12
 181 00ea 3B61     		str	r3, [r7, #16]
 213:Drivers/STM32F4xx_HAL_Driver/Src/stm32f4xx_hal_adc_ex.c ****       if(tmp1 && tmp2)
 182              		.loc 1 213 9
 183 00ec 7B69     		ldr	r3, [r7, #20]
 184 00ee 002B     		cmp	r3, #0
 185 00f0 34D0     		beq	.L7
ARM GAS  /tmp/ccqnyf0j.s 			page 8


 186              		.loc 1 213 15 discriminator 1
 187 00f2 3B69     		ldr	r3, [r7, #16]
 188 00f4 002B     		cmp	r3, #0
 189 00f6 31D0     		beq	.L7
 214:Drivers/STM32F4xx_HAL_Driver/Src/stm32f4xx_hal_adc_ex.c ****       {
 215:Drivers/STM32F4xx_HAL_Driver/Src/stm32f4xx_hal_adc_ex.c ****         /* Enable the selected ADC software conversion for injected group */
 216:Drivers/STM32F4xx_HAL_Driver/Src/stm32f4xx_hal_adc_ex.c ****         hadc->Instance->CR2 |= ADC_CR2_JSWSTART;
 190              		.loc 1 216 13
 191 00f8 7B68     		ldr	r3, [r7, #4]
 192 00fa 1B68     		ldr	r3, [r3]
 193              		.loc 1 216 29
 194 00fc 9A68     		ldr	r2, [r3, #8]
 195              		.loc 1 216 13
 196 00fe 7B68     		ldr	r3, [r7, #4]
 197 0100 1B68     		ldr	r3, [r3]
 198              		.loc 1 216 29
 199 0102 42F48002 		orr	r2, r2, #4194304
 200 0106 9A60     		str	r2, [r3, #8]
 201 0108 28E0     		b	.L7
 202              	.L9:
 217:Drivers/STM32F4xx_HAL_Driver/Src/stm32f4xx_hal_adc_ex.c ****       }
 218:Drivers/STM32F4xx_HAL_Driver/Src/stm32f4xx_hal_adc_ex.c ****     }
 219:Drivers/STM32F4xx_HAL_Driver/Src/stm32f4xx_hal_adc_ex.c ****     else
 220:Drivers/STM32F4xx_HAL_Driver/Src/stm32f4xx_hal_adc_ex.c ****     {
 221:Drivers/STM32F4xx_HAL_Driver/Src/stm32f4xx_hal_adc_ex.c ****       tmp1 = HAL_IS_BIT_CLR(hadc->Instance->CR2, ADC_CR2_JEXTEN);
 203              		.loc 1 221 14
 204 010a 7B68     		ldr	r3, [r7, #4]
 205 010c 1B68     		ldr	r3, [r3]
 206 010e 9B68     		ldr	r3, [r3, #8]
 207 0110 03F44013 		and	r3, r3, #3145728
 208 0114 002B     		cmp	r3, #0
 209 0116 0CBF     		ite	eq
 210 0118 0123     		moveq	r3, #1
 211 011a 0023     		movne	r3, #0
 212 011c DBB2     		uxtb	r3, r3
 213              		.loc 1 221 12
 214 011e 7B61     		str	r3, [r7, #20]
 222:Drivers/STM32F4xx_HAL_Driver/Src/stm32f4xx_hal_adc_ex.c ****       tmp2 = HAL_IS_BIT_CLR(hadc->Instance->CR1, ADC_CR1_JAUTO);
 215              		.loc 1 222 14
 216 0120 7B68     		ldr	r3, [r7, #4]
 217 0122 1B68     		ldr	r3, [r3]
 218 0124 5B68     		ldr	r3, [r3, #4]
 219 0126 03F48063 		and	r3, r3, #1024
 220 012a 002B     		cmp	r3, #0
 221 012c 0CBF     		ite	eq
 222 012e 0123     		moveq	r3, #1
 223 0130 0023     		movne	r3, #0
 224 0132 DBB2     		uxtb	r3, r3
 225              		.loc 1 222 12
 226 0134 3B61     		str	r3, [r7, #16]
 223:Drivers/STM32F4xx_HAL_Driver/Src/stm32f4xx_hal_adc_ex.c ****       if((hadc->Instance == ADC1) && tmp1 && tmp2)  
 227              		.loc 1 223 15
 228 0136 7B68     		ldr	r3, [r7, #4]
 229 0138 1B68     		ldr	r3, [r3]
 230              		.loc 1 223 9
 231 013a 0F4A     		ldr	r2, .L10+12
 232 013c 9342     		cmp	r3, r2
ARM GAS  /tmp/ccqnyf0j.s 			page 9


 233 013e 0DD1     		bne	.L7
 234              		.loc 1 223 35 discriminator 1
 235 0140 7B69     		ldr	r3, [r7, #20]
 236 0142 002B     		cmp	r3, #0
 237 0144 0AD0     		beq	.L7
 238              		.loc 1 223 43 discriminator 2
 239 0146 3B69     		ldr	r3, [r7, #16]
 240 0148 002B     		cmp	r3, #0
 241 014a 07D0     		beq	.L7
 224:Drivers/STM32F4xx_HAL_Driver/Src/stm32f4xx_hal_adc_ex.c ****       {
 225:Drivers/STM32F4xx_HAL_Driver/Src/stm32f4xx_hal_adc_ex.c ****         /* Enable the selected ADC software conversion for injected group */
 226:Drivers/STM32F4xx_HAL_Driver/Src/stm32f4xx_hal_adc_ex.c ****         hadc->Instance->CR2 |= ADC_CR2_JSWSTART;
 242              		.loc 1 226 13
 243 014c 7B68     		ldr	r3, [r7, #4]
 244 014e 1B68     		ldr	r3, [r3]
 245              		.loc 1 226 29
 246 0150 9A68     		ldr	r2, [r3, #8]
 247              		.loc 1 226 13
 248 0152 7B68     		ldr	r3, [r7, #4]
 249 0154 1B68     		ldr	r3, [r3]
 250              		.loc 1 226 29
 251 0156 42F48002 		orr	r2, r2, #4194304
 252 015a 9A60     		str	r2, [r3, #8]
 253              	.L7:
 227:Drivers/STM32F4xx_HAL_Driver/Src/stm32f4xx_hal_adc_ex.c ****       }
 228:Drivers/STM32F4xx_HAL_Driver/Src/stm32f4xx_hal_adc_ex.c ****     }
 229:Drivers/STM32F4xx_HAL_Driver/Src/stm32f4xx_hal_adc_ex.c ****   }
 230:Drivers/STM32F4xx_HAL_Driver/Src/stm32f4xx_hal_adc_ex.c ****   
 231:Drivers/STM32F4xx_HAL_Driver/Src/stm32f4xx_hal_adc_ex.c ****   /* Return function status */
 232:Drivers/STM32F4xx_HAL_Driver/Src/stm32f4xx_hal_adc_ex.c ****   return HAL_OK;
 254              		.loc 1 232 10
 255 015c 0023     		movs	r3, #0
 256              	.L3:
 233:Drivers/STM32F4xx_HAL_Driver/Src/stm32f4xx_hal_adc_ex.c **** }
 257              		.loc 1 233 1
 258 015e 1846     		mov	r0, r3
 259 0160 1C37     		adds	r7, r7, #28
 260              	.LCFI3:
 261              		.cfi_def_cfa_offset 4
 262 0162 BD46     		mov	sp, r7
 263              	.LCFI4:
 264              		.cfi_def_cfa_register 13
 265              		@ sp needed
 266 0164 5DF8047B 		ldr	r7, [sp], #4
 267              	.LCFI5:
 268              		.cfi_restore 7
 269              		.cfi_def_cfa_offset 0
 270 0168 7047     		bx	lr
 271              	.L11:
 272 016a 00BF     		.align	2
 273              	.L10:
 274 016c 00000000 		.word	SystemCoreClock
 275 0170 83DE1B43 		.word	1125899907
 276 0174 00230140 		.word	1073816320
 277 0178 00200140 		.word	1073815552
 278              		.cfi_endproc
 279              	.LFE130:
ARM GAS  /tmp/ccqnyf0j.s 			page 10


 281              		.section	.text.HAL_ADCEx_InjectedStart_IT,"ax",%progbits
 282              		.align	1
 283              		.global	HAL_ADCEx_InjectedStart_IT
 284              		.syntax unified
 285              		.thumb
 286              		.thumb_func
 287              		.fpu fpv4-sp-d16
 289              	HAL_ADCEx_InjectedStart_IT:
 290              	.LFB131:
 234:Drivers/STM32F4xx_HAL_Driver/Src/stm32f4xx_hal_adc_ex.c **** 
 235:Drivers/STM32F4xx_HAL_Driver/Src/stm32f4xx_hal_adc_ex.c **** /**
 236:Drivers/STM32F4xx_HAL_Driver/Src/stm32f4xx_hal_adc_ex.c ****   * @brief  Enables the interrupt and starts ADC conversion of injected channels.
 237:Drivers/STM32F4xx_HAL_Driver/Src/stm32f4xx_hal_adc_ex.c ****   * @param  hadc pointer to a ADC_HandleTypeDef structure that contains
 238:Drivers/STM32F4xx_HAL_Driver/Src/stm32f4xx_hal_adc_ex.c ****   *         the configuration information for the specified ADC.
 239:Drivers/STM32F4xx_HAL_Driver/Src/stm32f4xx_hal_adc_ex.c ****   *
 240:Drivers/STM32F4xx_HAL_Driver/Src/stm32f4xx_hal_adc_ex.c ****   * @retval HAL status.
 241:Drivers/STM32F4xx_HAL_Driver/Src/stm32f4xx_hal_adc_ex.c ****   */
 242:Drivers/STM32F4xx_HAL_Driver/Src/stm32f4xx_hal_adc_ex.c **** HAL_StatusTypeDef HAL_ADCEx_InjectedStart_IT(ADC_HandleTypeDef* hadc)
 243:Drivers/STM32F4xx_HAL_Driver/Src/stm32f4xx_hal_adc_ex.c **** {
 291              		.loc 1 243 1
 292              		.cfi_startproc
 293              		@ args = 0, pretend = 0, frame = 24
 294              		@ frame_needed = 1, uses_anonymous_args = 0
 295              		@ link register save eliminated.
 296 0000 80B4     		push	{r7}
 297              	.LCFI6:
 298              		.cfi_def_cfa_offset 4
 299              		.cfi_offset 7, -4
 300 0002 87B0     		sub	sp, sp, #28
 301              	.LCFI7:
 302              		.cfi_def_cfa_offset 32
 303 0004 00AF     		add	r7, sp, #0
 304              	.LCFI8:
 305              		.cfi_def_cfa_register 7
 306 0006 7860     		str	r0, [r7, #4]
 244:Drivers/STM32F4xx_HAL_Driver/Src/stm32f4xx_hal_adc_ex.c ****   __IO uint32_t counter = 0U;
 307              		.loc 1 244 17
 308 0008 0023     		movs	r3, #0
 309 000a BB60     		str	r3, [r7, #8]
 245:Drivers/STM32F4xx_HAL_Driver/Src/stm32f4xx_hal_adc_ex.c ****   uint32_t tmp1 = 0U, tmp2 = 0U;
 310              		.loc 1 245 12
 311 000c 0023     		movs	r3, #0
 312 000e 7B61     		str	r3, [r7, #20]
 313              		.loc 1 245 23
 314 0010 0023     		movs	r3, #0
 315 0012 3B61     		str	r3, [r7, #16]
 246:Drivers/STM32F4xx_HAL_Driver/Src/stm32f4xx_hal_adc_ex.c ****   ADC_Common_TypeDef *tmpADC_Common;
 247:Drivers/STM32F4xx_HAL_Driver/Src/stm32f4xx_hal_adc_ex.c ****   
 248:Drivers/STM32F4xx_HAL_Driver/Src/stm32f4xx_hal_adc_ex.c ****   /* Process locked */
 249:Drivers/STM32F4xx_HAL_Driver/Src/stm32f4xx_hal_adc_ex.c ****   __HAL_LOCK(hadc);
 316              		.loc 1 249 3
 317 0014 7B68     		ldr	r3, [r7, #4]
 318 0016 93F83C30 		ldrb	r3, [r3, #60]	@ zero_extendqisi2
 319 001a 012B     		cmp	r3, #1
 320 001c 01D1     		bne	.L13
 321              		.loc 1 249 3 is_stmt 0 discriminator 1
 322 001e 0223     		movs	r3, #2
ARM GAS  /tmp/ccqnyf0j.s 			page 11


 323 0020 A5E0     		b	.L14
 324              	.L13:
 325              		.loc 1 249 3 discriminator 2
 326 0022 7B68     		ldr	r3, [r7, #4]
 327 0024 0122     		movs	r2, #1
 328 0026 83F83C20 		strb	r2, [r3, #60]
 250:Drivers/STM32F4xx_HAL_Driver/Src/stm32f4xx_hal_adc_ex.c ****   
 251:Drivers/STM32F4xx_HAL_Driver/Src/stm32f4xx_hal_adc_ex.c ****   /* Enable the ADC peripheral */
 252:Drivers/STM32F4xx_HAL_Driver/Src/stm32f4xx_hal_adc_ex.c ****   
 253:Drivers/STM32F4xx_HAL_Driver/Src/stm32f4xx_hal_adc_ex.c ****   /* Check if ADC peripheral is disabled in order to enable it and wait during 
 254:Drivers/STM32F4xx_HAL_Driver/Src/stm32f4xx_hal_adc_ex.c ****      Tstab time the ADC's stabilization */
 255:Drivers/STM32F4xx_HAL_Driver/Src/stm32f4xx_hal_adc_ex.c ****   if((hadc->Instance->CR2 & ADC_CR2_ADON) != ADC_CR2_ADON)
 329              		.loc 1 255 11 is_stmt 1 discriminator 2
 330 002a 7B68     		ldr	r3, [r7, #4]
 331 002c 1B68     		ldr	r3, [r3]
 332              		.loc 1 255 21 discriminator 2
 333 002e 9B68     		ldr	r3, [r3, #8]
 334              		.loc 1 255 27 discriminator 2
 335 0030 03F00103 		and	r3, r3, #1
 336              		.loc 1 255 5 discriminator 2
 337 0034 012B     		cmp	r3, #1
 338 0036 18D0     		beq	.L15
 256:Drivers/STM32F4xx_HAL_Driver/Src/stm32f4xx_hal_adc_ex.c ****   {  
 257:Drivers/STM32F4xx_HAL_Driver/Src/stm32f4xx_hal_adc_ex.c ****     /* Enable the Peripheral */
 258:Drivers/STM32F4xx_HAL_Driver/Src/stm32f4xx_hal_adc_ex.c ****     __HAL_ADC_ENABLE(hadc);
 339              		.loc 1 258 5
 340 0038 7B68     		ldr	r3, [r7, #4]
 341 003a 1B68     		ldr	r3, [r3]
 342 003c 9A68     		ldr	r2, [r3, #8]
 343 003e 7B68     		ldr	r3, [r7, #4]
 344 0040 1B68     		ldr	r3, [r3]
 345 0042 42F00102 		orr	r2, r2, #1
 346 0046 9A60     		str	r2, [r3, #8]
 259:Drivers/STM32F4xx_HAL_Driver/Src/stm32f4xx_hal_adc_ex.c ****     
 260:Drivers/STM32F4xx_HAL_Driver/Src/stm32f4xx_hal_adc_ex.c ****     /* Delay for ADC stabilization time */
 261:Drivers/STM32F4xx_HAL_Driver/Src/stm32f4xx_hal_adc_ex.c ****     /* Compute number of CPU cycles to wait for */
 262:Drivers/STM32F4xx_HAL_Driver/Src/stm32f4xx_hal_adc_ex.c ****     counter = (ADC_STAB_DELAY_US * (SystemCoreClock / 1000000U));
 347              		.loc 1 262 53
 348 0048 4C4B     		ldr	r3, .L21
 349 004a 1B68     		ldr	r3, [r3]
 350 004c 4C4A     		ldr	r2, .L21+4
 351 004e A2FB0323 		umull	r2, r3, r2, r3
 352 0052 9A0C     		lsrs	r2, r3, #18
 353              		.loc 1 262 34
 354 0054 1346     		mov	r3, r2
 355 0056 5B00     		lsls	r3, r3, #1
 356 0058 1344     		add	r3, r3, r2
 357              		.loc 1 262 13
 358 005a BB60     		str	r3, [r7, #8]
 263:Drivers/STM32F4xx_HAL_Driver/Src/stm32f4xx_hal_adc_ex.c ****     while(counter != 0U)
 359              		.loc 1 263 10
 360 005c 02E0     		b	.L16
 361              	.L17:
 264:Drivers/STM32F4xx_HAL_Driver/Src/stm32f4xx_hal_adc_ex.c ****     {
 265:Drivers/STM32F4xx_HAL_Driver/Src/stm32f4xx_hal_adc_ex.c ****       counter--;
 362              		.loc 1 265 14
 363 005e BB68     		ldr	r3, [r7, #8]
ARM GAS  /tmp/ccqnyf0j.s 			page 12


 364 0060 013B     		subs	r3, r3, #1
 365 0062 BB60     		str	r3, [r7, #8]
 366              	.L16:
 263:Drivers/STM32F4xx_HAL_Driver/Src/stm32f4xx_hal_adc_ex.c ****     while(counter != 0U)
 367              		.loc 1 263 19
 368 0064 BB68     		ldr	r3, [r7, #8]
 263:Drivers/STM32F4xx_HAL_Driver/Src/stm32f4xx_hal_adc_ex.c ****     while(counter != 0U)
 369              		.loc 1 263 10
 370 0066 002B     		cmp	r3, #0
 371 0068 F9D1     		bne	.L17
 372              	.L15:
 266:Drivers/STM32F4xx_HAL_Driver/Src/stm32f4xx_hal_adc_ex.c ****     }
 267:Drivers/STM32F4xx_HAL_Driver/Src/stm32f4xx_hal_adc_ex.c ****   }
 268:Drivers/STM32F4xx_HAL_Driver/Src/stm32f4xx_hal_adc_ex.c ****   
 269:Drivers/STM32F4xx_HAL_Driver/Src/stm32f4xx_hal_adc_ex.c ****   /* Start conversion if ADC is effectively enabled */
 270:Drivers/STM32F4xx_HAL_Driver/Src/stm32f4xx_hal_adc_ex.c ****   if(HAL_IS_BIT_SET(hadc->Instance->CR2, ADC_CR2_ADON))
 373              		.loc 1 270 6
 374 006a 7B68     		ldr	r3, [r7, #4]
 375 006c 1B68     		ldr	r3, [r3]
 376 006e 9B68     		ldr	r3, [r3, #8]
 377 0070 03F00103 		and	r3, r3, #1
 378              		.loc 1 270 5
 379 0074 012B     		cmp	r3, #1
 380 0076 79D1     		bne	.L18
 271:Drivers/STM32F4xx_HAL_Driver/Src/stm32f4xx_hal_adc_ex.c ****   {
 272:Drivers/STM32F4xx_HAL_Driver/Src/stm32f4xx_hal_adc_ex.c ****     /* Set ADC state                                                          */
 273:Drivers/STM32F4xx_HAL_Driver/Src/stm32f4xx_hal_adc_ex.c ****     /* - Clear state bitfield related to injected group conversion results    */
 274:Drivers/STM32F4xx_HAL_Driver/Src/stm32f4xx_hal_adc_ex.c ****     /* - Set state bitfield related to injected operation                     */
 275:Drivers/STM32F4xx_HAL_Driver/Src/stm32f4xx_hal_adc_ex.c ****     ADC_STATE_CLR_SET(hadc->State,
 381              		.loc 1 275 5
 382 0078 7B68     		ldr	r3, [r7, #4]
 383 007a 1B6C     		ldr	r3, [r3, #64]
 384 007c 23F44053 		bic	r3, r3, #12288
 385 0080 23F00103 		bic	r3, r3, #1
 386 0084 43F48052 		orr	r2, r3, #4096
 387 0088 7B68     		ldr	r3, [r7, #4]
 388 008a 1A64     		str	r2, [r3, #64]
 276:Drivers/STM32F4xx_HAL_Driver/Src/stm32f4xx_hal_adc_ex.c ****                       HAL_ADC_STATE_READY | HAL_ADC_STATE_INJ_EOC,
 277:Drivers/STM32F4xx_HAL_Driver/Src/stm32f4xx_hal_adc_ex.c ****                       HAL_ADC_STATE_INJ_BUSY);
 278:Drivers/STM32F4xx_HAL_Driver/Src/stm32f4xx_hal_adc_ex.c ****     
 279:Drivers/STM32F4xx_HAL_Driver/Src/stm32f4xx_hal_adc_ex.c ****     /* Check if a regular conversion is ongoing */
 280:Drivers/STM32F4xx_HAL_Driver/Src/stm32f4xx_hal_adc_ex.c ****     /* Note: On this device, there is no ADC error code fields related to     */
 281:Drivers/STM32F4xx_HAL_Driver/Src/stm32f4xx_hal_adc_ex.c ****     /*       conversions on group injected only. In case of conversion on     */
 282:Drivers/STM32F4xx_HAL_Driver/Src/stm32f4xx_hal_adc_ex.c ****     /*       going on group regular, no error code is reset.                  */
 283:Drivers/STM32F4xx_HAL_Driver/Src/stm32f4xx_hal_adc_ex.c ****     if (HAL_IS_BIT_CLR(hadc->State, HAL_ADC_STATE_REG_BUSY))
 389              		.loc 1 283 9
 390 008c 7B68     		ldr	r3, [r7, #4]
 391 008e 1B6C     		ldr	r3, [r3, #64]
 392 0090 03F48073 		and	r3, r3, #256
 393              		.loc 1 283 8
 394 0094 002B     		cmp	r3, #0
 395 0096 02D1     		bne	.L19
 284:Drivers/STM32F4xx_HAL_Driver/Src/stm32f4xx_hal_adc_ex.c ****     {
 285:Drivers/STM32F4xx_HAL_Driver/Src/stm32f4xx_hal_adc_ex.c ****       /* Reset ADC all error code fields */
 286:Drivers/STM32F4xx_HAL_Driver/Src/stm32f4xx_hal_adc_ex.c ****       ADC_CLEAR_ERRORCODE(hadc);
 396              		.loc 1 286 7
 397 0098 7B68     		ldr	r3, [r7, #4]
ARM GAS  /tmp/ccqnyf0j.s 			page 13


 398 009a 0022     		movs	r2, #0
 399 009c 5A64     		str	r2, [r3, #68]
 400              	.L19:
 287:Drivers/STM32F4xx_HAL_Driver/Src/stm32f4xx_hal_adc_ex.c ****     }
 288:Drivers/STM32F4xx_HAL_Driver/Src/stm32f4xx_hal_adc_ex.c ****     
 289:Drivers/STM32F4xx_HAL_Driver/Src/stm32f4xx_hal_adc_ex.c ****     /* Process unlocked */
 290:Drivers/STM32F4xx_HAL_Driver/Src/stm32f4xx_hal_adc_ex.c ****     /* Unlock before starting ADC conversions: in case of potential           */
 291:Drivers/STM32F4xx_HAL_Driver/Src/stm32f4xx_hal_adc_ex.c ****     /* interruption, to let the process to ADC IRQ Handler.                   */
 292:Drivers/STM32F4xx_HAL_Driver/Src/stm32f4xx_hal_adc_ex.c ****     __HAL_UNLOCK(hadc);
 401              		.loc 1 292 5
 402 009e 7B68     		ldr	r3, [r7, #4]
 403 00a0 0022     		movs	r2, #0
 404 00a2 83F83C20 		strb	r2, [r3, #60]
 293:Drivers/STM32F4xx_HAL_Driver/Src/stm32f4xx_hal_adc_ex.c ****     
 294:Drivers/STM32F4xx_HAL_Driver/Src/stm32f4xx_hal_adc_ex.c ****     /* Clear injected group conversion flag */
 295:Drivers/STM32F4xx_HAL_Driver/Src/stm32f4xx_hal_adc_ex.c ****     /* (To ensure of no unknown state from potential previous ADC operations) */
 296:Drivers/STM32F4xx_HAL_Driver/Src/stm32f4xx_hal_adc_ex.c ****     __HAL_ADC_CLEAR_FLAG(hadc, ADC_FLAG_JEOC);
 405              		.loc 1 296 5
 406 00a6 7B68     		ldr	r3, [r7, #4]
 407 00a8 1B68     		ldr	r3, [r3]
 408 00aa 6FF00402 		mvn	r2, #4
 409 00ae 1A60     		str	r2, [r3]
 297:Drivers/STM32F4xx_HAL_Driver/Src/stm32f4xx_hal_adc_ex.c ****     
 298:Drivers/STM32F4xx_HAL_Driver/Src/stm32f4xx_hal_adc_ex.c ****     /* Enable end of conversion interrupt for injected channels */
 299:Drivers/STM32F4xx_HAL_Driver/Src/stm32f4xx_hal_adc_ex.c ****     __HAL_ADC_ENABLE_IT(hadc, ADC_IT_JEOC);
 410              		.loc 1 299 5
 411 00b0 7B68     		ldr	r3, [r7, #4]
 412 00b2 1B68     		ldr	r3, [r3]
 413 00b4 5A68     		ldr	r2, [r3, #4]
 414 00b6 7B68     		ldr	r3, [r7, #4]
 415 00b8 1B68     		ldr	r3, [r3]
 416 00ba 42F08002 		orr	r2, r2, #128
 417 00be 5A60     		str	r2, [r3, #4]
 300:Drivers/STM32F4xx_HAL_Driver/Src/stm32f4xx_hal_adc_ex.c **** 
 301:Drivers/STM32F4xx_HAL_Driver/Src/stm32f4xx_hal_adc_ex.c ****     /* Pointer to the common control register to which is belonging hadc    */
 302:Drivers/STM32F4xx_HAL_Driver/Src/stm32f4xx_hal_adc_ex.c ****     /* (Depending on STM32F4 product, there may be up to 3 ADC and 1 common */
 303:Drivers/STM32F4xx_HAL_Driver/Src/stm32f4xx_hal_adc_ex.c ****     /* control register)                                                    */
 304:Drivers/STM32F4xx_HAL_Driver/Src/stm32f4xx_hal_adc_ex.c ****     tmpADC_Common = ADC_COMMON_REGISTER(hadc);
 418              		.loc 1 304 19
 419 00c0 304B     		ldr	r3, .L21+8
 420 00c2 FB60     		str	r3, [r7, #12]
 305:Drivers/STM32F4xx_HAL_Driver/Src/stm32f4xx_hal_adc_ex.c ****     
 306:Drivers/STM32F4xx_HAL_Driver/Src/stm32f4xx_hal_adc_ex.c ****     /* Check if Multimode enabled */
 307:Drivers/STM32F4xx_HAL_Driver/Src/stm32f4xx_hal_adc_ex.c ****     if(HAL_IS_BIT_CLR(tmpADC_Common->CCR, ADC_CCR_MULTI))
 421              		.loc 1 307 8
 422 00c4 FB68     		ldr	r3, [r7, #12]
 423 00c6 5B68     		ldr	r3, [r3, #4]
 424 00c8 03F01F03 		and	r3, r3, #31
 425              		.loc 1 307 7
 426 00cc 002B     		cmp	r3, #0
 427 00ce 24D1     		bne	.L20
 308:Drivers/STM32F4xx_HAL_Driver/Src/stm32f4xx_hal_adc_ex.c ****     {
 309:Drivers/STM32F4xx_HAL_Driver/Src/stm32f4xx_hal_adc_ex.c ****       tmp1 = HAL_IS_BIT_CLR(hadc->Instance->CR2, ADC_CR2_JEXTEN);
 428              		.loc 1 309 14
 429 00d0 7B68     		ldr	r3, [r7, #4]
 430 00d2 1B68     		ldr	r3, [r3]
 431 00d4 9B68     		ldr	r3, [r3, #8]
ARM GAS  /tmp/ccqnyf0j.s 			page 14


 432 00d6 03F44013 		and	r3, r3, #3145728
 433 00da 002B     		cmp	r3, #0
 434 00dc 0CBF     		ite	eq
 435 00de 0123     		moveq	r3, #1
 436 00e0 0023     		movne	r3, #0
 437 00e2 DBB2     		uxtb	r3, r3
 438              		.loc 1 309 12
 439 00e4 7B61     		str	r3, [r7, #20]
 310:Drivers/STM32F4xx_HAL_Driver/Src/stm32f4xx_hal_adc_ex.c ****       tmp2 = HAL_IS_BIT_CLR(hadc->Instance->CR1, ADC_CR1_JAUTO);
 440              		.loc 1 310 14
 441 00e6 7B68     		ldr	r3, [r7, #4]
 442 00e8 1B68     		ldr	r3, [r3]
 443 00ea 5B68     		ldr	r3, [r3, #4]
 444 00ec 03F48063 		and	r3, r3, #1024
 445 00f0 002B     		cmp	r3, #0
 446 00f2 0CBF     		ite	eq
 447 00f4 0123     		moveq	r3, #1
 448 00f6 0023     		movne	r3, #0
 449 00f8 DBB2     		uxtb	r3, r3
 450              		.loc 1 310 12
 451 00fa 3B61     		str	r3, [r7, #16]
 311:Drivers/STM32F4xx_HAL_Driver/Src/stm32f4xx_hal_adc_ex.c ****       if(tmp1 && tmp2)
 452              		.loc 1 311 9
 453 00fc 7B69     		ldr	r3, [r7, #20]
 454 00fe 002B     		cmp	r3, #0
 455 0100 34D0     		beq	.L18
 456              		.loc 1 311 15 discriminator 1
 457 0102 3B69     		ldr	r3, [r7, #16]
 458 0104 002B     		cmp	r3, #0
 459 0106 31D0     		beq	.L18
 312:Drivers/STM32F4xx_HAL_Driver/Src/stm32f4xx_hal_adc_ex.c ****       {
 313:Drivers/STM32F4xx_HAL_Driver/Src/stm32f4xx_hal_adc_ex.c ****         /* Enable the selected ADC software conversion for injected group */
 314:Drivers/STM32F4xx_HAL_Driver/Src/stm32f4xx_hal_adc_ex.c ****         hadc->Instance->CR2 |= ADC_CR2_JSWSTART;
 460              		.loc 1 314 13
 461 0108 7B68     		ldr	r3, [r7, #4]
 462 010a 1B68     		ldr	r3, [r3]
 463              		.loc 1 314 29
 464 010c 9A68     		ldr	r2, [r3, #8]
 465              		.loc 1 314 13
 466 010e 7B68     		ldr	r3, [r7, #4]
 467 0110 1B68     		ldr	r3, [r3]
 468              		.loc 1 314 29
 469 0112 42F48002 		orr	r2, r2, #4194304
 470 0116 9A60     		str	r2, [r3, #8]
 471 0118 28E0     		b	.L18
 472              	.L20:
 315:Drivers/STM32F4xx_HAL_Driver/Src/stm32f4xx_hal_adc_ex.c ****       }
 316:Drivers/STM32F4xx_HAL_Driver/Src/stm32f4xx_hal_adc_ex.c ****     }
 317:Drivers/STM32F4xx_HAL_Driver/Src/stm32f4xx_hal_adc_ex.c ****     else
 318:Drivers/STM32F4xx_HAL_Driver/Src/stm32f4xx_hal_adc_ex.c ****     {
 319:Drivers/STM32F4xx_HAL_Driver/Src/stm32f4xx_hal_adc_ex.c ****       tmp1 = HAL_IS_BIT_CLR(hadc->Instance->CR2, ADC_CR2_JEXTEN);
 473              		.loc 1 319 14
 474 011a 7B68     		ldr	r3, [r7, #4]
 475 011c 1B68     		ldr	r3, [r3]
 476 011e 9B68     		ldr	r3, [r3, #8]
 477 0120 03F44013 		and	r3, r3, #3145728
 478 0124 002B     		cmp	r3, #0
ARM GAS  /tmp/ccqnyf0j.s 			page 15


 479 0126 0CBF     		ite	eq
 480 0128 0123     		moveq	r3, #1
 481 012a 0023     		movne	r3, #0
 482 012c DBB2     		uxtb	r3, r3
 483              		.loc 1 319 12
 484 012e 7B61     		str	r3, [r7, #20]
 320:Drivers/STM32F4xx_HAL_Driver/Src/stm32f4xx_hal_adc_ex.c ****       tmp2 = HAL_IS_BIT_CLR(hadc->Instance->CR1, ADC_CR1_JAUTO);
 485              		.loc 1 320 14
 486 0130 7B68     		ldr	r3, [r7, #4]
 487 0132 1B68     		ldr	r3, [r3]
 488 0134 5B68     		ldr	r3, [r3, #4]
 489 0136 03F48063 		and	r3, r3, #1024
 490 013a 002B     		cmp	r3, #0
 491 013c 0CBF     		ite	eq
 492 013e 0123     		moveq	r3, #1
 493 0140 0023     		movne	r3, #0
 494 0142 DBB2     		uxtb	r3, r3
 495              		.loc 1 320 12
 496 0144 3B61     		str	r3, [r7, #16]
 321:Drivers/STM32F4xx_HAL_Driver/Src/stm32f4xx_hal_adc_ex.c ****       if((hadc->Instance == ADC1) && tmp1 && tmp2)  
 497              		.loc 1 321 15
 498 0146 7B68     		ldr	r3, [r7, #4]
 499 0148 1B68     		ldr	r3, [r3]
 500              		.loc 1 321 9
 501 014a 0F4A     		ldr	r2, .L21+12
 502 014c 9342     		cmp	r3, r2
 503 014e 0DD1     		bne	.L18
 504              		.loc 1 321 35 discriminator 1
 505 0150 7B69     		ldr	r3, [r7, #20]
 506 0152 002B     		cmp	r3, #0
 507 0154 0AD0     		beq	.L18
 508              		.loc 1 321 43 discriminator 2
 509 0156 3B69     		ldr	r3, [r7, #16]
 510 0158 002B     		cmp	r3, #0
 511 015a 07D0     		beq	.L18
 322:Drivers/STM32F4xx_HAL_Driver/Src/stm32f4xx_hal_adc_ex.c ****       {
 323:Drivers/STM32F4xx_HAL_Driver/Src/stm32f4xx_hal_adc_ex.c ****         /* Enable the selected ADC software conversion for injected group */
 324:Drivers/STM32F4xx_HAL_Driver/Src/stm32f4xx_hal_adc_ex.c ****         hadc->Instance->CR2 |= ADC_CR2_JSWSTART;
 512              		.loc 1 324 13
 513 015c 7B68     		ldr	r3, [r7, #4]
 514 015e 1B68     		ldr	r3, [r3]
 515              		.loc 1 324 29
 516 0160 9A68     		ldr	r2, [r3, #8]
 517              		.loc 1 324 13
 518 0162 7B68     		ldr	r3, [r7, #4]
 519 0164 1B68     		ldr	r3, [r3]
 520              		.loc 1 324 29
 521 0166 42F48002 		orr	r2, r2, #4194304
 522 016a 9A60     		str	r2, [r3, #8]
 523              	.L18:
 325:Drivers/STM32F4xx_HAL_Driver/Src/stm32f4xx_hal_adc_ex.c ****       }
 326:Drivers/STM32F4xx_HAL_Driver/Src/stm32f4xx_hal_adc_ex.c ****     }
 327:Drivers/STM32F4xx_HAL_Driver/Src/stm32f4xx_hal_adc_ex.c ****   }
 328:Drivers/STM32F4xx_HAL_Driver/Src/stm32f4xx_hal_adc_ex.c ****   
 329:Drivers/STM32F4xx_HAL_Driver/Src/stm32f4xx_hal_adc_ex.c ****   /* Return function status */
 330:Drivers/STM32F4xx_HAL_Driver/Src/stm32f4xx_hal_adc_ex.c ****   return HAL_OK;
 524              		.loc 1 330 10
ARM GAS  /tmp/ccqnyf0j.s 			page 16


 525 016c 0023     		movs	r3, #0
 526              	.L14:
 331:Drivers/STM32F4xx_HAL_Driver/Src/stm32f4xx_hal_adc_ex.c **** }
 527              		.loc 1 331 1
 528 016e 1846     		mov	r0, r3
 529 0170 1C37     		adds	r7, r7, #28
 530              	.LCFI9:
 531              		.cfi_def_cfa_offset 4
 532 0172 BD46     		mov	sp, r7
 533              	.LCFI10:
 534              		.cfi_def_cfa_register 13
 535              		@ sp needed
 536 0174 5DF8047B 		ldr	r7, [sp], #4
 537              	.LCFI11:
 538              		.cfi_restore 7
 539              		.cfi_def_cfa_offset 0
 540 0178 7047     		bx	lr
 541              	.L22:
 542 017a 00BF     		.align	2
 543              	.L21:
 544 017c 00000000 		.word	SystemCoreClock
 545 0180 83DE1B43 		.word	1125899907
 546 0184 00230140 		.word	1073816320
 547 0188 00200140 		.word	1073815552
 548              		.cfi_endproc
 549              	.LFE131:
 551              		.section	.rodata
 552              		.align	2
 553              	.LC0:
 554 0000 44726976 		.ascii	"Drivers/STM32F4xx_HAL_Driver/Src/stm32f4xx_hal_adc_"
 554      6572732F 
 554      53544D33 
 554      32463478 
 554      785F4841 
 555 0033 65782E63 		.ascii	"ex.c\000"
 555      00
 556              		.section	.text.HAL_ADCEx_InjectedStop,"ax",%progbits
 557              		.align	1
 558              		.global	HAL_ADCEx_InjectedStop
 559              		.syntax unified
 560              		.thumb
 561              		.thumb_func
 562              		.fpu fpv4-sp-d16
 564              	HAL_ADCEx_InjectedStop:
 565              	.LFB132:
 332:Drivers/STM32F4xx_HAL_Driver/Src/stm32f4xx_hal_adc_ex.c **** 
 333:Drivers/STM32F4xx_HAL_Driver/Src/stm32f4xx_hal_adc_ex.c **** /**
 334:Drivers/STM32F4xx_HAL_Driver/Src/stm32f4xx_hal_adc_ex.c ****   * @brief  Stop conversion of injected channels. Disable ADC peripheral if
 335:Drivers/STM32F4xx_HAL_Driver/Src/stm32f4xx_hal_adc_ex.c ****   *         no regular conversion is on going.
 336:Drivers/STM32F4xx_HAL_Driver/Src/stm32f4xx_hal_adc_ex.c ****   * @note   If ADC must be disabled and if conversion is on going on 
 337:Drivers/STM32F4xx_HAL_Driver/Src/stm32f4xx_hal_adc_ex.c ****   *         regular group, function HAL_ADC_Stop must be used to stop both
 338:Drivers/STM32F4xx_HAL_Driver/Src/stm32f4xx_hal_adc_ex.c ****   *         injected and regular groups, and disable the ADC.
 339:Drivers/STM32F4xx_HAL_Driver/Src/stm32f4xx_hal_adc_ex.c ****   * @note   If injected group mode auto-injection is enabled,
 340:Drivers/STM32F4xx_HAL_Driver/Src/stm32f4xx_hal_adc_ex.c ****   *         function HAL_ADC_Stop must be used.
 341:Drivers/STM32F4xx_HAL_Driver/Src/stm32f4xx_hal_adc_ex.c ****   * @note   In case of auto-injection mode, HAL_ADC_Stop must be used.
 342:Drivers/STM32F4xx_HAL_Driver/Src/stm32f4xx_hal_adc_ex.c ****   * @param  hadc ADC handle
 343:Drivers/STM32F4xx_HAL_Driver/Src/stm32f4xx_hal_adc_ex.c ****   * @retval None
ARM GAS  /tmp/ccqnyf0j.s 			page 17


 344:Drivers/STM32F4xx_HAL_Driver/Src/stm32f4xx_hal_adc_ex.c ****   */
 345:Drivers/STM32F4xx_HAL_Driver/Src/stm32f4xx_hal_adc_ex.c **** HAL_StatusTypeDef HAL_ADCEx_InjectedStop(ADC_HandleTypeDef* hadc)
 346:Drivers/STM32F4xx_HAL_Driver/Src/stm32f4xx_hal_adc_ex.c **** {
 566              		.loc 1 346 1
 567              		.cfi_startproc
 568              		@ args = 0, pretend = 0, frame = 16
 569              		@ frame_needed = 1, uses_anonymous_args = 0
 570 0000 80B5     		push	{r7, lr}
 571              	.LCFI12:
 572              		.cfi_def_cfa_offset 8
 573              		.cfi_offset 7, -8
 574              		.cfi_offset 14, -4
 575 0002 84B0     		sub	sp, sp, #16
 576              	.LCFI13:
 577              		.cfi_def_cfa_offset 24
 578 0004 00AF     		add	r7, sp, #0
 579              	.LCFI14:
 580              		.cfi_def_cfa_register 7
 581 0006 7860     		str	r0, [r7, #4]
 347:Drivers/STM32F4xx_HAL_Driver/Src/stm32f4xx_hal_adc_ex.c ****   HAL_StatusTypeDef tmp_hal_status = HAL_OK;
 582              		.loc 1 347 21
 583 0008 0023     		movs	r3, #0
 584 000a FB73     		strb	r3, [r7, #15]
 348:Drivers/STM32F4xx_HAL_Driver/Src/stm32f4xx_hal_adc_ex.c ****   
 349:Drivers/STM32F4xx_HAL_Driver/Src/stm32f4xx_hal_adc_ex.c ****   /* Check the parameters */
 350:Drivers/STM32F4xx_HAL_Driver/Src/stm32f4xx_hal_adc_ex.c ****   assert_param(IS_ADC_ALL_INSTANCE(hadc->Instance));
 585              		.loc 1 350 3
 586 000c 7B68     		ldr	r3, [r7, #4]
 587 000e 1B68     		ldr	r3, [r3]
 588 0010 2A4A     		ldr	r2, .L30
 589 0012 9342     		cmp	r3, r2
 590 0014 0ED0     		beq	.L24
 591              		.loc 1 350 3 is_stmt 0 discriminator 1
 592 0016 7B68     		ldr	r3, [r7, #4]
 593 0018 1B68     		ldr	r3, [r3]
 594 001a 294A     		ldr	r2, .L30+4
 595 001c 9342     		cmp	r3, r2
 596 001e 09D0     		beq	.L24
 597              		.loc 1 350 3 discriminator 2
 598 0020 7B68     		ldr	r3, [r7, #4]
 599 0022 1B68     		ldr	r3, [r3]
 600 0024 274A     		ldr	r2, .L30+8
 601 0026 9342     		cmp	r3, r2
 602 0028 04D0     		beq	.L24
 603              		.loc 1 350 3 discriminator 3
 604 002a 4FF4AF71 		mov	r1, #350
 605 002e 2648     		ldr	r0, .L30+12
 606 0030 FFF7FEFF 		bl	assert_failed
 607              	.L24:
 351:Drivers/STM32F4xx_HAL_Driver/Src/stm32f4xx_hal_adc_ex.c **** 
 352:Drivers/STM32F4xx_HAL_Driver/Src/stm32f4xx_hal_adc_ex.c ****   /* Process locked */
 353:Drivers/STM32F4xx_HAL_Driver/Src/stm32f4xx_hal_adc_ex.c ****   __HAL_LOCK(hadc);
 608              		.loc 1 353 3 is_stmt 1
 609 0034 7B68     		ldr	r3, [r7, #4]
 610 0036 93F83C30 		ldrb	r3, [r3, #60]	@ zero_extendqisi2
 611 003a 012B     		cmp	r3, #1
 612 003c 01D1     		bne	.L25
ARM GAS  /tmp/ccqnyf0j.s 			page 18


 613              		.loc 1 353 3 is_stmt 0 discriminator 1
 614 003e 0223     		movs	r3, #2
 615 0040 37E0     		b	.L26
 616              	.L25:
 617              		.loc 1 353 3 discriminator 2
 618 0042 7B68     		ldr	r3, [r7, #4]
 619 0044 0122     		movs	r2, #1
 620 0046 83F83C20 		strb	r2, [r3, #60]
 354:Drivers/STM32F4xx_HAL_Driver/Src/stm32f4xx_hal_adc_ex.c ****     
 355:Drivers/STM32F4xx_HAL_Driver/Src/stm32f4xx_hal_adc_ex.c ****   /* Stop potential conversion and disable ADC peripheral                     */
 356:Drivers/STM32F4xx_HAL_Driver/Src/stm32f4xx_hal_adc_ex.c ****   /* Conditioned to:                                                          */
 357:Drivers/STM32F4xx_HAL_Driver/Src/stm32f4xx_hal_adc_ex.c ****   /* - No conversion on the other group (regular group) is intended to        */
 358:Drivers/STM32F4xx_HAL_Driver/Src/stm32f4xx_hal_adc_ex.c ****   /*   continue (injected and regular groups stop conversion and ADC disable  */
 359:Drivers/STM32F4xx_HAL_Driver/Src/stm32f4xx_hal_adc_ex.c ****   /*   are common)                                                            */
 360:Drivers/STM32F4xx_HAL_Driver/Src/stm32f4xx_hal_adc_ex.c ****   /* - In case of auto-injection mode, HAL_ADC_Stop must be used.             */
 361:Drivers/STM32F4xx_HAL_Driver/Src/stm32f4xx_hal_adc_ex.c ****   if(((hadc->State & HAL_ADC_STATE_REG_BUSY) == RESET)  &&
 621              		.loc 1 361 12 is_stmt 1 discriminator 2
 622 004a 7B68     		ldr	r3, [r7, #4]
 623 004c 1B6C     		ldr	r3, [r3, #64]
 624              		.loc 1 361 20 discriminator 2
 625 004e 03F48073 		and	r3, r3, #256
 626              		.loc 1 361 5 discriminator 2
 627 0052 002B     		cmp	r3, #0
 628 0054 20D1     		bne	.L27
 362:Drivers/STM32F4xx_HAL_Driver/Src/stm32f4xx_hal_adc_ex.c ****      HAL_IS_BIT_CLR(hadc->Instance->CR1, ADC_CR1_JAUTO)   )
 629              		.loc 1 362 6 discriminator 1
 630 0056 7B68     		ldr	r3, [r7, #4]
 631 0058 1B68     		ldr	r3, [r3]
 632 005a 5B68     		ldr	r3, [r3, #4]
 633 005c 03F48063 		and	r3, r3, #1024
 361:Drivers/STM32F4xx_HAL_Driver/Src/stm32f4xx_hal_adc_ex.c ****      HAL_IS_BIT_CLR(hadc->Instance->CR1, ADC_CR1_JAUTO)   )
 634              		.loc 1 361 57 discriminator 1
 635 0060 002B     		cmp	r3, #0
 636 0062 19D1     		bne	.L27
 363:Drivers/STM32F4xx_HAL_Driver/Src/stm32f4xx_hal_adc_ex.c ****   {
 364:Drivers/STM32F4xx_HAL_Driver/Src/stm32f4xx_hal_adc_ex.c ****     /* Stop potential conversion on going, on regular and injected groups */
 365:Drivers/STM32F4xx_HAL_Driver/Src/stm32f4xx_hal_adc_ex.c ****     /* Disable ADC peripheral */
 366:Drivers/STM32F4xx_HAL_Driver/Src/stm32f4xx_hal_adc_ex.c ****     __HAL_ADC_DISABLE(hadc);
 637              		.loc 1 366 5
 638 0064 7B68     		ldr	r3, [r7, #4]
 639 0066 1B68     		ldr	r3, [r3]
 640 0068 9A68     		ldr	r2, [r3, #8]
 641 006a 7B68     		ldr	r3, [r7, #4]
 642 006c 1B68     		ldr	r3, [r3]
 643 006e 22F00102 		bic	r2, r2, #1
 644 0072 9A60     		str	r2, [r3, #8]
 367:Drivers/STM32F4xx_HAL_Driver/Src/stm32f4xx_hal_adc_ex.c ****     
 368:Drivers/STM32F4xx_HAL_Driver/Src/stm32f4xx_hal_adc_ex.c ****     /* Check if ADC is effectively disabled */
 369:Drivers/STM32F4xx_HAL_Driver/Src/stm32f4xx_hal_adc_ex.c ****     if(HAL_IS_BIT_CLR(hadc->Instance->CR2, ADC_CR2_ADON))
 645              		.loc 1 369 8
 646 0074 7B68     		ldr	r3, [r7, #4]
 647 0076 1B68     		ldr	r3, [r3]
 648 0078 9B68     		ldr	r3, [r3, #8]
 649 007a 03F00103 		and	r3, r3, #1
 650              		.loc 1 369 7
 651 007e 002B     		cmp	r3, #0
 652 0080 12D1     		bne	.L29
ARM GAS  /tmp/ccqnyf0j.s 			page 19


 370:Drivers/STM32F4xx_HAL_Driver/Src/stm32f4xx_hal_adc_ex.c ****     {
 371:Drivers/STM32F4xx_HAL_Driver/Src/stm32f4xx_hal_adc_ex.c ****       /* Set ADC state */
 372:Drivers/STM32F4xx_HAL_Driver/Src/stm32f4xx_hal_adc_ex.c ****       ADC_STATE_CLR_SET(hadc->State,
 653              		.loc 1 372 7
 654 0082 7B68     		ldr	r3, [r7, #4]
 655 0084 1B6C     		ldr	r3, [r3, #64]
 656 0086 23F48853 		bic	r3, r3, #4352
 657 008a 23F00103 		bic	r3, r3, #1
 658 008e 43F00102 		orr	r2, r3, #1
 659 0092 7B68     		ldr	r3, [r7, #4]
 660 0094 1A64     		str	r2, [r3, #64]
 369:Drivers/STM32F4xx_HAL_Driver/Src/stm32f4xx_hal_adc_ex.c ****     {
 661              		.loc 1 369 7
 662 0096 07E0     		b	.L29
 663              	.L27:
 373:Drivers/STM32F4xx_HAL_Driver/Src/stm32f4xx_hal_adc_ex.c ****                         HAL_ADC_STATE_REG_BUSY | HAL_ADC_STATE_INJ_BUSY,
 374:Drivers/STM32F4xx_HAL_Driver/Src/stm32f4xx_hal_adc_ex.c ****                         HAL_ADC_STATE_READY);
 375:Drivers/STM32F4xx_HAL_Driver/Src/stm32f4xx_hal_adc_ex.c ****     }
 376:Drivers/STM32F4xx_HAL_Driver/Src/stm32f4xx_hal_adc_ex.c ****   }
 377:Drivers/STM32F4xx_HAL_Driver/Src/stm32f4xx_hal_adc_ex.c ****   else
 378:Drivers/STM32F4xx_HAL_Driver/Src/stm32f4xx_hal_adc_ex.c ****   {
 379:Drivers/STM32F4xx_HAL_Driver/Src/stm32f4xx_hal_adc_ex.c ****     /* Update ADC state machine to error */
 380:Drivers/STM32F4xx_HAL_Driver/Src/stm32f4xx_hal_adc_ex.c ****     SET_BIT(hadc->State, HAL_ADC_STATE_ERROR_CONFIG);
 664              		.loc 1 380 5
 665 0098 7B68     		ldr	r3, [r7, #4]
 666 009a 1B6C     		ldr	r3, [r3, #64]
 667 009c 43F02002 		orr	r2, r3, #32
 668 00a0 7B68     		ldr	r3, [r7, #4]
 669 00a2 1A64     		str	r2, [r3, #64]
 381:Drivers/STM32F4xx_HAL_Driver/Src/stm32f4xx_hal_adc_ex.c ****       
 382:Drivers/STM32F4xx_HAL_Driver/Src/stm32f4xx_hal_adc_ex.c ****     tmp_hal_status = HAL_ERROR;
 670              		.loc 1 382 20
 671 00a4 0123     		movs	r3, #1
 672 00a6 FB73     		strb	r3, [r7, #15]
 673              	.L29:
 383:Drivers/STM32F4xx_HAL_Driver/Src/stm32f4xx_hal_adc_ex.c ****   }
 384:Drivers/STM32F4xx_HAL_Driver/Src/stm32f4xx_hal_adc_ex.c ****   
 385:Drivers/STM32F4xx_HAL_Driver/Src/stm32f4xx_hal_adc_ex.c ****   /* Process unlocked */
 386:Drivers/STM32F4xx_HAL_Driver/Src/stm32f4xx_hal_adc_ex.c ****   __HAL_UNLOCK(hadc);
 674              		.loc 1 386 3
 675 00a8 7B68     		ldr	r3, [r7, #4]
 676 00aa 0022     		movs	r2, #0
 677 00ac 83F83C20 		strb	r2, [r3, #60]
 387:Drivers/STM32F4xx_HAL_Driver/Src/stm32f4xx_hal_adc_ex.c ****   
 388:Drivers/STM32F4xx_HAL_Driver/Src/stm32f4xx_hal_adc_ex.c ****   /* Return function status */
 389:Drivers/STM32F4xx_HAL_Driver/Src/stm32f4xx_hal_adc_ex.c ****   return tmp_hal_status;
 678              		.loc 1 389 10
 679 00b0 FB7B     		ldrb	r3, [r7, #15]	@ zero_extendqisi2
 680              	.L26:
 390:Drivers/STM32F4xx_HAL_Driver/Src/stm32f4xx_hal_adc_ex.c **** }
 681              		.loc 1 390 1
 682 00b2 1846     		mov	r0, r3
 683 00b4 1037     		adds	r7, r7, #16
 684              	.LCFI15:
 685              		.cfi_def_cfa_offset 8
 686 00b6 BD46     		mov	sp, r7
 687              	.LCFI16:
ARM GAS  /tmp/ccqnyf0j.s 			page 20


 688              		.cfi_def_cfa_register 13
 689              		@ sp needed
 690 00b8 80BD     		pop	{r7, pc}
 691              	.L31:
 692 00ba 00BF     		.align	2
 693              	.L30:
 694 00bc 00200140 		.word	1073815552
 695 00c0 00210140 		.word	1073815808
 696 00c4 00220140 		.word	1073816064
 697 00c8 00000000 		.word	.LC0
 698              		.cfi_endproc
 699              	.LFE132:
 701              		.section	.text.HAL_ADCEx_InjectedPollForConversion,"ax",%progbits
 702              		.align	1
 703              		.global	HAL_ADCEx_InjectedPollForConversion
 704              		.syntax unified
 705              		.thumb
 706              		.thumb_func
 707              		.fpu fpv4-sp-d16
 709              	HAL_ADCEx_InjectedPollForConversion:
 710              	.LFB133:
 391:Drivers/STM32F4xx_HAL_Driver/Src/stm32f4xx_hal_adc_ex.c **** 
 392:Drivers/STM32F4xx_HAL_Driver/Src/stm32f4xx_hal_adc_ex.c **** /**
 393:Drivers/STM32F4xx_HAL_Driver/Src/stm32f4xx_hal_adc_ex.c ****   * @brief  Poll for injected conversion complete
 394:Drivers/STM32F4xx_HAL_Driver/Src/stm32f4xx_hal_adc_ex.c ****   * @param  hadc pointer to a ADC_HandleTypeDef structure that contains
 395:Drivers/STM32F4xx_HAL_Driver/Src/stm32f4xx_hal_adc_ex.c ****   *         the configuration information for the specified ADC.
 396:Drivers/STM32F4xx_HAL_Driver/Src/stm32f4xx_hal_adc_ex.c ****   * @param  Timeout Timeout value in millisecond.  
 397:Drivers/STM32F4xx_HAL_Driver/Src/stm32f4xx_hal_adc_ex.c ****   * @retval HAL status
 398:Drivers/STM32F4xx_HAL_Driver/Src/stm32f4xx_hal_adc_ex.c ****   */
 399:Drivers/STM32F4xx_HAL_Driver/Src/stm32f4xx_hal_adc_ex.c **** HAL_StatusTypeDef HAL_ADCEx_InjectedPollForConversion(ADC_HandleTypeDef* hadc, uint32_t Timeout)
 400:Drivers/STM32F4xx_HAL_Driver/Src/stm32f4xx_hal_adc_ex.c **** {
 711              		.loc 1 400 1
 712              		.cfi_startproc
 713              		@ args = 0, pretend = 0, frame = 16
 714              		@ frame_needed = 1, uses_anonymous_args = 0
 715 0000 80B5     		push	{r7, lr}
 716              	.LCFI17:
 717              		.cfi_def_cfa_offset 8
 718              		.cfi_offset 7, -8
 719              		.cfi_offset 14, -4
 720 0002 84B0     		sub	sp, sp, #16
 721              	.LCFI18:
 722              		.cfi_def_cfa_offset 24
 723 0004 00AF     		add	r7, sp, #0
 724              	.LCFI19:
 725              		.cfi_def_cfa_register 7
 726 0006 7860     		str	r0, [r7, #4]
 727 0008 3960     		str	r1, [r7]
 401:Drivers/STM32F4xx_HAL_Driver/Src/stm32f4xx_hal_adc_ex.c ****   uint32_t tickstart = 0U;
 728              		.loc 1 401 12
 729 000a 0023     		movs	r3, #0
 730 000c FB60     		str	r3, [r7, #12]
 402:Drivers/STM32F4xx_HAL_Driver/Src/stm32f4xx_hal_adc_ex.c **** 
 403:Drivers/STM32F4xx_HAL_Driver/Src/stm32f4xx_hal_adc_ex.c ****   /* Get tick */ 
 404:Drivers/STM32F4xx_HAL_Driver/Src/stm32f4xx_hal_adc_ex.c ****   tickstart = HAL_GetTick();
 731              		.loc 1 404 15
 732 000e FFF7FEFF 		bl	HAL_GetTick
ARM GAS  /tmp/ccqnyf0j.s 			page 21


 733 0012 F860     		str	r0, [r7, #12]
 405:Drivers/STM32F4xx_HAL_Driver/Src/stm32f4xx_hal_adc_ex.c **** 
 406:Drivers/STM32F4xx_HAL_Driver/Src/stm32f4xx_hal_adc_ex.c ****   /* Check End of conversion flag */
 407:Drivers/STM32F4xx_HAL_Driver/Src/stm32f4xx_hal_adc_ex.c ****   while(!(__HAL_ADC_GET_FLAG(hadc, ADC_FLAG_JEOC)))
 734              		.loc 1 407 8
 735 0014 17E0     		b	.L33
 736              	.L36:
 408:Drivers/STM32F4xx_HAL_Driver/Src/stm32f4xx_hal_adc_ex.c ****   {
 409:Drivers/STM32F4xx_HAL_Driver/Src/stm32f4xx_hal_adc_ex.c ****     /* Check for the Timeout */
 410:Drivers/STM32F4xx_HAL_Driver/Src/stm32f4xx_hal_adc_ex.c ****     if(Timeout != HAL_MAX_DELAY)
 737              		.loc 1 410 7
 738 0016 3B68     		ldr	r3, [r7]
 739 0018 B3F1FF3F 		cmp	r3, #-1
 740 001c 13D0     		beq	.L33
 411:Drivers/STM32F4xx_HAL_Driver/Src/stm32f4xx_hal_adc_ex.c ****     {
 412:Drivers/STM32F4xx_HAL_Driver/Src/stm32f4xx_hal_adc_ex.c ****       if((Timeout == 0U)||((HAL_GetTick() - tickstart ) > Timeout))
 741              		.loc 1 412 9
 742 001e 3B68     		ldr	r3, [r7]
 743 0020 002B     		cmp	r3, #0
 744 0022 07D0     		beq	.L34
 745              		.loc 1 412 29 discriminator 1
 746 0024 FFF7FEFF 		bl	HAL_GetTick
 747 0028 0246     		mov	r2, r0
 748              		.loc 1 412 43 discriminator 1
 749 002a FB68     		ldr	r3, [r7, #12]
 750 002c D31A     		subs	r3, r2, r3
 751              		.loc 1 412 25 discriminator 1
 752 002e 3A68     		ldr	r2, [r7]
 753 0030 9A42     		cmp	r2, r3
 754 0032 08D2     		bcs	.L33
 755              	.L34:
 413:Drivers/STM32F4xx_HAL_Driver/Src/stm32f4xx_hal_adc_ex.c ****       {
 414:Drivers/STM32F4xx_HAL_Driver/Src/stm32f4xx_hal_adc_ex.c ****         hadc->State= HAL_ADC_STATE_TIMEOUT;
 756              		.loc 1 414 20
 757 0034 7B68     		ldr	r3, [r7, #4]
 758 0036 0422     		movs	r2, #4
 759 0038 1A64     		str	r2, [r3, #64]
 415:Drivers/STM32F4xx_HAL_Driver/Src/stm32f4xx_hal_adc_ex.c ****         /* Process unlocked */
 416:Drivers/STM32F4xx_HAL_Driver/Src/stm32f4xx_hal_adc_ex.c ****         __HAL_UNLOCK(hadc);
 760              		.loc 1 416 9
 761 003a 7B68     		ldr	r3, [r7, #4]
 762 003c 0022     		movs	r2, #0
 763 003e 83F83C20 		strb	r2, [r3, #60]
 417:Drivers/STM32F4xx_HAL_Driver/Src/stm32f4xx_hal_adc_ex.c ****         return HAL_TIMEOUT;
 764              		.loc 1 417 16
 765 0042 0323     		movs	r3, #3
 766 0044 4BE0     		b	.L35
 767              	.L33:
 407:Drivers/STM32F4xx_HAL_Driver/Src/stm32f4xx_hal_adc_ex.c ****   {
 768              		.loc 1 407 11
 769 0046 7B68     		ldr	r3, [r7, #4]
 770 0048 1B68     		ldr	r3, [r3]
 771 004a 1B68     		ldr	r3, [r3]
 772 004c 03F00403 		and	r3, r3, #4
 407:Drivers/STM32F4xx_HAL_Driver/Src/stm32f4xx_hal_adc_ex.c ****   {
 773              		.loc 1 407 8
 774 0050 042B     		cmp	r3, #4
ARM GAS  /tmp/ccqnyf0j.s 			page 22


 775 0052 E0D1     		bne	.L36
 418:Drivers/STM32F4xx_HAL_Driver/Src/stm32f4xx_hal_adc_ex.c ****       }
 419:Drivers/STM32F4xx_HAL_Driver/Src/stm32f4xx_hal_adc_ex.c ****     }
 420:Drivers/STM32F4xx_HAL_Driver/Src/stm32f4xx_hal_adc_ex.c ****   }
 421:Drivers/STM32F4xx_HAL_Driver/Src/stm32f4xx_hal_adc_ex.c ****   
 422:Drivers/STM32F4xx_HAL_Driver/Src/stm32f4xx_hal_adc_ex.c ****   /* Clear injected group conversion flag */
 423:Drivers/STM32F4xx_HAL_Driver/Src/stm32f4xx_hal_adc_ex.c ****   __HAL_ADC_CLEAR_FLAG(hadc, ADC_FLAG_JSTRT | ADC_FLAG_JEOC);
 776              		.loc 1 423 3
 777 0054 7B68     		ldr	r3, [r7, #4]
 778 0056 1B68     		ldr	r3, [r3]
 779 0058 6FF00C02 		mvn	r2, #12
 780 005c 1A60     		str	r2, [r3]
 424:Drivers/STM32F4xx_HAL_Driver/Src/stm32f4xx_hal_adc_ex.c ****     
 425:Drivers/STM32F4xx_HAL_Driver/Src/stm32f4xx_hal_adc_ex.c ****   /* Update ADC state machine */
 426:Drivers/STM32F4xx_HAL_Driver/Src/stm32f4xx_hal_adc_ex.c ****   SET_BIT(hadc->State, HAL_ADC_STATE_INJ_EOC);
 781              		.loc 1 426 3
 782 005e 7B68     		ldr	r3, [r7, #4]
 783 0060 1B6C     		ldr	r3, [r3, #64]
 784 0062 43F40052 		orr	r2, r3, #8192
 785 0066 7B68     		ldr	r3, [r7, #4]
 786 0068 1A64     		str	r2, [r3, #64]
 427:Drivers/STM32F4xx_HAL_Driver/Src/stm32f4xx_hal_adc_ex.c ****   
 428:Drivers/STM32F4xx_HAL_Driver/Src/stm32f4xx_hal_adc_ex.c ****   /* Determine whether any further conversion upcoming on group injected      */
 429:Drivers/STM32F4xx_HAL_Driver/Src/stm32f4xx_hal_adc_ex.c ****   /* by external trigger, continuous mode or scan sequence on going.          */
 430:Drivers/STM32F4xx_HAL_Driver/Src/stm32f4xx_hal_adc_ex.c ****   /* Note: On STM32F4, there is no independent flag of end of sequence.       */
 431:Drivers/STM32F4xx_HAL_Driver/Src/stm32f4xx_hal_adc_ex.c ****   /*       The test of scan sequence on going is done either with scan        */
 432:Drivers/STM32F4xx_HAL_Driver/Src/stm32f4xx_hal_adc_ex.c ****   /*       sequence disabled or with end of conversion flag set to            */
 433:Drivers/STM32F4xx_HAL_Driver/Src/stm32f4xx_hal_adc_ex.c ****   /*       of end of sequence.                                                */
 434:Drivers/STM32F4xx_HAL_Driver/Src/stm32f4xx_hal_adc_ex.c ****   if(ADC_IS_SOFTWARE_START_INJECTED(hadc)                    &&
 787              		.loc 1 434 6
 788 006a 7B68     		ldr	r3, [r7, #4]
 789 006c 1B68     		ldr	r3, [r3]
 790 006e 9B68     		ldr	r3, [r3, #8]
 791 0070 03F44013 		and	r3, r3, #3145728
 792              		.loc 1 434 5
 793 0074 002B     		cmp	r3, #0
 794 0076 31D1     		bne	.L37
 435:Drivers/STM32F4xx_HAL_Driver/Src/stm32f4xx_hal_adc_ex.c ****      (HAL_IS_BIT_CLR(hadc->Instance->JSQR, ADC_JSQR_JL)  ||
 795              		.loc 1 435 7 discriminator 1
 796 0078 7B68     		ldr	r3, [r7, #4]
 797 007a 1B68     		ldr	r3, [r3]
 798 007c 9B6B     		ldr	r3, [r3, #56]
 799 007e 03F44013 		and	r3, r3, #3145728
 434:Drivers/STM32F4xx_HAL_Driver/Src/stm32f4xx_hal_adc_ex.c ****      (HAL_IS_BIT_CLR(hadc->Instance->JSQR, ADC_JSQR_JL)  ||
 800              		.loc 1 434 62 discriminator 1
 801 0082 002B     		cmp	r3, #0
 802 0084 06D0     		beq	.L38
 436:Drivers/STM32F4xx_HAL_Driver/Src/stm32f4xx_hal_adc_ex.c ****       HAL_IS_BIT_CLR(hadc->Instance->CR2, ADC_CR2_EOCS)    ) &&
 803              		.loc 1 436 7
 804 0086 7B68     		ldr	r3, [r7, #4]
 805 0088 1B68     		ldr	r3, [r3]
 806 008a 9B68     		ldr	r3, [r3, #8]
 807 008c 03F48063 		and	r3, r3, #1024
 435:Drivers/STM32F4xx_HAL_Driver/Src/stm32f4xx_hal_adc_ex.c ****      (HAL_IS_BIT_CLR(hadc->Instance->JSQR, ADC_JSQR_JL)  ||
 808              		.loc 1 435 58
 809 0090 002B     		cmp	r3, #0
 810 0092 23D1     		bne	.L37
ARM GAS  /tmp/ccqnyf0j.s 			page 23


 811              	.L38:
 437:Drivers/STM32F4xx_HAL_Driver/Src/stm32f4xx_hal_adc_ex.c ****      (HAL_IS_BIT_CLR(hadc->Instance->CR1, ADC_CR1_JAUTO) &&
 812              		.loc 1 437 7
 813 0094 7B68     		ldr	r3, [r7, #4]
 814 0096 1B68     		ldr	r3, [r3]
 815 0098 5B68     		ldr	r3, [r3, #4]
 816 009a 03F48063 		and	r3, r3, #1024
 436:Drivers/STM32F4xx_HAL_Driver/Src/stm32f4xx_hal_adc_ex.c ****       HAL_IS_BIT_CLR(hadc->Instance->CR2, ADC_CR2_EOCS)    ) &&
 817              		.loc 1 436 62
 818 009e 002B     		cmp	r3, #0
 819 00a0 1CD1     		bne	.L37
 438:Drivers/STM32F4xx_HAL_Driver/Src/stm32f4xx_hal_adc_ex.c ****       (ADC_IS_SOFTWARE_START_REGULAR(hadc)       &&
 820              		.loc 1 438 8
 821 00a2 7B68     		ldr	r3, [r7, #4]
 822 00a4 1B68     		ldr	r3, [r3]
 823 00a6 9B68     		ldr	r3, [r3, #8]
 824 00a8 03F04053 		and	r3, r3, #805306368
 437:Drivers/STM32F4xx_HAL_Driver/Src/stm32f4xx_hal_adc_ex.c ****      (HAL_IS_BIT_CLR(hadc->Instance->CR1, ADC_CR1_JAUTO) &&
 825              		.loc 1 437 58
 826 00ac 002B     		cmp	r3, #0
 827 00ae 15D1     		bne	.L37
 439:Drivers/STM32F4xx_HAL_Driver/Src/stm32f4xx_hal_adc_ex.c ****       (hadc->Init.ContinuousConvMode == DISABLE)   )       )   )
 828              		.loc 1 439 18
 829 00b0 7B68     		ldr	r3, [r7, #4]
 830 00b2 1B7E     		ldrb	r3, [r3, #24]	@ zero_extendqisi2
 438:Drivers/STM32F4xx_HAL_Driver/Src/stm32f4xx_hal_adc_ex.c ****       (ADC_IS_SOFTWARE_START_REGULAR(hadc)       &&
 831              		.loc 1 438 50
 832 00b4 002B     		cmp	r3, #0
 833 00b6 11D1     		bne	.L37
 440:Drivers/STM32F4xx_HAL_Driver/Src/stm32f4xx_hal_adc_ex.c ****   {
 441:Drivers/STM32F4xx_HAL_Driver/Src/stm32f4xx_hal_adc_ex.c ****     /* Set ADC state */
 442:Drivers/STM32F4xx_HAL_Driver/Src/stm32f4xx_hal_adc_ex.c ****     CLEAR_BIT(hadc->State, HAL_ADC_STATE_INJ_BUSY);
 834              		.loc 1 442 5
 835 00b8 7B68     		ldr	r3, [r7, #4]
 836 00ba 1B6C     		ldr	r3, [r3, #64]
 837 00bc 23F48052 		bic	r2, r3, #4096
 838 00c0 7B68     		ldr	r3, [r7, #4]
 839 00c2 1A64     		str	r2, [r3, #64]
 443:Drivers/STM32F4xx_HAL_Driver/Src/stm32f4xx_hal_adc_ex.c ****     
 444:Drivers/STM32F4xx_HAL_Driver/Src/stm32f4xx_hal_adc_ex.c ****     if (HAL_IS_BIT_CLR(hadc->State, HAL_ADC_STATE_REG_BUSY))
 840              		.loc 1 444 9
 841 00c4 7B68     		ldr	r3, [r7, #4]
 842 00c6 1B6C     		ldr	r3, [r3, #64]
 843 00c8 03F48073 		and	r3, r3, #256
 844              		.loc 1 444 8
 845 00cc 002B     		cmp	r3, #0
 846 00ce 05D1     		bne	.L37
 445:Drivers/STM32F4xx_HAL_Driver/Src/stm32f4xx_hal_adc_ex.c ****     { 
 446:Drivers/STM32F4xx_HAL_Driver/Src/stm32f4xx_hal_adc_ex.c ****       SET_BIT(hadc->State, HAL_ADC_STATE_READY);
 847              		.loc 1 446 7
 848 00d0 7B68     		ldr	r3, [r7, #4]
 849 00d2 1B6C     		ldr	r3, [r3, #64]
 850 00d4 43F00102 		orr	r2, r3, #1
 851 00d8 7B68     		ldr	r3, [r7, #4]
 852 00da 1A64     		str	r2, [r3, #64]
 853              	.L37:
 447:Drivers/STM32F4xx_HAL_Driver/Src/stm32f4xx_hal_adc_ex.c ****     }
ARM GAS  /tmp/ccqnyf0j.s 			page 24


 448:Drivers/STM32F4xx_HAL_Driver/Src/stm32f4xx_hal_adc_ex.c ****   }
 449:Drivers/STM32F4xx_HAL_Driver/Src/stm32f4xx_hal_adc_ex.c ****   
 450:Drivers/STM32F4xx_HAL_Driver/Src/stm32f4xx_hal_adc_ex.c ****   /* Return ADC state */
 451:Drivers/STM32F4xx_HAL_Driver/Src/stm32f4xx_hal_adc_ex.c ****   return HAL_OK;
 854              		.loc 1 451 10
 855 00dc 0023     		movs	r3, #0
 856              	.L35:
 452:Drivers/STM32F4xx_HAL_Driver/Src/stm32f4xx_hal_adc_ex.c **** }      
 857              		.loc 1 452 1
 858 00de 1846     		mov	r0, r3
 859 00e0 1037     		adds	r7, r7, #16
 860              	.LCFI20:
 861              		.cfi_def_cfa_offset 8
 862 00e2 BD46     		mov	sp, r7
 863              	.LCFI21:
 864              		.cfi_def_cfa_register 13
 865              		@ sp needed
 866 00e4 80BD     		pop	{r7, pc}
 867              		.cfi_endproc
 868              	.LFE133:
 870              		.section	.text.HAL_ADCEx_InjectedStop_IT,"ax",%progbits
 871              		.align	1
 872              		.global	HAL_ADCEx_InjectedStop_IT
 873              		.syntax unified
 874              		.thumb
 875              		.thumb_func
 876              		.fpu fpv4-sp-d16
 878              	HAL_ADCEx_InjectedStop_IT:
 879              	.LFB134:
 453:Drivers/STM32F4xx_HAL_Driver/Src/stm32f4xx_hal_adc_ex.c ****   
 454:Drivers/STM32F4xx_HAL_Driver/Src/stm32f4xx_hal_adc_ex.c **** /**
 455:Drivers/STM32F4xx_HAL_Driver/Src/stm32f4xx_hal_adc_ex.c ****   * @brief  Stop conversion of injected channels, disable interruption of 
 456:Drivers/STM32F4xx_HAL_Driver/Src/stm32f4xx_hal_adc_ex.c ****   *         end-of-conversion. Disable ADC peripheral if no regular conversion
 457:Drivers/STM32F4xx_HAL_Driver/Src/stm32f4xx_hal_adc_ex.c ****   *         is on going.
 458:Drivers/STM32F4xx_HAL_Driver/Src/stm32f4xx_hal_adc_ex.c ****   * @note   If ADC must be disabled and if conversion is on going on 
 459:Drivers/STM32F4xx_HAL_Driver/Src/stm32f4xx_hal_adc_ex.c ****   *         regular group, function HAL_ADC_Stop must be used to stop both
 460:Drivers/STM32F4xx_HAL_Driver/Src/stm32f4xx_hal_adc_ex.c ****   *         injected and regular groups, and disable the ADC.
 461:Drivers/STM32F4xx_HAL_Driver/Src/stm32f4xx_hal_adc_ex.c ****   * @note   If injected group mode auto-injection is enabled,
 462:Drivers/STM32F4xx_HAL_Driver/Src/stm32f4xx_hal_adc_ex.c ****   *         function HAL_ADC_Stop must be used.
 463:Drivers/STM32F4xx_HAL_Driver/Src/stm32f4xx_hal_adc_ex.c ****   * @param  hadc ADC handle
 464:Drivers/STM32F4xx_HAL_Driver/Src/stm32f4xx_hal_adc_ex.c ****   * @retval None
 465:Drivers/STM32F4xx_HAL_Driver/Src/stm32f4xx_hal_adc_ex.c ****   */
 466:Drivers/STM32F4xx_HAL_Driver/Src/stm32f4xx_hal_adc_ex.c **** HAL_StatusTypeDef HAL_ADCEx_InjectedStop_IT(ADC_HandleTypeDef* hadc)
 467:Drivers/STM32F4xx_HAL_Driver/Src/stm32f4xx_hal_adc_ex.c **** {
 880              		.loc 1 467 1
 881              		.cfi_startproc
 882              		@ args = 0, pretend = 0, frame = 16
 883              		@ frame_needed = 1, uses_anonymous_args = 0
 884 0000 80B5     		push	{r7, lr}
 885              	.LCFI22:
 886              		.cfi_def_cfa_offset 8
 887              		.cfi_offset 7, -8
 888              		.cfi_offset 14, -4
 889 0002 84B0     		sub	sp, sp, #16
 890              	.LCFI23:
 891              		.cfi_def_cfa_offset 24
 892 0004 00AF     		add	r7, sp, #0
ARM GAS  /tmp/ccqnyf0j.s 			page 25


 893              	.LCFI24:
 894              		.cfi_def_cfa_register 7
 895 0006 7860     		str	r0, [r7, #4]
 468:Drivers/STM32F4xx_HAL_Driver/Src/stm32f4xx_hal_adc_ex.c ****   HAL_StatusTypeDef tmp_hal_status = HAL_OK;
 896              		.loc 1 468 21
 897 0008 0023     		movs	r3, #0
 898 000a FB73     		strb	r3, [r7, #15]
 469:Drivers/STM32F4xx_HAL_Driver/Src/stm32f4xx_hal_adc_ex.c ****   
 470:Drivers/STM32F4xx_HAL_Driver/Src/stm32f4xx_hal_adc_ex.c ****   /* Check the parameters */
 471:Drivers/STM32F4xx_HAL_Driver/Src/stm32f4xx_hal_adc_ex.c ****   assert_param(IS_ADC_ALL_INSTANCE(hadc->Instance));
 899              		.loc 1 471 3
 900 000c 7B68     		ldr	r3, [r7, #4]
 901 000e 1B68     		ldr	r3, [r3]
 902 0010 2E4A     		ldr	r2, .L46
 903 0012 9342     		cmp	r3, r2
 904 0014 0ED0     		beq	.L40
 905              		.loc 1 471 3 is_stmt 0 discriminator 1
 906 0016 7B68     		ldr	r3, [r7, #4]
 907 0018 1B68     		ldr	r3, [r3]
 908 001a 2D4A     		ldr	r2, .L46+4
 909 001c 9342     		cmp	r3, r2
 910 001e 09D0     		beq	.L40
 911              		.loc 1 471 3 discriminator 2
 912 0020 7B68     		ldr	r3, [r7, #4]
 913 0022 1B68     		ldr	r3, [r3]
 914 0024 2B4A     		ldr	r2, .L46+8
 915 0026 9342     		cmp	r3, r2
 916 0028 04D0     		beq	.L40
 917              		.loc 1 471 3 discriminator 3
 918 002a 40F2D711 		movw	r1, #471
 919 002e 2A48     		ldr	r0, .L46+12
 920 0030 FFF7FEFF 		bl	assert_failed
 921              	.L40:
 472:Drivers/STM32F4xx_HAL_Driver/Src/stm32f4xx_hal_adc_ex.c **** 
 473:Drivers/STM32F4xx_HAL_Driver/Src/stm32f4xx_hal_adc_ex.c ****   /* Process locked */
 474:Drivers/STM32F4xx_HAL_Driver/Src/stm32f4xx_hal_adc_ex.c ****   __HAL_LOCK(hadc);
 922              		.loc 1 474 3 is_stmt 1
 923 0034 7B68     		ldr	r3, [r7, #4]
 924 0036 93F83C30 		ldrb	r3, [r3, #60]	@ zero_extendqisi2
 925 003a 012B     		cmp	r3, #1
 926 003c 01D1     		bne	.L41
 927              		.loc 1 474 3 is_stmt 0 discriminator 1
 928 003e 0223     		movs	r3, #2
 929 0040 3FE0     		b	.L42
 930              	.L41:
 931              		.loc 1 474 3 discriminator 2
 932 0042 7B68     		ldr	r3, [r7, #4]
 933 0044 0122     		movs	r2, #1
 934 0046 83F83C20 		strb	r2, [r3, #60]
 475:Drivers/STM32F4xx_HAL_Driver/Src/stm32f4xx_hal_adc_ex.c ****     
 476:Drivers/STM32F4xx_HAL_Driver/Src/stm32f4xx_hal_adc_ex.c ****   /* Stop potential conversion and disable ADC peripheral                     */
 477:Drivers/STM32F4xx_HAL_Driver/Src/stm32f4xx_hal_adc_ex.c ****   /* Conditioned to:                                                          */
 478:Drivers/STM32F4xx_HAL_Driver/Src/stm32f4xx_hal_adc_ex.c ****   /* - No conversion on the other group (regular group) is intended to        */
 479:Drivers/STM32F4xx_HAL_Driver/Src/stm32f4xx_hal_adc_ex.c ****   /*   continue (injected and regular groups stop conversion and ADC disable  */
 480:Drivers/STM32F4xx_HAL_Driver/Src/stm32f4xx_hal_adc_ex.c ****   /*   are common)                                                            */
 481:Drivers/STM32F4xx_HAL_Driver/Src/stm32f4xx_hal_adc_ex.c ****   /* - In case of auto-injection mode, HAL_ADC_Stop must be used.             */ 
 482:Drivers/STM32F4xx_HAL_Driver/Src/stm32f4xx_hal_adc_ex.c ****   if(((hadc->State & HAL_ADC_STATE_REG_BUSY) == RESET)  &&
ARM GAS  /tmp/ccqnyf0j.s 			page 26


 935              		.loc 1 482 12 is_stmt 1 discriminator 2
 936 004a 7B68     		ldr	r3, [r7, #4]
 937 004c 1B6C     		ldr	r3, [r3, #64]
 938              		.loc 1 482 20 discriminator 2
 939 004e 03F48073 		and	r3, r3, #256
 940              		.loc 1 482 5 discriminator 2
 941 0052 002B     		cmp	r3, #0
 942 0054 28D1     		bne	.L43
 483:Drivers/STM32F4xx_HAL_Driver/Src/stm32f4xx_hal_adc_ex.c ****      HAL_IS_BIT_CLR(hadc->Instance->CR1, ADC_CR1_JAUTO)   )
 943              		.loc 1 483 6 discriminator 1
 944 0056 7B68     		ldr	r3, [r7, #4]
 945 0058 1B68     		ldr	r3, [r3]
 946 005a 5B68     		ldr	r3, [r3, #4]
 947 005c 03F48063 		and	r3, r3, #1024
 482:Drivers/STM32F4xx_HAL_Driver/Src/stm32f4xx_hal_adc_ex.c ****      HAL_IS_BIT_CLR(hadc->Instance->CR1, ADC_CR1_JAUTO)   )
 948              		.loc 1 482 57 discriminator 1
 949 0060 002B     		cmp	r3, #0
 950 0062 21D1     		bne	.L43
 484:Drivers/STM32F4xx_HAL_Driver/Src/stm32f4xx_hal_adc_ex.c ****   {
 485:Drivers/STM32F4xx_HAL_Driver/Src/stm32f4xx_hal_adc_ex.c ****     /* Stop potential conversion on going, on regular and injected groups */
 486:Drivers/STM32F4xx_HAL_Driver/Src/stm32f4xx_hal_adc_ex.c ****     /* Disable ADC peripheral */
 487:Drivers/STM32F4xx_HAL_Driver/Src/stm32f4xx_hal_adc_ex.c ****     __HAL_ADC_DISABLE(hadc);
 951              		.loc 1 487 5
 952 0064 7B68     		ldr	r3, [r7, #4]
 953 0066 1B68     		ldr	r3, [r3]
 954 0068 9A68     		ldr	r2, [r3, #8]
 955 006a 7B68     		ldr	r3, [r7, #4]
 956 006c 1B68     		ldr	r3, [r3]
 957 006e 22F00102 		bic	r2, r2, #1
 958 0072 9A60     		str	r2, [r3, #8]
 488:Drivers/STM32F4xx_HAL_Driver/Src/stm32f4xx_hal_adc_ex.c ****     
 489:Drivers/STM32F4xx_HAL_Driver/Src/stm32f4xx_hal_adc_ex.c ****     /* Check if ADC is effectively disabled */
 490:Drivers/STM32F4xx_HAL_Driver/Src/stm32f4xx_hal_adc_ex.c ****     if(HAL_IS_BIT_CLR(hadc->Instance->CR2, ADC_CR2_ADON))
 959              		.loc 1 490 8
 960 0074 7B68     		ldr	r3, [r7, #4]
 961 0076 1B68     		ldr	r3, [r3]
 962 0078 9B68     		ldr	r3, [r3, #8]
 963 007a 03F00103 		and	r3, r3, #1
 964              		.loc 1 490 7
 965 007e 002B     		cmp	r3, #0
 966 0080 1AD1     		bne	.L45
 491:Drivers/STM32F4xx_HAL_Driver/Src/stm32f4xx_hal_adc_ex.c ****     {
 492:Drivers/STM32F4xx_HAL_Driver/Src/stm32f4xx_hal_adc_ex.c ****       /* Disable ADC end of conversion interrupt for injected channels */
 493:Drivers/STM32F4xx_HAL_Driver/Src/stm32f4xx_hal_adc_ex.c ****       __HAL_ADC_DISABLE_IT(hadc, ADC_IT_JEOC);
 967              		.loc 1 493 7
 968 0082 7B68     		ldr	r3, [r7, #4]
 969 0084 1B68     		ldr	r3, [r3]
 970 0086 5A68     		ldr	r2, [r3, #4]
 971 0088 7B68     		ldr	r3, [r7, #4]
 972 008a 1B68     		ldr	r3, [r3]
 973 008c 22F08002 		bic	r2, r2, #128
 974 0090 5A60     		str	r2, [r3, #4]
 494:Drivers/STM32F4xx_HAL_Driver/Src/stm32f4xx_hal_adc_ex.c ****       
 495:Drivers/STM32F4xx_HAL_Driver/Src/stm32f4xx_hal_adc_ex.c ****       /* Set ADC state */
 496:Drivers/STM32F4xx_HAL_Driver/Src/stm32f4xx_hal_adc_ex.c ****       ADC_STATE_CLR_SET(hadc->State,
 975              		.loc 1 496 7
 976 0092 7B68     		ldr	r3, [r7, #4]
ARM GAS  /tmp/ccqnyf0j.s 			page 27


 977 0094 1B6C     		ldr	r3, [r3, #64]
 978 0096 23F48853 		bic	r3, r3, #4352
 979 009a 23F00103 		bic	r3, r3, #1
 980 009e 43F00102 		orr	r2, r3, #1
 981 00a2 7B68     		ldr	r3, [r7, #4]
 982 00a4 1A64     		str	r2, [r3, #64]
 490:Drivers/STM32F4xx_HAL_Driver/Src/stm32f4xx_hal_adc_ex.c ****     {
 983              		.loc 1 490 7
 984 00a6 07E0     		b	.L45
 985              	.L43:
 497:Drivers/STM32F4xx_HAL_Driver/Src/stm32f4xx_hal_adc_ex.c ****                         HAL_ADC_STATE_REG_BUSY | HAL_ADC_STATE_INJ_BUSY,
 498:Drivers/STM32F4xx_HAL_Driver/Src/stm32f4xx_hal_adc_ex.c ****                         HAL_ADC_STATE_READY);
 499:Drivers/STM32F4xx_HAL_Driver/Src/stm32f4xx_hal_adc_ex.c ****     }
 500:Drivers/STM32F4xx_HAL_Driver/Src/stm32f4xx_hal_adc_ex.c ****   }
 501:Drivers/STM32F4xx_HAL_Driver/Src/stm32f4xx_hal_adc_ex.c ****   else
 502:Drivers/STM32F4xx_HAL_Driver/Src/stm32f4xx_hal_adc_ex.c ****   {
 503:Drivers/STM32F4xx_HAL_Driver/Src/stm32f4xx_hal_adc_ex.c ****     /* Update ADC state machine to error */
 504:Drivers/STM32F4xx_HAL_Driver/Src/stm32f4xx_hal_adc_ex.c ****     SET_BIT(hadc->State, HAL_ADC_STATE_ERROR_CONFIG);
 986              		.loc 1 504 5
 987 00a8 7B68     		ldr	r3, [r7, #4]
 988 00aa 1B6C     		ldr	r3, [r3, #64]
 989 00ac 43F02002 		orr	r2, r3, #32
 990 00b0 7B68     		ldr	r3, [r7, #4]
 991 00b2 1A64     		str	r2, [r3, #64]
 505:Drivers/STM32F4xx_HAL_Driver/Src/stm32f4xx_hal_adc_ex.c ****       
 506:Drivers/STM32F4xx_HAL_Driver/Src/stm32f4xx_hal_adc_ex.c ****     tmp_hal_status = HAL_ERROR;
 992              		.loc 1 506 20
 993 00b4 0123     		movs	r3, #1
 994 00b6 FB73     		strb	r3, [r7, #15]
 995              	.L45:
 507:Drivers/STM32F4xx_HAL_Driver/Src/stm32f4xx_hal_adc_ex.c ****   }
 508:Drivers/STM32F4xx_HAL_Driver/Src/stm32f4xx_hal_adc_ex.c ****   
 509:Drivers/STM32F4xx_HAL_Driver/Src/stm32f4xx_hal_adc_ex.c ****   /* Process unlocked */
 510:Drivers/STM32F4xx_HAL_Driver/Src/stm32f4xx_hal_adc_ex.c ****   __HAL_UNLOCK(hadc);
 996              		.loc 1 510 3
 997 00b8 7B68     		ldr	r3, [r7, #4]
 998 00ba 0022     		movs	r2, #0
 999 00bc 83F83C20 		strb	r2, [r3, #60]
 511:Drivers/STM32F4xx_HAL_Driver/Src/stm32f4xx_hal_adc_ex.c ****   
 512:Drivers/STM32F4xx_HAL_Driver/Src/stm32f4xx_hal_adc_ex.c ****   /* Return function status */
 513:Drivers/STM32F4xx_HAL_Driver/Src/stm32f4xx_hal_adc_ex.c ****   return tmp_hal_status;
 1000              		.loc 1 513 10
 1001 00c0 FB7B     		ldrb	r3, [r7, #15]	@ zero_extendqisi2
 1002              	.L42:
 514:Drivers/STM32F4xx_HAL_Driver/Src/stm32f4xx_hal_adc_ex.c **** }
 1003              		.loc 1 514 1
 1004 00c2 1846     		mov	r0, r3
 1005 00c4 1037     		adds	r7, r7, #16
 1006              	.LCFI25:
 1007              		.cfi_def_cfa_offset 8
 1008 00c6 BD46     		mov	sp, r7
 1009              	.LCFI26:
 1010              		.cfi_def_cfa_register 13
 1011              		@ sp needed
 1012 00c8 80BD     		pop	{r7, pc}
 1013              	.L47:
 1014 00ca 00BF     		.align	2
ARM GAS  /tmp/ccqnyf0j.s 			page 28


 1015              	.L46:
 1016 00cc 00200140 		.word	1073815552
 1017 00d0 00210140 		.word	1073815808
 1018 00d4 00220140 		.word	1073816064
 1019 00d8 00000000 		.word	.LC0
 1020              		.cfi_endproc
 1021              	.LFE134:
 1023              		.section	.text.HAL_ADCEx_InjectedGetValue,"ax",%progbits
 1024              		.align	1
 1025              		.global	HAL_ADCEx_InjectedGetValue
 1026              		.syntax unified
 1027              		.thumb
 1028              		.thumb_func
 1029              		.fpu fpv4-sp-d16
 1031              	HAL_ADCEx_InjectedGetValue:
 1032              	.LFB135:
 515:Drivers/STM32F4xx_HAL_Driver/Src/stm32f4xx_hal_adc_ex.c **** 
 516:Drivers/STM32F4xx_HAL_Driver/Src/stm32f4xx_hal_adc_ex.c **** /**
 517:Drivers/STM32F4xx_HAL_Driver/Src/stm32f4xx_hal_adc_ex.c ****   * @brief  Gets the converted value from data register of injected channel.
 518:Drivers/STM32F4xx_HAL_Driver/Src/stm32f4xx_hal_adc_ex.c ****   * @param  hadc pointer to a ADC_HandleTypeDef structure that contains
 519:Drivers/STM32F4xx_HAL_Driver/Src/stm32f4xx_hal_adc_ex.c ****   *         the configuration information for the specified ADC.
 520:Drivers/STM32F4xx_HAL_Driver/Src/stm32f4xx_hal_adc_ex.c ****   * @param  InjectedRank the ADC injected rank.
 521:Drivers/STM32F4xx_HAL_Driver/Src/stm32f4xx_hal_adc_ex.c ****   *          This parameter can be one of the following values:
 522:Drivers/STM32F4xx_HAL_Driver/Src/stm32f4xx_hal_adc_ex.c ****   *            @arg ADC_INJECTED_RANK_1: Injected Channel1 selected
 523:Drivers/STM32F4xx_HAL_Driver/Src/stm32f4xx_hal_adc_ex.c ****   *            @arg ADC_INJECTED_RANK_2: Injected Channel2 selected
 524:Drivers/STM32F4xx_HAL_Driver/Src/stm32f4xx_hal_adc_ex.c ****   *            @arg ADC_INJECTED_RANK_3: Injected Channel3 selected
 525:Drivers/STM32F4xx_HAL_Driver/Src/stm32f4xx_hal_adc_ex.c ****   *            @arg ADC_INJECTED_RANK_4: Injected Channel4 selected
 526:Drivers/STM32F4xx_HAL_Driver/Src/stm32f4xx_hal_adc_ex.c ****   * @retval None
 527:Drivers/STM32F4xx_HAL_Driver/Src/stm32f4xx_hal_adc_ex.c ****   */
 528:Drivers/STM32F4xx_HAL_Driver/Src/stm32f4xx_hal_adc_ex.c **** uint32_t HAL_ADCEx_InjectedGetValue(ADC_HandleTypeDef* hadc, uint32_t InjectedRank)
 529:Drivers/STM32F4xx_HAL_Driver/Src/stm32f4xx_hal_adc_ex.c **** {
 1033              		.loc 1 529 1
 1034              		.cfi_startproc
 1035              		@ args = 0, pretend = 0, frame = 16
 1036              		@ frame_needed = 1, uses_anonymous_args = 0
 1037 0000 80B5     		push	{r7, lr}
 1038              	.LCFI27:
 1039              		.cfi_def_cfa_offset 8
 1040              		.cfi_offset 7, -8
 1041              		.cfi_offset 14, -4
 1042 0002 84B0     		sub	sp, sp, #16
 1043              	.LCFI28:
 1044              		.cfi_def_cfa_offset 24
 1045 0004 00AF     		add	r7, sp, #0
 1046              	.LCFI29:
 1047              		.cfi_def_cfa_register 7
 1048 0006 7860     		str	r0, [r7, #4]
 1049 0008 3960     		str	r1, [r7]
 530:Drivers/STM32F4xx_HAL_Driver/Src/stm32f4xx_hal_adc_ex.c ****   __IO uint32_t tmp = 0U;
 1050              		.loc 1 530 17
 1051 000a 0023     		movs	r3, #0
 1052 000c FB60     		str	r3, [r7, #12]
 531:Drivers/STM32F4xx_HAL_Driver/Src/stm32f4xx_hal_adc_ex.c ****   
 532:Drivers/STM32F4xx_HAL_Driver/Src/stm32f4xx_hal_adc_ex.c ****   /* Check the parameters */
 533:Drivers/STM32F4xx_HAL_Driver/Src/stm32f4xx_hal_adc_ex.c ****   assert_param(IS_ADC_INJECTED_RANK(InjectedRank));
 1053              		.loc 1 533 3
 1054 000e 3B68     		ldr	r3, [r7]
ARM GAS  /tmp/ccqnyf0j.s 			page 29


 1055 0010 002B     		cmp	r3, #0
 1056 0012 02D0     		beq	.L49
 1057              		.loc 1 533 3 is_stmt 0 discriminator 2
 1058 0014 3B68     		ldr	r3, [r7]
 1059 0016 042B     		cmp	r3, #4
 1060 0018 04D9     		bls	.L50
 1061              	.L49:
 1062              		.loc 1 533 3 discriminator 3
 1063 001a 40F21521 		movw	r1, #533
 1064 001e 1848     		ldr	r0, .L60
 1065 0020 FFF7FEFF 		bl	assert_failed
 1066              	.L50:
 534:Drivers/STM32F4xx_HAL_Driver/Src/stm32f4xx_hal_adc_ex.c ****   
 535:Drivers/STM32F4xx_HAL_Driver/Src/stm32f4xx_hal_adc_ex.c ****   /* Clear injected group conversion flag to have similar behaviour as        */
 536:Drivers/STM32F4xx_HAL_Driver/Src/stm32f4xx_hal_adc_ex.c ****   /* regular group: reading data register also clears end of conversion flag. */
 537:Drivers/STM32F4xx_HAL_Driver/Src/stm32f4xx_hal_adc_ex.c ****   __HAL_ADC_CLEAR_FLAG(hadc, ADC_FLAG_JEOC);
 1067              		.loc 1 537 3 is_stmt 1
 1068 0024 7B68     		ldr	r3, [r7, #4]
 1069 0026 1B68     		ldr	r3, [r3]
 1070 0028 6FF00402 		mvn	r2, #4
 1071 002c 1A60     		str	r2, [r3]
 1072 002e 3B68     		ldr	r3, [r7]
 1073 0030 013B     		subs	r3, r3, #1
 1074 0032 032B     		cmp	r3, #3
 1075 0034 1ED8     		bhi	.L59
 1076 0036 01A2     		adr	r2, .L53
 1077 0038 52F823F0 		ldr	pc, [r2, r3, lsl #2]
 1078              		.p2align 2
 1079              	.L53:
 1080 003c 6B000000 		.word	.L56+1
 1081 0040 61000000 		.word	.L55+1
 1082 0044 57000000 		.word	.L54+1
 1083 0048 4D000000 		.word	.L52+1
 1084              		.p2align 1
 1085              	.L52:
 538:Drivers/STM32F4xx_HAL_Driver/Src/stm32f4xx_hal_adc_ex.c ****   
 539:Drivers/STM32F4xx_HAL_Driver/Src/stm32f4xx_hal_adc_ex.c ****   /* Return the selected ADC converted value */ 
 540:Drivers/STM32F4xx_HAL_Driver/Src/stm32f4xx_hal_adc_ex.c ****   switch(InjectedRank)
 541:Drivers/STM32F4xx_HAL_Driver/Src/stm32f4xx_hal_adc_ex.c ****   {  
 542:Drivers/STM32F4xx_HAL_Driver/Src/stm32f4xx_hal_adc_ex.c ****     case ADC_INJECTED_RANK_4:
 543:Drivers/STM32F4xx_HAL_Driver/Src/stm32f4xx_hal_adc_ex.c ****     {
 544:Drivers/STM32F4xx_HAL_Driver/Src/stm32f4xx_hal_adc_ex.c ****       tmp =  hadc->Instance->JDR4;
 1086              		.loc 1 544 18
 1087 004c 7B68     		ldr	r3, [r7, #4]
 1088 004e 1B68     		ldr	r3, [r3]
 1089              		.loc 1 544 28
 1090 0050 9B6C     		ldr	r3, [r3, #72]
 1091              		.loc 1 544 11
 1092 0052 FB60     		str	r3, [r7, #12]
 545:Drivers/STM32F4xx_HAL_Driver/Src/stm32f4xx_hal_adc_ex.c ****     }  
 546:Drivers/STM32F4xx_HAL_Driver/Src/stm32f4xx_hal_adc_ex.c ****     break;
 1093              		.loc 1 546 5
 1094 0054 0FE0     		b	.L57
 1095              	.L54:
 547:Drivers/STM32F4xx_HAL_Driver/Src/stm32f4xx_hal_adc_ex.c ****     case ADC_INJECTED_RANK_3: 
 548:Drivers/STM32F4xx_HAL_Driver/Src/stm32f4xx_hal_adc_ex.c ****     {  
 549:Drivers/STM32F4xx_HAL_Driver/Src/stm32f4xx_hal_adc_ex.c ****       tmp =  hadc->Instance->JDR3;
ARM GAS  /tmp/ccqnyf0j.s 			page 30


 1096              		.loc 1 549 18
 1097 0056 7B68     		ldr	r3, [r7, #4]
 1098 0058 1B68     		ldr	r3, [r3]
 1099              		.loc 1 549 28
 1100 005a 5B6C     		ldr	r3, [r3, #68]
 1101              		.loc 1 549 11
 1102 005c FB60     		str	r3, [r7, #12]
 550:Drivers/STM32F4xx_HAL_Driver/Src/stm32f4xx_hal_adc_ex.c ****     }  
 551:Drivers/STM32F4xx_HAL_Driver/Src/stm32f4xx_hal_adc_ex.c ****     break;
 1103              		.loc 1 551 5
 1104 005e 0AE0     		b	.L57
 1105              	.L55:
 552:Drivers/STM32F4xx_HAL_Driver/Src/stm32f4xx_hal_adc_ex.c ****     case ADC_INJECTED_RANK_2: 
 553:Drivers/STM32F4xx_HAL_Driver/Src/stm32f4xx_hal_adc_ex.c ****     {  
 554:Drivers/STM32F4xx_HAL_Driver/Src/stm32f4xx_hal_adc_ex.c ****       tmp =  hadc->Instance->JDR2;
 1106              		.loc 1 554 18
 1107 0060 7B68     		ldr	r3, [r7, #4]
 1108 0062 1B68     		ldr	r3, [r3]
 1109              		.loc 1 554 28
 1110 0064 1B6C     		ldr	r3, [r3, #64]
 1111              		.loc 1 554 11
 1112 0066 FB60     		str	r3, [r7, #12]
 555:Drivers/STM32F4xx_HAL_Driver/Src/stm32f4xx_hal_adc_ex.c ****     }
 556:Drivers/STM32F4xx_HAL_Driver/Src/stm32f4xx_hal_adc_ex.c ****     break;
 1113              		.loc 1 556 5
 1114 0068 05E0     		b	.L57
 1115              	.L56:
 557:Drivers/STM32F4xx_HAL_Driver/Src/stm32f4xx_hal_adc_ex.c ****     case ADC_INJECTED_RANK_1:
 558:Drivers/STM32F4xx_HAL_Driver/Src/stm32f4xx_hal_adc_ex.c ****     {
 559:Drivers/STM32F4xx_HAL_Driver/Src/stm32f4xx_hal_adc_ex.c ****       tmp =  hadc->Instance->JDR1;
 1116              		.loc 1 559 18
 1117 006a 7B68     		ldr	r3, [r7, #4]
 1118 006c 1B68     		ldr	r3, [r3]
 1119              		.loc 1 559 28
 1120 006e DB6B     		ldr	r3, [r3, #60]
 1121              		.loc 1 559 11
 1122 0070 FB60     		str	r3, [r7, #12]
 560:Drivers/STM32F4xx_HAL_Driver/Src/stm32f4xx_hal_adc_ex.c ****     }
 561:Drivers/STM32F4xx_HAL_Driver/Src/stm32f4xx_hal_adc_ex.c ****     break;
 1123              		.loc 1 561 5
 1124 0072 00E0     		b	.L57
 1125              	.L59:
 562:Drivers/STM32F4xx_HAL_Driver/Src/stm32f4xx_hal_adc_ex.c ****     default:
 563:Drivers/STM32F4xx_HAL_Driver/Src/stm32f4xx_hal_adc_ex.c ****     break;  
 1126              		.loc 1 563 5
 1127 0074 00BF     		nop
 1128              	.L57:
 564:Drivers/STM32F4xx_HAL_Driver/Src/stm32f4xx_hal_adc_ex.c ****   }
 565:Drivers/STM32F4xx_HAL_Driver/Src/stm32f4xx_hal_adc_ex.c ****   return tmp;
 1129              		.loc 1 565 10
 1130 0076 FB68     		ldr	r3, [r7, #12]
 566:Drivers/STM32F4xx_HAL_Driver/Src/stm32f4xx_hal_adc_ex.c **** }
 1131              		.loc 1 566 1
 1132 0078 1846     		mov	r0, r3
 1133 007a 1037     		adds	r7, r7, #16
 1134              	.LCFI30:
 1135              		.cfi_def_cfa_offset 8
ARM GAS  /tmp/ccqnyf0j.s 			page 31


 1136 007c BD46     		mov	sp, r7
 1137              	.LCFI31:
 1138              		.cfi_def_cfa_register 13
 1139              		@ sp needed
 1140 007e 80BD     		pop	{r7, pc}
 1141              	.L61:
 1142              		.align	2
 1143              	.L60:
 1144 0080 00000000 		.word	.LC0
 1145              		.cfi_endproc
 1146              	.LFE135:
 1148              		.section	.text.HAL_ADCEx_MultiModeStart_DMA,"ax",%progbits
 1149              		.align	1
 1150              		.global	HAL_ADCEx_MultiModeStart_DMA
 1151              		.syntax unified
 1152              		.thumb
 1153              		.thumb_func
 1154              		.fpu fpv4-sp-d16
 1156              	HAL_ADCEx_MultiModeStart_DMA:
 1157              	.LFB136:
 567:Drivers/STM32F4xx_HAL_Driver/Src/stm32f4xx_hal_adc_ex.c **** 
 568:Drivers/STM32F4xx_HAL_Driver/Src/stm32f4xx_hal_adc_ex.c **** /**
 569:Drivers/STM32F4xx_HAL_Driver/Src/stm32f4xx_hal_adc_ex.c ****   * @brief  Enables ADC DMA request after last transfer (Multi-ADC mode) and enables ADC peripheral
 570:Drivers/STM32F4xx_HAL_Driver/Src/stm32f4xx_hal_adc_ex.c ****   * 
 571:Drivers/STM32F4xx_HAL_Driver/Src/stm32f4xx_hal_adc_ex.c ****   * @note   Caution: This function must be used only with the ADC master.  
 572:Drivers/STM32F4xx_HAL_Driver/Src/stm32f4xx_hal_adc_ex.c ****   *
 573:Drivers/STM32F4xx_HAL_Driver/Src/stm32f4xx_hal_adc_ex.c ****   * @param  hadc pointer to a ADC_HandleTypeDef structure that contains
 574:Drivers/STM32F4xx_HAL_Driver/Src/stm32f4xx_hal_adc_ex.c ****   *         the configuration information for the specified ADC.
 575:Drivers/STM32F4xx_HAL_Driver/Src/stm32f4xx_hal_adc_ex.c ****   * @param  pData   Pointer to buffer in which transferred from ADC peripheral to memory will be st
 576:Drivers/STM32F4xx_HAL_Driver/Src/stm32f4xx_hal_adc_ex.c ****   * @param  Length  The length of data to be transferred from ADC peripheral to memory.  
 577:Drivers/STM32F4xx_HAL_Driver/Src/stm32f4xx_hal_adc_ex.c ****   * @retval HAL status
 578:Drivers/STM32F4xx_HAL_Driver/Src/stm32f4xx_hal_adc_ex.c ****   */
 579:Drivers/STM32F4xx_HAL_Driver/Src/stm32f4xx_hal_adc_ex.c **** HAL_StatusTypeDef HAL_ADCEx_MultiModeStart_DMA(ADC_HandleTypeDef* hadc, uint32_t* pData, uint32_t L
 580:Drivers/STM32F4xx_HAL_Driver/Src/stm32f4xx_hal_adc_ex.c **** {
 1158              		.loc 1 580 1
 1159              		.cfi_startproc
 1160              		@ args = 0, pretend = 0, frame = 24
 1161              		@ frame_needed = 1, uses_anonymous_args = 0
 1162 0000 80B5     		push	{r7, lr}
 1163              	.LCFI32:
 1164              		.cfi_def_cfa_offset 8
 1165              		.cfi_offset 7, -8
 1166              		.cfi_offset 14, -4
 1167 0002 86B0     		sub	sp, sp, #24
 1168              	.LCFI33:
 1169              		.cfi_def_cfa_offset 32
 1170 0004 00AF     		add	r7, sp, #0
 1171              	.LCFI34:
 1172              		.cfi_def_cfa_register 7
 1173 0006 F860     		str	r0, [r7, #12]
 1174 0008 B960     		str	r1, [r7, #8]
 1175 000a 7A60     		str	r2, [r7, #4]
 581:Drivers/STM32F4xx_HAL_Driver/Src/stm32f4xx_hal_adc_ex.c ****   __IO uint32_t counter = 0U;
 1176              		.loc 1 581 17
 1177 000c 0023     		movs	r3, #0
 1178 000e 3B61     		str	r3, [r7, #16]
 582:Drivers/STM32F4xx_HAL_Driver/Src/stm32f4xx_hal_adc_ex.c ****   ADC_Common_TypeDef *tmpADC_Common;
ARM GAS  /tmp/ccqnyf0j.s 			page 32


 583:Drivers/STM32F4xx_HAL_Driver/Src/stm32f4xx_hal_adc_ex.c ****   
 584:Drivers/STM32F4xx_HAL_Driver/Src/stm32f4xx_hal_adc_ex.c ****   /* Check the parameters */
 585:Drivers/STM32F4xx_HAL_Driver/Src/stm32f4xx_hal_adc_ex.c ****   assert_param(IS_FUNCTIONAL_STATE(hadc->Init.ContinuousConvMode));
 1179              		.loc 1 585 3
 1180 0010 FB68     		ldr	r3, [r7, #12]
 1181 0012 1B7E     		ldrb	r3, [r3, #24]	@ zero_extendqisi2
 1182 0014 002B     		cmp	r3, #0
 1183 0016 08D0     		beq	.L63
 1184              		.loc 1 585 3 is_stmt 0 discriminator 1
 1185 0018 FB68     		ldr	r3, [r7, #12]
 1186 001a 1B7E     		ldrb	r3, [r3, #24]	@ zero_extendqisi2
 1187 001c 012B     		cmp	r3, #1
 1188 001e 04D0     		beq	.L63
 1189              		.loc 1 585 3 discriminator 2
 1190 0020 40F24921 		movw	r1, #585
 1191 0024 6948     		ldr	r0, .L77
 1192 0026 FFF7FEFF 		bl	assert_failed
 1193              	.L63:
 586:Drivers/STM32F4xx_HAL_Driver/Src/stm32f4xx_hal_adc_ex.c ****   assert_param(IS_ADC_EXT_TRIG_EDGE(hadc->Init.ExternalTrigConvEdge));
 1194              		.loc 1 586 3 is_stmt 1
 1195 002a FB68     		ldr	r3, [r7, #12]
 1196 002c DB6A     		ldr	r3, [r3, #44]
 1197 002e 002B     		cmp	r3, #0
 1198 0030 13D0     		beq	.L64
 1199              		.loc 1 586 3 is_stmt 0 discriminator 1
 1200 0032 FB68     		ldr	r3, [r7, #12]
 1201 0034 DB6A     		ldr	r3, [r3, #44]
 1202 0036 B3F1805F 		cmp	r3, #268435456
 1203 003a 0ED0     		beq	.L64
 1204              		.loc 1 586 3 discriminator 2
 1205 003c FB68     		ldr	r3, [r7, #12]
 1206 003e DB6A     		ldr	r3, [r3, #44]
 1207 0040 B3F1005F 		cmp	r3, #536870912
 1208 0044 09D0     		beq	.L64
 1209              		.loc 1 586 3 discriminator 3
 1210 0046 FB68     		ldr	r3, [r7, #12]
 1211 0048 DB6A     		ldr	r3, [r3, #44]
 1212 004a B3F1405F 		cmp	r3, #805306368
 1213 004e 04D0     		beq	.L64
 1214              		.loc 1 586 3 discriminator 4
 1215 0050 40F24A21 		movw	r1, #586
 1216 0054 5D48     		ldr	r0, .L77
 1217 0056 FFF7FEFF 		bl	assert_failed
 1218              	.L64:
 587:Drivers/STM32F4xx_HAL_Driver/Src/stm32f4xx_hal_adc_ex.c ****   assert_param(IS_FUNCTIONAL_STATE(hadc->Init.DMAContinuousRequests));
 1219              		.loc 1 587 3 is_stmt 1
 1220 005a FB68     		ldr	r3, [r7, #12]
 1221 005c 93F83030 		ldrb	r3, [r3, #48]	@ zero_extendqisi2
 1222 0060 002B     		cmp	r3, #0
 1223 0062 09D0     		beq	.L65
 1224              		.loc 1 587 3 is_stmt 0 discriminator 1
 1225 0064 FB68     		ldr	r3, [r7, #12]
 1226 0066 93F83030 		ldrb	r3, [r3, #48]	@ zero_extendqisi2
 1227 006a 012B     		cmp	r3, #1
 1228 006c 04D0     		beq	.L65
 1229              		.loc 1 587 3 discriminator 2
 1230 006e 40F24B21 		movw	r1, #587
ARM GAS  /tmp/ccqnyf0j.s 			page 33


 1231 0072 5648     		ldr	r0, .L77
 1232 0074 FFF7FEFF 		bl	assert_failed
 1233              	.L65:
 588:Drivers/STM32F4xx_HAL_Driver/Src/stm32f4xx_hal_adc_ex.c ****   
 589:Drivers/STM32F4xx_HAL_Driver/Src/stm32f4xx_hal_adc_ex.c ****   /* Process locked */
 590:Drivers/STM32F4xx_HAL_Driver/Src/stm32f4xx_hal_adc_ex.c ****   __HAL_LOCK(hadc);
 1234              		.loc 1 590 3 is_stmt 1
 1235 0078 FB68     		ldr	r3, [r7, #12]
 1236 007a 93F83C30 		ldrb	r3, [r3, #60]	@ zero_extendqisi2
 1237 007e 012B     		cmp	r3, #1
 1238 0080 01D1     		bne	.L66
 1239              		.loc 1 590 3 is_stmt 0 discriminator 1
 1240 0082 0223     		movs	r3, #2
 1241 0084 9EE0     		b	.L67
 1242              	.L66:
 1243              		.loc 1 590 3 discriminator 2
 1244 0086 FB68     		ldr	r3, [r7, #12]
 1245 0088 0122     		movs	r2, #1
 1246 008a 83F83C20 		strb	r2, [r3, #60]
 591:Drivers/STM32F4xx_HAL_Driver/Src/stm32f4xx_hal_adc_ex.c ****   
 592:Drivers/STM32F4xx_HAL_Driver/Src/stm32f4xx_hal_adc_ex.c ****   /* Check if ADC peripheral is disabled in order to enable it and wait during 
 593:Drivers/STM32F4xx_HAL_Driver/Src/stm32f4xx_hal_adc_ex.c ****      Tstab time the ADC's stabilization */
 594:Drivers/STM32F4xx_HAL_Driver/Src/stm32f4xx_hal_adc_ex.c ****   if((hadc->Instance->CR2 & ADC_CR2_ADON) != ADC_CR2_ADON)
 1247              		.loc 1 594 11 is_stmt 1 discriminator 2
 1248 008e FB68     		ldr	r3, [r7, #12]
 1249 0090 1B68     		ldr	r3, [r3]
 1250              		.loc 1 594 21 discriminator 2
 1251 0092 9B68     		ldr	r3, [r3, #8]
 1252              		.loc 1 594 27 discriminator 2
 1253 0094 03F00103 		and	r3, r3, #1
 1254              		.loc 1 594 5 discriminator 2
 1255 0098 012B     		cmp	r3, #1
 1256 009a 18D0     		beq	.L68
 595:Drivers/STM32F4xx_HAL_Driver/Src/stm32f4xx_hal_adc_ex.c ****   {  
 596:Drivers/STM32F4xx_HAL_Driver/Src/stm32f4xx_hal_adc_ex.c ****     /* Enable the Peripheral */
 597:Drivers/STM32F4xx_HAL_Driver/Src/stm32f4xx_hal_adc_ex.c ****     __HAL_ADC_ENABLE(hadc);
 1257              		.loc 1 597 5
 1258 009c FB68     		ldr	r3, [r7, #12]
 1259 009e 1B68     		ldr	r3, [r3]
 1260 00a0 9A68     		ldr	r2, [r3, #8]
 1261 00a2 FB68     		ldr	r3, [r7, #12]
 1262 00a4 1B68     		ldr	r3, [r3]
 1263 00a6 42F00102 		orr	r2, r2, #1
 1264 00aa 9A60     		str	r2, [r3, #8]
 598:Drivers/STM32F4xx_HAL_Driver/Src/stm32f4xx_hal_adc_ex.c ****     
 599:Drivers/STM32F4xx_HAL_Driver/Src/stm32f4xx_hal_adc_ex.c ****     /* Delay for temperature sensor stabilization time */
 600:Drivers/STM32F4xx_HAL_Driver/Src/stm32f4xx_hal_adc_ex.c ****     /* Compute number of CPU cycles to wait for */
 601:Drivers/STM32F4xx_HAL_Driver/Src/stm32f4xx_hal_adc_ex.c ****     counter = (ADC_STAB_DELAY_US * (SystemCoreClock / 1000000U));
 1265              		.loc 1 601 53
 1266 00ac 484B     		ldr	r3, .L77+4
 1267 00ae 1B68     		ldr	r3, [r3]
 1268 00b0 484A     		ldr	r2, .L77+8
 1269 00b2 A2FB0323 		umull	r2, r3, r2, r3
 1270 00b6 9A0C     		lsrs	r2, r3, #18
 1271              		.loc 1 601 34
 1272 00b8 1346     		mov	r3, r2
 1273 00ba 5B00     		lsls	r3, r3, #1
ARM GAS  /tmp/ccqnyf0j.s 			page 34


 1274 00bc 1344     		add	r3, r3, r2
 1275              		.loc 1 601 13
 1276 00be 3B61     		str	r3, [r7, #16]
 602:Drivers/STM32F4xx_HAL_Driver/Src/stm32f4xx_hal_adc_ex.c ****     while(counter != 0U)
 1277              		.loc 1 602 10
 1278 00c0 02E0     		b	.L69
 1279              	.L70:
 603:Drivers/STM32F4xx_HAL_Driver/Src/stm32f4xx_hal_adc_ex.c ****     {
 604:Drivers/STM32F4xx_HAL_Driver/Src/stm32f4xx_hal_adc_ex.c ****       counter--;
 1280              		.loc 1 604 14
 1281 00c2 3B69     		ldr	r3, [r7, #16]
 1282 00c4 013B     		subs	r3, r3, #1
 1283 00c6 3B61     		str	r3, [r7, #16]
 1284              	.L69:
 602:Drivers/STM32F4xx_HAL_Driver/Src/stm32f4xx_hal_adc_ex.c ****     while(counter != 0U)
 1285              		.loc 1 602 19
 1286 00c8 3B69     		ldr	r3, [r7, #16]
 602:Drivers/STM32F4xx_HAL_Driver/Src/stm32f4xx_hal_adc_ex.c ****     while(counter != 0U)
 1287              		.loc 1 602 10
 1288 00ca 002B     		cmp	r3, #0
 1289 00cc F9D1     		bne	.L70
 1290              	.L68:
 605:Drivers/STM32F4xx_HAL_Driver/Src/stm32f4xx_hal_adc_ex.c ****     }
 606:Drivers/STM32F4xx_HAL_Driver/Src/stm32f4xx_hal_adc_ex.c ****   }
 607:Drivers/STM32F4xx_HAL_Driver/Src/stm32f4xx_hal_adc_ex.c ****   
 608:Drivers/STM32F4xx_HAL_Driver/Src/stm32f4xx_hal_adc_ex.c ****   /* Start conversion if ADC is effectively enabled */
 609:Drivers/STM32F4xx_HAL_Driver/Src/stm32f4xx_hal_adc_ex.c ****   if(HAL_IS_BIT_SET(hadc->Instance->CR2, ADC_CR2_ADON))
 1291              		.loc 1 609 6
 1292 00ce FB68     		ldr	r3, [r7, #12]
 1293 00d0 1B68     		ldr	r3, [r3]
 1294 00d2 9B68     		ldr	r3, [r3, #8]
 1295 00d4 03F00103 		and	r3, r3, #1
 1296              		.loc 1 609 5
 1297 00d8 012B     		cmp	r3, #1
 1298 00da 72D1     		bne	.L71
 610:Drivers/STM32F4xx_HAL_Driver/Src/stm32f4xx_hal_adc_ex.c ****   {
 611:Drivers/STM32F4xx_HAL_Driver/Src/stm32f4xx_hal_adc_ex.c ****     /* Set ADC state                                                          */
 612:Drivers/STM32F4xx_HAL_Driver/Src/stm32f4xx_hal_adc_ex.c ****     /* - Clear state bitfield related to regular group conversion results     */
 613:Drivers/STM32F4xx_HAL_Driver/Src/stm32f4xx_hal_adc_ex.c ****     /* - Set state bitfield related to regular group operation                */
 614:Drivers/STM32F4xx_HAL_Driver/Src/stm32f4xx_hal_adc_ex.c ****     ADC_STATE_CLR_SET(hadc->State,
 1299              		.loc 1 614 5
 1300 00dc FB68     		ldr	r3, [r7, #12]
 1301 00de 1B6C     		ldr	r3, [r3, #64]
 1302 00e0 23F4E063 		bic	r3, r3, #1792
 1303 00e4 23F00103 		bic	r3, r3, #1
 1304 00e8 43F48072 		orr	r2, r3, #256
 1305 00ec FB68     		ldr	r3, [r7, #12]
 1306 00ee 1A64     		str	r2, [r3, #64]
 615:Drivers/STM32F4xx_HAL_Driver/Src/stm32f4xx_hal_adc_ex.c ****                       HAL_ADC_STATE_READY | HAL_ADC_STATE_REG_EOC | HAL_ADC_STATE_REG_OVR,
 616:Drivers/STM32F4xx_HAL_Driver/Src/stm32f4xx_hal_adc_ex.c ****                       HAL_ADC_STATE_REG_BUSY);
 617:Drivers/STM32F4xx_HAL_Driver/Src/stm32f4xx_hal_adc_ex.c ****     
 618:Drivers/STM32F4xx_HAL_Driver/Src/stm32f4xx_hal_adc_ex.c ****     /* If conversions on group regular are also triggering group injected,    */
 619:Drivers/STM32F4xx_HAL_Driver/Src/stm32f4xx_hal_adc_ex.c ****     /* update ADC state.                                                      */
 620:Drivers/STM32F4xx_HAL_Driver/Src/stm32f4xx_hal_adc_ex.c ****     if (READ_BIT(hadc->Instance->CR1, ADC_CR1_JAUTO) != RESET)
 1307              		.loc 1 620 9
 1308 00f0 FB68     		ldr	r3, [r7, #12]
 1309 00f2 1B68     		ldr	r3, [r3]
ARM GAS  /tmp/ccqnyf0j.s 			page 35


 1310 00f4 5B68     		ldr	r3, [r3, #4]
 1311 00f6 03F48063 		and	r3, r3, #1024
 1312              		.loc 1 620 8
 1313 00fa 002B     		cmp	r3, #0
 1314 00fc 07D0     		beq	.L72
 621:Drivers/STM32F4xx_HAL_Driver/Src/stm32f4xx_hal_adc_ex.c ****     {
 622:Drivers/STM32F4xx_HAL_Driver/Src/stm32f4xx_hal_adc_ex.c ****       ADC_STATE_CLR_SET(hadc->State, HAL_ADC_STATE_INJ_EOC, HAL_ADC_STATE_INJ_BUSY);  
 1315              		.loc 1 622 7
 1316 00fe FB68     		ldr	r3, [r7, #12]
 1317 0100 1B6C     		ldr	r3, [r3, #64]
 1318 0102 23F44053 		bic	r3, r3, #12288
 1319 0106 43F48052 		orr	r2, r3, #4096
 1320 010a FB68     		ldr	r3, [r7, #12]
 1321 010c 1A64     		str	r2, [r3, #64]
 1322              	.L72:
 623:Drivers/STM32F4xx_HAL_Driver/Src/stm32f4xx_hal_adc_ex.c ****     }
 624:Drivers/STM32F4xx_HAL_Driver/Src/stm32f4xx_hal_adc_ex.c ****     
 625:Drivers/STM32F4xx_HAL_Driver/Src/stm32f4xx_hal_adc_ex.c ****     /* State machine update: Check if an injected conversion is ongoing */
 626:Drivers/STM32F4xx_HAL_Driver/Src/stm32f4xx_hal_adc_ex.c ****     if (HAL_IS_BIT_SET(hadc->State, HAL_ADC_STATE_INJ_BUSY))
 1323              		.loc 1 626 9
 1324 010e FB68     		ldr	r3, [r7, #12]
 1325 0110 1B6C     		ldr	r3, [r3, #64]
 1326 0112 03F48053 		and	r3, r3, #4096
 1327              		.loc 1 626 8
 1328 0116 B3F5805F 		cmp	r3, #4096
 1329 011a 06D1     		bne	.L73
 627:Drivers/STM32F4xx_HAL_Driver/Src/stm32f4xx_hal_adc_ex.c ****     {
 628:Drivers/STM32F4xx_HAL_Driver/Src/stm32f4xx_hal_adc_ex.c ****       /* Reset ADC error code fields related to conversions on group regular */
 629:Drivers/STM32F4xx_HAL_Driver/Src/stm32f4xx_hal_adc_ex.c ****       CLEAR_BIT(hadc->ErrorCode, (HAL_ADC_ERROR_OVR | HAL_ADC_ERROR_DMA));         
 1330              		.loc 1 629 7
 1331 011c FB68     		ldr	r3, [r7, #12]
 1332 011e 5B6C     		ldr	r3, [r3, #68]
 1333 0120 23F00602 		bic	r2, r3, #6
 1334 0124 FB68     		ldr	r3, [r7, #12]
 1335 0126 5A64     		str	r2, [r3, #68]
 1336 0128 02E0     		b	.L74
 1337              	.L73:
 630:Drivers/STM32F4xx_HAL_Driver/Src/stm32f4xx_hal_adc_ex.c ****     }
 631:Drivers/STM32F4xx_HAL_Driver/Src/stm32f4xx_hal_adc_ex.c ****     else
 632:Drivers/STM32F4xx_HAL_Driver/Src/stm32f4xx_hal_adc_ex.c ****     {
 633:Drivers/STM32F4xx_HAL_Driver/Src/stm32f4xx_hal_adc_ex.c ****       /* Reset ADC all error code fields */
 634:Drivers/STM32F4xx_HAL_Driver/Src/stm32f4xx_hal_adc_ex.c ****       ADC_CLEAR_ERRORCODE(hadc);
 1338              		.loc 1 634 7
 1339 012a FB68     		ldr	r3, [r7, #12]
 1340 012c 0022     		movs	r2, #0
 1341 012e 5A64     		str	r2, [r3, #68]
 1342              	.L74:
 635:Drivers/STM32F4xx_HAL_Driver/Src/stm32f4xx_hal_adc_ex.c ****     }
 636:Drivers/STM32F4xx_HAL_Driver/Src/stm32f4xx_hal_adc_ex.c ****     
 637:Drivers/STM32F4xx_HAL_Driver/Src/stm32f4xx_hal_adc_ex.c ****     /* Process unlocked */
 638:Drivers/STM32F4xx_HAL_Driver/Src/stm32f4xx_hal_adc_ex.c ****     /* Unlock before starting ADC conversions: in case of potential           */
 639:Drivers/STM32F4xx_HAL_Driver/Src/stm32f4xx_hal_adc_ex.c ****     /* interruption, to let the process to ADC IRQ Handler.                   */
 640:Drivers/STM32F4xx_HAL_Driver/Src/stm32f4xx_hal_adc_ex.c ****     __HAL_UNLOCK(hadc);
 1343              		.loc 1 640 5
 1344 0130 FB68     		ldr	r3, [r7, #12]
 1345 0132 0022     		movs	r2, #0
 1346 0134 83F83C20 		strb	r2, [r3, #60]
ARM GAS  /tmp/ccqnyf0j.s 			page 36


 641:Drivers/STM32F4xx_HAL_Driver/Src/stm32f4xx_hal_adc_ex.c ****     
 642:Drivers/STM32F4xx_HAL_Driver/Src/stm32f4xx_hal_adc_ex.c ****     /* Set the DMA transfer complete callback */
 643:Drivers/STM32F4xx_HAL_Driver/Src/stm32f4xx_hal_adc_ex.c ****     hadc->DMA_Handle->XferCpltCallback = ADC_MultiModeDMAConvCplt;
 1347              		.loc 1 643 9
 1348 0138 FB68     		ldr	r3, [r7, #12]
 1349 013a 9B6B     		ldr	r3, [r3, #56]
 1350              		.loc 1 643 40
 1351 013c 264A     		ldr	r2, .L77+12
 1352 013e DA63     		str	r2, [r3, #60]
 644:Drivers/STM32F4xx_HAL_Driver/Src/stm32f4xx_hal_adc_ex.c ****     
 645:Drivers/STM32F4xx_HAL_Driver/Src/stm32f4xx_hal_adc_ex.c ****     /* Set the DMA half transfer complete callback */
 646:Drivers/STM32F4xx_HAL_Driver/Src/stm32f4xx_hal_adc_ex.c ****     hadc->DMA_Handle->XferHalfCpltCallback = ADC_MultiModeDMAHalfConvCplt;
 1353              		.loc 1 646 9
 1354 0140 FB68     		ldr	r3, [r7, #12]
 1355 0142 9B6B     		ldr	r3, [r3, #56]
 1356              		.loc 1 646 44
 1357 0144 254A     		ldr	r2, .L77+16
 1358 0146 1A64     		str	r2, [r3, #64]
 647:Drivers/STM32F4xx_HAL_Driver/Src/stm32f4xx_hal_adc_ex.c ****     
 648:Drivers/STM32F4xx_HAL_Driver/Src/stm32f4xx_hal_adc_ex.c ****     /* Set the DMA error callback */
 649:Drivers/STM32F4xx_HAL_Driver/Src/stm32f4xx_hal_adc_ex.c ****     hadc->DMA_Handle->XferErrorCallback = ADC_MultiModeDMAError ;
 1359              		.loc 1 649 9
 1360 0148 FB68     		ldr	r3, [r7, #12]
 1361 014a 9B6B     		ldr	r3, [r3, #56]
 1362              		.loc 1 649 41
 1363 014c 244A     		ldr	r2, .L77+20
 1364 014e DA64     		str	r2, [r3, #76]
 650:Drivers/STM32F4xx_HAL_Driver/Src/stm32f4xx_hal_adc_ex.c ****     
 651:Drivers/STM32F4xx_HAL_Driver/Src/stm32f4xx_hal_adc_ex.c ****     /* Manage ADC and DMA start: ADC overrun interruption, DMA start, ADC     */
 652:Drivers/STM32F4xx_HAL_Driver/Src/stm32f4xx_hal_adc_ex.c ****     /* start (in case of SW start):                                           */
 653:Drivers/STM32F4xx_HAL_Driver/Src/stm32f4xx_hal_adc_ex.c ****     
 654:Drivers/STM32F4xx_HAL_Driver/Src/stm32f4xx_hal_adc_ex.c ****     /* Clear regular group conversion flag and overrun flag */
 655:Drivers/STM32F4xx_HAL_Driver/Src/stm32f4xx_hal_adc_ex.c ****     /* (To ensure of no unknown state from potential previous ADC operations) */
 656:Drivers/STM32F4xx_HAL_Driver/Src/stm32f4xx_hal_adc_ex.c ****     __HAL_ADC_CLEAR_FLAG(hadc, ADC_FLAG_EOC);
 1365              		.loc 1 656 5
 1366 0150 FB68     		ldr	r3, [r7, #12]
 1367 0152 1B68     		ldr	r3, [r3]
 1368 0154 6FF00202 		mvn	r2, #2
 1369 0158 1A60     		str	r2, [r3]
 657:Drivers/STM32F4xx_HAL_Driver/Src/stm32f4xx_hal_adc_ex.c **** 
 658:Drivers/STM32F4xx_HAL_Driver/Src/stm32f4xx_hal_adc_ex.c ****     /* Enable ADC overrun interrupt */
 659:Drivers/STM32F4xx_HAL_Driver/Src/stm32f4xx_hal_adc_ex.c ****     __HAL_ADC_ENABLE_IT(hadc, ADC_IT_OVR);
 1370              		.loc 1 659 5
 1371 015a FB68     		ldr	r3, [r7, #12]
 1372 015c 1B68     		ldr	r3, [r3]
 1373 015e 5A68     		ldr	r2, [r3, #4]
 1374 0160 FB68     		ldr	r3, [r7, #12]
 1375 0162 1B68     		ldr	r3, [r3]
 1376 0164 42F08062 		orr	r2, r2, #67108864
 1377 0168 5A60     		str	r2, [r3, #4]
 660:Drivers/STM32F4xx_HAL_Driver/Src/stm32f4xx_hal_adc_ex.c **** 
 661:Drivers/STM32F4xx_HAL_Driver/Src/stm32f4xx_hal_adc_ex.c ****     /* Pointer to the common control register to which is belonging hadc    */
 662:Drivers/STM32F4xx_HAL_Driver/Src/stm32f4xx_hal_adc_ex.c ****     /* (Depending on STM32F4 product, there may be up to 3 ADC and 1 common */
 663:Drivers/STM32F4xx_HAL_Driver/Src/stm32f4xx_hal_adc_ex.c ****     /* control register)                                                    */
 664:Drivers/STM32F4xx_HAL_Driver/Src/stm32f4xx_hal_adc_ex.c ****     tmpADC_Common = ADC_COMMON_REGISTER(hadc);
 1378              		.loc 1 664 19
 1379 016a 1E4B     		ldr	r3, .L77+24
ARM GAS  /tmp/ccqnyf0j.s 			page 37


 1380 016c 7B61     		str	r3, [r7, #20]
 665:Drivers/STM32F4xx_HAL_Driver/Src/stm32f4xx_hal_adc_ex.c **** 
 666:Drivers/STM32F4xx_HAL_Driver/Src/stm32f4xx_hal_adc_ex.c ****     if (hadc->Init.DMAContinuousRequests != DISABLE)
 1381              		.loc 1 666 19
 1382 016e FB68     		ldr	r3, [r7, #12]
 1383 0170 93F83030 		ldrb	r3, [r3, #48]	@ zero_extendqisi2
 1384              		.loc 1 666 8
 1385 0174 002B     		cmp	r3, #0
 1386 0176 06D0     		beq	.L75
 667:Drivers/STM32F4xx_HAL_Driver/Src/stm32f4xx_hal_adc_ex.c ****     {
 668:Drivers/STM32F4xx_HAL_Driver/Src/stm32f4xx_hal_adc_ex.c ****       /* Enable the selected ADC DMA request after last transfer */
 669:Drivers/STM32F4xx_HAL_Driver/Src/stm32f4xx_hal_adc_ex.c ****       tmpADC_Common->CCR |= ADC_CCR_DDS;
 1387              		.loc 1 669 26
 1388 0178 7B69     		ldr	r3, [r7, #20]
 1389 017a 5B68     		ldr	r3, [r3, #4]
 1390 017c 43F40052 		orr	r2, r3, #8192
 1391 0180 7B69     		ldr	r3, [r7, #20]
 1392 0182 5A60     		str	r2, [r3, #4]
 1393 0184 05E0     		b	.L76
 1394              	.L75:
 670:Drivers/STM32F4xx_HAL_Driver/Src/stm32f4xx_hal_adc_ex.c ****     }
 671:Drivers/STM32F4xx_HAL_Driver/Src/stm32f4xx_hal_adc_ex.c ****     else
 672:Drivers/STM32F4xx_HAL_Driver/Src/stm32f4xx_hal_adc_ex.c ****     {
 673:Drivers/STM32F4xx_HAL_Driver/Src/stm32f4xx_hal_adc_ex.c ****       /* Disable the selected ADC EOC rising on each regular channel conversion */
 674:Drivers/STM32F4xx_HAL_Driver/Src/stm32f4xx_hal_adc_ex.c ****       tmpADC_Common->CCR &= ~ADC_CCR_DDS;
 1395              		.loc 1 674 26
 1396 0186 7B69     		ldr	r3, [r7, #20]
 1397 0188 5B68     		ldr	r3, [r3, #4]
 1398 018a 23F40052 		bic	r2, r3, #8192
 1399 018e 7B69     		ldr	r3, [r7, #20]
 1400 0190 5A60     		str	r2, [r3, #4]
 1401              	.L76:
 675:Drivers/STM32F4xx_HAL_Driver/Src/stm32f4xx_hal_adc_ex.c ****     }
 676:Drivers/STM32F4xx_HAL_Driver/Src/stm32f4xx_hal_adc_ex.c ****     
 677:Drivers/STM32F4xx_HAL_Driver/Src/stm32f4xx_hal_adc_ex.c ****     /* Enable the DMA Stream */
 678:Drivers/STM32F4xx_HAL_Driver/Src/stm32f4xx_hal_adc_ex.c ****     HAL_DMA_Start_IT(hadc->DMA_Handle, (uint32_t)&tmpADC_Common->CDR, (uint32_t)pData, Length);
 1402              		.loc 1 678 5
 1403 0192 FB68     		ldr	r3, [r7, #12]
 1404 0194 986B     		ldr	r0, [r3, #56]
 1405              		.loc 1 678 50
 1406 0196 7B69     		ldr	r3, [r7, #20]
 1407 0198 0833     		adds	r3, r3, #8
 1408              		.loc 1 678 5
 1409 019a 1946     		mov	r1, r3
 1410 019c BA68     		ldr	r2, [r7, #8]
 1411 019e 7B68     		ldr	r3, [r7, #4]
 1412 01a0 FFF7FEFF 		bl	HAL_DMA_Start_IT
 679:Drivers/STM32F4xx_HAL_Driver/Src/stm32f4xx_hal_adc_ex.c ****     
 680:Drivers/STM32F4xx_HAL_Driver/Src/stm32f4xx_hal_adc_ex.c ****     /* if no external trigger present enable software conversion of regular channels */
 681:Drivers/STM32F4xx_HAL_Driver/Src/stm32f4xx_hal_adc_ex.c ****     if((hadc->Instance->CR2 & ADC_CR2_EXTEN) == RESET) 
 1413              		.loc 1 681 13
 1414 01a4 FB68     		ldr	r3, [r7, #12]
 1415 01a6 1B68     		ldr	r3, [r3]
 1416              		.loc 1 681 23
 1417 01a8 9B68     		ldr	r3, [r3, #8]
 1418              		.loc 1 681 29
 1419 01aa 03F04053 		and	r3, r3, #805306368
ARM GAS  /tmp/ccqnyf0j.s 			page 38


 1420              		.loc 1 681 7
 1421 01ae 002B     		cmp	r3, #0
 1422 01b0 07D1     		bne	.L71
 682:Drivers/STM32F4xx_HAL_Driver/Src/stm32f4xx_hal_adc_ex.c ****     {
 683:Drivers/STM32F4xx_HAL_Driver/Src/stm32f4xx_hal_adc_ex.c ****       /* Enable the selected ADC software conversion for regular group */
 684:Drivers/STM32F4xx_HAL_Driver/Src/stm32f4xx_hal_adc_ex.c ****       hadc->Instance->CR2 |= (uint32_t)ADC_CR2_SWSTART;
 1423              		.loc 1 684 11
 1424 01b2 FB68     		ldr	r3, [r7, #12]
 1425 01b4 1B68     		ldr	r3, [r3]
 1426              		.loc 1 684 27
 1427 01b6 9A68     		ldr	r2, [r3, #8]
 1428              		.loc 1 684 11
 1429 01b8 FB68     		ldr	r3, [r7, #12]
 1430 01ba 1B68     		ldr	r3, [r3]
 1431              		.loc 1 684 27
 1432 01bc 42F08042 		orr	r2, r2, #1073741824
 1433 01c0 9A60     		str	r2, [r3, #8]
 1434              	.L71:
 685:Drivers/STM32F4xx_HAL_Driver/Src/stm32f4xx_hal_adc_ex.c ****     }
 686:Drivers/STM32F4xx_HAL_Driver/Src/stm32f4xx_hal_adc_ex.c ****   }
 687:Drivers/STM32F4xx_HAL_Driver/Src/stm32f4xx_hal_adc_ex.c ****   
 688:Drivers/STM32F4xx_HAL_Driver/Src/stm32f4xx_hal_adc_ex.c ****   /* Return function status */
 689:Drivers/STM32F4xx_HAL_Driver/Src/stm32f4xx_hal_adc_ex.c ****   return HAL_OK;
 1435              		.loc 1 689 10
 1436 01c2 0023     		movs	r3, #0
 1437              	.L67:
 690:Drivers/STM32F4xx_HAL_Driver/Src/stm32f4xx_hal_adc_ex.c **** }
 1438              		.loc 1 690 1
 1439 01c4 1846     		mov	r0, r3
 1440 01c6 1837     		adds	r7, r7, #24
 1441              	.LCFI35:
 1442              		.cfi_def_cfa_offset 8
 1443 01c8 BD46     		mov	sp, r7
 1444              	.LCFI36:
 1445              		.cfi_def_cfa_register 13
 1446              		@ sp needed
 1447 01ca 80BD     		pop	{r7, pc}
 1448              	.L78:
 1449              		.align	2
 1450              	.L77:
 1451 01cc 00000000 		.word	.LC0
 1452 01d0 00000000 		.word	SystemCoreClock
 1453 01d4 83DE1B43 		.word	1125899907
 1454 01d8 00000000 		.word	ADC_MultiModeDMAConvCplt
 1455 01dc 00000000 		.word	ADC_MultiModeDMAHalfConvCplt
 1456 01e0 00000000 		.word	ADC_MultiModeDMAError
 1457 01e4 00230140 		.word	1073816320
 1458              		.cfi_endproc
 1459              	.LFE136:
 1461              		.section	.text.HAL_ADCEx_MultiModeStop_DMA,"ax",%progbits
 1462              		.align	1
 1463              		.global	HAL_ADCEx_MultiModeStop_DMA
 1464              		.syntax unified
 1465              		.thumb
 1466              		.thumb_func
 1467              		.fpu fpv4-sp-d16
 1469              	HAL_ADCEx_MultiModeStop_DMA:
ARM GAS  /tmp/ccqnyf0j.s 			page 39


 1470              	.LFB137:
 691:Drivers/STM32F4xx_HAL_Driver/Src/stm32f4xx_hal_adc_ex.c **** 
 692:Drivers/STM32F4xx_HAL_Driver/Src/stm32f4xx_hal_adc_ex.c **** /**
 693:Drivers/STM32F4xx_HAL_Driver/Src/stm32f4xx_hal_adc_ex.c ****   * @brief  Disables ADC DMA (multi-ADC mode) and disables ADC peripheral    
 694:Drivers/STM32F4xx_HAL_Driver/Src/stm32f4xx_hal_adc_ex.c ****   * @param  hadc pointer to a ADC_HandleTypeDef structure that contains
 695:Drivers/STM32F4xx_HAL_Driver/Src/stm32f4xx_hal_adc_ex.c ****   *         the configuration information for the specified ADC.
 696:Drivers/STM32F4xx_HAL_Driver/Src/stm32f4xx_hal_adc_ex.c ****   * @retval HAL status
 697:Drivers/STM32F4xx_HAL_Driver/Src/stm32f4xx_hal_adc_ex.c ****   */
 698:Drivers/STM32F4xx_HAL_Driver/Src/stm32f4xx_hal_adc_ex.c **** HAL_StatusTypeDef HAL_ADCEx_MultiModeStop_DMA(ADC_HandleTypeDef* hadc)
 699:Drivers/STM32F4xx_HAL_Driver/Src/stm32f4xx_hal_adc_ex.c **** {
 1471              		.loc 1 699 1
 1472              		.cfi_startproc
 1473              		@ args = 0, pretend = 0, frame = 16
 1474              		@ frame_needed = 1, uses_anonymous_args = 0
 1475 0000 80B5     		push	{r7, lr}
 1476              	.LCFI37:
 1477              		.cfi_def_cfa_offset 8
 1478              		.cfi_offset 7, -8
 1479              		.cfi_offset 14, -4
 1480 0002 84B0     		sub	sp, sp, #16
 1481              	.LCFI38:
 1482              		.cfi_def_cfa_offset 24
 1483 0004 00AF     		add	r7, sp, #0
 1484              	.LCFI39:
 1485              		.cfi_def_cfa_register 7
 1486 0006 7860     		str	r0, [r7, #4]
 700:Drivers/STM32F4xx_HAL_Driver/Src/stm32f4xx_hal_adc_ex.c ****   HAL_StatusTypeDef tmp_hal_status = HAL_OK;
 1487              		.loc 1 700 21
 1488 0008 0023     		movs	r3, #0
 1489 000a FB73     		strb	r3, [r7, #15]
 701:Drivers/STM32F4xx_HAL_Driver/Src/stm32f4xx_hal_adc_ex.c ****   ADC_Common_TypeDef *tmpADC_Common;
 702:Drivers/STM32F4xx_HAL_Driver/Src/stm32f4xx_hal_adc_ex.c ****   
 703:Drivers/STM32F4xx_HAL_Driver/Src/stm32f4xx_hal_adc_ex.c ****   /* Check the parameters */
 704:Drivers/STM32F4xx_HAL_Driver/Src/stm32f4xx_hal_adc_ex.c ****   assert_param(IS_ADC_ALL_INSTANCE(hadc->Instance));
 1490              		.loc 1 704 3
 1491 000c 7B68     		ldr	r3, [r7, #4]
 1492 000e 1B68     		ldr	r3, [r3]
 1493 0010 2A4A     		ldr	r2, .L84
 1494 0012 9342     		cmp	r3, r2
 1495 0014 0ED0     		beq	.L80
 1496              		.loc 1 704 3 is_stmt 0 discriminator 1
 1497 0016 7B68     		ldr	r3, [r7, #4]
 1498 0018 1B68     		ldr	r3, [r3]
 1499 001a 294A     		ldr	r2, .L84+4
 1500 001c 9342     		cmp	r3, r2
 1501 001e 09D0     		beq	.L80
 1502              		.loc 1 704 3 discriminator 2
 1503 0020 7B68     		ldr	r3, [r7, #4]
 1504 0022 1B68     		ldr	r3, [r3]
 1505 0024 274A     		ldr	r2, .L84+8
 1506 0026 9342     		cmp	r3, r2
 1507 0028 04D0     		beq	.L80
 1508              		.loc 1 704 3 discriminator 3
 1509 002a 4FF43071 		mov	r1, #704
 1510 002e 2648     		ldr	r0, .L84+12
 1511 0030 FFF7FEFF 		bl	assert_failed
 1512              	.L80:
ARM GAS  /tmp/ccqnyf0j.s 			page 40


 705:Drivers/STM32F4xx_HAL_Driver/Src/stm32f4xx_hal_adc_ex.c ****   
 706:Drivers/STM32F4xx_HAL_Driver/Src/stm32f4xx_hal_adc_ex.c ****   /* Process locked */
 707:Drivers/STM32F4xx_HAL_Driver/Src/stm32f4xx_hal_adc_ex.c ****   __HAL_LOCK(hadc);
 1513              		.loc 1 707 3 is_stmt 1
 1514 0034 7B68     		ldr	r3, [r7, #4]
 1515 0036 93F83C30 		ldrb	r3, [r3, #60]	@ zero_extendqisi2
 1516 003a 012B     		cmp	r3, #1
 1517 003c 01D1     		bne	.L81
 1518              		.loc 1 707 3 is_stmt 0 discriminator 1
 1519 003e 0223     		movs	r3, #2
 1520 0040 38E0     		b	.L82
 1521              	.L81:
 1522              		.loc 1 707 3 discriminator 2
 1523 0042 7B68     		ldr	r3, [r7, #4]
 1524 0044 0122     		movs	r2, #1
 1525 0046 83F83C20 		strb	r2, [r3, #60]
 708:Drivers/STM32F4xx_HAL_Driver/Src/stm32f4xx_hal_adc_ex.c ****   
 709:Drivers/STM32F4xx_HAL_Driver/Src/stm32f4xx_hal_adc_ex.c ****   /* Stop potential conversion on going, on regular and injected groups */
 710:Drivers/STM32F4xx_HAL_Driver/Src/stm32f4xx_hal_adc_ex.c ****   /* Disable ADC peripheral */
 711:Drivers/STM32F4xx_HAL_Driver/Src/stm32f4xx_hal_adc_ex.c ****   __HAL_ADC_DISABLE(hadc);
 1526              		.loc 1 711 3 is_stmt 1 discriminator 2
 1527 004a 7B68     		ldr	r3, [r7, #4]
 1528 004c 1B68     		ldr	r3, [r3]
 1529 004e 9A68     		ldr	r2, [r3, #8]
 1530 0050 7B68     		ldr	r3, [r7, #4]
 1531 0052 1B68     		ldr	r3, [r3]
 1532 0054 22F00102 		bic	r2, r2, #1
 1533 0058 9A60     		str	r2, [r3, #8]
 712:Drivers/STM32F4xx_HAL_Driver/Src/stm32f4xx_hal_adc_ex.c **** 
 713:Drivers/STM32F4xx_HAL_Driver/Src/stm32f4xx_hal_adc_ex.c ****   /* Pointer to the common control register to which is belonging hadc    */
 714:Drivers/STM32F4xx_HAL_Driver/Src/stm32f4xx_hal_adc_ex.c ****   /* (Depending on STM32F4 product, there may be up to 3 ADC and 1 common */
 715:Drivers/STM32F4xx_HAL_Driver/Src/stm32f4xx_hal_adc_ex.c ****   /* control register)                                                    */
 716:Drivers/STM32F4xx_HAL_Driver/Src/stm32f4xx_hal_adc_ex.c ****   tmpADC_Common = ADC_COMMON_REGISTER(hadc);
 1534              		.loc 1 716 17 discriminator 2
 1535 005a 1C4B     		ldr	r3, .L84+16
 1536 005c BB60     		str	r3, [r7, #8]
 717:Drivers/STM32F4xx_HAL_Driver/Src/stm32f4xx_hal_adc_ex.c **** 
 718:Drivers/STM32F4xx_HAL_Driver/Src/stm32f4xx_hal_adc_ex.c ****   /* Check if ADC is effectively disabled */
 719:Drivers/STM32F4xx_HAL_Driver/Src/stm32f4xx_hal_adc_ex.c ****   if(HAL_IS_BIT_CLR(hadc->Instance->CR2, ADC_CR2_ADON))
 1537              		.loc 1 719 6 discriminator 2
 1538 005e 7B68     		ldr	r3, [r7, #4]
 1539 0060 1B68     		ldr	r3, [r3]
 1540 0062 9B68     		ldr	r3, [r3, #8]
 1541 0064 03F00103 		and	r3, r3, #1
 1542              		.loc 1 719 5 discriminator 2
 1543 0068 002B     		cmp	r3, #0
 1544 006a 1ED1     		bne	.L83
 720:Drivers/STM32F4xx_HAL_Driver/Src/stm32f4xx_hal_adc_ex.c ****   {
 721:Drivers/STM32F4xx_HAL_Driver/Src/stm32f4xx_hal_adc_ex.c ****     /* Disable the selected ADC DMA mode for multimode */
 722:Drivers/STM32F4xx_HAL_Driver/Src/stm32f4xx_hal_adc_ex.c ****     tmpADC_Common->CCR &= ~ADC_CCR_DDS;
 1545              		.loc 1 722 24
 1546 006c BB68     		ldr	r3, [r7, #8]
 1547 006e 5B68     		ldr	r3, [r3, #4]
 1548 0070 23F40052 		bic	r2, r3, #8192
 1549 0074 BB68     		ldr	r3, [r7, #8]
 1550 0076 5A60     		str	r2, [r3, #4]
 723:Drivers/STM32F4xx_HAL_Driver/Src/stm32f4xx_hal_adc_ex.c ****     
ARM GAS  /tmp/ccqnyf0j.s 			page 41


 724:Drivers/STM32F4xx_HAL_Driver/Src/stm32f4xx_hal_adc_ex.c ****     /* Disable the DMA channel (in case of DMA in circular mode or stop while */
 725:Drivers/STM32F4xx_HAL_Driver/Src/stm32f4xx_hal_adc_ex.c ****     /* DMA transfer is on going)                                              */
 726:Drivers/STM32F4xx_HAL_Driver/Src/stm32f4xx_hal_adc_ex.c ****     tmp_hal_status = HAL_DMA_Abort(hadc->DMA_Handle);
 1551              		.loc 1 726 22
 1552 0078 7B68     		ldr	r3, [r7, #4]
 1553 007a 9B6B     		ldr	r3, [r3, #56]
 1554 007c 1846     		mov	r0, r3
 1555 007e FFF7FEFF 		bl	HAL_DMA_Abort
 1556 0082 0346     		mov	r3, r0
 1557 0084 FB73     		strb	r3, [r7, #15]
 727:Drivers/STM32F4xx_HAL_Driver/Src/stm32f4xx_hal_adc_ex.c ****     
 728:Drivers/STM32F4xx_HAL_Driver/Src/stm32f4xx_hal_adc_ex.c ****     /* Disable ADC overrun interrupt */
 729:Drivers/STM32F4xx_HAL_Driver/Src/stm32f4xx_hal_adc_ex.c ****     __HAL_ADC_DISABLE_IT(hadc, ADC_IT_OVR);
 1558              		.loc 1 729 5
 1559 0086 7B68     		ldr	r3, [r7, #4]
 1560 0088 1B68     		ldr	r3, [r3]
 1561 008a 5A68     		ldr	r2, [r3, #4]
 1562 008c 7B68     		ldr	r3, [r7, #4]
 1563 008e 1B68     		ldr	r3, [r3]
 1564 0090 22F08062 		bic	r2, r2, #67108864
 1565 0094 5A60     		str	r2, [r3, #4]
 730:Drivers/STM32F4xx_HAL_Driver/Src/stm32f4xx_hal_adc_ex.c ****     
 731:Drivers/STM32F4xx_HAL_Driver/Src/stm32f4xx_hal_adc_ex.c ****     /* Set ADC state */
 732:Drivers/STM32F4xx_HAL_Driver/Src/stm32f4xx_hal_adc_ex.c ****     ADC_STATE_CLR_SET(hadc->State,
 1566              		.loc 1 732 5
 1567 0096 7B68     		ldr	r3, [r7, #4]
 1568 0098 1B6C     		ldr	r3, [r3, #64]
 1569 009a 23F48853 		bic	r3, r3, #4352
 1570 009e 23F00103 		bic	r3, r3, #1
 1571 00a2 43F00102 		orr	r2, r3, #1
 1572 00a6 7B68     		ldr	r3, [r7, #4]
 1573 00a8 1A64     		str	r2, [r3, #64]
 1574              	.L83:
 733:Drivers/STM32F4xx_HAL_Driver/Src/stm32f4xx_hal_adc_ex.c ****                       HAL_ADC_STATE_REG_BUSY | HAL_ADC_STATE_INJ_BUSY,
 734:Drivers/STM32F4xx_HAL_Driver/Src/stm32f4xx_hal_adc_ex.c ****                       HAL_ADC_STATE_READY);
 735:Drivers/STM32F4xx_HAL_Driver/Src/stm32f4xx_hal_adc_ex.c ****   }
 736:Drivers/STM32F4xx_HAL_Driver/Src/stm32f4xx_hal_adc_ex.c ****   
 737:Drivers/STM32F4xx_HAL_Driver/Src/stm32f4xx_hal_adc_ex.c ****   /* Process unlocked */
 738:Drivers/STM32F4xx_HAL_Driver/Src/stm32f4xx_hal_adc_ex.c ****   __HAL_UNLOCK(hadc);
 1575              		.loc 1 738 3
 1576 00aa 7B68     		ldr	r3, [r7, #4]
 1577 00ac 0022     		movs	r2, #0
 1578 00ae 83F83C20 		strb	r2, [r3, #60]
 739:Drivers/STM32F4xx_HAL_Driver/Src/stm32f4xx_hal_adc_ex.c ****   
 740:Drivers/STM32F4xx_HAL_Driver/Src/stm32f4xx_hal_adc_ex.c ****   /* Return function status */
 741:Drivers/STM32F4xx_HAL_Driver/Src/stm32f4xx_hal_adc_ex.c ****   return tmp_hal_status;
 1579              		.loc 1 741 10
 1580 00b2 FB7B     		ldrb	r3, [r7, #15]	@ zero_extendqisi2
 1581              	.L82:
 742:Drivers/STM32F4xx_HAL_Driver/Src/stm32f4xx_hal_adc_ex.c **** }
 1582              		.loc 1 742 1
 1583 00b4 1846     		mov	r0, r3
 1584 00b6 1037     		adds	r7, r7, #16
 1585              	.LCFI40:
 1586              		.cfi_def_cfa_offset 8
 1587 00b8 BD46     		mov	sp, r7
 1588              	.LCFI41:
ARM GAS  /tmp/ccqnyf0j.s 			page 42


 1589              		.cfi_def_cfa_register 13
 1590              		@ sp needed
 1591 00ba 80BD     		pop	{r7, pc}
 1592              	.L85:
 1593              		.align	2
 1594              	.L84:
 1595 00bc 00200140 		.word	1073815552
 1596 00c0 00210140 		.word	1073815808
 1597 00c4 00220140 		.word	1073816064
 1598 00c8 00000000 		.word	.LC0
 1599 00cc 00230140 		.word	1073816320
 1600              		.cfi_endproc
 1601              	.LFE137:
 1603              		.section	.text.HAL_ADCEx_MultiModeGetValue,"ax",%progbits
 1604              		.align	1
 1605              		.global	HAL_ADCEx_MultiModeGetValue
 1606              		.syntax unified
 1607              		.thumb
 1608              		.thumb_func
 1609              		.fpu fpv4-sp-d16
 1611              	HAL_ADCEx_MultiModeGetValue:
 1612              	.LFB138:
 743:Drivers/STM32F4xx_HAL_Driver/Src/stm32f4xx_hal_adc_ex.c **** 
 744:Drivers/STM32F4xx_HAL_Driver/Src/stm32f4xx_hal_adc_ex.c **** /**
 745:Drivers/STM32F4xx_HAL_Driver/Src/stm32f4xx_hal_adc_ex.c ****   * @brief  Returns the last ADC1, ADC2 and ADC3 regular conversions results 
 746:Drivers/STM32F4xx_HAL_Driver/Src/stm32f4xx_hal_adc_ex.c ****   *         data in the selected multi mode.
 747:Drivers/STM32F4xx_HAL_Driver/Src/stm32f4xx_hal_adc_ex.c ****   * @param  hadc pointer to a ADC_HandleTypeDef structure that contains
 748:Drivers/STM32F4xx_HAL_Driver/Src/stm32f4xx_hal_adc_ex.c ****   *         the configuration information for the specified ADC.
 749:Drivers/STM32F4xx_HAL_Driver/Src/stm32f4xx_hal_adc_ex.c ****   * @retval The converted data value.
 750:Drivers/STM32F4xx_HAL_Driver/Src/stm32f4xx_hal_adc_ex.c ****   */
 751:Drivers/STM32F4xx_HAL_Driver/Src/stm32f4xx_hal_adc_ex.c **** uint32_t HAL_ADCEx_MultiModeGetValue(ADC_HandleTypeDef* hadc)
 752:Drivers/STM32F4xx_HAL_Driver/Src/stm32f4xx_hal_adc_ex.c **** {
 1613              		.loc 1 752 1
 1614              		.cfi_startproc
 1615              		@ args = 0, pretend = 0, frame = 16
 1616              		@ frame_needed = 1, uses_anonymous_args = 0
 1617              		@ link register save eliminated.
 1618 0000 80B4     		push	{r7}
 1619              	.LCFI42:
 1620              		.cfi_def_cfa_offset 4
 1621              		.cfi_offset 7, -4
 1622 0002 85B0     		sub	sp, sp, #20
 1623              	.LCFI43:
 1624              		.cfi_def_cfa_offset 24
 1625 0004 00AF     		add	r7, sp, #0
 1626              	.LCFI44:
 1627              		.cfi_def_cfa_register 7
 1628 0006 7860     		str	r0, [r7, #4]
 753:Drivers/STM32F4xx_HAL_Driver/Src/stm32f4xx_hal_adc_ex.c ****   ADC_Common_TypeDef *tmpADC_Common;
 754:Drivers/STM32F4xx_HAL_Driver/Src/stm32f4xx_hal_adc_ex.c **** 
 755:Drivers/STM32F4xx_HAL_Driver/Src/stm32f4xx_hal_adc_ex.c ****   /* Pointer to the common control register to which is belonging hadc    */
 756:Drivers/STM32F4xx_HAL_Driver/Src/stm32f4xx_hal_adc_ex.c ****   /* (Depending on STM32F4 product, there may be up to 3 ADC and 1 common */
 757:Drivers/STM32F4xx_HAL_Driver/Src/stm32f4xx_hal_adc_ex.c ****   /* control register)                                                    */
 758:Drivers/STM32F4xx_HAL_Driver/Src/stm32f4xx_hal_adc_ex.c ****   tmpADC_Common = ADC_COMMON_REGISTER(hadc);
 1629              		.loc 1 758 17
 1630 0008 044B     		ldr	r3, .L88
 1631 000a FB60     		str	r3, [r7, #12]
ARM GAS  /tmp/ccqnyf0j.s 			page 43


 759:Drivers/STM32F4xx_HAL_Driver/Src/stm32f4xx_hal_adc_ex.c **** 
 760:Drivers/STM32F4xx_HAL_Driver/Src/stm32f4xx_hal_adc_ex.c ****   /* Return the multi mode conversion value */
 761:Drivers/STM32F4xx_HAL_Driver/Src/stm32f4xx_hal_adc_ex.c ****   return tmpADC_Common->CDR;
 1632              		.loc 1 761 23
 1633 000c FB68     		ldr	r3, [r7, #12]
 1634 000e 9B68     		ldr	r3, [r3, #8]
 762:Drivers/STM32F4xx_HAL_Driver/Src/stm32f4xx_hal_adc_ex.c **** }
 1635              		.loc 1 762 1
 1636 0010 1846     		mov	r0, r3
 1637 0012 1437     		adds	r7, r7, #20
 1638              	.LCFI45:
 1639              		.cfi_def_cfa_offset 4
 1640 0014 BD46     		mov	sp, r7
 1641              	.LCFI46:
 1642              		.cfi_def_cfa_register 13
 1643              		@ sp needed
 1644 0016 5DF8047B 		ldr	r7, [sp], #4
 1645              	.LCFI47:
 1646              		.cfi_restore 7
 1647              		.cfi_def_cfa_offset 0
 1648 001a 7047     		bx	lr
 1649              	.L89:
 1650              		.align	2
 1651              	.L88:
 1652 001c 00230140 		.word	1073816320
 1653              		.cfi_endproc
 1654              	.LFE138:
 1656              		.section	.text.HAL_ADCEx_InjectedConvCpltCallback,"ax",%progbits
 1657              		.align	1
 1658              		.weak	HAL_ADCEx_InjectedConvCpltCallback
 1659              		.syntax unified
 1660              		.thumb
 1661              		.thumb_func
 1662              		.fpu fpv4-sp-d16
 1664              	HAL_ADCEx_InjectedConvCpltCallback:
 1665              	.LFB139:
 763:Drivers/STM32F4xx_HAL_Driver/Src/stm32f4xx_hal_adc_ex.c **** 
 764:Drivers/STM32F4xx_HAL_Driver/Src/stm32f4xx_hal_adc_ex.c **** /**
 765:Drivers/STM32F4xx_HAL_Driver/Src/stm32f4xx_hal_adc_ex.c ****   * @brief  Injected conversion complete callback in non blocking mode 
 766:Drivers/STM32F4xx_HAL_Driver/Src/stm32f4xx_hal_adc_ex.c ****   * @param  hadc pointer to a ADC_HandleTypeDef structure that contains
 767:Drivers/STM32F4xx_HAL_Driver/Src/stm32f4xx_hal_adc_ex.c ****   *         the configuration information for the specified ADC.
 768:Drivers/STM32F4xx_HAL_Driver/Src/stm32f4xx_hal_adc_ex.c ****   * @retval None
 769:Drivers/STM32F4xx_HAL_Driver/Src/stm32f4xx_hal_adc_ex.c ****   */
 770:Drivers/STM32F4xx_HAL_Driver/Src/stm32f4xx_hal_adc_ex.c **** __weak void HAL_ADCEx_InjectedConvCpltCallback(ADC_HandleTypeDef* hadc)
 771:Drivers/STM32F4xx_HAL_Driver/Src/stm32f4xx_hal_adc_ex.c **** {
 1666              		.loc 1 771 1
 1667              		.cfi_startproc
 1668              		@ args = 0, pretend = 0, frame = 8
 1669              		@ frame_needed = 1, uses_anonymous_args = 0
 1670              		@ link register save eliminated.
 1671 0000 80B4     		push	{r7}
 1672              	.LCFI48:
 1673              		.cfi_def_cfa_offset 4
 1674              		.cfi_offset 7, -4
 1675 0002 83B0     		sub	sp, sp, #12
 1676              	.LCFI49:
 1677              		.cfi_def_cfa_offset 16
ARM GAS  /tmp/ccqnyf0j.s 			page 44


 1678 0004 00AF     		add	r7, sp, #0
 1679              	.LCFI50:
 1680              		.cfi_def_cfa_register 7
 1681 0006 7860     		str	r0, [r7, #4]
 772:Drivers/STM32F4xx_HAL_Driver/Src/stm32f4xx_hal_adc_ex.c ****   /* Prevent unused argument(s) compilation warning */
 773:Drivers/STM32F4xx_HAL_Driver/Src/stm32f4xx_hal_adc_ex.c ****   UNUSED(hadc);
 774:Drivers/STM32F4xx_HAL_Driver/Src/stm32f4xx_hal_adc_ex.c ****   /* NOTE : This function Should not be modified, when the callback is needed,
 775:Drivers/STM32F4xx_HAL_Driver/Src/stm32f4xx_hal_adc_ex.c ****             the HAL_ADC_InjectedConvCpltCallback could be implemented in the user file
 776:Drivers/STM32F4xx_HAL_Driver/Src/stm32f4xx_hal_adc_ex.c ****    */
 777:Drivers/STM32F4xx_HAL_Driver/Src/stm32f4xx_hal_adc_ex.c **** }
 1682              		.loc 1 777 1
 1683 0008 00BF     		nop
 1684 000a 0C37     		adds	r7, r7, #12
 1685              	.LCFI51:
 1686              		.cfi_def_cfa_offset 4
 1687 000c BD46     		mov	sp, r7
 1688              	.LCFI52:
 1689              		.cfi_def_cfa_register 13
 1690              		@ sp needed
 1691 000e 5DF8047B 		ldr	r7, [sp], #4
 1692              	.LCFI53:
 1693              		.cfi_restore 7
 1694              		.cfi_def_cfa_offset 0
 1695 0012 7047     		bx	lr
 1696              		.cfi_endproc
 1697              	.LFE139:
 1699              		.section	.text.HAL_ADCEx_InjectedConfigChannel,"ax",%progbits
 1700              		.align	1
 1701              		.global	HAL_ADCEx_InjectedConfigChannel
 1702              		.syntax unified
 1703              		.thumb
 1704              		.thumb_func
 1705              		.fpu fpv4-sp-d16
 1707              	HAL_ADCEx_InjectedConfigChannel:
 1708              	.LFB140:
 778:Drivers/STM32F4xx_HAL_Driver/Src/stm32f4xx_hal_adc_ex.c **** 
 779:Drivers/STM32F4xx_HAL_Driver/Src/stm32f4xx_hal_adc_ex.c **** /**
 780:Drivers/STM32F4xx_HAL_Driver/Src/stm32f4xx_hal_adc_ex.c ****   * @brief  Configures for the selected ADC injected channel its corresponding
 781:Drivers/STM32F4xx_HAL_Driver/Src/stm32f4xx_hal_adc_ex.c ****   *         rank in the sequencer and its sample time.
 782:Drivers/STM32F4xx_HAL_Driver/Src/stm32f4xx_hal_adc_ex.c ****   * @param  hadc pointer to a ADC_HandleTypeDef structure that contains
 783:Drivers/STM32F4xx_HAL_Driver/Src/stm32f4xx_hal_adc_ex.c ****   *         the configuration information for the specified ADC.
 784:Drivers/STM32F4xx_HAL_Driver/Src/stm32f4xx_hal_adc_ex.c ****   * @param  sConfigInjected ADC configuration structure for injected channel. 
 785:Drivers/STM32F4xx_HAL_Driver/Src/stm32f4xx_hal_adc_ex.c ****   * @retval None
 786:Drivers/STM32F4xx_HAL_Driver/Src/stm32f4xx_hal_adc_ex.c ****   */
 787:Drivers/STM32F4xx_HAL_Driver/Src/stm32f4xx_hal_adc_ex.c **** HAL_StatusTypeDef HAL_ADCEx_InjectedConfigChannel(ADC_HandleTypeDef* hadc, ADC_InjectionConfTypeDef
 788:Drivers/STM32F4xx_HAL_Driver/Src/stm32f4xx_hal_adc_ex.c **** {
 1709              		.loc 1 788 1
 1710              		.cfi_startproc
 1711              		@ args = 0, pretend = 0, frame = 16
 1712              		@ frame_needed = 1, uses_anonymous_args = 0
 1713 0000 80B5     		push	{r7, lr}
 1714              	.LCFI54:
 1715              		.cfi_def_cfa_offset 8
 1716              		.cfi_offset 7, -8
 1717              		.cfi_offset 14, -4
 1718 0002 84B0     		sub	sp, sp, #16
 1719              	.LCFI55:
ARM GAS  /tmp/ccqnyf0j.s 			page 45


 1720              		.cfi_def_cfa_offset 24
 1721 0004 00AF     		add	r7, sp, #0
 1722              	.LCFI56:
 1723              		.cfi_def_cfa_register 7
 1724 0006 7860     		str	r0, [r7, #4]
 1725 0008 3960     		str	r1, [r7]
 789:Drivers/STM32F4xx_HAL_Driver/Src/stm32f4xx_hal_adc_ex.c ****   
 790:Drivers/STM32F4xx_HAL_Driver/Src/stm32f4xx_hal_adc_ex.c **** #ifdef USE_FULL_ASSERT  
 791:Drivers/STM32F4xx_HAL_Driver/Src/stm32f4xx_hal_adc_ex.c ****   uint32_t tmp = 0U;
 1726              		.loc 1 791 12
 1727 000a 0023     		movs	r3, #0
 1728 000c FB60     		str	r3, [r7, #12]
 792:Drivers/STM32F4xx_HAL_Driver/Src/stm32f4xx_hal_adc_ex.c ****   
 793:Drivers/STM32F4xx_HAL_Driver/Src/stm32f4xx_hal_adc_ex.c **** #endif /* USE_FULL_ASSERT  */
 794:Drivers/STM32F4xx_HAL_Driver/Src/stm32f4xx_hal_adc_ex.c **** 
 795:Drivers/STM32F4xx_HAL_Driver/Src/stm32f4xx_hal_adc_ex.c ****   ADC_Common_TypeDef *tmpADC_Common;
 796:Drivers/STM32F4xx_HAL_Driver/Src/stm32f4xx_hal_adc_ex.c **** 
 797:Drivers/STM32F4xx_HAL_Driver/Src/stm32f4xx_hal_adc_ex.c ****   /* Check the parameters */
 798:Drivers/STM32F4xx_HAL_Driver/Src/stm32f4xx_hal_adc_ex.c ****   assert_param(IS_ADC_CHANNEL(sConfigInjected->InjectedChannel));
 1729              		.loc 1 798 3
 1730 000e 3B68     		ldr	r3, [r7]
 1731 0010 1B68     		ldr	r3, [r3]
 1732 0012 122B     		cmp	r3, #18
 1733 0014 04D9     		bls	.L92
 1734              		.loc 1 798 3 is_stmt 0 discriminator 1
 1735 0016 40F21E31 		movw	r1, #798
 1736 001a 9948     		ldr	r0, .L125
 1737 001c FFF7FEFF 		bl	assert_failed
 1738              	.L92:
 799:Drivers/STM32F4xx_HAL_Driver/Src/stm32f4xx_hal_adc_ex.c ****   assert_param(IS_ADC_INJECTED_RANK(sConfigInjected->InjectedRank));
 1739              		.loc 1 799 3 is_stmt 1
 1740 0020 3B68     		ldr	r3, [r7]
 1741 0022 5B68     		ldr	r3, [r3, #4]
 1742 0024 002B     		cmp	r3, #0
 1743 0026 03D0     		beq	.L93
 1744              		.loc 1 799 3 is_stmt 0 discriminator 2
 1745 0028 3B68     		ldr	r3, [r7]
 1746 002a 5B68     		ldr	r3, [r3, #4]
 1747 002c 042B     		cmp	r3, #4
 1748 002e 04D9     		bls	.L94
 1749              	.L93:
 1750              		.loc 1 799 3 discriminator 3
 1751 0030 40F21F31 		movw	r1, #799
 1752 0034 9248     		ldr	r0, .L125
 1753 0036 FFF7FEFF 		bl	assert_failed
 1754              	.L94:
 800:Drivers/STM32F4xx_HAL_Driver/Src/stm32f4xx_hal_adc_ex.c ****   assert_param(IS_ADC_SAMPLE_TIME(sConfigInjected->InjectedSamplingTime));
 1755              		.loc 1 800 3 is_stmt 1
 1756 003a 3B68     		ldr	r3, [r7]
 1757 003c 9B68     		ldr	r3, [r3, #8]
 1758 003e 002B     		cmp	r3, #0
 1759 0040 20D0     		beq	.L95
 1760              		.loc 1 800 3 is_stmt 0 discriminator 1
 1761 0042 3B68     		ldr	r3, [r7]
 1762 0044 9B68     		ldr	r3, [r3, #8]
 1763 0046 012B     		cmp	r3, #1
 1764 0048 1CD0     		beq	.L95
ARM GAS  /tmp/ccqnyf0j.s 			page 46


 1765              		.loc 1 800 3 discriminator 2
 1766 004a 3B68     		ldr	r3, [r7]
 1767 004c 9B68     		ldr	r3, [r3, #8]
 1768 004e 022B     		cmp	r3, #2
 1769 0050 18D0     		beq	.L95
 1770              		.loc 1 800 3 discriminator 3
 1771 0052 3B68     		ldr	r3, [r7]
 1772 0054 9B68     		ldr	r3, [r3, #8]
 1773 0056 032B     		cmp	r3, #3
 1774 0058 14D0     		beq	.L95
 1775              		.loc 1 800 3 discriminator 4
 1776 005a 3B68     		ldr	r3, [r7]
 1777 005c 9B68     		ldr	r3, [r3, #8]
 1778 005e 042B     		cmp	r3, #4
 1779 0060 10D0     		beq	.L95
 1780              		.loc 1 800 3 discriminator 5
 1781 0062 3B68     		ldr	r3, [r7]
 1782 0064 9B68     		ldr	r3, [r3, #8]
 1783 0066 052B     		cmp	r3, #5
 1784 0068 0CD0     		beq	.L95
 1785              		.loc 1 800 3 discriminator 6
 1786 006a 3B68     		ldr	r3, [r7]
 1787 006c 9B68     		ldr	r3, [r3, #8]
 1788 006e 062B     		cmp	r3, #6
 1789 0070 08D0     		beq	.L95
 1790              		.loc 1 800 3 discriminator 7
 1791 0072 3B68     		ldr	r3, [r7]
 1792 0074 9B68     		ldr	r3, [r3, #8]
 1793 0076 072B     		cmp	r3, #7
 1794 0078 04D0     		beq	.L95
 1795              		.loc 1 800 3 discriminator 8
 1796 007a 4FF44871 		mov	r1, #800
 1797 007e 8048     		ldr	r0, .L125
 1798 0080 FFF7FEFF 		bl	assert_failed
 1799              	.L95:
 801:Drivers/STM32F4xx_HAL_Driver/Src/stm32f4xx_hal_adc_ex.c ****   assert_param(IS_ADC_EXT_INJEC_TRIG(sConfigInjected->ExternalTrigInjecConv));
 1800              		.loc 1 801 3 is_stmt 1
 1801 0084 3B68     		ldr	r3, [r7]
 1802 0086 9B69     		ldr	r3, [r3, #24]
 1803 0088 002B     		cmp	r3, #0
 1804 008a 54D0     		beq	.L96
 1805              		.loc 1 801 3 is_stmt 0 discriminator 1
 1806 008c 3B68     		ldr	r3, [r7]
 1807 008e 9B69     		ldr	r3, [r3, #24]
 1808 0090 B3F5803F 		cmp	r3, #65536
 1809 0094 4FD0     		beq	.L96
 1810              		.loc 1 801 3 discriminator 2
 1811 0096 3B68     		ldr	r3, [r7]
 1812 0098 9B69     		ldr	r3, [r3, #24]
 1813 009a B3F5003F 		cmp	r3, #131072
 1814 009e 4AD0     		beq	.L96
 1815              		.loc 1 801 3 discriminator 3
 1816 00a0 3B68     		ldr	r3, [r7]
 1817 00a2 9B69     		ldr	r3, [r3, #24]
 1818 00a4 B3F5403F 		cmp	r3, #196608
 1819 00a8 45D0     		beq	.L96
 1820              		.loc 1 801 3 discriminator 4
ARM GAS  /tmp/ccqnyf0j.s 			page 47


 1821 00aa 3B68     		ldr	r3, [r7]
 1822 00ac 9B69     		ldr	r3, [r3, #24]
 1823 00ae B3F5802F 		cmp	r3, #262144
 1824 00b2 40D0     		beq	.L96
 1825              		.loc 1 801 3 discriminator 5
 1826 00b4 3B68     		ldr	r3, [r7]
 1827 00b6 9B69     		ldr	r3, [r3, #24]
 1828 00b8 B3F5A02F 		cmp	r3, #327680
 1829 00bc 3BD0     		beq	.L96
 1830              		.loc 1 801 3 discriminator 6
 1831 00be 3B68     		ldr	r3, [r7]
 1832 00c0 9B69     		ldr	r3, [r3, #24]
 1833 00c2 B3F5C02F 		cmp	r3, #393216
 1834 00c6 36D0     		beq	.L96
 1835              		.loc 1 801 3 discriminator 7
 1836 00c8 3B68     		ldr	r3, [r7]
 1837 00ca 9B69     		ldr	r3, [r3, #24]
 1838 00cc B3F5E02F 		cmp	r3, #458752
 1839 00d0 31D0     		beq	.L96
 1840              		.loc 1 801 3 discriminator 8
 1841 00d2 3B68     		ldr	r3, [r7]
 1842 00d4 9B69     		ldr	r3, [r3, #24]
 1843 00d6 B3F5002F 		cmp	r3, #524288
 1844 00da 2CD0     		beq	.L96
 1845              		.loc 1 801 3 discriminator 9
 1846 00dc 3B68     		ldr	r3, [r7]
 1847 00de 9B69     		ldr	r3, [r3, #24]
 1848 00e0 B3F5102F 		cmp	r3, #589824
 1849 00e4 27D0     		beq	.L96
 1850              		.loc 1 801 3 discriminator 10
 1851 00e6 3B68     		ldr	r3, [r7]
 1852 00e8 9B69     		ldr	r3, [r3, #24]
 1853 00ea B3F5202F 		cmp	r3, #655360
 1854 00ee 22D0     		beq	.L96
 1855              		.loc 1 801 3 discriminator 11
 1856 00f0 3B68     		ldr	r3, [r7]
 1857 00f2 9B69     		ldr	r3, [r3, #24]
 1858 00f4 B3F5302F 		cmp	r3, #720896
 1859 00f8 1DD0     		beq	.L96
 1860              		.loc 1 801 3 discriminator 12
 1861 00fa 3B68     		ldr	r3, [r7]
 1862 00fc 9B69     		ldr	r3, [r3, #24]
 1863 00fe B3F5402F 		cmp	r3, #786432
 1864 0102 18D0     		beq	.L96
 1865              		.loc 1 801 3 discriminator 13
 1866 0104 3B68     		ldr	r3, [r7]
 1867 0106 9B69     		ldr	r3, [r3, #24]
 1868 0108 B3F5502F 		cmp	r3, #851968
 1869 010c 13D0     		beq	.L96
 1870              		.loc 1 801 3 discriminator 14
 1871 010e 3B68     		ldr	r3, [r7]
 1872 0110 9B69     		ldr	r3, [r3, #24]
 1873 0112 B3F5602F 		cmp	r3, #917504
 1874 0116 0ED0     		beq	.L96
 1875              		.loc 1 801 3 discriminator 15
 1876 0118 3B68     		ldr	r3, [r7]
 1877 011a 9B69     		ldr	r3, [r3, #24]
ARM GAS  /tmp/ccqnyf0j.s 			page 48


 1878 011c B3F5702F 		cmp	r3, #983040
 1879 0120 09D0     		beq	.L96
 1880              		.loc 1 801 3 discriminator 16
 1881 0122 3B68     		ldr	r3, [r7]
 1882 0124 9B69     		ldr	r3, [r3, #24]
 1883 0126 574A     		ldr	r2, .L125+4
 1884 0128 9342     		cmp	r3, r2
 1885 012a 04D0     		beq	.L96
 1886              		.loc 1 801 3 discriminator 17
 1887 012c 40F22131 		movw	r1, #801
 1888 0130 5348     		ldr	r0, .L125
 1889 0132 FFF7FEFF 		bl	assert_failed
 1890              	.L96:
 802:Drivers/STM32F4xx_HAL_Driver/Src/stm32f4xx_hal_adc_ex.c ****   assert_param(IS_ADC_INJECTED_LENGTH(sConfigInjected->InjectedNbrOfConversion));
 1891              		.loc 1 802 3 is_stmt 1
 1892 0136 3B68     		ldr	r3, [r7]
 1893 0138 1B69     		ldr	r3, [r3, #16]
 1894 013a 002B     		cmp	r3, #0
 1895 013c 03D0     		beq	.L97
 1896              		.loc 1 802 3 is_stmt 0 discriminator 2
 1897 013e 3B68     		ldr	r3, [r7]
 1898 0140 1B69     		ldr	r3, [r3, #16]
 1899 0142 042B     		cmp	r3, #4
 1900 0144 04D9     		bls	.L98
 1901              	.L97:
 1902              		.loc 1 802 3 discriminator 3
 1903 0146 40F22231 		movw	r1, #802
 1904 014a 4D48     		ldr	r0, .L125
 1905 014c FFF7FEFF 		bl	assert_failed
 1906              	.L98:
 803:Drivers/STM32F4xx_HAL_Driver/Src/stm32f4xx_hal_adc_ex.c ****   assert_param(IS_FUNCTIONAL_STATE(sConfigInjected->AutoInjectedConv));
 1907              		.loc 1 803 3 is_stmt 1
 1908 0150 3B68     		ldr	r3, [r7]
 1909 0152 5B7D     		ldrb	r3, [r3, #21]	@ zero_extendqisi2
 1910 0154 002B     		cmp	r3, #0
 1911 0156 08D0     		beq	.L99
 1912              		.loc 1 803 3 is_stmt 0 discriminator 1
 1913 0158 3B68     		ldr	r3, [r7]
 1914 015a 5B7D     		ldrb	r3, [r3, #21]	@ zero_extendqisi2
 1915 015c 012B     		cmp	r3, #1
 1916 015e 04D0     		beq	.L99
 1917              		.loc 1 803 3 discriminator 2
 1918 0160 40F22331 		movw	r1, #803
 1919 0164 4648     		ldr	r0, .L125
 1920 0166 FFF7FEFF 		bl	assert_failed
 1921              	.L99:
 804:Drivers/STM32F4xx_HAL_Driver/Src/stm32f4xx_hal_adc_ex.c ****   assert_param(IS_FUNCTIONAL_STATE(sConfigInjected->InjectedDiscontinuousConvMode));
 1922              		.loc 1 804 3 is_stmt 1
 1923 016a 3B68     		ldr	r3, [r7]
 1924 016c 1B7D     		ldrb	r3, [r3, #20]	@ zero_extendqisi2
 1925 016e 002B     		cmp	r3, #0
 1926 0170 08D0     		beq	.L100
 1927              		.loc 1 804 3 is_stmt 0 discriminator 1
 1928 0172 3B68     		ldr	r3, [r7]
 1929 0174 1B7D     		ldrb	r3, [r3, #20]	@ zero_extendqisi2
 1930 0176 012B     		cmp	r3, #1
 1931 0178 04D0     		beq	.L100
ARM GAS  /tmp/ccqnyf0j.s 			page 49


 1932              		.loc 1 804 3 discriminator 2
 1933 017a 4FF44971 		mov	r1, #804
 1934 017e 4048     		ldr	r0, .L125
 1935 0180 FFF7FEFF 		bl	assert_failed
 1936              	.L100:
 805:Drivers/STM32F4xx_HAL_Driver/Src/stm32f4xx_hal_adc_ex.c **** 
 806:Drivers/STM32F4xx_HAL_Driver/Src/stm32f4xx_hal_adc_ex.c **** #ifdef USE_FULL_ASSERT
 807:Drivers/STM32F4xx_HAL_Driver/Src/stm32f4xx_hal_adc_ex.c ****   tmp = ADC_GET_RESOLUTION(hadc);
 1937              		.loc 1 807 9 is_stmt 1
 1938 0184 7B68     		ldr	r3, [r7, #4]
 1939 0186 1B68     		ldr	r3, [r3]
 1940 0188 5B68     		ldr	r3, [r3, #4]
 1941              		.loc 1 807 7
 1942 018a 03F04073 		and	r3, r3, #50331648
 1943 018e FB60     		str	r3, [r7, #12]
 808:Drivers/STM32F4xx_HAL_Driver/Src/stm32f4xx_hal_adc_ex.c ****   assert_param(IS_ADC_RANGE(tmp, sConfigInjected->InjectedOffset));
 1944              		.loc 1 808 3
 1945 0190 FB68     		ldr	r3, [r7, #12]
 1946 0192 002B     		cmp	r3, #0
 1947 0194 04D1     		bne	.L101
 1948              		.loc 1 808 3 is_stmt 0 discriminator 2
 1949 0196 3B68     		ldr	r3, [r7]
 1950 0198 DB68     		ldr	r3, [r3, #12]
 1951 019a B3F5805F 		cmp	r3, #4096
 1952 019e 1DD3     		bcc	.L102
 1953              	.L101:
 1954              		.loc 1 808 3 discriminator 3
 1955 01a0 FB68     		ldr	r3, [r7, #12]
 1956 01a2 B3F1807F 		cmp	r3, #16777216
 1957 01a6 04D1     		bne	.L103
 1958              		.loc 1 808 3 discriminator 5
 1959 01a8 3B68     		ldr	r3, [r7]
 1960 01aa DB68     		ldr	r3, [r3, #12]
 1961 01ac B3F5806F 		cmp	r3, #1024
 1962 01b0 14D3     		bcc	.L102
 1963              	.L103:
 1964              		.loc 1 808 3 discriminator 6
 1965 01b2 FB68     		ldr	r3, [r7, #12]
 1966 01b4 B3F1007F 		cmp	r3, #33554432
 1967 01b8 03D1     		bne	.L104
 1968              		.loc 1 808 3 discriminator 8
 1969 01ba 3B68     		ldr	r3, [r7]
 1970 01bc DB68     		ldr	r3, [r3, #12]
 1971 01be FF2B     		cmp	r3, #255
 1972 01c0 0CD9     		bls	.L102
 1973              	.L104:
 1974              		.loc 1 808 3 discriminator 9
 1975 01c2 FB68     		ldr	r3, [r7, #12]
 1976 01c4 B3F1407F 		cmp	r3, #50331648
 1977 01c8 03D1     		bne	.L105
 1978              		.loc 1 808 3 discriminator 11
 1979 01ca 3B68     		ldr	r3, [r7]
 1980 01cc DB68     		ldr	r3, [r3, #12]
 1981 01ce 3F2B     		cmp	r3, #63
 1982 01d0 04D9     		bls	.L102
 1983              	.L105:
 1984              		.loc 1 808 3 discriminator 12
ARM GAS  /tmp/ccqnyf0j.s 			page 50


 1985 01d2 4FF44A71 		mov	r1, #808
 1986 01d6 2A48     		ldr	r0, .L125
 1987 01d8 FFF7FEFF 		bl	assert_failed
 1988              	.L102:
 809:Drivers/STM32F4xx_HAL_Driver/Src/stm32f4xx_hal_adc_ex.c **** #endif /* USE_FULL_ASSERT  */
 810:Drivers/STM32F4xx_HAL_Driver/Src/stm32f4xx_hal_adc_ex.c **** 
 811:Drivers/STM32F4xx_HAL_Driver/Src/stm32f4xx_hal_adc_ex.c ****   if(sConfigInjected->ExternalTrigInjecConv != ADC_INJECTED_SOFTWARE_START)
 1989              		.loc 1 811 21 is_stmt 1
 1990 01dc 3B68     		ldr	r3, [r7]
 1991 01de 9B69     		ldr	r3, [r3, #24]
 1992              		.loc 1 811 5
 1993 01e0 284A     		ldr	r2, .L125+4
 1994 01e2 9342     		cmp	r3, r2
 1995 01e4 17D0     		beq	.L106
 812:Drivers/STM32F4xx_HAL_Driver/Src/stm32f4xx_hal_adc_ex.c ****   {
 813:Drivers/STM32F4xx_HAL_Driver/Src/stm32f4xx_hal_adc_ex.c ****     assert_param(IS_ADC_EXT_INJEC_TRIG_EDGE(sConfigInjected->ExternalTrigInjecConvEdge));
 1996              		.loc 1 813 5
 1997 01e6 3B68     		ldr	r3, [r7]
 1998 01e8 DB69     		ldr	r3, [r3, #28]
 1999 01ea 002B     		cmp	r3, #0
 2000 01ec 13D0     		beq	.L106
 2001              		.loc 1 813 5 is_stmt 0 discriminator 1
 2002 01ee 3B68     		ldr	r3, [r7]
 2003 01f0 DB69     		ldr	r3, [r3, #28]
 2004 01f2 B3F5801F 		cmp	r3, #1048576
 2005 01f6 0ED0     		beq	.L106
 2006              		.loc 1 813 5 discriminator 2
 2007 01f8 3B68     		ldr	r3, [r7]
 2008 01fa DB69     		ldr	r3, [r3, #28]
 2009 01fc B3F5001F 		cmp	r3, #2097152
 2010 0200 09D0     		beq	.L106
 2011              		.loc 1 813 5 discriminator 3
 2012 0202 3B68     		ldr	r3, [r7]
 2013 0204 DB69     		ldr	r3, [r3, #28]
 2014 0206 B3F5401F 		cmp	r3, #3145728
 2015 020a 04D0     		beq	.L106
 2016              		.loc 1 813 5 discriminator 4
 2017 020c 40F22D31 		movw	r1, #813
 2018 0210 1B48     		ldr	r0, .L125
 2019 0212 FFF7FEFF 		bl	assert_failed
 2020              	.L106:
 814:Drivers/STM32F4xx_HAL_Driver/Src/stm32f4xx_hal_adc_ex.c ****   }
 815:Drivers/STM32F4xx_HAL_Driver/Src/stm32f4xx_hal_adc_ex.c **** 
 816:Drivers/STM32F4xx_HAL_Driver/Src/stm32f4xx_hal_adc_ex.c ****   /* Process locked */
 817:Drivers/STM32F4xx_HAL_Driver/Src/stm32f4xx_hal_adc_ex.c ****   __HAL_LOCK(hadc);
 2021              		.loc 1 817 3 is_stmt 1
 2022 0216 7B68     		ldr	r3, [r7, #4]
 2023 0218 93F83C30 		ldrb	r3, [r3, #60]	@ zero_extendqisi2
 2024 021c 012B     		cmp	r3, #1
 2025 021e 01D1     		bne	.L107
 2026              		.loc 1 817 3 is_stmt 0 discriminator 1
 2027 0220 0223     		movs	r3, #2
 2028 0222 81E1     		b	.L108
 2029              	.L107:
 2030              		.loc 1 817 3 discriminator 2
 2031 0224 7B68     		ldr	r3, [r7, #4]
 2032 0226 0122     		movs	r2, #1
ARM GAS  /tmp/ccqnyf0j.s 			page 51


 2033 0228 83F83C20 		strb	r2, [r3, #60]
 818:Drivers/STM32F4xx_HAL_Driver/Src/stm32f4xx_hal_adc_ex.c ****   
 819:Drivers/STM32F4xx_HAL_Driver/Src/stm32f4xx_hal_adc_ex.c ****   /* if ADC_Channel_10 ... ADC_Channel_18 is selected */
 820:Drivers/STM32F4xx_HAL_Driver/Src/stm32f4xx_hal_adc_ex.c ****   if (sConfigInjected->InjectedChannel > ADC_CHANNEL_9)
 2034              		.loc 1 820 22 is_stmt 1 discriminator 2
 2035 022c 3B68     		ldr	r3, [r7]
 2036 022e 1B68     		ldr	r3, [r3]
 2037              		.loc 1 820 6 discriminator 2
 2038 0230 092B     		cmp	r3, #9
 2039 0232 29D9     		bls	.L109
 821:Drivers/STM32F4xx_HAL_Driver/Src/stm32f4xx_hal_adc_ex.c ****   {
 822:Drivers/STM32F4xx_HAL_Driver/Src/stm32f4xx_hal_adc_ex.c ****     /* Clear the old sample time */
 823:Drivers/STM32F4xx_HAL_Driver/Src/stm32f4xx_hal_adc_ex.c ****     hadc->Instance->SMPR1 &= ~ADC_SMPR1(ADC_SMPR1_SMP10, sConfigInjected->InjectedChannel);
 2040              		.loc 1 823 9
 2041 0234 7B68     		ldr	r3, [r7, #4]
 2042 0236 1B68     		ldr	r3, [r3]
 2043              		.loc 1 823 27
 2044 0238 D968     		ldr	r1, [r3, #12]
 2045              		.loc 1 823 31
 2046 023a 3B68     		ldr	r3, [r7]
 2047 023c 1B68     		ldr	r3, [r3]
 2048 023e 9BB2     		uxth	r3, r3
 2049 0240 1A46     		mov	r2, r3
 2050 0242 1346     		mov	r3, r2
 2051 0244 5B00     		lsls	r3, r3, #1
 2052 0246 1344     		add	r3, r3, r2
 2053 0248 1E3B     		subs	r3, r3, #30
 2054 024a 0722     		movs	r2, #7
 2055 024c 02FA03F3 		lsl	r3, r2, r3
 2056              		.loc 1 823 30
 2057 0250 DA43     		mvns	r2, r3
 2058              		.loc 1 823 9
 2059 0252 7B68     		ldr	r3, [r7, #4]
 2060 0254 1B68     		ldr	r3, [r3]
 2061              		.loc 1 823 27
 2062 0256 0A40     		ands	r2, r2, r1
 2063 0258 DA60     		str	r2, [r3, #12]
 824:Drivers/STM32F4xx_HAL_Driver/Src/stm32f4xx_hal_adc_ex.c ****     
 825:Drivers/STM32F4xx_HAL_Driver/Src/stm32f4xx_hal_adc_ex.c ****     /* Set the new sample time */
 826:Drivers/STM32F4xx_HAL_Driver/Src/stm32f4xx_hal_adc_ex.c ****     hadc->Instance->SMPR1 |= ADC_SMPR1(sConfigInjected->InjectedSamplingTime, sConfigInjected->Inje
 2064              		.loc 1 826 9
 2065 025a 7B68     		ldr	r3, [r7, #4]
 2066 025c 1B68     		ldr	r3, [r3]
 2067              		.loc 1 826 27
 2068 025e D968     		ldr	r1, [r3, #12]
 2069              		.loc 1 826 30
 2070 0260 3B68     		ldr	r3, [r7]
 2071 0262 9A68     		ldr	r2, [r3, #8]
 2072 0264 3B68     		ldr	r3, [r7]
 2073 0266 1B68     		ldr	r3, [r3]
 2074 0268 9BB2     		uxth	r3, r3
 2075 026a 1846     		mov	r0, r3
 2076 026c 0346     		mov	r3, r0
 2077 026e 5B00     		lsls	r3, r3, #1
 2078 0270 0344     		add	r3, r3, r0
 2079 0272 1E3B     		subs	r3, r3, #30
 2080 0274 9A40     		lsls	r2, r2, r3
ARM GAS  /tmp/ccqnyf0j.s 			page 52


 2081              		.loc 1 826 9
 2082 0276 7B68     		ldr	r3, [r7, #4]
 2083 0278 1B68     		ldr	r3, [r3]
 2084              		.loc 1 826 27
 2085 027a 0A43     		orrs	r2, r2, r1
 2086 027c DA60     		str	r2, [r3, #12]
 2087 027e 26E0     		b	.L110
 2088              	.L126:
 2089              		.align	2
 2090              	.L125:
 2091 0280 00000000 		.word	.LC0
 2092 0284 01000F00 		.word	983041
 2093              	.L109:
 827:Drivers/STM32F4xx_HAL_Driver/Src/stm32f4xx_hal_adc_ex.c ****   }
 828:Drivers/STM32F4xx_HAL_Driver/Src/stm32f4xx_hal_adc_ex.c ****   else /* ADC_Channel include in ADC_Channel_[0..9] */
 829:Drivers/STM32F4xx_HAL_Driver/Src/stm32f4xx_hal_adc_ex.c ****   {
 830:Drivers/STM32F4xx_HAL_Driver/Src/stm32f4xx_hal_adc_ex.c ****     /* Clear the old sample time */
 831:Drivers/STM32F4xx_HAL_Driver/Src/stm32f4xx_hal_adc_ex.c ****     hadc->Instance->SMPR2 &= ~ADC_SMPR2(ADC_SMPR2_SMP0, sConfigInjected->InjectedChannel);
 2094              		.loc 1 831 9
 2095 0288 7B68     		ldr	r3, [r7, #4]
 2096 028a 1B68     		ldr	r3, [r3]
 2097              		.loc 1 831 27
 2098 028c 1969     		ldr	r1, [r3, #16]
 2099              		.loc 1 831 31
 2100 028e 3B68     		ldr	r3, [r7]
 2101 0290 1B68     		ldr	r3, [r3]
 2102 0292 9BB2     		uxth	r3, r3
 2103 0294 1A46     		mov	r2, r3
 2104 0296 1346     		mov	r3, r2
 2105 0298 5B00     		lsls	r3, r3, #1
 2106 029a 1344     		add	r3, r3, r2
 2107 029c 0722     		movs	r2, #7
 2108 029e 02FA03F3 		lsl	r3, r2, r3
 2109              		.loc 1 831 30
 2110 02a2 DA43     		mvns	r2, r3
 2111              		.loc 1 831 9
 2112 02a4 7B68     		ldr	r3, [r7, #4]
 2113 02a6 1B68     		ldr	r3, [r3]
 2114              		.loc 1 831 27
 2115 02a8 0A40     		ands	r2, r2, r1
 2116 02aa 1A61     		str	r2, [r3, #16]
 832:Drivers/STM32F4xx_HAL_Driver/Src/stm32f4xx_hal_adc_ex.c ****     
 833:Drivers/STM32F4xx_HAL_Driver/Src/stm32f4xx_hal_adc_ex.c ****     /* Set the new sample time */
 834:Drivers/STM32F4xx_HAL_Driver/Src/stm32f4xx_hal_adc_ex.c ****     hadc->Instance->SMPR2 |= ADC_SMPR2(sConfigInjected->InjectedSamplingTime, sConfigInjected->Inje
 2117              		.loc 1 834 9
 2118 02ac 7B68     		ldr	r3, [r7, #4]
 2119 02ae 1B68     		ldr	r3, [r3]
 2120              		.loc 1 834 27
 2121 02b0 1969     		ldr	r1, [r3, #16]
 2122              		.loc 1 834 30
 2123 02b2 3B68     		ldr	r3, [r7]
 2124 02b4 9A68     		ldr	r2, [r3, #8]
 2125 02b6 3B68     		ldr	r3, [r7]
 2126 02b8 1B68     		ldr	r3, [r3]
 2127 02ba 9BB2     		uxth	r3, r3
 2128 02bc 1846     		mov	r0, r3
 2129 02be 0346     		mov	r3, r0
ARM GAS  /tmp/ccqnyf0j.s 			page 53


 2130 02c0 5B00     		lsls	r3, r3, #1
 2131 02c2 0344     		add	r3, r3, r0
 2132 02c4 9A40     		lsls	r2, r2, r3
 2133              		.loc 1 834 9
 2134 02c6 7B68     		ldr	r3, [r7, #4]
 2135 02c8 1B68     		ldr	r3, [r3]
 2136              		.loc 1 834 27
 2137 02ca 0A43     		orrs	r2, r2, r1
 2138 02cc 1A61     		str	r2, [r3, #16]
 2139              	.L110:
 835:Drivers/STM32F4xx_HAL_Driver/Src/stm32f4xx_hal_adc_ex.c ****   }
 836:Drivers/STM32F4xx_HAL_Driver/Src/stm32f4xx_hal_adc_ex.c ****   
 837:Drivers/STM32F4xx_HAL_Driver/Src/stm32f4xx_hal_adc_ex.c ****   /*---------------------------- ADCx JSQR Configuration -----------------*/
 838:Drivers/STM32F4xx_HAL_Driver/Src/stm32f4xx_hal_adc_ex.c ****   hadc->Instance->JSQR &= ~(ADC_JSQR_JL);
 2140              		.loc 1 838 7
 2141 02ce 7B68     		ldr	r3, [r7, #4]
 2142 02d0 1B68     		ldr	r3, [r3]
 2143              		.loc 1 838 24
 2144 02d2 9A6B     		ldr	r2, [r3, #56]
 2145              		.loc 1 838 7
 2146 02d4 7B68     		ldr	r3, [r7, #4]
 2147 02d6 1B68     		ldr	r3, [r3]
 2148              		.loc 1 838 24
 2149 02d8 22F44012 		bic	r2, r2, #3145728
 2150 02dc 9A63     		str	r2, [r3, #56]
 839:Drivers/STM32F4xx_HAL_Driver/Src/stm32f4xx_hal_adc_ex.c ****   hadc->Instance->JSQR |=  ADC_SQR1(sConfigInjected->InjectedNbrOfConversion);
 2151              		.loc 1 839 7
 2152 02de 7B68     		ldr	r3, [r7, #4]
 2153 02e0 1B68     		ldr	r3, [r3]
 2154              		.loc 1 839 24
 2155 02e2 996B     		ldr	r1, [r3, #56]
 2156              		.loc 1 839 28
 2157 02e4 3B68     		ldr	r3, [r7]
 2158 02e6 1B69     		ldr	r3, [r3, #16]
 2159 02e8 013B     		subs	r3, r3, #1
 2160 02ea 1A05     		lsls	r2, r3, #20
 2161              		.loc 1 839 7
 2162 02ec 7B68     		ldr	r3, [r7, #4]
 2163 02ee 1B68     		ldr	r3, [r3]
 2164              		.loc 1 839 24
 2165 02f0 0A43     		orrs	r2, r2, r1
 2166 02f2 9A63     		str	r2, [r3, #56]
 840:Drivers/STM32F4xx_HAL_Driver/Src/stm32f4xx_hal_adc_ex.c ****   
 841:Drivers/STM32F4xx_HAL_Driver/Src/stm32f4xx_hal_adc_ex.c ****   /* Rank configuration */
 842:Drivers/STM32F4xx_HAL_Driver/Src/stm32f4xx_hal_adc_ex.c ****   
 843:Drivers/STM32F4xx_HAL_Driver/Src/stm32f4xx_hal_adc_ex.c ****   /* Clear the old SQx bits for the selected rank */
 844:Drivers/STM32F4xx_HAL_Driver/Src/stm32f4xx_hal_adc_ex.c ****   hadc->Instance->JSQR &= ~ADC_JSQR(ADC_JSQR_JSQ1, sConfigInjected->InjectedRank,sConfigInjected->I
 2167              		.loc 1 844 7
 2168 02f4 7B68     		ldr	r3, [r7, #4]
 2169 02f6 1B68     		ldr	r3, [r3]
 2170              		.loc 1 844 24
 2171 02f8 996B     		ldr	r1, [r3, #56]
 2172              		.loc 1 844 28
 2173 02fa 3B68     		ldr	r3, [r7]
 2174 02fc 5B68     		ldr	r3, [r3, #4]
 2175 02fe DAB2     		uxtb	r2, r3
 2176 0300 3B68     		ldr	r3, [r7]
ARM GAS  /tmp/ccqnyf0j.s 			page 54


 2177 0302 1B69     		ldr	r3, [r3, #16]
 2178 0304 DBB2     		uxtb	r3, r3
 2179 0306 D31A     		subs	r3, r2, r3
 2180 0308 DBB2     		uxtb	r3, r3
 2181 030a 0333     		adds	r3, r3, #3
 2182 030c DBB2     		uxtb	r3, r3
 2183 030e 1A46     		mov	r2, r3
 2184 0310 1346     		mov	r3, r2
 2185 0312 9B00     		lsls	r3, r3, #2
 2186 0314 1344     		add	r3, r3, r2
 2187 0316 1F22     		movs	r2, #31
 2188 0318 02FA03F3 		lsl	r3, r2, r3
 2189              		.loc 1 844 27
 2190 031c DA43     		mvns	r2, r3
 2191              		.loc 1 844 7
 2192 031e 7B68     		ldr	r3, [r7, #4]
 2193 0320 1B68     		ldr	r3, [r3]
 2194              		.loc 1 844 24
 2195 0322 0A40     		ands	r2, r2, r1
 2196 0324 9A63     		str	r2, [r3, #56]
 845:Drivers/STM32F4xx_HAL_Driver/Src/stm32f4xx_hal_adc_ex.c ****    
 846:Drivers/STM32F4xx_HAL_Driver/Src/stm32f4xx_hal_adc_ex.c ****   /* Set the SQx bits for the selected rank */
 847:Drivers/STM32F4xx_HAL_Driver/Src/stm32f4xx_hal_adc_ex.c ****   hadc->Instance->JSQR |= ADC_JSQR(sConfigInjected->InjectedChannel, sConfigInjected->InjectedRank,
 2197              		.loc 1 847 7
 2198 0326 7B68     		ldr	r3, [r7, #4]
 2199 0328 1B68     		ldr	r3, [r3]
 2200              		.loc 1 847 24
 2201 032a 996B     		ldr	r1, [r3, #56]
 2202              		.loc 1 847 27
 2203 032c 3B68     		ldr	r3, [r7]
 2204 032e 1B68     		ldr	r3, [r3]
 2205 0330 9BB2     		uxth	r3, r3
 2206 0332 1846     		mov	r0, r3
 2207 0334 3B68     		ldr	r3, [r7]
 2208 0336 5B68     		ldr	r3, [r3, #4]
 2209 0338 DAB2     		uxtb	r2, r3
 2210 033a 3B68     		ldr	r3, [r7]
 2211 033c 1B69     		ldr	r3, [r3, #16]
 2212 033e DBB2     		uxtb	r3, r3
 2213 0340 D31A     		subs	r3, r2, r3
 2214 0342 DBB2     		uxtb	r3, r3
 2215 0344 0333     		adds	r3, r3, #3
 2216 0346 DBB2     		uxtb	r3, r3
 2217 0348 1A46     		mov	r2, r3
 2218 034a 1346     		mov	r3, r2
 2219 034c 9B00     		lsls	r3, r3, #2
 2220 034e 1344     		add	r3, r3, r2
 2221 0350 00FA03F2 		lsl	r2, r0, r3
 2222              		.loc 1 847 7
 2223 0354 7B68     		ldr	r3, [r7, #4]
 2224 0356 1B68     		ldr	r3, [r3]
 2225              		.loc 1 847 24
 2226 0358 0A43     		orrs	r2, r2, r1
 2227 035a 9A63     		str	r2, [r3, #56]
 848:Drivers/STM32F4xx_HAL_Driver/Src/stm32f4xx_hal_adc_ex.c **** 
 849:Drivers/STM32F4xx_HAL_Driver/Src/stm32f4xx_hal_adc_ex.c ****   /* Enable external trigger if trigger selection is different of software  */
 850:Drivers/STM32F4xx_HAL_Driver/Src/stm32f4xx_hal_adc_ex.c ****   /* start.                                                                 */
ARM GAS  /tmp/ccqnyf0j.s 			page 55


 851:Drivers/STM32F4xx_HAL_Driver/Src/stm32f4xx_hal_adc_ex.c ****   /* Note: This configuration keeps the hardware feature of parameter       */
 852:Drivers/STM32F4xx_HAL_Driver/Src/stm32f4xx_hal_adc_ex.c ****   /*       ExternalTrigConvEdge "trigger edge none" equivalent to           */
 853:Drivers/STM32F4xx_HAL_Driver/Src/stm32f4xx_hal_adc_ex.c ****   /*       software start.                                                  */ 
 854:Drivers/STM32F4xx_HAL_Driver/Src/stm32f4xx_hal_adc_ex.c ****   if(sConfigInjected->ExternalTrigInjecConv != ADC_INJECTED_SOFTWARE_START)
 2228              		.loc 1 854 21
 2229 035c 3B68     		ldr	r3, [r7]
 2230 035e 9B69     		ldr	r3, [r3, #24]
 2231              		.loc 1 854 5
 2232 0360 734A     		ldr	r2, .L127
 2233 0362 9342     		cmp	r3, r2
 2234 0364 22D0     		beq	.L111
 855:Drivers/STM32F4xx_HAL_Driver/Src/stm32f4xx_hal_adc_ex.c ****   {  
 856:Drivers/STM32F4xx_HAL_Driver/Src/stm32f4xx_hal_adc_ex.c ****     /* Select external trigger to start conversion */
 857:Drivers/STM32F4xx_HAL_Driver/Src/stm32f4xx_hal_adc_ex.c ****     hadc->Instance->CR2 &= ~(ADC_CR2_JEXTSEL);
 2235              		.loc 1 857 9
 2236 0366 7B68     		ldr	r3, [r7, #4]
 2237 0368 1B68     		ldr	r3, [r3]
 2238              		.loc 1 857 25
 2239 036a 9A68     		ldr	r2, [r3, #8]
 2240              		.loc 1 857 9
 2241 036c 7B68     		ldr	r3, [r7, #4]
 2242 036e 1B68     		ldr	r3, [r3]
 2243              		.loc 1 857 25
 2244 0370 22F47022 		bic	r2, r2, #983040
 2245 0374 9A60     		str	r2, [r3, #8]
 858:Drivers/STM32F4xx_HAL_Driver/Src/stm32f4xx_hal_adc_ex.c ****     hadc->Instance->CR2 |=  sConfigInjected->ExternalTrigInjecConv;
 2246              		.loc 1 858 9
 2247 0376 7B68     		ldr	r3, [r7, #4]
 2248 0378 1B68     		ldr	r3, [r3]
 2249              		.loc 1 858 25
 2250 037a 9968     		ldr	r1, [r3, #8]
 2251              		.loc 1 858 44
 2252 037c 3B68     		ldr	r3, [r7]
 2253 037e 9A69     		ldr	r2, [r3, #24]
 2254              		.loc 1 858 9
 2255 0380 7B68     		ldr	r3, [r7, #4]
 2256 0382 1B68     		ldr	r3, [r3]
 2257              		.loc 1 858 25
 2258 0384 0A43     		orrs	r2, r2, r1
 2259 0386 9A60     		str	r2, [r3, #8]
 859:Drivers/STM32F4xx_HAL_Driver/Src/stm32f4xx_hal_adc_ex.c ****     
 860:Drivers/STM32F4xx_HAL_Driver/Src/stm32f4xx_hal_adc_ex.c ****     /* Select external trigger polarity */
 861:Drivers/STM32F4xx_HAL_Driver/Src/stm32f4xx_hal_adc_ex.c ****     hadc->Instance->CR2 &= ~(ADC_CR2_JEXTEN);
 2260              		.loc 1 861 9
 2261 0388 7B68     		ldr	r3, [r7, #4]
 2262 038a 1B68     		ldr	r3, [r3]
 2263              		.loc 1 861 25
 2264 038c 9A68     		ldr	r2, [r3, #8]
 2265              		.loc 1 861 9
 2266 038e 7B68     		ldr	r3, [r7, #4]
 2267 0390 1B68     		ldr	r3, [r3]
 2268              		.loc 1 861 25
 2269 0392 22F44012 		bic	r2, r2, #3145728
 2270 0396 9A60     		str	r2, [r3, #8]
 862:Drivers/STM32F4xx_HAL_Driver/Src/stm32f4xx_hal_adc_ex.c ****     hadc->Instance->CR2 |= sConfigInjected->ExternalTrigInjecConvEdge;
 2271              		.loc 1 862 9
 2272 0398 7B68     		ldr	r3, [r7, #4]
ARM GAS  /tmp/ccqnyf0j.s 			page 56


 2273 039a 1B68     		ldr	r3, [r3]
 2274              		.loc 1 862 25
 2275 039c 9968     		ldr	r1, [r3, #8]
 2276              		.loc 1 862 43
 2277 039e 3B68     		ldr	r3, [r7]
 2278 03a0 DA69     		ldr	r2, [r3, #28]
 2279              		.loc 1 862 9
 2280 03a2 7B68     		ldr	r3, [r7, #4]
 2281 03a4 1B68     		ldr	r3, [r3]
 2282              		.loc 1 862 25
 2283 03a6 0A43     		orrs	r2, r2, r1
 2284 03a8 9A60     		str	r2, [r3, #8]
 2285 03aa 0FE0     		b	.L112
 2286              	.L111:
 863:Drivers/STM32F4xx_HAL_Driver/Src/stm32f4xx_hal_adc_ex.c ****   }
 864:Drivers/STM32F4xx_HAL_Driver/Src/stm32f4xx_hal_adc_ex.c ****   else
 865:Drivers/STM32F4xx_HAL_Driver/Src/stm32f4xx_hal_adc_ex.c ****   {
 866:Drivers/STM32F4xx_HAL_Driver/Src/stm32f4xx_hal_adc_ex.c ****     /* Reset the external trigger */
 867:Drivers/STM32F4xx_HAL_Driver/Src/stm32f4xx_hal_adc_ex.c ****     hadc->Instance->CR2 &= ~(ADC_CR2_JEXTSEL);
 2287              		.loc 1 867 9
 2288 03ac 7B68     		ldr	r3, [r7, #4]
 2289 03ae 1B68     		ldr	r3, [r3]
 2290              		.loc 1 867 25
 2291 03b0 9A68     		ldr	r2, [r3, #8]
 2292              		.loc 1 867 9
 2293 03b2 7B68     		ldr	r3, [r7, #4]
 2294 03b4 1B68     		ldr	r3, [r3]
 2295              		.loc 1 867 25
 2296 03b6 22F47022 		bic	r2, r2, #983040
 2297 03ba 9A60     		str	r2, [r3, #8]
 868:Drivers/STM32F4xx_HAL_Driver/Src/stm32f4xx_hal_adc_ex.c ****     hadc->Instance->CR2 &= ~(ADC_CR2_JEXTEN);  
 2298              		.loc 1 868 9
 2299 03bc 7B68     		ldr	r3, [r7, #4]
 2300 03be 1B68     		ldr	r3, [r3]
 2301              		.loc 1 868 25
 2302 03c0 9A68     		ldr	r2, [r3, #8]
 2303              		.loc 1 868 9
 2304 03c2 7B68     		ldr	r3, [r7, #4]
 2305 03c4 1B68     		ldr	r3, [r3]
 2306              		.loc 1 868 25
 2307 03c6 22F44012 		bic	r2, r2, #3145728
 2308 03ca 9A60     		str	r2, [r3, #8]
 2309              	.L112:
 869:Drivers/STM32F4xx_HAL_Driver/Src/stm32f4xx_hal_adc_ex.c ****   }
 870:Drivers/STM32F4xx_HAL_Driver/Src/stm32f4xx_hal_adc_ex.c ****   
 871:Drivers/STM32F4xx_HAL_Driver/Src/stm32f4xx_hal_adc_ex.c ****   if (sConfigInjected->AutoInjectedConv != DISABLE)
 2310              		.loc 1 871 22
 2311 03cc 3B68     		ldr	r3, [r7]
 2312 03ce 5B7D     		ldrb	r3, [r3, #21]	@ zero_extendqisi2
 2313              		.loc 1 871 6
 2314 03d0 002B     		cmp	r3, #0
 2315 03d2 08D0     		beq	.L113
 872:Drivers/STM32F4xx_HAL_Driver/Src/stm32f4xx_hal_adc_ex.c ****   {
 873:Drivers/STM32F4xx_HAL_Driver/Src/stm32f4xx_hal_adc_ex.c ****     /* Enable the selected ADC automatic injected group conversion */
 874:Drivers/STM32F4xx_HAL_Driver/Src/stm32f4xx_hal_adc_ex.c ****     hadc->Instance->CR1 |= ADC_CR1_JAUTO;
 2316              		.loc 1 874 9
 2317 03d4 7B68     		ldr	r3, [r7, #4]
ARM GAS  /tmp/ccqnyf0j.s 			page 57


 2318 03d6 1B68     		ldr	r3, [r3]
 2319              		.loc 1 874 25
 2320 03d8 5A68     		ldr	r2, [r3, #4]
 2321              		.loc 1 874 9
 2322 03da 7B68     		ldr	r3, [r7, #4]
 2323 03dc 1B68     		ldr	r3, [r3]
 2324              		.loc 1 874 25
 2325 03de 42F48062 		orr	r2, r2, #1024
 2326 03e2 5A60     		str	r2, [r3, #4]
 2327 03e4 07E0     		b	.L114
 2328              	.L113:
 875:Drivers/STM32F4xx_HAL_Driver/Src/stm32f4xx_hal_adc_ex.c ****   }
 876:Drivers/STM32F4xx_HAL_Driver/Src/stm32f4xx_hal_adc_ex.c ****   else
 877:Drivers/STM32F4xx_HAL_Driver/Src/stm32f4xx_hal_adc_ex.c ****   {
 878:Drivers/STM32F4xx_HAL_Driver/Src/stm32f4xx_hal_adc_ex.c ****     /* Disable the selected ADC automatic injected group conversion */
 879:Drivers/STM32F4xx_HAL_Driver/Src/stm32f4xx_hal_adc_ex.c ****     hadc->Instance->CR1 &= ~(ADC_CR1_JAUTO);
 2329              		.loc 1 879 9
 2330 03e6 7B68     		ldr	r3, [r7, #4]
 2331 03e8 1B68     		ldr	r3, [r3]
 2332              		.loc 1 879 25
 2333 03ea 5A68     		ldr	r2, [r3, #4]
 2334              		.loc 1 879 9
 2335 03ec 7B68     		ldr	r3, [r7, #4]
 2336 03ee 1B68     		ldr	r3, [r3]
 2337              		.loc 1 879 25
 2338 03f0 22F48062 		bic	r2, r2, #1024
 2339 03f4 5A60     		str	r2, [r3, #4]
 2340              	.L114:
 880:Drivers/STM32F4xx_HAL_Driver/Src/stm32f4xx_hal_adc_ex.c ****   }
 881:Drivers/STM32F4xx_HAL_Driver/Src/stm32f4xx_hal_adc_ex.c ****   
 882:Drivers/STM32F4xx_HAL_Driver/Src/stm32f4xx_hal_adc_ex.c ****   if (sConfigInjected->InjectedDiscontinuousConvMode != DISABLE)
 2341              		.loc 1 882 22
 2342 03f6 3B68     		ldr	r3, [r7]
 2343 03f8 1B7D     		ldrb	r3, [r3, #20]	@ zero_extendqisi2
 2344              		.loc 1 882 6
 2345 03fa 002B     		cmp	r3, #0
 2346 03fc 08D0     		beq	.L115
 883:Drivers/STM32F4xx_HAL_Driver/Src/stm32f4xx_hal_adc_ex.c ****   {
 884:Drivers/STM32F4xx_HAL_Driver/Src/stm32f4xx_hal_adc_ex.c ****     /* Enable the selected ADC injected discontinuous mode */
 885:Drivers/STM32F4xx_HAL_Driver/Src/stm32f4xx_hal_adc_ex.c ****     hadc->Instance->CR1 |= ADC_CR1_JDISCEN;
 2347              		.loc 1 885 9
 2348 03fe 7B68     		ldr	r3, [r7, #4]
 2349 0400 1B68     		ldr	r3, [r3]
 2350              		.loc 1 885 25
 2351 0402 5A68     		ldr	r2, [r3, #4]
 2352              		.loc 1 885 9
 2353 0404 7B68     		ldr	r3, [r7, #4]
 2354 0406 1B68     		ldr	r3, [r3]
 2355              		.loc 1 885 25
 2356 0408 42F48052 		orr	r2, r2, #4096
 2357 040c 5A60     		str	r2, [r3, #4]
 2358 040e 07E0     		b	.L116
 2359              	.L115:
 886:Drivers/STM32F4xx_HAL_Driver/Src/stm32f4xx_hal_adc_ex.c ****   }
 887:Drivers/STM32F4xx_HAL_Driver/Src/stm32f4xx_hal_adc_ex.c ****   else
 888:Drivers/STM32F4xx_HAL_Driver/Src/stm32f4xx_hal_adc_ex.c ****   {
 889:Drivers/STM32F4xx_HAL_Driver/Src/stm32f4xx_hal_adc_ex.c ****     /* Disable the selected ADC injected discontinuous mode */
ARM GAS  /tmp/ccqnyf0j.s 			page 58


 890:Drivers/STM32F4xx_HAL_Driver/Src/stm32f4xx_hal_adc_ex.c ****     hadc->Instance->CR1 &= ~(ADC_CR1_JDISCEN);
 2360              		.loc 1 890 9
 2361 0410 7B68     		ldr	r3, [r7, #4]
 2362 0412 1B68     		ldr	r3, [r3]
 2363              		.loc 1 890 25
 2364 0414 5A68     		ldr	r2, [r3, #4]
 2365              		.loc 1 890 9
 2366 0416 7B68     		ldr	r3, [r7, #4]
 2367 0418 1B68     		ldr	r3, [r3]
 2368              		.loc 1 890 25
 2369 041a 22F48052 		bic	r2, r2, #4096
 2370 041e 5A60     		str	r2, [r3, #4]
 2371              	.L116:
 891:Drivers/STM32F4xx_HAL_Driver/Src/stm32f4xx_hal_adc_ex.c ****   }
 892:Drivers/STM32F4xx_HAL_Driver/Src/stm32f4xx_hal_adc_ex.c ****   
 893:Drivers/STM32F4xx_HAL_Driver/Src/stm32f4xx_hal_adc_ex.c ****   switch(sConfigInjected->InjectedRank)
 2372              		.loc 1 893 25
 2373 0420 3B68     		ldr	r3, [r7]
 2374 0422 5B68     		ldr	r3, [r3, #4]
 2375              		.loc 1 893 3
 2376 0424 032B     		cmp	r3, #3
 2377 0426 2ED0     		beq	.L117
 2378 0428 032B     		cmp	r3, #3
 2379 042a 40D8     		bhi	.L118
 2380 042c 012B     		cmp	r3, #1
 2381 042e 02D0     		beq	.L119
 2382 0430 022B     		cmp	r3, #2
 2383 0432 14D0     		beq	.L120
 2384 0434 3BE0     		b	.L118
 2385              	.L119:
 894:Drivers/STM32F4xx_HAL_Driver/Src/stm32f4xx_hal_adc_ex.c ****   {
 895:Drivers/STM32F4xx_HAL_Driver/Src/stm32f4xx_hal_adc_ex.c ****     case 1U:
 896:Drivers/STM32F4xx_HAL_Driver/Src/stm32f4xx_hal_adc_ex.c ****       /* Set injected channel 1 offset */
 897:Drivers/STM32F4xx_HAL_Driver/Src/stm32f4xx_hal_adc_ex.c ****       hadc->Instance->JOFR1 &= ~(ADC_JOFR1_JOFFSET1);
 2386              		.loc 1 897 11
 2387 0436 7B68     		ldr	r3, [r7, #4]
 2388 0438 1B68     		ldr	r3, [r3]
 2389              		.loc 1 897 29
 2390 043a 5B69     		ldr	r3, [r3, #20]
 2391              		.loc 1 897 11
 2392 043c 7A68     		ldr	r2, [r7, #4]
 2393 043e 1268     		ldr	r2, [r2]
 2394              		.loc 1 897 29
 2395 0440 23F47F63 		bic	r3, r3, #4080
 2396 0444 23F00F03 		bic	r3, r3, #15
 2397 0448 5361     		str	r3, [r2, #20]
 898:Drivers/STM32F4xx_HAL_Driver/Src/stm32f4xx_hal_adc_ex.c ****       hadc->Instance->JOFR1 |= sConfigInjected->InjectedOffset;
 2398              		.loc 1 898 11
 2399 044a 7B68     		ldr	r3, [r7, #4]
 2400 044c 1B68     		ldr	r3, [r3]
 2401              		.loc 1 898 29
 2402 044e 5969     		ldr	r1, [r3, #20]
 2403              		.loc 1 898 47
 2404 0450 3B68     		ldr	r3, [r7]
 2405 0452 DA68     		ldr	r2, [r3, #12]
 2406              		.loc 1 898 11
 2407 0454 7B68     		ldr	r3, [r7, #4]
ARM GAS  /tmp/ccqnyf0j.s 			page 59


 2408 0456 1B68     		ldr	r3, [r3]
 2409              		.loc 1 898 29
 2410 0458 0A43     		orrs	r2, r2, r1
 2411 045a 5A61     		str	r2, [r3, #20]
 899:Drivers/STM32F4xx_HAL_Driver/Src/stm32f4xx_hal_adc_ex.c ****       break;
 2412              		.loc 1 899 7
 2413 045c 3BE0     		b	.L121
 2414              	.L120:
 900:Drivers/STM32F4xx_HAL_Driver/Src/stm32f4xx_hal_adc_ex.c ****     case 2U:
 901:Drivers/STM32F4xx_HAL_Driver/Src/stm32f4xx_hal_adc_ex.c ****       /* Set injected channel 2 offset */
 902:Drivers/STM32F4xx_HAL_Driver/Src/stm32f4xx_hal_adc_ex.c ****       hadc->Instance->JOFR2 &= ~(ADC_JOFR2_JOFFSET2);
 2415              		.loc 1 902 11
 2416 045e 7B68     		ldr	r3, [r7, #4]
 2417 0460 1B68     		ldr	r3, [r3]
 2418              		.loc 1 902 29
 2419 0462 9B69     		ldr	r3, [r3, #24]
 2420              		.loc 1 902 11
 2421 0464 7A68     		ldr	r2, [r7, #4]
 2422 0466 1268     		ldr	r2, [r2]
 2423              		.loc 1 902 29
 2424 0468 23F47F63 		bic	r3, r3, #4080
 2425 046c 23F00F03 		bic	r3, r3, #15
 2426 0470 9361     		str	r3, [r2, #24]
 903:Drivers/STM32F4xx_HAL_Driver/Src/stm32f4xx_hal_adc_ex.c ****       hadc->Instance->JOFR2 |= sConfigInjected->InjectedOffset;
 2427              		.loc 1 903 11
 2428 0472 7B68     		ldr	r3, [r7, #4]
 2429 0474 1B68     		ldr	r3, [r3]
 2430              		.loc 1 903 29
 2431 0476 9969     		ldr	r1, [r3, #24]
 2432              		.loc 1 903 47
 2433 0478 3B68     		ldr	r3, [r7]
 2434 047a DA68     		ldr	r2, [r3, #12]
 2435              		.loc 1 903 11
 2436 047c 7B68     		ldr	r3, [r7, #4]
 2437 047e 1B68     		ldr	r3, [r3]
 2438              		.loc 1 903 29
 2439 0480 0A43     		orrs	r2, r2, r1
 2440 0482 9A61     		str	r2, [r3, #24]
 904:Drivers/STM32F4xx_HAL_Driver/Src/stm32f4xx_hal_adc_ex.c ****       break;
 2441              		.loc 1 904 7
 2442 0484 27E0     		b	.L121
 2443              	.L117:
 905:Drivers/STM32F4xx_HAL_Driver/Src/stm32f4xx_hal_adc_ex.c ****     case 3U:
 906:Drivers/STM32F4xx_HAL_Driver/Src/stm32f4xx_hal_adc_ex.c ****       /* Set injected channel 3 offset */
 907:Drivers/STM32F4xx_HAL_Driver/Src/stm32f4xx_hal_adc_ex.c ****       hadc->Instance->JOFR3 &= ~(ADC_JOFR3_JOFFSET3);
 2444              		.loc 1 907 11
 2445 0486 7B68     		ldr	r3, [r7, #4]
 2446 0488 1B68     		ldr	r3, [r3]
 2447              		.loc 1 907 29
 2448 048a DB69     		ldr	r3, [r3, #28]
 2449              		.loc 1 907 11
 2450 048c 7A68     		ldr	r2, [r7, #4]
 2451 048e 1268     		ldr	r2, [r2]
 2452              		.loc 1 907 29
 2453 0490 23F47F63 		bic	r3, r3, #4080
 2454 0494 23F00F03 		bic	r3, r3, #15
 2455 0498 D361     		str	r3, [r2, #28]
ARM GAS  /tmp/ccqnyf0j.s 			page 60


 908:Drivers/STM32F4xx_HAL_Driver/Src/stm32f4xx_hal_adc_ex.c ****       hadc->Instance->JOFR3 |= sConfigInjected->InjectedOffset;
 2456              		.loc 1 908 11
 2457 049a 7B68     		ldr	r3, [r7, #4]
 2458 049c 1B68     		ldr	r3, [r3]
 2459              		.loc 1 908 29
 2460 049e D969     		ldr	r1, [r3, #28]
 2461              		.loc 1 908 47
 2462 04a0 3B68     		ldr	r3, [r7]
 2463 04a2 DA68     		ldr	r2, [r3, #12]
 2464              		.loc 1 908 11
 2465 04a4 7B68     		ldr	r3, [r7, #4]
 2466 04a6 1B68     		ldr	r3, [r3]
 2467              		.loc 1 908 29
 2468 04a8 0A43     		orrs	r2, r2, r1
 2469 04aa DA61     		str	r2, [r3, #28]
 909:Drivers/STM32F4xx_HAL_Driver/Src/stm32f4xx_hal_adc_ex.c ****       break;
 2470              		.loc 1 909 7
 2471 04ac 13E0     		b	.L121
 2472              	.L118:
 910:Drivers/STM32F4xx_HAL_Driver/Src/stm32f4xx_hal_adc_ex.c ****     default:
 911:Drivers/STM32F4xx_HAL_Driver/Src/stm32f4xx_hal_adc_ex.c ****       /* Set injected channel 4 offset */
 912:Drivers/STM32F4xx_HAL_Driver/Src/stm32f4xx_hal_adc_ex.c ****       hadc->Instance->JOFR4 &= ~(ADC_JOFR4_JOFFSET4);
 2473              		.loc 1 912 11
 2474 04ae 7B68     		ldr	r3, [r7, #4]
 2475 04b0 1B68     		ldr	r3, [r3]
 2476              		.loc 1 912 29
 2477 04b2 1B6A     		ldr	r3, [r3, #32]
 2478              		.loc 1 912 11
 2479 04b4 7A68     		ldr	r2, [r7, #4]
 2480 04b6 1268     		ldr	r2, [r2]
 2481              		.loc 1 912 29
 2482 04b8 23F47F63 		bic	r3, r3, #4080
 2483 04bc 23F00F03 		bic	r3, r3, #15
 2484 04c0 1362     		str	r3, [r2, #32]
 913:Drivers/STM32F4xx_HAL_Driver/Src/stm32f4xx_hal_adc_ex.c ****       hadc->Instance->JOFR4 |= sConfigInjected->InjectedOffset;
 2485              		.loc 1 913 11
 2486 04c2 7B68     		ldr	r3, [r7, #4]
 2487 04c4 1B68     		ldr	r3, [r3]
 2488              		.loc 1 913 29
 2489 04c6 196A     		ldr	r1, [r3, #32]
 2490              		.loc 1 913 47
 2491 04c8 3B68     		ldr	r3, [r7]
 2492 04ca DA68     		ldr	r2, [r3, #12]
 2493              		.loc 1 913 11
 2494 04cc 7B68     		ldr	r3, [r7, #4]
 2495 04ce 1B68     		ldr	r3, [r3]
 2496              		.loc 1 913 29
 2497 04d0 0A43     		orrs	r2, r2, r1
 2498 04d2 1A62     		str	r2, [r3, #32]
 914:Drivers/STM32F4xx_HAL_Driver/Src/stm32f4xx_hal_adc_ex.c ****       break;
 2499              		.loc 1 914 7
 2500 04d4 00BF     		nop
 2501              	.L121:
 915:Drivers/STM32F4xx_HAL_Driver/Src/stm32f4xx_hal_adc_ex.c ****   }
 916:Drivers/STM32F4xx_HAL_Driver/Src/stm32f4xx_hal_adc_ex.c **** 
 917:Drivers/STM32F4xx_HAL_Driver/Src/stm32f4xx_hal_adc_ex.c ****   /* Pointer to the common control register to which is belonging hadc    */
 918:Drivers/STM32F4xx_HAL_Driver/Src/stm32f4xx_hal_adc_ex.c ****   /* (Depending on STM32F4 product, there may be up to 3 ADC and 1 common */
ARM GAS  /tmp/ccqnyf0j.s 			page 61


 919:Drivers/STM32F4xx_HAL_Driver/Src/stm32f4xx_hal_adc_ex.c ****   /* control register)                                                    */
 920:Drivers/STM32F4xx_HAL_Driver/Src/stm32f4xx_hal_adc_ex.c ****     tmpADC_Common = ADC_COMMON_REGISTER(hadc);
 2502              		.loc 1 920 19
 2503 04d6 174B     		ldr	r3, .L127+4
 2504 04d8 BB60     		str	r3, [r7, #8]
 921:Drivers/STM32F4xx_HAL_Driver/Src/stm32f4xx_hal_adc_ex.c **** 
 922:Drivers/STM32F4xx_HAL_Driver/Src/stm32f4xx_hal_adc_ex.c ****   /* if ADC1 Channel_18 is selected enable VBAT Channel */
 923:Drivers/STM32F4xx_HAL_Driver/Src/stm32f4xx_hal_adc_ex.c ****   if ((hadc->Instance == ADC1) && (sConfigInjected->InjectedChannel == ADC_CHANNEL_VBAT))
 2505              		.loc 1 923 12
 2506 04da 7B68     		ldr	r3, [r7, #4]
 2507 04dc 1B68     		ldr	r3, [r3]
 2508              		.loc 1 923 6
 2509 04de 164A     		ldr	r2, .L127+8
 2510 04e0 9342     		cmp	r3, r2
 2511 04e2 09D1     		bne	.L122
 2512              		.loc 1 923 51 discriminator 1
 2513 04e4 3B68     		ldr	r3, [r7]
 2514 04e6 1B68     		ldr	r3, [r3]
 2515              		.loc 1 923 32 discriminator 1
 2516 04e8 122B     		cmp	r3, #18
 2517 04ea 05D1     		bne	.L122
 924:Drivers/STM32F4xx_HAL_Driver/Src/stm32f4xx_hal_adc_ex.c ****   {
 925:Drivers/STM32F4xx_HAL_Driver/Src/stm32f4xx_hal_adc_ex.c ****     /* Enable the VBAT channel*/
 926:Drivers/STM32F4xx_HAL_Driver/Src/stm32f4xx_hal_adc_ex.c ****     tmpADC_Common->CCR |= ADC_CCR_VBATE;
 2518              		.loc 1 926 24
 2519 04ec BB68     		ldr	r3, [r7, #8]
 2520 04ee 5B68     		ldr	r3, [r3, #4]
 2521 04f0 43F48002 		orr	r2, r3, #4194304
 2522 04f4 BB68     		ldr	r3, [r7, #8]
 2523 04f6 5A60     		str	r2, [r3, #4]
 2524              	.L122:
 927:Drivers/STM32F4xx_HAL_Driver/Src/stm32f4xx_hal_adc_ex.c ****   }
 928:Drivers/STM32F4xx_HAL_Driver/Src/stm32f4xx_hal_adc_ex.c ****   
 929:Drivers/STM32F4xx_HAL_Driver/Src/stm32f4xx_hal_adc_ex.c ****   /* if ADC1 Channel_16 or Channel_17 is selected enable TSVREFE Channel(Temperature sensor and VRE
 930:Drivers/STM32F4xx_HAL_Driver/Src/stm32f4xx_hal_adc_ex.c ****   if ((hadc->Instance == ADC1) && ((sConfigInjected->InjectedChannel == ADC_CHANNEL_TEMPSENSOR) || 
 2525              		.loc 1 930 12
 2526 04f8 7B68     		ldr	r3, [r7, #4]
 2527 04fa 1B68     		ldr	r3, [r3]
 2528              		.loc 1 930 6
 2529 04fc 0E4A     		ldr	r2, .L127+8
 2530 04fe 9342     		cmp	r3, r2
 2531 0500 0DD1     		bne	.L123
 2532              		.loc 1 930 52 discriminator 1
 2533 0502 3B68     		ldr	r3, [r7]
 2534 0504 1B68     		ldr	r3, [r3]
 2535              		.loc 1 930 32 discriminator 1
 2536 0506 102B     		cmp	r3, #16
 2537 0508 03D0     		beq	.L124
 2538              		.loc 1 930 116 discriminator 2
 2539 050a 3B68     		ldr	r3, [r7]
 2540 050c 1B68     		ldr	r3, [r3]
 2541              		.loc 1 930 97 discriminator 2
 2542 050e 112B     		cmp	r3, #17
 2543 0510 05D1     		bne	.L123
 2544              	.L124:
 931:Drivers/STM32F4xx_HAL_Driver/Src/stm32f4xx_hal_adc_ex.c ****   {
 932:Drivers/STM32F4xx_HAL_Driver/Src/stm32f4xx_hal_adc_ex.c ****     /* Enable the TSVREFE channel*/
ARM GAS  /tmp/ccqnyf0j.s 			page 62


 933:Drivers/STM32F4xx_HAL_Driver/Src/stm32f4xx_hal_adc_ex.c ****     tmpADC_Common->CCR |= ADC_CCR_TSVREFE;
 2545              		.loc 1 933 24
 2546 0512 BB68     		ldr	r3, [r7, #8]
 2547 0514 5B68     		ldr	r3, [r3, #4]
 2548 0516 43F40002 		orr	r2, r3, #8388608
 2549 051a BB68     		ldr	r3, [r7, #8]
 2550 051c 5A60     		str	r2, [r3, #4]
 2551              	.L123:
 934:Drivers/STM32F4xx_HAL_Driver/Src/stm32f4xx_hal_adc_ex.c ****   }
 935:Drivers/STM32F4xx_HAL_Driver/Src/stm32f4xx_hal_adc_ex.c ****   
 936:Drivers/STM32F4xx_HAL_Driver/Src/stm32f4xx_hal_adc_ex.c ****   /* Process unlocked */
 937:Drivers/STM32F4xx_HAL_Driver/Src/stm32f4xx_hal_adc_ex.c ****   __HAL_UNLOCK(hadc);
 2552              		.loc 1 937 3
 2553 051e 7B68     		ldr	r3, [r7, #4]
 2554 0520 0022     		movs	r2, #0
 2555 0522 83F83C20 		strb	r2, [r3, #60]
 938:Drivers/STM32F4xx_HAL_Driver/Src/stm32f4xx_hal_adc_ex.c ****   
 939:Drivers/STM32F4xx_HAL_Driver/Src/stm32f4xx_hal_adc_ex.c ****   /* Return function status */
 940:Drivers/STM32F4xx_HAL_Driver/Src/stm32f4xx_hal_adc_ex.c ****   return HAL_OK;
 2556              		.loc 1 940 10
 2557 0526 0023     		movs	r3, #0
 2558              	.L108:
 941:Drivers/STM32F4xx_HAL_Driver/Src/stm32f4xx_hal_adc_ex.c **** }
 2559              		.loc 1 941 1
 2560 0528 1846     		mov	r0, r3
 2561 052a 1037     		adds	r7, r7, #16
 2562              	.LCFI57:
 2563              		.cfi_def_cfa_offset 8
 2564 052c BD46     		mov	sp, r7
 2565              	.LCFI58:
 2566              		.cfi_def_cfa_register 13
 2567              		@ sp needed
 2568 052e 80BD     		pop	{r7, pc}
 2569              	.L128:
 2570              		.align	2
 2571              	.L127:
 2572 0530 01000F00 		.word	983041
 2573 0534 00230140 		.word	1073816320
 2574 0538 00200140 		.word	1073815552
 2575              		.cfi_endproc
 2576              	.LFE140:
 2578              		.section	.text.HAL_ADCEx_MultiModeConfigChannel,"ax",%progbits
 2579              		.align	1
 2580              		.global	HAL_ADCEx_MultiModeConfigChannel
 2581              		.syntax unified
 2582              		.thumb
 2583              		.thumb_func
 2584              		.fpu fpv4-sp-d16
 2586              	HAL_ADCEx_MultiModeConfigChannel:
 2587              	.LFB141:
 942:Drivers/STM32F4xx_HAL_Driver/Src/stm32f4xx_hal_adc_ex.c **** 
 943:Drivers/STM32F4xx_HAL_Driver/Src/stm32f4xx_hal_adc_ex.c **** /**
 944:Drivers/STM32F4xx_HAL_Driver/Src/stm32f4xx_hal_adc_ex.c ****   * @brief  Configures the ADC multi-mode 
 945:Drivers/STM32F4xx_HAL_Driver/Src/stm32f4xx_hal_adc_ex.c ****   * @param  hadc       pointer to a ADC_HandleTypeDef structure that contains
 946:Drivers/STM32F4xx_HAL_Driver/Src/stm32f4xx_hal_adc_ex.c ****   *                     the configuration information for the specified ADC.  
 947:Drivers/STM32F4xx_HAL_Driver/Src/stm32f4xx_hal_adc_ex.c ****   * @param  multimode  pointer to an ADC_MultiModeTypeDef structure that contains 
 948:Drivers/STM32F4xx_HAL_Driver/Src/stm32f4xx_hal_adc_ex.c ****   *                     the configuration information for  multimode.
ARM GAS  /tmp/ccqnyf0j.s 			page 63


 949:Drivers/STM32F4xx_HAL_Driver/Src/stm32f4xx_hal_adc_ex.c ****   * @retval HAL status
 950:Drivers/STM32F4xx_HAL_Driver/Src/stm32f4xx_hal_adc_ex.c ****   */
 951:Drivers/STM32F4xx_HAL_Driver/Src/stm32f4xx_hal_adc_ex.c **** HAL_StatusTypeDef HAL_ADCEx_MultiModeConfigChannel(ADC_HandleTypeDef* hadc, ADC_MultiModeTypeDef* m
 952:Drivers/STM32F4xx_HAL_Driver/Src/stm32f4xx_hal_adc_ex.c **** {
 2588              		.loc 1 952 1
 2589              		.cfi_startproc
 2590              		@ args = 0, pretend = 0, frame = 16
 2591              		@ frame_needed = 1, uses_anonymous_args = 0
 2592 0000 80B5     		push	{r7, lr}
 2593              	.LCFI59:
 2594              		.cfi_def_cfa_offset 8
 2595              		.cfi_offset 7, -8
 2596              		.cfi_offset 14, -4
 2597 0002 84B0     		sub	sp, sp, #16
 2598              	.LCFI60:
 2599              		.cfi_def_cfa_offset 24
 2600 0004 00AF     		add	r7, sp, #0
 2601              	.LCFI61:
 2602              		.cfi_def_cfa_register 7
 2603 0006 7860     		str	r0, [r7, #4]
 2604 0008 3960     		str	r1, [r7]
 953:Drivers/STM32F4xx_HAL_Driver/Src/stm32f4xx_hal_adc_ex.c **** 
 954:Drivers/STM32F4xx_HAL_Driver/Src/stm32f4xx_hal_adc_ex.c ****   ADC_Common_TypeDef *tmpADC_Common;
 955:Drivers/STM32F4xx_HAL_Driver/Src/stm32f4xx_hal_adc_ex.c **** 
 956:Drivers/STM32F4xx_HAL_Driver/Src/stm32f4xx_hal_adc_ex.c ****   /* Check the parameters */
 957:Drivers/STM32F4xx_HAL_Driver/Src/stm32f4xx_hal_adc_ex.c ****   assert_param(IS_ADC_MODE(multimode->Mode));
 2605              		.loc 1 957 3
 2606 000a 3B68     		ldr	r3, [r7]
 2607 000c 1B68     		ldr	r3, [r3]
 2608 000e 002B     		cmp	r3, #0
 2609 0010 34D0     		beq	.L130
 2610              		.loc 1 957 3 is_stmt 0 discriminator 1
 2611 0012 3B68     		ldr	r3, [r7]
 2612 0014 1B68     		ldr	r3, [r3]
 2613 0016 012B     		cmp	r3, #1
 2614 0018 30D0     		beq	.L130
 2615              		.loc 1 957 3 discriminator 2
 2616 001a 3B68     		ldr	r3, [r7]
 2617 001c 1B68     		ldr	r3, [r3]
 2618 001e 022B     		cmp	r3, #2
 2619 0020 2CD0     		beq	.L130
 2620              		.loc 1 957 3 discriminator 3
 2621 0022 3B68     		ldr	r3, [r7]
 2622 0024 1B68     		ldr	r3, [r3]
 2623 0026 052B     		cmp	r3, #5
 2624 0028 28D0     		beq	.L130
 2625              		.loc 1 957 3 discriminator 4
 2626 002a 3B68     		ldr	r3, [r7]
 2627 002c 1B68     		ldr	r3, [r3]
 2628 002e 062B     		cmp	r3, #6
 2629 0030 24D0     		beq	.L130
 2630              		.loc 1 957 3 discriminator 5
 2631 0032 3B68     		ldr	r3, [r7]
 2632 0034 1B68     		ldr	r3, [r3]
 2633 0036 072B     		cmp	r3, #7
 2634 0038 20D0     		beq	.L130
 2635              		.loc 1 957 3 discriminator 6
ARM GAS  /tmp/ccqnyf0j.s 			page 64


 2636 003a 3B68     		ldr	r3, [r7]
 2637 003c 1B68     		ldr	r3, [r3]
 2638 003e 092B     		cmp	r3, #9
 2639 0040 1CD0     		beq	.L130
 2640              		.loc 1 957 3 discriminator 7
 2641 0042 3B68     		ldr	r3, [r7]
 2642 0044 1B68     		ldr	r3, [r3]
 2643 0046 112B     		cmp	r3, #17
 2644 0048 18D0     		beq	.L130
 2645              		.loc 1 957 3 discriminator 8
 2646 004a 3B68     		ldr	r3, [r7]
 2647 004c 1B68     		ldr	r3, [r3]
 2648 004e 122B     		cmp	r3, #18
 2649 0050 14D0     		beq	.L130
 2650              		.loc 1 957 3 discriminator 9
 2651 0052 3B68     		ldr	r3, [r7]
 2652 0054 1B68     		ldr	r3, [r3]
 2653 0056 152B     		cmp	r3, #21
 2654 0058 10D0     		beq	.L130
 2655              		.loc 1 957 3 discriminator 10
 2656 005a 3B68     		ldr	r3, [r7]
 2657 005c 1B68     		ldr	r3, [r3]
 2658 005e 162B     		cmp	r3, #22
 2659 0060 0CD0     		beq	.L130
 2660              		.loc 1 957 3 discriminator 11
 2661 0062 3B68     		ldr	r3, [r7]
 2662 0064 1B68     		ldr	r3, [r3]
 2663 0066 172B     		cmp	r3, #23
 2664 0068 08D0     		beq	.L130
 2665              		.loc 1 957 3 discriminator 12
 2666 006a 3B68     		ldr	r3, [r7]
 2667 006c 1B68     		ldr	r3, [r3]
 2668 006e 192B     		cmp	r3, #25
 2669 0070 04D0     		beq	.L130
 2670              		.loc 1 957 3 discriminator 13
 2671 0072 40F2BD31 		movw	r1, #957
 2672 0076 5648     		ldr	r0, .L135
 2673 0078 FFF7FEFF 		bl	assert_failed
 2674              	.L130:
 958:Drivers/STM32F4xx_HAL_Driver/Src/stm32f4xx_hal_adc_ex.c ****   assert_param(IS_ADC_DMA_ACCESS_MODE(multimode->DMAAccessMode));
 2675              		.loc 1 958 3 is_stmt 1
 2676 007c 3B68     		ldr	r3, [r7]
 2677 007e 5B68     		ldr	r3, [r3, #4]
 2678 0080 002B     		cmp	r3, #0
 2679 0082 13D0     		beq	.L131
 2680              		.loc 1 958 3 is_stmt 0 discriminator 1
 2681 0084 3B68     		ldr	r3, [r7]
 2682 0086 5B68     		ldr	r3, [r3, #4]
 2683 0088 B3F5804F 		cmp	r3, #16384
 2684 008c 0ED0     		beq	.L131
 2685              		.loc 1 958 3 discriminator 2
 2686 008e 3B68     		ldr	r3, [r7]
 2687 0090 5B68     		ldr	r3, [r3, #4]
 2688 0092 B3F5004F 		cmp	r3, #32768
 2689 0096 09D0     		beq	.L131
 2690              		.loc 1 958 3 discriminator 3
 2691 0098 3B68     		ldr	r3, [r7]
ARM GAS  /tmp/ccqnyf0j.s 			page 65


 2692 009a 5B68     		ldr	r3, [r3, #4]
 2693 009c B3F5404F 		cmp	r3, #49152
 2694 00a0 04D0     		beq	.L131
 2695              		.loc 1 958 3 discriminator 4
 2696 00a2 40F2BE31 		movw	r1, #958
 2697 00a6 4A48     		ldr	r0, .L135
 2698 00a8 FFF7FEFF 		bl	assert_failed
 2699              	.L131:
 959:Drivers/STM32F4xx_HAL_Driver/Src/stm32f4xx_hal_adc_ex.c ****   assert_param(IS_ADC_SAMPLING_DELAY(multimode->TwoSamplingDelay));
 2700              		.loc 1 959 3 is_stmt 1
 2701 00ac 3B68     		ldr	r3, [r7]
 2702 00ae 9B68     		ldr	r3, [r3, #8]
 2703 00b0 002B     		cmp	r3, #0
 2704 00b2 4FD0     		beq	.L132
 2705              		.loc 1 959 3 is_stmt 0 discriminator 1
 2706 00b4 3B68     		ldr	r3, [r7]
 2707 00b6 9B68     		ldr	r3, [r3, #8]
 2708 00b8 B3F5807F 		cmp	r3, #256
 2709 00bc 4AD0     		beq	.L132
 2710              		.loc 1 959 3 discriminator 2
 2711 00be 3B68     		ldr	r3, [r7]
 2712 00c0 9B68     		ldr	r3, [r3, #8]
 2713 00c2 B3F5007F 		cmp	r3, #512
 2714 00c6 45D0     		beq	.L132
 2715              		.loc 1 959 3 discriminator 3
 2716 00c8 3B68     		ldr	r3, [r7]
 2717 00ca 9B68     		ldr	r3, [r3, #8]
 2718 00cc B3F5407F 		cmp	r3, #768
 2719 00d0 40D0     		beq	.L132
 2720              		.loc 1 959 3 discriminator 4
 2721 00d2 3B68     		ldr	r3, [r7]
 2722 00d4 9B68     		ldr	r3, [r3, #8]
 2723 00d6 B3F5806F 		cmp	r3, #1024
 2724 00da 3BD0     		beq	.L132
 2725              		.loc 1 959 3 discriminator 5
 2726 00dc 3B68     		ldr	r3, [r7]
 2727 00de 9B68     		ldr	r3, [r3, #8]
 2728 00e0 B3F5A06F 		cmp	r3, #1280
 2729 00e4 36D0     		beq	.L132
 2730              		.loc 1 959 3 discriminator 6
 2731 00e6 3B68     		ldr	r3, [r7]
 2732 00e8 9B68     		ldr	r3, [r3, #8]
 2733 00ea B3F5C06F 		cmp	r3, #1536
 2734 00ee 31D0     		beq	.L132
 2735              		.loc 1 959 3 discriminator 7
 2736 00f0 3B68     		ldr	r3, [r7]
 2737 00f2 9B68     		ldr	r3, [r3, #8]
 2738 00f4 B3F5E06F 		cmp	r3, #1792
 2739 00f8 2CD0     		beq	.L132
 2740              		.loc 1 959 3 discriminator 8
 2741 00fa 3B68     		ldr	r3, [r7]
 2742 00fc 9B68     		ldr	r3, [r3, #8]
 2743 00fe B3F5006F 		cmp	r3, #2048
 2744 0102 27D0     		beq	.L132
 2745              		.loc 1 959 3 discriminator 9
 2746 0104 3B68     		ldr	r3, [r7]
 2747 0106 9B68     		ldr	r3, [r3, #8]
ARM GAS  /tmp/ccqnyf0j.s 			page 66


 2748 0108 B3F5106F 		cmp	r3, #2304
 2749 010c 22D0     		beq	.L132
 2750              		.loc 1 959 3 discriminator 10
 2751 010e 3B68     		ldr	r3, [r7]
 2752 0110 9B68     		ldr	r3, [r3, #8]
 2753 0112 B3F5206F 		cmp	r3, #2560
 2754 0116 1DD0     		beq	.L132
 2755              		.loc 1 959 3 discriminator 11
 2756 0118 3B68     		ldr	r3, [r7]
 2757 011a 9B68     		ldr	r3, [r3, #8]
 2758 011c B3F5306F 		cmp	r3, #2816
 2759 0120 18D0     		beq	.L132
 2760              		.loc 1 959 3 discriminator 12
 2761 0122 3B68     		ldr	r3, [r7]
 2762 0124 9B68     		ldr	r3, [r3, #8]
 2763 0126 B3F5406F 		cmp	r3, #3072
 2764 012a 13D0     		beq	.L132
 2765              		.loc 1 959 3 discriminator 13
 2766 012c 3B68     		ldr	r3, [r7]
 2767 012e 9B68     		ldr	r3, [r3, #8]
 2768 0130 B3F5506F 		cmp	r3, #3328
 2769 0134 0ED0     		beq	.L132
 2770              		.loc 1 959 3 discriminator 14
 2771 0136 3B68     		ldr	r3, [r7]
 2772 0138 9B68     		ldr	r3, [r3, #8]
 2773 013a B3F5606F 		cmp	r3, #3584
 2774 013e 09D0     		beq	.L132
 2775              		.loc 1 959 3 discriminator 15
 2776 0140 3B68     		ldr	r3, [r7]
 2777 0142 9B68     		ldr	r3, [r3, #8]
 2778 0144 B3F5706F 		cmp	r3, #3840
 2779 0148 04D0     		beq	.L132
 2780              		.loc 1 959 3 discriminator 16
 2781 014a 40F2BF31 		movw	r1, #959
 2782 014e 2048     		ldr	r0, .L135
 2783 0150 FFF7FEFF 		bl	assert_failed
 2784              	.L132:
 960:Drivers/STM32F4xx_HAL_Driver/Src/stm32f4xx_hal_adc_ex.c ****   
 961:Drivers/STM32F4xx_HAL_Driver/Src/stm32f4xx_hal_adc_ex.c ****   /* Process locked */
 962:Drivers/STM32F4xx_HAL_Driver/Src/stm32f4xx_hal_adc_ex.c ****   __HAL_LOCK(hadc);
 2785              		.loc 1 962 3 is_stmt 1
 2786 0154 7B68     		ldr	r3, [r7, #4]
 2787 0156 93F83C30 		ldrb	r3, [r3, #60]	@ zero_extendqisi2
 2788 015a 012B     		cmp	r3, #1
 2789 015c 01D1     		bne	.L133
 2790              		.loc 1 962 3 is_stmt 0 discriminator 1
 2791 015e 0223     		movs	r3, #2
 2792 0160 31E0     		b	.L134
 2793              	.L133:
 2794              		.loc 1 962 3 discriminator 2
 2795 0162 7B68     		ldr	r3, [r7, #4]
 2796 0164 0122     		movs	r2, #1
 2797 0166 83F83C20 		strb	r2, [r3, #60]
 963:Drivers/STM32F4xx_HAL_Driver/Src/stm32f4xx_hal_adc_ex.c **** 
 964:Drivers/STM32F4xx_HAL_Driver/Src/stm32f4xx_hal_adc_ex.c ****   /* Pointer to the common control register to which is belonging hadc    */
 965:Drivers/STM32F4xx_HAL_Driver/Src/stm32f4xx_hal_adc_ex.c ****   /* (Depending on STM32F4 product, there may be up to 3 ADC and 1 common */
 966:Drivers/STM32F4xx_HAL_Driver/Src/stm32f4xx_hal_adc_ex.c ****   /* control register)                                                    */
ARM GAS  /tmp/ccqnyf0j.s 			page 67


 967:Drivers/STM32F4xx_HAL_Driver/Src/stm32f4xx_hal_adc_ex.c ****   tmpADC_Common = ADC_COMMON_REGISTER(hadc);
 2798              		.loc 1 967 17 is_stmt 1 discriminator 2
 2799 016a 1A4B     		ldr	r3, .L135+4
 2800 016c FB60     		str	r3, [r7, #12]
 968:Drivers/STM32F4xx_HAL_Driver/Src/stm32f4xx_hal_adc_ex.c **** 
 969:Drivers/STM32F4xx_HAL_Driver/Src/stm32f4xx_hal_adc_ex.c ****   /* Set ADC mode */
 970:Drivers/STM32F4xx_HAL_Driver/Src/stm32f4xx_hal_adc_ex.c ****   tmpADC_Common->CCR &= ~(ADC_CCR_MULTI);
 2801              		.loc 1 970 22 discriminator 2
 2802 016e FB68     		ldr	r3, [r7, #12]
 2803 0170 5B68     		ldr	r3, [r3, #4]
 2804 0172 23F01F02 		bic	r2, r3, #31
 2805 0176 FB68     		ldr	r3, [r7, #12]
 2806 0178 5A60     		str	r2, [r3, #4]
 971:Drivers/STM32F4xx_HAL_Driver/Src/stm32f4xx_hal_adc_ex.c ****   tmpADC_Common->CCR |= multimode->Mode;
 2807              		.loc 1 971 22 discriminator 2
 2808 017a FB68     		ldr	r3, [r7, #12]
 2809 017c 5A68     		ldr	r2, [r3, #4]
 2810              		.loc 1 971 34 discriminator 2
 2811 017e 3B68     		ldr	r3, [r7]
 2812 0180 1B68     		ldr	r3, [r3]
 2813              		.loc 1 971 22 discriminator 2
 2814 0182 1A43     		orrs	r2, r2, r3
 2815 0184 FB68     		ldr	r3, [r7, #12]
 2816 0186 5A60     		str	r2, [r3, #4]
 972:Drivers/STM32F4xx_HAL_Driver/Src/stm32f4xx_hal_adc_ex.c ****   
 973:Drivers/STM32F4xx_HAL_Driver/Src/stm32f4xx_hal_adc_ex.c ****   /* Set the ADC DMA access mode */
 974:Drivers/STM32F4xx_HAL_Driver/Src/stm32f4xx_hal_adc_ex.c ****   tmpADC_Common->CCR &= ~(ADC_CCR_DMA);
 2817              		.loc 1 974 22 discriminator 2
 2818 0188 FB68     		ldr	r3, [r7, #12]
 2819 018a 5B68     		ldr	r3, [r3, #4]
 2820 018c 23F44042 		bic	r2, r3, #49152
 2821 0190 FB68     		ldr	r3, [r7, #12]
 2822 0192 5A60     		str	r2, [r3, #4]
 975:Drivers/STM32F4xx_HAL_Driver/Src/stm32f4xx_hal_adc_ex.c ****   tmpADC_Common->CCR |= multimode->DMAAccessMode;
 2823              		.loc 1 975 22 discriminator 2
 2824 0194 FB68     		ldr	r3, [r7, #12]
 2825 0196 5A68     		ldr	r2, [r3, #4]
 2826              		.loc 1 975 34 discriminator 2
 2827 0198 3B68     		ldr	r3, [r7]
 2828 019a 5B68     		ldr	r3, [r3, #4]
 2829              		.loc 1 975 22 discriminator 2
 2830 019c 1A43     		orrs	r2, r2, r3
 2831 019e FB68     		ldr	r3, [r7, #12]
 2832 01a0 5A60     		str	r2, [r3, #4]
 976:Drivers/STM32F4xx_HAL_Driver/Src/stm32f4xx_hal_adc_ex.c ****   
 977:Drivers/STM32F4xx_HAL_Driver/Src/stm32f4xx_hal_adc_ex.c ****   /* Set delay between two sampling phases */
 978:Drivers/STM32F4xx_HAL_Driver/Src/stm32f4xx_hal_adc_ex.c ****   tmpADC_Common->CCR &= ~(ADC_CCR_DELAY);
 2833              		.loc 1 978 22 discriminator 2
 2834 01a2 FB68     		ldr	r3, [r7, #12]
 2835 01a4 5B68     		ldr	r3, [r3, #4]
 2836 01a6 23F47062 		bic	r2, r3, #3840
 2837 01aa FB68     		ldr	r3, [r7, #12]
 2838 01ac 5A60     		str	r2, [r3, #4]
 979:Drivers/STM32F4xx_HAL_Driver/Src/stm32f4xx_hal_adc_ex.c ****   tmpADC_Common->CCR |= multimode->TwoSamplingDelay;
 2839              		.loc 1 979 22 discriminator 2
 2840 01ae FB68     		ldr	r3, [r7, #12]
 2841 01b0 5A68     		ldr	r2, [r3, #4]
ARM GAS  /tmp/ccqnyf0j.s 			page 68


 2842              		.loc 1 979 34 discriminator 2
 2843 01b2 3B68     		ldr	r3, [r7]
 2844 01b4 9B68     		ldr	r3, [r3, #8]
 2845              		.loc 1 979 22 discriminator 2
 2846 01b6 1A43     		orrs	r2, r2, r3
 2847 01b8 FB68     		ldr	r3, [r7, #12]
 2848 01ba 5A60     		str	r2, [r3, #4]
 980:Drivers/STM32F4xx_HAL_Driver/Src/stm32f4xx_hal_adc_ex.c ****   
 981:Drivers/STM32F4xx_HAL_Driver/Src/stm32f4xx_hal_adc_ex.c ****   /* Process unlocked */
 982:Drivers/STM32F4xx_HAL_Driver/Src/stm32f4xx_hal_adc_ex.c ****   __HAL_UNLOCK(hadc);
 2849              		.loc 1 982 3 discriminator 2
 2850 01bc 7B68     		ldr	r3, [r7, #4]
 2851 01be 0022     		movs	r2, #0
 2852 01c0 83F83C20 		strb	r2, [r3, #60]
 983:Drivers/STM32F4xx_HAL_Driver/Src/stm32f4xx_hal_adc_ex.c ****   
 984:Drivers/STM32F4xx_HAL_Driver/Src/stm32f4xx_hal_adc_ex.c ****   /* Return function status */
 985:Drivers/STM32F4xx_HAL_Driver/Src/stm32f4xx_hal_adc_ex.c ****   return HAL_OK;
 2853              		.loc 1 985 10 discriminator 2
 2854 01c4 0023     		movs	r3, #0
 2855              	.L134:
 986:Drivers/STM32F4xx_HAL_Driver/Src/stm32f4xx_hal_adc_ex.c **** }
 2856              		.loc 1 986 1
 2857 01c6 1846     		mov	r0, r3
 2858 01c8 1037     		adds	r7, r7, #16
 2859              	.LCFI62:
 2860              		.cfi_def_cfa_offset 8
 2861 01ca BD46     		mov	sp, r7
 2862              	.LCFI63:
 2863              		.cfi_def_cfa_register 13
 2864              		@ sp needed
 2865 01cc 80BD     		pop	{r7, pc}
 2866              	.L136:
 2867 01ce 00BF     		.align	2
 2868              	.L135:
 2869 01d0 00000000 		.word	.LC0
 2870 01d4 00230140 		.word	1073816320
 2871              		.cfi_endproc
 2872              	.LFE141:
 2874              		.section	.text.ADC_MultiModeDMAConvCplt,"ax",%progbits
 2875              		.align	1
 2876              		.syntax unified
 2877              		.thumb
 2878              		.thumb_func
 2879              		.fpu fpv4-sp-d16
 2881              	ADC_MultiModeDMAConvCplt:
 2882              	.LFB142:
 987:Drivers/STM32F4xx_HAL_Driver/Src/stm32f4xx_hal_adc_ex.c **** 
 988:Drivers/STM32F4xx_HAL_Driver/Src/stm32f4xx_hal_adc_ex.c **** /**
 989:Drivers/STM32F4xx_HAL_Driver/Src/stm32f4xx_hal_adc_ex.c ****   * @}
 990:Drivers/STM32F4xx_HAL_Driver/Src/stm32f4xx_hal_adc_ex.c ****   */
 991:Drivers/STM32F4xx_HAL_Driver/Src/stm32f4xx_hal_adc_ex.c **** 
 992:Drivers/STM32F4xx_HAL_Driver/Src/stm32f4xx_hal_adc_ex.c **** /**
 993:Drivers/STM32F4xx_HAL_Driver/Src/stm32f4xx_hal_adc_ex.c ****   * @brief  DMA transfer complete callback. 
 994:Drivers/STM32F4xx_HAL_Driver/Src/stm32f4xx_hal_adc_ex.c ****   * @param  hdma pointer to a DMA_HandleTypeDef structure that contains
 995:Drivers/STM32F4xx_HAL_Driver/Src/stm32f4xx_hal_adc_ex.c ****   *                the configuration information for the specified DMA module.
 996:Drivers/STM32F4xx_HAL_Driver/Src/stm32f4xx_hal_adc_ex.c ****   * @retval None
 997:Drivers/STM32F4xx_HAL_Driver/Src/stm32f4xx_hal_adc_ex.c ****   */
ARM GAS  /tmp/ccqnyf0j.s 			page 69


 998:Drivers/STM32F4xx_HAL_Driver/Src/stm32f4xx_hal_adc_ex.c **** static void ADC_MultiModeDMAConvCplt(DMA_HandleTypeDef *hdma)   
 999:Drivers/STM32F4xx_HAL_Driver/Src/stm32f4xx_hal_adc_ex.c **** {
 2883              		.loc 1 999 1
 2884              		.cfi_startproc
 2885              		@ args = 0, pretend = 0, frame = 16
 2886              		@ frame_needed = 1, uses_anonymous_args = 0
 2887 0000 80B5     		push	{r7, lr}
 2888              	.LCFI64:
 2889              		.cfi_def_cfa_offset 8
 2890              		.cfi_offset 7, -8
 2891              		.cfi_offset 14, -4
 2892 0002 84B0     		sub	sp, sp, #16
 2893              	.LCFI65:
 2894              		.cfi_def_cfa_offset 24
 2895 0004 00AF     		add	r7, sp, #0
 2896              	.LCFI66:
 2897              		.cfi_def_cfa_register 7
 2898 0006 7860     		str	r0, [r7, #4]
1000:Drivers/STM32F4xx_HAL_Driver/Src/stm32f4xx_hal_adc_ex.c ****   /* Retrieve ADC handle corresponding to current DMA handle */
1001:Drivers/STM32F4xx_HAL_Driver/Src/stm32f4xx_hal_adc_ex.c ****   ADC_HandleTypeDef* hadc = ( ADC_HandleTypeDef* )((DMA_HandleTypeDef* )hdma)->Parent;
 2899              		.loc 1 1001 22
 2900 0008 7B68     		ldr	r3, [r7, #4]
 2901 000a 9B6B     		ldr	r3, [r3, #56]
 2902 000c FB60     		str	r3, [r7, #12]
1002:Drivers/STM32F4xx_HAL_Driver/Src/stm32f4xx_hal_adc_ex.c ****   
1003:Drivers/STM32F4xx_HAL_Driver/Src/stm32f4xx_hal_adc_ex.c ****   /* Update state machine on conversion status if not in error state */
1004:Drivers/STM32F4xx_HAL_Driver/Src/stm32f4xx_hal_adc_ex.c ****   if (HAL_IS_BIT_CLR(hadc->State, HAL_ADC_STATE_ERROR_INTERNAL | HAL_ADC_STATE_ERROR_DMA))
 2903              		.loc 1 1004 7
 2904 000e FB68     		ldr	r3, [r7, #12]
 2905 0010 1B6C     		ldr	r3, [r3, #64]
 2906 0012 03F05003 		and	r3, r3, #80
 2907              		.loc 1 1004 6
 2908 0016 002B     		cmp	r3, #0
 2909 0018 3CD1     		bne	.L138
1005:Drivers/STM32F4xx_HAL_Driver/Src/stm32f4xx_hal_adc_ex.c ****   {
1006:Drivers/STM32F4xx_HAL_Driver/Src/stm32f4xx_hal_adc_ex.c ****     /* Update ADC state machine */
1007:Drivers/STM32F4xx_HAL_Driver/Src/stm32f4xx_hal_adc_ex.c ****     SET_BIT(hadc->State, HAL_ADC_STATE_REG_EOC);
 2910              		.loc 1 1007 5
 2911 001a FB68     		ldr	r3, [r7, #12]
 2912 001c 1B6C     		ldr	r3, [r3, #64]
 2913 001e 43F40072 		orr	r2, r3, #512
 2914 0022 FB68     		ldr	r3, [r7, #12]
 2915 0024 1A64     		str	r2, [r3, #64]
1008:Drivers/STM32F4xx_HAL_Driver/Src/stm32f4xx_hal_adc_ex.c ****     
1009:Drivers/STM32F4xx_HAL_Driver/Src/stm32f4xx_hal_adc_ex.c ****     /* Determine whether any further conversion upcoming on group regular   */
1010:Drivers/STM32F4xx_HAL_Driver/Src/stm32f4xx_hal_adc_ex.c ****     /* by external trigger, continuous mode or scan sequence on going.      */
1011:Drivers/STM32F4xx_HAL_Driver/Src/stm32f4xx_hal_adc_ex.c ****     /* Note: On STM32F4, there is no independent flag of end of sequence.   */
1012:Drivers/STM32F4xx_HAL_Driver/Src/stm32f4xx_hal_adc_ex.c ****     /*       The test of scan sequence on going is done either with scan    */
1013:Drivers/STM32F4xx_HAL_Driver/Src/stm32f4xx_hal_adc_ex.c ****     /*       sequence disabled or with end of conversion flag set to        */
1014:Drivers/STM32F4xx_HAL_Driver/Src/stm32f4xx_hal_adc_ex.c ****     /*       of end of sequence.                                            */
1015:Drivers/STM32F4xx_HAL_Driver/Src/stm32f4xx_hal_adc_ex.c ****     if(ADC_IS_SOFTWARE_START_REGULAR(hadc)                   &&
 2916              		.loc 1 1015 8
 2917 0026 FB68     		ldr	r3, [r7, #12]
 2918 0028 1B68     		ldr	r3, [r3]
 2919 002a 9B68     		ldr	r3, [r3, #8]
 2920 002c 03F04053 		and	r3, r3, #805306368
 2921              		.loc 1 1015 7
ARM GAS  /tmp/ccqnyf0j.s 			page 70


 2922 0030 002B     		cmp	r3, #0
 2923 0032 2BD1     		bne	.L139
1016:Drivers/STM32F4xx_HAL_Driver/Src/stm32f4xx_hal_adc_ex.c ****        (hadc->Init.ContinuousConvMode == DISABLE)            &&
 2924              		.loc 1 1016 19 discriminator 1
 2925 0034 FB68     		ldr	r3, [r7, #12]
 2926 0036 1B7E     		ldrb	r3, [r3, #24]	@ zero_extendqisi2
1015:Drivers/STM32F4xx_HAL_Driver/Src/stm32f4xx_hal_adc_ex.c ****        (hadc->Init.ContinuousConvMode == DISABLE)            &&
 2927              		.loc 1 1015 62 discriminator 1
 2928 0038 002B     		cmp	r3, #0
 2929 003a 27D1     		bne	.L139
1017:Drivers/STM32F4xx_HAL_Driver/Src/stm32f4xx_hal_adc_ex.c ****        (HAL_IS_BIT_CLR(hadc->Instance->SQR1, ADC_SQR1_L) || 
 2930              		.loc 1 1017 9
 2931 003c FB68     		ldr	r3, [r7, #12]
 2932 003e 1B68     		ldr	r3, [r3]
 2933 0040 DB6A     		ldr	r3, [r3, #44]
 2934 0042 03F47003 		and	r3, r3, #15728640
1016:Drivers/STM32F4xx_HAL_Driver/Src/stm32f4xx_hal_adc_ex.c ****        (hadc->Init.ContinuousConvMode == DISABLE)            &&
 2935              		.loc 1 1016 62
 2936 0046 002B     		cmp	r3, #0
 2937 0048 06D0     		beq	.L140
1018:Drivers/STM32F4xx_HAL_Driver/Src/stm32f4xx_hal_adc_ex.c ****         HAL_IS_BIT_CLR(hadc->Instance->CR2, ADC_CR2_EOCS)  )   )
 2938              		.loc 1 1018 9
 2939 004a FB68     		ldr	r3, [r7, #12]
 2940 004c 1B68     		ldr	r3, [r3]
 2941 004e 9B68     		ldr	r3, [r3, #8]
 2942 0050 03F48063 		and	r3, r3, #1024
1017:Drivers/STM32F4xx_HAL_Driver/Src/stm32f4xx_hal_adc_ex.c ****        (HAL_IS_BIT_CLR(hadc->Instance->SQR1, ADC_SQR1_L) || 
 2943              		.loc 1 1017 58
 2944 0054 002B     		cmp	r3, #0
 2945 0056 19D1     		bne	.L139
 2946              	.L140:
1019:Drivers/STM32F4xx_HAL_Driver/Src/stm32f4xx_hal_adc_ex.c ****     {
1020:Drivers/STM32F4xx_HAL_Driver/Src/stm32f4xx_hal_adc_ex.c ****       /* Disable ADC end of single conversion interrupt on group regular */
1021:Drivers/STM32F4xx_HAL_Driver/Src/stm32f4xx_hal_adc_ex.c ****       /* Note: Overrun interrupt was enabled with EOC interrupt in          */
1022:Drivers/STM32F4xx_HAL_Driver/Src/stm32f4xx_hal_adc_ex.c ****       /* HAL_ADC_Start_IT(), but is not disabled here because can be used   */
1023:Drivers/STM32F4xx_HAL_Driver/Src/stm32f4xx_hal_adc_ex.c ****       /* by overrun IRQ process below.                                      */
1024:Drivers/STM32F4xx_HAL_Driver/Src/stm32f4xx_hal_adc_ex.c ****       __HAL_ADC_DISABLE_IT(hadc, ADC_IT_EOC);
 2947              		.loc 1 1024 7
 2948 0058 FB68     		ldr	r3, [r7, #12]
 2949 005a 1B68     		ldr	r3, [r3]
 2950 005c 5A68     		ldr	r2, [r3, #4]
 2951 005e FB68     		ldr	r3, [r7, #12]
 2952 0060 1B68     		ldr	r3, [r3]
 2953 0062 22F02002 		bic	r2, r2, #32
 2954 0066 5A60     		str	r2, [r3, #4]
1025:Drivers/STM32F4xx_HAL_Driver/Src/stm32f4xx_hal_adc_ex.c ****       
1026:Drivers/STM32F4xx_HAL_Driver/Src/stm32f4xx_hal_adc_ex.c ****       /* Set ADC state */
1027:Drivers/STM32F4xx_HAL_Driver/Src/stm32f4xx_hal_adc_ex.c ****       CLEAR_BIT(hadc->State, HAL_ADC_STATE_REG_BUSY);   
 2955              		.loc 1 1027 7
 2956 0068 FB68     		ldr	r3, [r7, #12]
 2957 006a 1B6C     		ldr	r3, [r3, #64]
 2958 006c 23F48072 		bic	r2, r3, #256
 2959 0070 FB68     		ldr	r3, [r7, #12]
 2960 0072 1A64     		str	r2, [r3, #64]
1028:Drivers/STM32F4xx_HAL_Driver/Src/stm32f4xx_hal_adc_ex.c ****       
1029:Drivers/STM32F4xx_HAL_Driver/Src/stm32f4xx_hal_adc_ex.c ****       if (HAL_IS_BIT_CLR(hadc->State, HAL_ADC_STATE_INJ_BUSY))
 2961              		.loc 1 1029 11
ARM GAS  /tmp/ccqnyf0j.s 			page 71


 2962 0074 FB68     		ldr	r3, [r7, #12]
 2963 0076 1B6C     		ldr	r3, [r3, #64]
 2964 0078 03F48053 		and	r3, r3, #4096
 2965              		.loc 1 1029 10
 2966 007c 002B     		cmp	r3, #0
 2967 007e 05D1     		bne	.L139
1030:Drivers/STM32F4xx_HAL_Driver/Src/stm32f4xx_hal_adc_ex.c ****       {
1031:Drivers/STM32F4xx_HAL_Driver/Src/stm32f4xx_hal_adc_ex.c ****         SET_BIT(hadc->State, HAL_ADC_STATE_READY);
 2968              		.loc 1 1031 9
 2969 0080 FB68     		ldr	r3, [r7, #12]
 2970 0082 1B6C     		ldr	r3, [r3, #64]
 2971 0084 43F00102 		orr	r2, r3, #1
 2972 0088 FB68     		ldr	r3, [r7, #12]
 2973 008a 1A64     		str	r2, [r3, #64]
 2974              	.L139:
1032:Drivers/STM32F4xx_HAL_Driver/Src/stm32f4xx_hal_adc_ex.c ****       }
1033:Drivers/STM32F4xx_HAL_Driver/Src/stm32f4xx_hal_adc_ex.c ****     }
1034:Drivers/STM32F4xx_HAL_Driver/Src/stm32f4xx_hal_adc_ex.c ****     
1035:Drivers/STM32F4xx_HAL_Driver/Src/stm32f4xx_hal_adc_ex.c ****     /* Conversion complete callback */
1036:Drivers/STM32F4xx_HAL_Driver/Src/stm32f4xx_hal_adc_ex.c ****     HAL_ADC_ConvCpltCallback(hadc);
 2975              		.loc 1 1036 5
 2976 008c F868     		ldr	r0, [r7, #12]
 2977 008e FFF7FEFF 		bl	HAL_ADC_ConvCpltCallback
1037:Drivers/STM32F4xx_HAL_Driver/Src/stm32f4xx_hal_adc_ex.c ****   }
1038:Drivers/STM32F4xx_HAL_Driver/Src/stm32f4xx_hal_adc_ex.c ****   else
1039:Drivers/STM32F4xx_HAL_Driver/Src/stm32f4xx_hal_adc_ex.c ****   {
1040:Drivers/STM32F4xx_HAL_Driver/Src/stm32f4xx_hal_adc_ex.c ****     /* Call DMA error callback */
1041:Drivers/STM32F4xx_HAL_Driver/Src/stm32f4xx_hal_adc_ex.c ****     hadc->DMA_Handle->XferErrorCallback(hdma);
1042:Drivers/STM32F4xx_HAL_Driver/Src/stm32f4xx_hal_adc_ex.c ****   }
1043:Drivers/STM32F4xx_HAL_Driver/Src/stm32f4xx_hal_adc_ex.c **** }
 2978              		.loc 1 1043 1
 2979 0092 04E0     		b	.L142
 2980              	.L138:
1041:Drivers/STM32F4xx_HAL_Driver/Src/stm32f4xx_hal_adc_ex.c ****   }
 2981              		.loc 1 1041 9
 2982 0094 FB68     		ldr	r3, [r7, #12]
 2983 0096 9B6B     		ldr	r3, [r3, #56]
1041:Drivers/STM32F4xx_HAL_Driver/Src/stm32f4xx_hal_adc_ex.c ****   }
 2984              		.loc 1 1041 21
 2985 0098 DB6C     		ldr	r3, [r3, #76]
1041:Drivers/STM32F4xx_HAL_Driver/Src/stm32f4xx_hal_adc_ex.c ****   }
 2986              		.loc 1 1041 5
 2987 009a 7868     		ldr	r0, [r7, #4]
 2988 009c 9847     		blx	r3
 2989              	.LVL0:
 2990              	.L142:
 2991              		.loc 1 1043 1
 2992 009e 00BF     		nop
 2993 00a0 1037     		adds	r7, r7, #16
 2994              	.LCFI67:
 2995              		.cfi_def_cfa_offset 8
 2996 00a2 BD46     		mov	sp, r7
 2997              	.LCFI68:
 2998              		.cfi_def_cfa_register 13
 2999              		@ sp needed
 3000 00a4 80BD     		pop	{r7, pc}
 3001              		.cfi_endproc
ARM GAS  /tmp/ccqnyf0j.s 			page 72


 3002              	.LFE142:
 3004              		.section	.text.ADC_MultiModeDMAHalfConvCplt,"ax",%progbits
 3005              		.align	1
 3006              		.syntax unified
 3007              		.thumb
 3008              		.thumb_func
 3009              		.fpu fpv4-sp-d16
 3011              	ADC_MultiModeDMAHalfConvCplt:
 3012              	.LFB143:
1044:Drivers/STM32F4xx_HAL_Driver/Src/stm32f4xx_hal_adc_ex.c **** 
1045:Drivers/STM32F4xx_HAL_Driver/Src/stm32f4xx_hal_adc_ex.c **** /**
1046:Drivers/STM32F4xx_HAL_Driver/Src/stm32f4xx_hal_adc_ex.c ****   * @brief  DMA half transfer complete callback. 
1047:Drivers/STM32F4xx_HAL_Driver/Src/stm32f4xx_hal_adc_ex.c ****   * @param  hdma pointer to a DMA_HandleTypeDef structure that contains
1048:Drivers/STM32F4xx_HAL_Driver/Src/stm32f4xx_hal_adc_ex.c ****   *                the configuration information for the specified DMA module.
1049:Drivers/STM32F4xx_HAL_Driver/Src/stm32f4xx_hal_adc_ex.c ****   * @retval None
1050:Drivers/STM32F4xx_HAL_Driver/Src/stm32f4xx_hal_adc_ex.c ****   */
1051:Drivers/STM32F4xx_HAL_Driver/Src/stm32f4xx_hal_adc_ex.c **** static void ADC_MultiModeDMAHalfConvCplt(DMA_HandleTypeDef *hdma)   
1052:Drivers/STM32F4xx_HAL_Driver/Src/stm32f4xx_hal_adc_ex.c **** {
 3013              		.loc 1 1052 1
 3014              		.cfi_startproc
 3015              		@ args = 0, pretend = 0, frame = 16
 3016              		@ frame_needed = 1, uses_anonymous_args = 0
 3017 0000 80B5     		push	{r7, lr}
 3018              	.LCFI69:
 3019              		.cfi_def_cfa_offset 8
 3020              		.cfi_offset 7, -8
 3021              		.cfi_offset 14, -4
 3022 0002 84B0     		sub	sp, sp, #16
 3023              	.LCFI70:
 3024              		.cfi_def_cfa_offset 24
 3025 0004 00AF     		add	r7, sp, #0
 3026              	.LCFI71:
 3027              		.cfi_def_cfa_register 7
 3028 0006 7860     		str	r0, [r7, #4]
1053:Drivers/STM32F4xx_HAL_Driver/Src/stm32f4xx_hal_adc_ex.c ****     ADC_HandleTypeDef* hadc = ( ADC_HandleTypeDef* )((DMA_HandleTypeDef* )hdma)->Parent;
 3029              		.loc 1 1053 24
 3030 0008 7B68     		ldr	r3, [r7, #4]
 3031 000a 9B6B     		ldr	r3, [r3, #56]
 3032 000c FB60     		str	r3, [r7, #12]
1054:Drivers/STM32F4xx_HAL_Driver/Src/stm32f4xx_hal_adc_ex.c ****     /* Conversion complete callback */
1055:Drivers/STM32F4xx_HAL_Driver/Src/stm32f4xx_hal_adc_ex.c ****     HAL_ADC_ConvHalfCpltCallback(hadc); 
 3033              		.loc 1 1055 5
 3034 000e F868     		ldr	r0, [r7, #12]
 3035 0010 FFF7FEFF 		bl	HAL_ADC_ConvHalfCpltCallback
1056:Drivers/STM32F4xx_HAL_Driver/Src/stm32f4xx_hal_adc_ex.c **** }
 3036              		.loc 1 1056 1
 3037 0014 00BF     		nop
 3038 0016 1037     		adds	r7, r7, #16
 3039              	.LCFI72:
 3040              		.cfi_def_cfa_offset 8
 3041 0018 BD46     		mov	sp, r7
 3042              	.LCFI73:
 3043              		.cfi_def_cfa_register 13
 3044              		@ sp needed
 3045 001a 80BD     		pop	{r7, pc}
 3046              		.cfi_endproc
 3047              	.LFE143:
ARM GAS  /tmp/ccqnyf0j.s 			page 73


 3049              		.section	.text.ADC_MultiModeDMAError,"ax",%progbits
 3050              		.align	1
 3051              		.syntax unified
 3052              		.thumb
 3053              		.thumb_func
 3054              		.fpu fpv4-sp-d16
 3056              	ADC_MultiModeDMAError:
 3057              	.LFB144:
1057:Drivers/STM32F4xx_HAL_Driver/Src/stm32f4xx_hal_adc_ex.c **** 
1058:Drivers/STM32F4xx_HAL_Driver/Src/stm32f4xx_hal_adc_ex.c **** /**
1059:Drivers/STM32F4xx_HAL_Driver/Src/stm32f4xx_hal_adc_ex.c ****   * @brief  DMA error callback 
1060:Drivers/STM32F4xx_HAL_Driver/Src/stm32f4xx_hal_adc_ex.c ****   * @param  hdma pointer to a DMA_HandleTypeDef structure that contains
1061:Drivers/STM32F4xx_HAL_Driver/Src/stm32f4xx_hal_adc_ex.c ****   *                the configuration information for the specified DMA module.
1062:Drivers/STM32F4xx_HAL_Driver/Src/stm32f4xx_hal_adc_ex.c ****   * @retval None
1063:Drivers/STM32F4xx_HAL_Driver/Src/stm32f4xx_hal_adc_ex.c ****   */
1064:Drivers/STM32F4xx_HAL_Driver/Src/stm32f4xx_hal_adc_ex.c **** static void ADC_MultiModeDMAError(DMA_HandleTypeDef *hdma)   
1065:Drivers/STM32F4xx_HAL_Driver/Src/stm32f4xx_hal_adc_ex.c **** {
 3058              		.loc 1 1065 1
 3059              		.cfi_startproc
 3060              		@ args = 0, pretend = 0, frame = 16
 3061              		@ frame_needed = 1, uses_anonymous_args = 0
 3062 0000 80B5     		push	{r7, lr}
 3063              	.LCFI74:
 3064              		.cfi_def_cfa_offset 8
 3065              		.cfi_offset 7, -8
 3066              		.cfi_offset 14, -4
 3067 0002 84B0     		sub	sp, sp, #16
 3068              	.LCFI75:
 3069              		.cfi_def_cfa_offset 24
 3070 0004 00AF     		add	r7, sp, #0
 3071              	.LCFI76:
 3072              		.cfi_def_cfa_register 7
 3073 0006 7860     		str	r0, [r7, #4]
1066:Drivers/STM32F4xx_HAL_Driver/Src/stm32f4xx_hal_adc_ex.c ****     ADC_HandleTypeDef* hadc = ( ADC_HandleTypeDef* )((DMA_HandleTypeDef* )hdma)->Parent;
 3074              		.loc 1 1066 24
 3075 0008 7B68     		ldr	r3, [r7, #4]
 3076 000a 9B6B     		ldr	r3, [r3, #56]
 3077 000c FB60     		str	r3, [r7, #12]
1067:Drivers/STM32F4xx_HAL_Driver/Src/stm32f4xx_hal_adc_ex.c ****     hadc->State= HAL_ADC_STATE_ERROR_DMA;
 3078              		.loc 1 1067 16
 3079 000e FB68     		ldr	r3, [r7, #12]
 3080 0010 4022     		movs	r2, #64
 3081 0012 1A64     		str	r2, [r3, #64]
1068:Drivers/STM32F4xx_HAL_Driver/Src/stm32f4xx_hal_adc_ex.c ****     /* Set ADC error code to DMA error */
1069:Drivers/STM32F4xx_HAL_Driver/Src/stm32f4xx_hal_adc_ex.c ****     hadc->ErrorCode |= HAL_ADC_ERROR_DMA;
 3082              		.loc 1 1069 21
 3083 0014 FB68     		ldr	r3, [r7, #12]
 3084 0016 5B6C     		ldr	r3, [r3, #68]
 3085 0018 43F00402 		orr	r2, r3, #4
 3086 001c FB68     		ldr	r3, [r7, #12]
 3087 001e 5A64     		str	r2, [r3, #68]
1070:Drivers/STM32F4xx_HAL_Driver/Src/stm32f4xx_hal_adc_ex.c ****     HAL_ADC_ErrorCallback(hadc); 
 3088              		.loc 1 1070 5
 3089 0020 F868     		ldr	r0, [r7, #12]
 3090 0022 FFF7FEFF 		bl	HAL_ADC_ErrorCallback
1071:Drivers/STM32F4xx_HAL_Driver/Src/stm32f4xx_hal_adc_ex.c **** }
 3091              		.loc 1 1071 1
ARM GAS  /tmp/ccqnyf0j.s 			page 74


 3092 0026 00BF     		nop
 3093 0028 1037     		adds	r7, r7, #16
 3094              	.LCFI77:
 3095              		.cfi_def_cfa_offset 8
 3096 002a BD46     		mov	sp, r7
 3097              	.LCFI78:
 3098              		.cfi_def_cfa_register 13
 3099              		@ sp needed
 3100 002c 80BD     		pop	{r7, pc}
 3101              		.cfi_endproc
 3102              	.LFE144:
 3104              		.text
 3105              	.Letext0:
 3106              		.file 2 "/usr/arm-none-eabi/include/machine/_default_types.h"
 3107              		.file 3 "/usr/arm-none-eabi/include/sys/_stdint.h"
 3108              		.file 4 "Drivers/CMSIS/Include/core_cm4.h"
 3109              		.file 5 "Drivers/CMSIS/Device/ST/STM32F4xx/Include/system_stm32f4xx.h"
 3110              		.file 6 "Drivers/CMSIS/Device/ST/STM32F4xx/Include/stm32f407xx.h"
 3111              		.file 7 "Drivers/CMSIS/Device/ST/STM32F4xx/Include/stm32f4xx.h"
 3112              		.file 8 "Drivers/STM32F4xx_HAL_Driver/Inc/stm32f4xx_hal_def.h"
 3113              		.file 9 "Drivers/STM32F4xx_HAL_Driver/Inc/stm32f4xx_hal_dma.h"
 3114              		.file 10 "Drivers/STM32F4xx_HAL_Driver/Inc/stm32f4xx_hal_adc.h"
 3115              		.file 11 "Drivers/STM32F4xx_HAL_Driver/Inc/stm32f4xx_hal_adc_ex.h"
 3116              		.file 12 "Drivers/STM32F4xx_HAL_Driver/Inc/stm32f4xx_hal.h"
ARM GAS  /tmp/ccqnyf0j.s 			page 75

