ARM GAS  /tmp/ccxUuSEB.s 			page 1


   1              		.cpu cortex-m4
   2              		.eabi_attribute 27, 1
   3              		.eabi_attribute 28, 1
   4              		.eabi_attribute 20, 1
   5              		.eabi_attribute 21, 1
   6              		.eabi_attribute 23, 3
   7              		.eabi_attribute 24, 1
   8              		.eabi_attribute 25, 1
   9              		.eabi_attribute 26, 1
  10              		.eabi_attribute 30, 6
  11              		.eabi_attribute 34, 1
  12              		.eabi_attribute 18, 4
  13              		.file	"stm32f4xx_hal_exti.c"
  14              		.text
  15              	.Ltext0:
  16              		.cfi_sections	.debug_frame
  17              		.section	.rodata
  18              		.align	2
  19              	.LC0:
  20 0000 44726976 		.ascii	"Drivers/STM32F4xx_HAL_Driver/Src/stm32f4xx_hal_exti"
  20      6572732F 
  20      53544D33 
  20      32463478 
  20      785F4841 
  21 0033 2E6300   		.ascii	".c\000"
  22              		.section	.text.HAL_EXTI_SetConfigLine,"ax",%progbits
  23              		.align	1
  24              		.global	HAL_EXTI_SetConfigLine
  25              		.arch armv7e-m
  26              		.syntax unified
  27              		.thumb
  28              		.thumb_func
  29              		.fpu fpv4-sp-d16
  31              	HAL_EXTI_SetConfigLine:
  32              	.LFB130:
  33              		.file 1 "Drivers/STM32F4xx_HAL_Driver/Src/stm32f4xx_hal_exti.c"
   1:Drivers/STM32F4xx_HAL_Driver/Src/stm32f4xx_hal_exti.c **** /**
   2:Drivers/STM32F4xx_HAL_Driver/Src/stm32f4xx_hal_exti.c ****   ******************************************************************************
   3:Drivers/STM32F4xx_HAL_Driver/Src/stm32f4xx_hal_exti.c ****   * @file    stm32f4xx_hal_exti.c
   4:Drivers/STM32F4xx_HAL_Driver/Src/stm32f4xx_hal_exti.c ****   * @author  MCD Application Team
   5:Drivers/STM32F4xx_HAL_Driver/Src/stm32f4xx_hal_exti.c ****   * @brief   EXTI HAL module driver.
   6:Drivers/STM32F4xx_HAL_Driver/Src/stm32f4xx_hal_exti.c ****   *          This file provides firmware functions to manage the following
   7:Drivers/STM32F4xx_HAL_Driver/Src/stm32f4xx_hal_exti.c ****   *          functionalities of the Extended Interrupts and events controller (EXTI) peripheral:
   8:Drivers/STM32F4xx_HAL_Driver/Src/stm32f4xx_hal_exti.c ****   *           + Initialization and de-initialization functions
   9:Drivers/STM32F4xx_HAL_Driver/Src/stm32f4xx_hal_exti.c ****   *           + IO operation functions
  10:Drivers/STM32F4xx_HAL_Driver/Src/stm32f4xx_hal_exti.c ****   *
  11:Drivers/STM32F4xx_HAL_Driver/Src/stm32f4xx_hal_exti.c ****   @verbatim
  12:Drivers/STM32F4xx_HAL_Driver/Src/stm32f4xx_hal_exti.c ****   ==============================================================================
  13:Drivers/STM32F4xx_HAL_Driver/Src/stm32f4xx_hal_exti.c ****                     ##### EXTI Peripheral features #####
  14:Drivers/STM32F4xx_HAL_Driver/Src/stm32f4xx_hal_exti.c ****   ==============================================================================
  15:Drivers/STM32F4xx_HAL_Driver/Src/stm32f4xx_hal_exti.c ****   [..]
  16:Drivers/STM32F4xx_HAL_Driver/Src/stm32f4xx_hal_exti.c ****     (+) Each Exti line can be configured within this driver.
  17:Drivers/STM32F4xx_HAL_Driver/Src/stm32f4xx_hal_exti.c **** 
  18:Drivers/STM32F4xx_HAL_Driver/Src/stm32f4xx_hal_exti.c ****     (+) Exti line can be configured in 3 different modes
  19:Drivers/STM32F4xx_HAL_Driver/Src/stm32f4xx_hal_exti.c ****         (++) Interrupt
  20:Drivers/STM32F4xx_HAL_Driver/Src/stm32f4xx_hal_exti.c ****         (++) Event
  21:Drivers/STM32F4xx_HAL_Driver/Src/stm32f4xx_hal_exti.c ****         (++) Both of them
ARM GAS  /tmp/ccxUuSEB.s 			page 2


  22:Drivers/STM32F4xx_HAL_Driver/Src/stm32f4xx_hal_exti.c **** 
  23:Drivers/STM32F4xx_HAL_Driver/Src/stm32f4xx_hal_exti.c ****     (+) Configurable Exti lines can be configured with 3 different triggers
  24:Drivers/STM32F4xx_HAL_Driver/Src/stm32f4xx_hal_exti.c ****         (++) Rising
  25:Drivers/STM32F4xx_HAL_Driver/Src/stm32f4xx_hal_exti.c ****         (++) Falling
  26:Drivers/STM32F4xx_HAL_Driver/Src/stm32f4xx_hal_exti.c ****         (++) Both of them
  27:Drivers/STM32F4xx_HAL_Driver/Src/stm32f4xx_hal_exti.c **** 
  28:Drivers/STM32F4xx_HAL_Driver/Src/stm32f4xx_hal_exti.c ****     (+) When set in interrupt mode, configurable Exti lines have two different
  29:Drivers/STM32F4xx_HAL_Driver/Src/stm32f4xx_hal_exti.c ****         interrupts pending registers which allow to distinguish which transition
  30:Drivers/STM32F4xx_HAL_Driver/Src/stm32f4xx_hal_exti.c ****         occurs:
  31:Drivers/STM32F4xx_HAL_Driver/Src/stm32f4xx_hal_exti.c ****         (++) Rising edge pending interrupt
  32:Drivers/STM32F4xx_HAL_Driver/Src/stm32f4xx_hal_exti.c ****         (++) Falling
  33:Drivers/STM32F4xx_HAL_Driver/Src/stm32f4xx_hal_exti.c **** 
  34:Drivers/STM32F4xx_HAL_Driver/Src/stm32f4xx_hal_exti.c ****     (+) Exti lines 0 to 15 are linked to gpio pin number 0 to 15. Gpio port can
  35:Drivers/STM32F4xx_HAL_Driver/Src/stm32f4xx_hal_exti.c ****         be selected through multiplexer.
  36:Drivers/STM32F4xx_HAL_Driver/Src/stm32f4xx_hal_exti.c **** 
  37:Drivers/STM32F4xx_HAL_Driver/Src/stm32f4xx_hal_exti.c ****                      ##### How to use this driver #####
  38:Drivers/STM32F4xx_HAL_Driver/Src/stm32f4xx_hal_exti.c ****   ==============================================================================
  39:Drivers/STM32F4xx_HAL_Driver/Src/stm32f4xx_hal_exti.c ****   [..]
  40:Drivers/STM32F4xx_HAL_Driver/Src/stm32f4xx_hal_exti.c **** 
  41:Drivers/STM32F4xx_HAL_Driver/Src/stm32f4xx_hal_exti.c ****     (#) Configure the EXTI line using HAL_EXTI_SetConfigLine().
  42:Drivers/STM32F4xx_HAL_Driver/Src/stm32f4xx_hal_exti.c ****         (++) Choose the interrupt line number by setting "Line" member from
  43:Drivers/STM32F4xx_HAL_Driver/Src/stm32f4xx_hal_exti.c ****              EXTI_ConfigTypeDef structure.
  44:Drivers/STM32F4xx_HAL_Driver/Src/stm32f4xx_hal_exti.c ****         (++) Configure the interrupt and/or event mode using "Mode" member from
  45:Drivers/STM32F4xx_HAL_Driver/Src/stm32f4xx_hal_exti.c ****              EXTI_ConfigTypeDef structure.
  46:Drivers/STM32F4xx_HAL_Driver/Src/stm32f4xx_hal_exti.c ****         (++) For configurable lines, configure rising and/or falling trigger
  47:Drivers/STM32F4xx_HAL_Driver/Src/stm32f4xx_hal_exti.c ****              "Trigger" member from EXTI_ConfigTypeDef structure.
  48:Drivers/STM32F4xx_HAL_Driver/Src/stm32f4xx_hal_exti.c ****         (++) For Exti lines linked to gpio, choose gpio port using "GPIOSel"
  49:Drivers/STM32F4xx_HAL_Driver/Src/stm32f4xx_hal_exti.c ****              member from GPIO_InitTypeDef structure.
  50:Drivers/STM32F4xx_HAL_Driver/Src/stm32f4xx_hal_exti.c **** 
  51:Drivers/STM32F4xx_HAL_Driver/Src/stm32f4xx_hal_exti.c ****     (#) Get current Exti configuration of a dedicated line using
  52:Drivers/STM32F4xx_HAL_Driver/Src/stm32f4xx_hal_exti.c ****         HAL_EXTI_GetConfigLine().
  53:Drivers/STM32F4xx_HAL_Driver/Src/stm32f4xx_hal_exti.c ****         (++) Provide exiting handle as parameter.
  54:Drivers/STM32F4xx_HAL_Driver/Src/stm32f4xx_hal_exti.c ****         (++) Provide pointer on EXTI_ConfigTypeDef structure as second parameter.
  55:Drivers/STM32F4xx_HAL_Driver/Src/stm32f4xx_hal_exti.c **** 
  56:Drivers/STM32F4xx_HAL_Driver/Src/stm32f4xx_hal_exti.c ****     (#) Clear Exti configuration of a dedicated line using HAL_EXTI_GetConfigLine().
  57:Drivers/STM32F4xx_HAL_Driver/Src/stm32f4xx_hal_exti.c ****         (++) Provide exiting handle as parameter.
  58:Drivers/STM32F4xx_HAL_Driver/Src/stm32f4xx_hal_exti.c **** 
  59:Drivers/STM32F4xx_HAL_Driver/Src/stm32f4xx_hal_exti.c ****     (#) Register callback to treat Exti interrupts using HAL_EXTI_RegisterCallback().
  60:Drivers/STM32F4xx_HAL_Driver/Src/stm32f4xx_hal_exti.c ****         (++) Provide exiting handle as first parameter.
  61:Drivers/STM32F4xx_HAL_Driver/Src/stm32f4xx_hal_exti.c ****         (++) Provide which callback will be registered using one value from
  62:Drivers/STM32F4xx_HAL_Driver/Src/stm32f4xx_hal_exti.c ****              EXTI_CallbackIDTypeDef.
  63:Drivers/STM32F4xx_HAL_Driver/Src/stm32f4xx_hal_exti.c ****         (++) Provide callback function pointer.
  64:Drivers/STM32F4xx_HAL_Driver/Src/stm32f4xx_hal_exti.c **** 
  65:Drivers/STM32F4xx_HAL_Driver/Src/stm32f4xx_hal_exti.c ****     (#) Get interrupt pending bit using HAL_EXTI_GetPending().
  66:Drivers/STM32F4xx_HAL_Driver/Src/stm32f4xx_hal_exti.c **** 
  67:Drivers/STM32F4xx_HAL_Driver/Src/stm32f4xx_hal_exti.c ****     (#) Clear interrupt pending bit using HAL_EXTI_GetPending().
  68:Drivers/STM32F4xx_HAL_Driver/Src/stm32f4xx_hal_exti.c **** 
  69:Drivers/STM32F4xx_HAL_Driver/Src/stm32f4xx_hal_exti.c ****     (#) Generate software interrupt using HAL_EXTI_GenerateSWI().
  70:Drivers/STM32F4xx_HAL_Driver/Src/stm32f4xx_hal_exti.c **** 
  71:Drivers/STM32F4xx_HAL_Driver/Src/stm32f4xx_hal_exti.c ****   @endverbatim
  72:Drivers/STM32F4xx_HAL_Driver/Src/stm32f4xx_hal_exti.c ****   ******************************************************************************
  73:Drivers/STM32F4xx_HAL_Driver/Src/stm32f4xx_hal_exti.c ****   * @attention
  74:Drivers/STM32F4xx_HAL_Driver/Src/stm32f4xx_hal_exti.c ****   *
  75:Drivers/STM32F4xx_HAL_Driver/Src/stm32f4xx_hal_exti.c ****   * <h2><center>&copy; Copyright (c) 2018 STMicroelectronics.
  76:Drivers/STM32F4xx_HAL_Driver/Src/stm32f4xx_hal_exti.c ****   * All rights reserved.</center></h2>
  77:Drivers/STM32F4xx_HAL_Driver/Src/stm32f4xx_hal_exti.c ****   *
  78:Drivers/STM32F4xx_HAL_Driver/Src/stm32f4xx_hal_exti.c ****   * This software component is licensed by ST under BSD 3-Clause license,
ARM GAS  /tmp/ccxUuSEB.s 			page 3


  79:Drivers/STM32F4xx_HAL_Driver/Src/stm32f4xx_hal_exti.c ****   * the "License"; You may not use this file except in compliance with the
  80:Drivers/STM32F4xx_HAL_Driver/Src/stm32f4xx_hal_exti.c ****   * License. You may obtain a copy of the License at:
  81:Drivers/STM32F4xx_HAL_Driver/Src/stm32f4xx_hal_exti.c ****   *                        opensource.org/licenses/BSD-3-Clause
  82:Drivers/STM32F4xx_HAL_Driver/Src/stm32f4xx_hal_exti.c ****   *
  83:Drivers/STM32F4xx_HAL_Driver/Src/stm32f4xx_hal_exti.c ****   ******************************************************************************
  84:Drivers/STM32F4xx_HAL_Driver/Src/stm32f4xx_hal_exti.c ****   */
  85:Drivers/STM32F4xx_HAL_Driver/Src/stm32f4xx_hal_exti.c **** 
  86:Drivers/STM32F4xx_HAL_Driver/Src/stm32f4xx_hal_exti.c **** /* Includes ------------------------------------------------------------------*/
  87:Drivers/STM32F4xx_HAL_Driver/Src/stm32f4xx_hal_exti.c **** #include "stm32f4xx_hal.h"
  88:Drivers/STM32F4xx_HAL_Driver/Src/stm32f4xx_hal_exti.c **** 
  89:Drivers/STM32F4xx_HAL_Driver/Src/stm32f4xx_hal_exti.c **** /** @addtogroup STM32F4xx_HAL_Driver
  90:Drivers/STM32F4xx_HAL_Driver/Src/stm32f4xx_hal_exti.c ****   * @{
  91:Drivers/STM32F4xx_HAL_Driver/Src/stm32f4xx_hal_exti.c ****   */
  92:Drivers/STM32F4xx_HAL_Driver/Src/stm32f4xx_hal_exti.c **** 
  93:Drivers/STM32F4xx_HAL_Driver/Src/stm32f4xx_hal_exti.c **** /** @addtogroup EXTI
  94:Drivers/STM32F4xx_HAL_Driver/Src/stm32f4xx_hal_exti.c ****   * @{
  95:Drivers/STM32F4xx_HAL_Driver/Src/stm32f4xx_hal_exti.c ****   */
  96:Drivers/STM32F4xx_HAL_Driver/Src/stm32f4xx_hal_exti.c **** /** MISRA C:2012 deviation rule has been granted for following rule:
  97:Drivers/STM32F4xx_HAL_Driver/Src/stm32f4xx_hal_exti.c ****   * Rule-18.1_b - Medium: Array `EXTICR' 1st subscript interval [0,7] may be out
  98:Drivers/STM32F4xx_HAL_Driver/Src/stm32f4xx_hal_exti.c ****   * of bounds [0,3] in following API :
  99:Drivers/STM32F4xx_HAL_Driver/Src/stm32f4xx_hal_exti.c ****   * HAL_EXTI_SetConfigLine
 100:Drivers/STM32F4xx_HAL_Driver/Src/stm32f4xx_hal_exti.c ****   * HAL_EXTI_GetConfigLine
 101:Drivers/STM32F4xx_HAL_Driver/Src/stm32f4xx_hal_exti.c ****   * HAL_EXTI_ClearConfigLine
 102:Drivers/STM32F4xx_HAL_Driver/Src/stm32f4xx_hal_exti.c ****   */
 103:Drivers/STM32F4xx_HAL_Driver/Src/stm32f4xx_hal_exti.c **** 
 104:Drivers/STM32F4xx_HAL_Driver/Src/stm32f4xx_hal_exti.c **** #ifdef HAL_EXTI_MODULE_ENABLED
 105:Drivers/STM32F4xx_HAL_Driver/Src/stm32f4xx_hal_exti.c **** 
 106:Drivers/STM32F4xx_HAL_Driver/Src/stm32f4xx_hal_exti.c **** /* Private typedef -----------------------------------------------------------*/
 107:Drivers/STM32F4xx_HAL_Driver/Src/stm32f4xx_hal_exti.c **** /* Private defines -----------------------------------------------------------*/
 108:Drivers/STM32F4xx_HAL_Driver/Src/stm32f4xx_hal_exti.c **** /** @defgroup EXTI_Private_Constants EXTI Private Constants
 109:Drivers/STM32F4xx_HAL_Driver/Src/stm32f4xx_hal_exti.c ****   * @{
 110:Drivers/STM32F4xx_HAL_Driver/Src/stm32f4xx_hal_exti.c ****   */
 111:Drivers/STM32F4xx_HAL_Driver/Src/stm32f4xx_hal_exti.c **** 
 112:Drivers/STM32F4xx_HAL_Driver/Src/stm32f4xx_hal_exti.c **** /**
 113:Drivers/STM32F4xx_HAL_Driver/Src/stm32f4xx_hal_exti.c ****   * @}
 114:Drivers/STM32F4xx_HAL_Driver/Src/stm32f4xx_hal_exti.c ****   */
 115:Drivers/STM32F4xx_HAL_Driver/Src/stm32f4xx_hal_exti.c **** 
 116:Drivers/STM32F4xx_HAL_Driver/Src/stm32f4xx_hal_exti.c **** /* Private macros ------------------------------------------------------------*/
 117:Drivers/STM32F4xx_HAL_Driver/Src/stm32f4xx_hal_exti.c **** /* Private variables ---------------------------------------------------------*/
 118:Drivers/STM32F4xx_HAL_Driver/Src/stm32f4xx_hal_exti.c **** /* Private function prototypes -----------------------------------------------*/
 119:Drivers/STM32F4xx_HAL_Driver/Src/stm32f4xx_hal_exti.c **** /* Exported functions --------------------------------------------------------*/
 120:Drivers/STM32F4xx_HAL_Driver/Src/stm32f4xx_hal_exti.c **** 
 121:Drivers/STM32F4xx_HAL_Driver/Src/stm32f4xx_hal_exti.c **** /** @addtogroup EXTI_Exported_Functions
 122:Drivers/STM32F4xx_HAL_Driver/Src/stm32f4xx_hal_exti.c ****   * @{
 123:Drivers/STM32F4xx_HAL_Driver/Src/stm32f4xx_hal_exti.c ****   */
 124:Drivers/STM32F4xx_HAL_Driver/Src/stm32f4xx_hal_exti.c **** 
 125:Drivers/STM32F4xx_HAL_Driver/Src/stm32f4xx_hal_exti.c **** /** @addtogroup EXTI_Exported_Functions_Group1
 126:Drivers/STM32F4xx_HAL_Driver/Src/stm32f4xx_hal_exti.c ****   *  @brief    Configuration functions
 127:Drivers/STM32F4xx_HAL_Driver/Src/stm32f4xx_hal_exti.c ****   *
 128:Drivers/STM32F4xx_HAL_Driver/Src/stm32f4xx_hal_exti.c **** @verbatim
 129:Drivers/STM32F4xx_HAL_Driver/Src/stm32f4xx_hal_exti.c ****  ===============================================================================
 130:Drivers/STM32F4xx_HAL_Driver/Src/stm32f4xx_hal_exti.c ****               ##### Configuration functions #####
 131:Drivers/STM32F4xx_HAL_Driver/Src/stm32f4xx_hal_exti.c ****  ===============================================================================
 132:Drivers/STM32F4xx_HAL_Driver/Src/stm32f4xx_hal_exti.c **** 
 133:Drivers/STM32F4xx_HAL_Driver/Src/stm32f4xx_hal_exti.c **** @endverbatim
 134:Drivers/STM32F4xx_HAL_Driver/Src/stm32f4xx_hal_exti.c ****   * @{
 135:Drivers/STM32F4xx_HAL_Driver/Src/stm32f4xx_hal_exti.c ****   */
ARM GAS  /tmp/ccxUuSEB.s 			page 4


 136:Drivers/STM32F4xx_HAL_Driver/Src/stm32f4xx_hal_exti.c **** 
 137:Drivers/STM32F4xx_HAL_Driver/Src/stm32f4xx_hal_exti.c **** /**
 138:Drivers/STM32F4xx_HAL_Driver/Src/stm32f4xx_hal_exti.c ****   * @brief  Set configuration of a dedicated Exti line.
 139:Drivers/STM32F4xx_HAL_Driver/Src/stm32f4xx_hal_exti.c ****   * @param  hexti Exti handle.
 140:Drivers/STM32F4xx_HAL_Driver/Src/stm32f4xx_hal_exti.c ****   * @param  pExtiConfig Pointer on EXTI configuration to be set.
 141:Drivers/STM32F4xx_HAL_Driver/Src/stm32f4xx_hal_exti.c ****   * @retval HAL Status.
 142:Drivers/STM32F4xx_HAL_Driver/Src/stm32f4xx_hal_exti.c ****   */
 143:Drivers/STM32F4xx_HAL_Driver/Src/stm32f4xx_hal_exti.c **** HAL_StatusTypeDef HAL_EXTI_SetConfigLine(EXTI_HandleTypeDef *hexti, EXTI_ConfigTypeDef *pExtiConfig
 144:Drivers/STM32F4xx_HAL_Driver/Src/stm32f4xx_hal_exti.c **** {
  34              		.loc 1 144 1
  35              		.cfi_startproc
  36              		@ args = 0, pretend = 0, frame = 24
  37              		@ frame_needed = 1, uses_anonymous_args = 0
  38 0000 80B5     		push	{r7, lr}
  39              	.LCFI0:
  40              		.cfi_def_cfa_offset 8
  41              		.cfi_offset 7, -8
  42              		.cfi_offset 14, -4
  43 0002 86B0     		sub	sp, sp, #24
  44              	.LCFI1:
  45              		.cfi_def_cfa_offset 32
  46 0004 00AF     		add	r7, sp, #0
  47              	.LCFI2:
  48              		.cfi_def_cfa_register 7
  49 0006 7860     		str	r0, [r7, #4]
  50 0008 3960     		str	r1, [r7]
 145:Drivers/STM32F4xx_HAL_Driver/Src/stm32f4xx_hal_exti.c ****   uint32_t regval;
 146:Drivers/STM32F4xx_HAL_Driver/Src/stm32f4xx_hal_exti.c ****   uint32_t linepos;
 147:Drivers/STM32F4xx_HAL_Driver/Src/stm32f4xx_hal_exti.c ****   uint32_t maskline;
 148:Drivers/STM32F4xx_HAL_Driver/Src/stm32f4xx_hal_exti.c **** 
 149:Drivers/STM32F4xx_HAL_Driver/Src/stm32f4xx_hal_exti.c ****   /* Check null pointer */
 150:Drivers/STM32F4xx_HAL_Driver/Src/stm32f4xx_hal_exti.c ****   if ((hexti == NULL) || (pExtiConfig == NULL))
  51              		.loc 1 150 6
  52 000a 7B68     		ldr	r3, [r7, #4]
  53 000c 002B     		cmp	r3, #0
  54 000e 02D0     		beq	.L2
  55              		.loc 1 150 23 discriminator 1
  56 0010 3B68     		ldr	r3, [r7]
  57 0012 002B     		cmp	r3, #0
  58 0014 01D1     		bne	.L3
  59              	.L2:
 151:Drivers/STM32F4xx_HAL_Driver/Src/stm32f4xx_hal_exti.c ****   {
 152:Drivers/STM32F4xx_HAL_Driver/Src/stm32f4xx_hal_exti.c ****     return HAL_ERROR;
  60              		.loc 1 152 12
  61 0016 0123     		movs	r3, #1
  62 0018 F9E0     		b	.L4
  63              	.L3:
 153:Drivers/STM32F4xx_HAL_Driver/Src/stm32f4xx_hal_exti.c ****   }
 154:Drivers/STM32F4xx_HAL_Driver/Src/stm32f4xx_hal_exti.c **** 
 155:Drivers/STM32F4xx_HAL_Driver/Src/stm32f4xx_hal_exti.c ****   /* Check parameters */
 156:Drivers/STM32F4xx_HAL_Driver/Src/stm32f4xx_hal_exti.c ****   assert_param(IS_EXTI_LINE(pExtiConfig->Line));
  64              		.loc 1 156 3
  65 001a 3B68     		ldr	r3, [r7]
  66 001c 1B68     		ldr	r3, [r3]
  67 001e 23F0C063 		bic	r3, r3, #100663296
  68 0022 23F01F03 		bic	r3, r3, #31
  69 0026 002B     		cmp	r3, #0
ARM GAS  /tmp/ccxUuSEB.s 			page 5


  70 0028 13D1     		bne	.L5
  71              		.loc 1 156 3 is_stmt 0 discriminator 2
  72 002a 3B68     		ldr	r3, [r7]
  73 002c 1B68     		ldr	r3, [r3]
  74 002e 03F0C063 		and	r3, r3, #100663296
  75 0032 B3F1007F 		cmp	r3, #33554432
  76 0036 06D0     		beq	.L6
  77              		.loc 1 156 3 discriminator 3
  78 0038 3B68     		ldr	r3, [r7]
  79 003a 1B68     		ldr	r3, [r3]
  80 003c 03F0C063 		and	r3, r3, #100663296
  81 0040 B3F1C06F 		cmp	r3, #100663296
  82 0044 05D1     		bne	.L5
  83              	.L6:
  84              		.loc 1 156 3 discriminator 6
  85 0046 3B68     		ldr	r3, [r7]
  86 0048 1B68     		ldr	r3, [r3]
  87 004a 03F01F03 		and	r3, r3, #31
  88 004e 162B     		cmp	r3, #22
  89 0050 03D9     		bls	.L7
  90              	.L5:
  91              		.loc 1 156 3 discriminator 7
  92 0052 9C21     		movs	r1, #156
  93 0054 7048     		ldr	r0, .L22
  94 0056 FFF7FEFF 		bl	assert_failed
  95              	.L7:
 157:Drivers/STM32F4xx_HAL_Driver/Src/stm32f4xx_hal_exti.c ****   assert_param(IS_EXTI_MODE(pExtiConfig->Mode));
  96              		.loc 1 157 3 is_stmt 1
  97 005a 3B68     		ldr	r3, [r7]
  98 005c 5B68     		ldr	r3, [r3, #4]
  99 005e 03F00303 		and	r3, r3, #3
 100 0062 002B     		cmp	r3, #0
 101 0064 05D0     		beq	.L8
 102              		.loc 1 157 3 is_stmt 0 discriminator 2
 103 0066 3B68     		ldr	r3, [r7]
 104 0068 5B68     		ldr	r3, [r3, #4]
 105 006a 23F00303 		bic	r3, r3, #3
 106 006e 002B     		cmp	r3, #0
 107 0070 03D0     		beq	.L9
 108              	.L8:
 109              		.loc 1 157 3 discriminator 3
 110 0072 9D21     		movs	r1, #157
 111 0074 6848     		ldr	r0, .L22
 112 0076 FFF7FEFF 		bl	assert_failed
 113              	.L9:
 158:Drivers/STM32F4xx_HAL_Driver/Src/stm32f4xx_hal_exti.c **** 
 159:Drivers/STM32F4xx_HAL_Driver/Src/stm32f4xx_hal_exti.c ****   /* Assign line number to handle */
 160:Drivers/STM32F4xx_HAL_Driver/Src/stm32f4xx_hal_exti.c ****   hexti->Line = pExtiConfig->Line;
 114              		.loc 1 160 28 is_stmt 1
 115 007a 3B68     		ldr	r3, [r7]
 116 007c 1A68     		ldr	r2, [r3]
 117              		.loc 1 160 15
 118 007e 7B68     		ldr	r3, [r7, #4]
 119 0080 1A60     		str	r2, [r3]
 161:Drivers/STM32F4xx_HAL_Driver/Src/stm32f4xx_hal_exti.c **** 
 162:Drivers/STM32F4xx_HAL_Driver/Src/stm32f4xx_hal_exti.c ****   /* Compute line mask */
 163:Drivers/STM32F4xx_HAL_Driver/Src/stm32f4xx_hal_exti.c ****   linepos = (pExtiConfig->Line & EXTI_PIN_MASK);
ARM GAS  /tmp/ccxUuSEB.s 			page 6


 120              		.loc 1 163 25
 121 0082 3B68     		ldr	r3, [r7]
 122 0084 1B68     		ldr	r3, [r3]
 123              		.loc 1 163 11
 124 0086 03F01F03 		and	r3, r3, #31
 125 008a 7B61     		str	r3, [r7, #20]
 164:Drivers/STM32F4xx_HAL_Driver/Src/stm32f4xx_hal_exti.c ****   maskline = (1uL << linepos);
 126              		.loc 1 164 12
 127 008c 0122     		movs	r2, #1
 128 008e 7B69     		ldr	r3, [r7, #20]
 129 0090 02FA03F3 		lsl	r3, r2, r3
 130 0094 3B61     		str	r3, [r7, #16]
 165:Drivers/STM32F4xx_HAL_Driver/Src/stm32f4xx_hal_exti.c **** 
 166:Drivers/STM32F4xx_HAL_Driver/Src/stm32f4xx_hal_exti.c ****   /* Configure triggers for configurable lines */
 167:Drivers/STM32F4xx_HAL_Driver/Src/stm32f4xx_hal_exti.c ****   if ((pExtiConfig->Line & EXTI_CONFIG) != 0x00u)
 131              		.loc 1 167 19
 132 0096 3B68     		ldr	r3, [r7]
 133 0098 1B68     		ldr	r3, [r3]
 134              		.loc 1 167 26
 135 009a 03F00073 		and	r3, r3, #33554432
 136              		.loc 1 167 6
 137 009e 002B     		cmp	r3, #0
 138 00a0 00F08C80 		beq	.L10
 168:Drivers/STM32F4xx_HAL_Driver/Src/stm32f4xx_hal_exti.c ****   {
 169:Drivers/STM32F4xx_HAL_Driver/Src/stm32f4xx_hal_exti.c ****     assert_param(IS_EXTI_TRIGGER(pExtiConfig->Trigger));
 139              		.loc 1 169 5
 140 00a4 3B68     		ldr	r3, [r7]
 141 00a6 9B68     		ldr	r3, [r3, #8]
 142 00a8 23F00303 		bic	r3, r3, #3
 143 00ac 002B     		cmp	r3, #0
 144 00ae 03D0     		beq	.L11
 145              		.loc 1 169 5 is_stmt 0 discriminator 1
 146 00b0 A921     		movs	r1, #169
 147 00b2 5948     		ldr	r0, .L22
 148 00b4 FFF7FEFF 		bl	assert_failed
 149              	.L11:
 170:Drivers/STM32F4xx_HAL_Driver/Src/stm32f4xx_hal_exti.c **** 
 171:Drivers/STM32F4xx_HAL_Driver/Src/stm32f4xx_hal_exti.c ****     /* Configure rising trigger */
 172:Drivers/STM32F4xx_HAL_Driver/Src/stm32f4xx_hal_exti.c ****     /* Mask or set line */
 173:Drivers/STM32F4xx_HAL_Driver/Src/stm32f4xx_hal_exti.c ****     if ((pExtiConfig->Trigger & EXTI_TRIGGER_RISING) != 0x00u)
 150              		.loc 1 173 21 is_stmt 1
 151 00b8 3B68     		ldr	r3, [r7]
 152 00ba 9B68     		ldr	r3, [r3, #8]
 153              		.loc 1 173 31
 154 00bc 03F00103 		and	r3, r3, #1
 155              		.loc 1 173 8
 156 00c0 002B     		cmp	r3, #0
 157 00c2 06D0     		beq	.L12
 174:Drivers/STM32F4xx_HAL_Driver/Src/stm32f4xx_hal_exti.c ****     {
 175:Drivers/STM32F4xx_HAL_Driver/Src/stm32f4xx_hal_exti.c ****       EXTI->RTSR |= maskline;
 158              		.loc 1 175 18
 159 00c4 554B     		ldr	r3, .L22+4
 160 00c6 9A68     		ldr	r2, [r3, #8]
 161 00c8 5449     		ldr	r1, .L22+4
 162 00ca 3B69     		ldr	r3, [r7, #16]
 163 00cc 1343     		orrs	r3, r3, r2
 164 00ce 8B60     		str	r3, [r1, #8]
ARM GAS  /tmp/ccxUuSEB.s 			page 7


 165 00d0 06E0     		b	.L13
 166              	.L12:
 176:Drivers/STM32F4xx_HAL_Driver/Src/stm32f4xx_hal_exti.c ****     }
 177:Drivers/STM32F4xx_HAL_Driver/Src/stm32f4xx_hal_exti.c ****     else
 178:Drivers/STM32F4xx_HAL_Driver/Src/stm32f4xx_hal_exti.c ****     {
 179:Drivers/STM32F4xx_HAL_Driver/Src/stm32f4xx_hal_exti.c ****       EXTI->RTSR &= ~maskline;
 167              		.loc 1 179 18
 168 00d2 524B     		ldr	r3, .L22+4
 169 00d4 9A68     		ldr	r2, [r3, #8]
 170              		.loc 1 179 21
 171 00d6 3B69     		ldr	r3, [r7, #16]
 172 00d8 DB43     		mvns	r3, r3
 173              		.loc 1 179 18
 174 00da 5049     		ldr	r1, .L22+4
 175 00dc 1340     		ands	r3, r3, r2
 176 00de 8B60     		str	r3, [r1, #8]
 177              	.L13:
 180:Drivers/STM32F4xx_HAL_Driver/Src/stm32f4xx_hal_exti.c ****     }
 181:Drivers/STM32F4xx_HAL_Driver/Src/stm32f4xx_hal_exti.c **** 
 182:Drivers/STM32F4xx_HAL_Driver/Src/stm32f4xx_hal_exti.c ****     /* Configure falling trigger */
 183:Drivers/STM32F4xx_HAL_Driver/Src/stm32f4xx_hal_exti.c ****     /* Mask or set line */
 184:Drivers/STM32F4xx_HAL_Driver/Src/stm32f4xx_hal_exti.c ****     if ((pExtiConfig->Trigger & EXTI_TRIGGER_FALLING) != 0x00u)
 178              		.loc 1 184 21
 179 00e0 3B68     		ldr	r3, [r7]
 180 00e2 9B68     		ldr	r3, [r3, #8]
 181              		.loc 1 184 31
 182 00e4 03F00203 		and	r3, r3, #2
 183              		.loc 1 184 8
 184 00e8 002B     		cmp	r3, #0
 185 00ea 06D0     		beq	.L14
 185:Drivers/STM32F4xx_HAL_Driver/Src/stm32f4xx_hal_exti.c ****     {
 186:Drivers/STM32F4xx_HAL_Driver/Src/stm32f4xx_hal_exti.c ****       EXTI->FTSR |= maskline;
 186              		.loc 1 186 18
 187 00ec 4B4B     		ldr	r3, .L22+4
 188 00ee DA68     		ldr	r2, [r3, #12]
 189 00f0 4A49     		ldr	r1, .L22+4
 190 00f2 3B69     		ldr	r3, [r7, #16]
 191 00f4 1343     		orrs	r3, r3, r2
 192 00f6 CB60     		str	r3, [r1, #12]
 193 00f8 06E0     		b	.L15
 194              	.L14:
 187:Drivers/STM32F4xx_HAL_Driver/Src/stm32f4xx_hal_exti.c ****     }
 188:Drivers/STM32F4xx_HAL_Driver/Src/stm32f4xx_hal_exti.c ****     else
 189:Drivers/STM32F4xx_HAL_Driver/Src/stm32f4xx_hal_exti.c ****     {
 190:Drivers/STM32F4xx_HAL_Driver/Src/stm32f4xx_hal_exti.c ****       EXTI->FTSR &= ~maskline;
 195              		.loc 1 190 18
 196 00fa 484B     		ldr	r3, .L22+4
 197 00fc DA68     		ldr	r2, [r3, #12]
 198              		.loc 1 190 21
 199 00fe 3B69     		ldr	r3, [r7, #16]
 200 0100 DB43     		mvns	r3, r3
 201              		.loc 1 190 18
 202 0102 4649     		ldr	r1, .L22+4
 203 0104 1340     		ands	r3, r3, r2
 204 0106 CB60     		str	r3, [r1, #12]
 205              	.L15:
 191:Drivers/STM32F4xx_HAL_Driver/Src/stm32f4xx_hal_exti.c ****     }
ARM GAS  /tmp/ccxUuSEB.s 			page 8


 192:Drivers/STM32F4xx_HAL_Driver/Src/stm32f4xx_hal_exti.c **** 
 193:Drivers/STM32F4xx_HAL_Driver/Src/stm32f4xx_hal_exti.c **** 
 194:Drivers/STM32F4xx_HAL_Driver/Src/stm32f4xx_hal_exti.c ****     /* Configure gpio port selection in case of gpio exti line */
 195:Drivers/STM32F4xx_HAL_Driver/Src/stm32f4xx_hal_exti.c ****     if ((pExtiConfig->Line & EXTI_GPIO) == EXTI_GPIO)
 206              		.loc 1 195 21
 207 0108 3B68     		ldr	r3, [r7]
 208 010a 1B68     		ldr	r3, [r3]
 209              		.loc 1 195 28
 210 010c 03F0C063 		and	r3, r3, #100663296
 211              		.loc 1 195 8
 212 0110 B3F1C06F 		cmp	r3, #100663296
 213 0114 52D1     		bne	.L10
 196:Drivers/STM32F4xx_HAL_Driver/Src/stm32f4xx_hal_exti.c ****     {
 197:Drivers/STM32F4xx_HAL_Driver/Src/stm32f4xx_hal_exti.c ****       assert_param(IS_EXTI_GPIO_PORT(pExtiConfig->GPIOSel));
 214              		.loc 1 197 7
 215 0116 3B68     		ldr	r3, [r7]
 216 0118 DB68     		ldr	r3, [r3, #12]
 217 011a 002B     		cmp	r3, #0
 218 011c 23D0     		beq	.L16
 219              		.loc 1 197 7 is_stmt 0 discriminator 1
 220 011e 3B68     		ldr	r3, [r7]
 221 0120 DB68     		ldr	r3, [r3, #12]
 222 0122 012B     		cmp	r3, #1
 223 0124 1FD0     		beq	.L16
 224              		.loc 1 197 7 discriminator 2
 225 0126 3B68     		ldr	r3, [r7]
 226 0128 DB68     		ldr	r3, [r3, #12]
 227 012a 022B     		cmp	r3, #2
 228 012c 1BD0     		beq	.L16
 229              		.loc 1 197 7 discriminator 3
 230 012e 3B68     		ldr	r3, [r7]
 231 0130 DB68     		ldr	r3, [r3, #12]
 232 0132 032B     		cmp	r3, #3
 233 0134 17D0     		beq	.L16
 234              		.loc 1 197 7 discriminator 4
 235 0136 3B68     		ldr	r3, [r7]
 236 0138 DB68     		ldr	r3, [r3, #12]
 237 013a 042B     		cmp	r3, #4
 238 013c 13D0     		beq	.L16
 239              		.loc 1 197 7 discriminator 5
 240 013e 3B68     		ldr	r3, [r7]
 241 0140 DB68     		ldr	r3, [r3, #12]
 242 0142 052B     		cmp	r3, #5
 243 0144 0FD0     		beq	.L16
 244              		.loc 1 197 7 discriminator 6
 245 0146 3B68     		ldr	r3, [r7]
 246 0148 DB68     		ldr	r3, [r3, #12]
 247 014a 062B     		cmp	r3, #6
 248 014c 0BD0     		beq	.L16
 249              		.loc 1 197 7 discriminator 7
 250 014e 3B68     		ldr	r3, [r7]
 251 0150 DB68     		ldr	r3, [r3, #12]
 252 0152 072B     		cmp	r3, #7
 253 0154 07D0     		beq	.L16
 254              		.loc 1 197 7 discriminator 8
 255 0156 3B68     		ldr	r3, [r7]
 256 0158 DB68     		ldr	r3, [r3, #12]
ARM GAS  /tmp/ccxUuSEB.s 			page 9


 257 015a 082B     		cmp	r3, #8
 258 015c 03D0     		beq	.L16
 259              		.loc 1 197 7 discriminator 9
 260 015e C521     		movs	r1, #197
 261 0160 2D48     		ldr	r0, .L22
 262 0162 FFF7FEFF 		bl	assert_failed
 263              	.L16:
 198:Drivers/STM32F4xx_HAL_Driver/Src/stm32f4xx_hal_exti.c ****       assert_param(IS_EXTI_GPIO_PIN(linepos));
 264              		.loc 1 198 7 is_stmt 1
 265 0166 7B69     		ldr	r3, [r7, #20]
 266 0168 0F2B     		cmp	r3, #15
 267 016a 03D9     		bls	.L17
 268              		.loc 1 198 7 is_stmt 0 discriminator 1
 269 016c C621     		movs	r1, #198
 270 016e 2A48     		ldr	r0, .L22
 271 0170 FFF7FEFF 		bl	assert_failed
 272              	.L17:
 199:Drivers/STM32F4xx_HAL_Driver/Src/stm32f4xx_hal_exti.c **** 
 200:Drivers/STM32F4xx_HAL_Driver/Src/stm32f4xx_hal_exti.c ****       regval = SYSCFG->EXTICR[linepos >> 2u];
 273              		.loc 1 200 22 is_stmt 1
 274 0174 2A4A     		ldr	r2, .L22+8
 275              		.loc 1 200 39
 276 0176 7B69     		ldr	r3, [r7, #20]
 277 0178 9B08     		lsrs	r3, r3, #2
 278              		.loc 1 200 14
 279 017a 0233     		adds	r3, r3, #2
 280 017c 52F82330 		ldr	r3, [r2, r3, lsl #2]
 281 0180 FB60     		str	r3, [r7, #12]
 201:Drivers/STM32F4xx_HAL_Driver/Src/stm32f4xx_hal_exti.c ****       regval &= ~(SYSCFG_EXTICR1_EXTI0 << (SYSCFG_EXTICR1_EXTI1_Pos * (linepos & 0x03u)));
 282              		.loc 1 201 80
 283 0182 7B69     		ldr	r3, [r7, #20]
 284 0184 03F00303 		and	r3, r3, #3
 285              		.loc 1 201 69
 286 0188 9B00     		lsls	r3, r3, #2
 287              		.loc 1 201 40
 288 018a 0F22     		movs	r2, #15
 289 018c 02FA03F3 		lsl	r3, r2, r3
 290              		.loc 1 201 17
 291 0190 DB43     		mvns	r3, r3
 292              		.loc 1 201 14
 293 0192 FA68     		ldr	r2, [r7, #12]
 294 0194 1340     		ands	r3, r3, r2
 295 0196 FB60     		str	r3, [r7, #12]
 202:Drivers/STM32F4xx_HAL_Driver/Src/stm32f4xx_hal_exti.c ****       regval |= (pExtiConfig->GPIOSel << (SYSCFG_EXTICR1_EXTI1_Pos * (linepos & 0x03u)));
 296              		.loc 1 202 29
 297 0198 3B68     		ldr	r3, [r7]
 298 019a DA68     		ldr	r2, [r3, #12]
 299              		.loc 1 202 79
 300 019c 7B69     		ldr	r3, [r7, #20]
 301 019e 03F00303 		and	r3, r3, #3
 302              		.loc 1 202 68
 303 01a2 9B00     		lsls	r3, r3, #2
 304              		.loc 1 202 39
 305 01a4 02FA03F3 		lsl	r3, r2, r3
 306              		.loc 1 202 14
 307 01a8 FA68     		ldr	r2, [r7, #12]
 308 01aa 1343     		orrs	r3, r3, r2
ARM GAS  /tmp/ccxUuSEB.s 			page 10


 309 01ac FB60     		str	r3, [r7, #12]
 203:Drivers/STM32F4xx_HAL_Driver/Src/stm32f4xx_hal_exti.c ****       SYSCFG->EXTICR[linepos >> 2u] = regval;
 310              		.loc 1 203 13
 311 01ae 1C49     		ldr	r1, .L22+8
 312              		.loc 1 203 30
 313 01b0 7B69     		ldr	r3, [r7, #20]
 314 01b2 9B08     		lsrs	r3, r3, #2
 315              		.loc 1 203 37
 316 01b4 0233     		adds	r3, r3, #2
 317 01b6 FA68     		ldr	r2, [r7, #12]
 318 01b8 41F82320 		str	r2, [r1, r3, lsl #2]
 319              	.L10:
 204:Drivers/STM32F4xx_HAL_Driver/Src/stm32f4xx_hal_exti.c ****     }
 205:Drivers/STM32F4xx_HAL_Driver/Src/stm32f4xx_hal_exti.c ****   }
 206:Drivers/STM32F4xx_HAL_Driver/Src/stm32f4xx_hal_exti.c **** 
 207:Drivers/STM32F4xx_HAL_Driver/Src/stm32f4xx_hal_exti.c ****   /* Configure interrupt mode : read current mode */
 208:Drivers/STM32F4xx_HAL_Driver/Src/stm32f4xx_hal_exti.c ****   /* Mask or set line */
 209:Drivers/STM32F4xx_HAL_Driver/Src/stm32f4xx_hal_exti.c ****   if ((pExtiConfig->Mode & EXTI_MODE_INTERRUPT) != 0x00u)
 320              		.loc 1 209 19
 321 01bc 3B68     		ldr	r3, [r7]
 322 01be 5B68     		ldr	r3, [r3, #4]
 323              		.loc 1 209 26
 324 01c0 03F00103 		and	r3, r3, #1
 325              		.loc 1 209 6
 326 01c4 002B     		cmp	r3, #0
 327 01c6 06D0     		beq	.L18
 210:Drivers/STM32F4xx_HAL_Driver/Src/stm32f4xx_hal_exti.c ****   {
 211:Drivers/STM32F4xx_HAL_Driver/Src/stm32f4xx_hal_exti.c ****     EXTI->IMR |= maskline;
 328              		.loc 1 211 15
 329 01c8 144B     		ldr	r3, .L22+4
 330 01ca 1A68     		ldr	r2, [r3]
 331 01cc 1349     		ldr	r1, .L22+4
 332 01ce 3B69     		ldr	r3, [r7, #16]
 333 01d0 1343     		orrs	r3, r3, r2
 334 01d2 0B60     		str	r3, [r1]
 335 01d4 06E0     		b	.L19
 336              	.L18:
 212:Drivers/STM32F4xx_HAL_Driver/Src/stm32f4xx_hal_exti.c ****   }
 213:Drivers/STM32F4xx_HAL_Driver/Src/stm32f4xx_hal_exti.c ****   else
 214:Drivers/STM32F4xx_HAL_Driver/Src/stm32f4xx_hal_exti.c ****   {
 215:Drivers/STM32F4xx_HAL_Driver/Src/stm32f4xx_hal_exti.c ****     EXTI->IMR &= ~maskline;
 337              		.loc 1 215 15
 338 01d6 114B     		ldr	r3, .L22+4
 339 01d8 1A68     		ldr	r2, [r3]
 340              		.loc 1 215 18
 341 01da 3B69     		ldr	r3, [r7, #16]
 342 01dc DB43     		mvns	r3, r3
 343              		.loc 1 215 15
 344 01de 0F49     		ldr	r1, .L22+4
 345 01e0 1340     		ands	r3, r3, r2
 346 01e2 0B60     		str	r3, [r1]
 347              	.L19:
 216:Drivers/STM32F4xx_HAL_Driver/Src/stm32f4xx_hal_exti.c ****   }
 217:Drivers/STM32F4xx_HAL_Driver/Src/stm32f4xx_hal_exti.c **** 
 218:Drivers/STM32F4xx_HAL_Driver/Src/stm32f4xx_hal_exti.c ****   /* Configure event mode : read current mode */
 219:Drivers/STM32F4xx_HAL_Driver/Src/stm32f4xx_hal_exti.c ****   /* Mask or set line */
 220:Drivers/STM32F4xx_HAL_Driver/Src/stm32f4xx_hal_exti.c ****   if ((pExtiConfig->Mode & EXTI_MODE_EVENT) != 0x00u)
ARM GAS  /tmp/ccxUuSEB.s 			page 11


 348              		.loc 1 220 19
 349 01e4 3B68     		ldr	r3, [r7]
 350 01e6 5B68     		ldr	r3, [r3, #4]
 351              		.loc 1 220 26
 352 01e8 03F00203 		and	r3, r3, #2
 353              		.loc 1 220 6
 354 01ec 002B     		cmp	r3, #0
 355 01ee 06D0     		beq	.L20
 221:Drivers/STM32F4xx_HAL_Driver/Src/stm32f4xx_hal_exti.c ****   {
 222:Drivers/STM32F4xx_HAL_Driver/Src/stm32f4xx_hal_exti.c ****     EXTI->EMR |= maskline;
 356              		.loc 1 222 15
 357 01f0 0A4B     		ldr	r3, .L22+4
 358 01f2 5A68     		ldr	r2, [r3, #4]
 359 01f4 0949     		ldr	r1, .L22+4
 360 01f6 3B69     		ldr	r3, [r7, #16]
 361 01f8 1343     		orrs	r3, r3, r2
 362 01fa 4B60     		str	r3, [r1, #4]
 363 01fc 06E0     		b	.L21
 364              	.L20:
 223:Drivers/STM32F4xx_HAL_Driver/Src/stm32f4xx_hal_exti.c ****   }
 224:Drivers/STM32F4xx_HAL_Driver/Src/stm32f4xx_hal_exti.c ****   else
 225:Drivers/STM32F4xx_HAL_Driver/Src/stm32f4xx_hal_exti.c ****   {
 226:Drivers/STM32F4xx_HAL_Driver/Src/stm32f4xx_hal_exti.c ****     EXTI->EMR &= ~maskline;
 365              		.loc 1 226 15
 366 01fe 074B     		ldr	r3, .L22+4
 367 0200 5A68     		ldr	r2, [r3, #4]
 368              		.loc 1 226 18
 369 0202 3B69     		ldr	r3, [r7, #16]
 370 0204 DB43     		mvns	r3, r3
 371              		.loc 1 226 15
 372 0206 0549     		ldr	r1, .L22+4
 373 0208 1340     		ands	r3, r3, r2
 374 020a 4B60     		str	r3, [r1, #4]
 375              	.L21:
 227:Drivers/STM32F4xx_HAL_Driver/Src/stm32f4xx_hal_exti.c ****   }
 228:Drivers/STM32F4xx_HAL_Driver/Src/stm32f4xx_hal_exti.c **** 
 229:Drivers/STM32F4xx_HAL_Driver/Src/stm32f4xx_hal_exti.c ****   return HAL_OK;
 376              		.loc 1 229 10
 377 020c 0023     		movs	r3, #0
 378              	.L4:
 230:Drivers/STM32F4xx_HAL_Driver/Src/stm32f4xx_hal_exti.c **** }
 379              		.loc 1 230 1
 380 020e 1846     		mov	r0, r3
 381 0210 1837     		adds	r7, r7, #24
 382              	.LCFI3:
 383              		.cfi_def_cfa_offset 8
 384 0212 BD46     		mov	sp, r7
 385              	.LCFI4:
 386              		.cfi_def_cfa_register 13
 387              		@ sp needed
 388 0214 80BD     		pop	{r7, pc}
 389              	.L23:
 390 0216 00BF     		.align	2
 391              	.L22:
 392 0218 00000000 		.word	.LC0
 393 021c 003C0140 		.word	1073822720
 394 0220 00380140 		.word	1073821696
ARM GAS  /tmp/ccxUuSEB.s 			page 12


 395              		.cfi_endproc
 396              	.LFE130:
 398              		.section	.text.HAL_EXTI_GetConfigLine,"ax",%progbits
 399              		.align	1
 400              		.global	HAL_EXTI_GetConfigLine
 401              		.syntax unified
 402              		.thumb
 403              		.thumb_func
 404              		.fpu fpv4-sp-d16
 406              	HAL_EXTI_GetConfigLine:
 407              	.LFB131:
 231:Drivers/STM32F4xx_HAL_Driver/Src/stm32f4xx_hal_exti.c **** 
 232:Drivers/STM32F4xx_HAL_Driver/Src/stm32f4xx_hal_exti.c **** /**
 233:Drivers/STM32F4xx_HAL_Driver/Src/stm32f4xx_hal_exti.c ****   * @brief  Get configuration of a dedicated Exti line.
 234:Drivers/STM32F4xx_HAL_Driver/Src/stm32f4xx_hal_exti.c ****   * @param  hexti Exti handle.
 235:Drivers/STM32F4xx_HAL_Driver/Src/stm32f4xx_hal_exti.c ****   * @param  pExtiConfig Pointer on structure to store Exti configuration.
 236:Drivers/STM32F4xx_HAL_Driver/Src/stm32f4xx_hal_exti.c ****   * @retval HAL Status.
 237:Drivers/STM32F4xx_HAL_Driver/Src/stm32f4xx_hal_exti.c ****   */
 238:Drivers/STM32F4xx_HAL_Driver/Src/stm32f4xx_hal_exti.c **** HAL_StatusTypeDef HAL_EXTI_GetConfigLine(EXTI_HandleTypeDef *hexti, EXTI_ConfigTypeDef *pExtiConfig
 239:Drivers/STM32F4xx_HAL_Driver/Src/stm32f4xx_hal_exti.c **** {
 408              		.loc 1 239 1
 409              		.cfi_startproc
 410              		@ args = 0, pretend = 0, frame = 24
 411              		@ frame_needed = 1, uses_anonymous_args = 0
 412 0000 80B5     		push	{r7, lr}
 413              	.LCFI5:
 414              		.cfi_def_cfa_offset 8
 415              		.cfi_offset 7, -8
 416              		.cfi_offset 14, -4
 417 0002 86B0     		sub	sp, sp, #24
 418              	.LCFI6:
 419              		.cfi_def_cfa_offset 32
 420 0004 00AF     		add	r7, sp, #0
 421              	.LCFI7:
 422              		.cfi_def_cfa_register 7
 423 0006 7860     		str	r0, [r7, #4]
 424 0008 3960     		str	r1, [r7]
 240:Drivers/STM32F4xx_HAL_Driver/Src/stm32f4xx_hal_exti.c ****   uint32_t regval;
 241:Drivers/STM32F4xx_HAL_Driver/Src/stm32f4xx_hal_exti.c ****   uint32_t linepos;
 242:Drivers/STM32F4xx_HAL_Driver/Src/stm32f4xx_hal_exti.c ****   uint32_t maskline;
 243:Drivers/STM32F4xx_HAL_Driver/Src/stm32f4xx_hal_exti.c **** 
 244:Drivers/STM32F4xx_HAL_Driver/Src/stm32f4xx_hal_exti.c ****   /* Check null pointer */
 245:Drivers/STM32F4xx_HAL_Driver/Src/stm32f4xx_hal_exti.c ****   if ((hexti == NULL) || (pExtiConfig == NULL))
 425              		.loc 1 245 6
 426 000a 7B68     		ldr	r3, [r7, #4]
 427 000c 002B     		cmp	r3, #0
 428 000e 02D0     		beq	.L25
 429              		.loc 1 245 23 discriminator 1
 430 0010 3B68     		ldr	r3, [r7]
 431 0012 002B     		cmp	r3, #0
 432 0014 01D1     		bne	.L26
 433              	.L25:
 246:Drivers/STM32F4xx_HAL_Driver/Src/stm32f4xx_hal_exti.c ****   {
 247:Drivers/STM32F4xx_HAL_Driver/Src/stm32f4xx_hal_exti.c ****     return HAL_ERROR;
 434              		.loc 1 247 12
 435 0016 0123     		movs	r3, #1
 436 0018 92E0     		b	.L27
ARM GAS  /tmp/ccxUuSEB.s 			page 13


 437              	.L26:
 248:Drivers/STM32F4xx_HAL_Driver/Src/stm32f4xx_hal_exti.c ****   }
 249:Drivers/STM32F4xx_HAL_Driver/Src/stm32f4xx_hal_exti.c **** 
 250:Drivers/STM32F4xx_HAL_Driver/Src/stm32f4xx_hal_exti.c ****   /* Check the parameter */
 251:Drivers/STM32F4xx_HAL_Driver/Src/stm32f4xx_hal_exti.c ****   assert_param(IS_EXTI_LINE(hexti->Line));
 438              		.loc 1 251 3
 439 001a 7B68     		ldr	r3, [r7, #4]
 440 001c 1B68     		ldr	r3, [r3]
 441 001e 23F0C063 		bic	r3, r3, #100663296
 442 0022 23F01F03 		bic	r3, r3, #31
 443 0026 002B     		cmp	r3, #0
 444 0028 13D1     		bne	.L28
 445              		.loc 1 251 3 is_stmt 0 discriminator 2
 446 002a 7B68     		ldr	r3, [r7, #4]
 447 002c 1B68     		ldr	r3, [r3]
 448 002e 03F0C063 		and	r3, r3, #100663296
 449 0032 B3F1007F 		cmp	r3, #33554432
 450 0036 06D0     		beq	.L29
 451              		.loc 1 251 3 discriminator 3
 452 0038 7B68     		ldr	r3, [r7, #4]
 453 003a 1B68     		ldr	r3, [r3]
 454 003c 03F0C063 		and	r3, r3, #100663296
 455 0040 B3F1C06F 		cmp	r3, #100663296
 456 0044 05D1     		bne	.L28
 457              	.L29:
 458              		.loc 1 251 3 discriminator 6
 459 0046 7B68     		ldr	r3, [r7, #4]
 460 0048 1B68     		ldr	r3, [r3]
 461 004a 03F01F03 		and	r3, r3, #31
 462 004e 162B     		cmp	r3, #22
 463 0050 03D9     		bls	.L30
 464              	.L28:
 465              		.loc 1 251 3 discriminator 7
 466 0052 FB21     		movs	r1, #251
 467 0054 3C48     		ldr	r0, .L41
 468 0056 FFF7FEFF 		bl	assert_failed
 469              	.L30:
 252:Drivers/STM32F4xx_HAL_Driver/Src/stm32f4xx_hal_exti.c **** 
 253:Drivers/STM32F4xx_HAL_Driver/Src/stm32f4xx_hal_exti.c ****   /* Store handle line number to configuration structure */
 254:Drivers/STM32F4xx_HAL_Driver/Src/stm32f4xx_hal_exti.c ****   pExtiConfig->Line = hexti->Line;
 470              		.loc 1 254 28 is_stmt 1
 471 005a 7B68     		ldr	r3, [r7, #4]
 472 005c 1A68     		ldr	r2, [r3]
 473              		.loc 1 254 21
 474 005e 3B68     		ldr	r3, [r7]
 475 0060 1A60     		str	r2, [r3]
 255:Drivers/STM32F4xx_HAL_Driver/Src/stm32f4xx_hal_exti.c **** 
 256:Drivers/STM32F4xx_HAL_Driver/Src/stm32f4xx_hal_exti.c ****   /* Compute line mask */
 257:Drivers/STM32F4xx_HAL_Driver/Src/stm32f4xx_hal_exti.c ****   linepos = (pExtiConfig->Line & EXTI_PIN_MASK);
 476              		.loc 1 257 25
 477 0062 3B68     		ldr	r3, [r7]
 478 0064 1B68     		ldr	r3, [r3]
 479              		.loc 1 257 11
 480 0066 03F01F03 		and	r3, r3, #31
 481 006a 7B61     		str	r3, [r7, #20]
 258:Drivers/STM32F4xx_HAL_Driver/Src/stm32f4xx_hal_exti.c ****   maskline = (1uL << linepos);
 482              		.loc 1 258 12
ARM GAS  /tmp/ccxUuSEB.s 			page 14


 483 006c 0122     		movs	r2, #1
 484 006e 7B69     		ldr	r3, [r7, #20]
 485 0070 02FA03F3 		lsl	r3, r2, r3
 486 0074 3B61     		str	r3, [r7, #16]
 259:Drivers/STM32F4xx_HAL_Driver/Src/stm32f4xx_hal_exti.c **** 
 260:Drivers/STM32F4xx_HAL_Driver/Src/stm32f4xx_hal_exti.c ****   /* 1] Get core mode : interrupt */
 261:Drivers/STM32F4xx_HAL_Driver/Src/stm32f4xx_hal_exti.c **** 
 262:Drivers/STM32F4xx_HAL_Driver/Src/stm32f4xx_hal_exti.c ****   /* Check if selected line is enable */
 263:Drivers/STM32F4xx_HAL_Driver/Src/stm32f4xx_hal_exti.c ****   if ((EXTI->IMR & maskline) != 0x00u)
 487              		.loc 1 263 12
 488 0076 354B     		ldr	r3, .L41+4
 489 0078 1A68     		ldr	r2, [r3]
 490              		.loc 1 263 18
 491 007a 3B69     		ldr	r3, [r7, #16]
 492 007c 1340     		ands	r3, r3, r2
 493              		.loc 1 263 6
 494 007e 002B     		cmp	r3, #0
 495 0080 03D0     		beq	.L31
 264:Drivers/STM32F4xx_HAL_Driver/Src/stm32f4xx_hal_exti.c ****   {
 265:Drivers/STM32F4xx_HAL_Driver/Src/stm32f4xx_hal_exti.c ****     pExtiConfig->Mode = EXTI_MODE_INTERRUPT;
 496              		.loc 1 265 23
 497 0082 3B68     		ldr	r3, [r7]
 498 0084 0122     		movs	r2, #1
 499 0086 5A60     		str	r2, [r3, #4]
 500 0088 02E0     		b	.L32
 501              	.L31:
 266:Drivers/STM32F4xx_HAL_Driver/Src/stm32f4xx_hal_exti.c ****   }
 267:Drivers/STM32F4xx_HAL_Driver/Src/stm32f4xx_hal_exti.c ****   else
 268:Drivers/STM32F4xx_HAL_Driver/Src/stm32f4xx_hal_exti.c ****   {
 269:Drivers/STM32F4xx_HAL_Driver/Src/stm32f4xx_hal_exti.c ****     pExtiConfig->Mode = EXTI_MODE_NONE;
 502              		.loc 1 269 23
 503 008a 3B68     		ldr	r3, [r7]
 504 008c 0022     		movs	r2, #0
 505 008e 5A60     		str	r2, [r3, #4]
 506              	.L32:
 270:Drivers/STM32F4xx_HAL_Driver/Src/stm32f4xx_hal_exti.c ****   }
 271:Drivers/STM32F4xx_HAL_Driver/Src/stm32f4xx_hal_exti.c **** 
 272:Drivers/STM32F4xx_HAL_Driver/Src/stm32f4xx_hal_exti.c ****   /* Get event mode */
 273:Drivers/STM32F4xx_HAL_Driver/Src/stm32f4xx_hal_exti.c ****   /* Check if selected line is enable */
 274:Drivers/STM32F4xx_HAL_Driver/Src/stm32f4xx_hal_exti.c ****   if ((EXTI->EMR & maskline) != 0x00u)
 507              		.loc 1 274 12
 508 0090 2E4B     		ldr	r3, .L41+4
 509 0092 5A68     		ldr	r2, [r3, #4]
 510              		.loc 1 274 18
 511 0094 3B69     		ldr	r3, [r7, #16]
 512 0096 1340     		ands	r3, r3, r2
 513              		.loc 1 274 6
 514 0098 002B     		cmp	r3, #0
 515 009a 05D0     		beq	.L33
 275:Drivers/STM32F4xx_HAL_Driver/Src/stm32f4xx_hal_exti.c ****   {
 276:Drivers/STM32F4xx_HAL_Driver/Src/stm32f4xx_hal_exti.c ****     pExtiConfig->Mode |= EXTI_MODE_EVENT;
 516              		.loc 1 276 23
 517 009c 3B68     		ldr	r3, [r7]
 518 009e 5B68     		ldr	r3, [r3, #4]
 519 00a0 43F00202 		orr	r2, r3, #2
 520 00a4 3B68     		ldr	r3, [r7]
 521 00a6 5A60     		str	r2, [r3, #4]
ARM GAS  /tmp/ccxUuSEB.s 			page 15


 522              	.L33:
 277:Drivers/STM32F4xx_HAL_Driver/Src/stm32f4xx_hal_exti.c ****   }
 278:Drivers/STM32F4xx_HAL_Driver/Src/stm32f4xx_hal_exti.c **** 
 279:Drivers/STM32F4xx_HAL_Driver/Src/stm32f4xx_hal_exti.c ****   /* 2] Get trigger for configurable lines : rising */
 280:Drivers/STM32F4xx_HAL_Driver/Src/stm32f4xx_hal_exti.c ****   if ((pExtiConfig->Line & EXTI_CONFIG) != 0x00u)
 523              		.loc 1 280 19
 524 00a8 3B68     		ldr	r3, [r7]
 525 00aa 1B68     		ldr	r3, [r3]
 526              		.loc 1 280 26
 527 00ac 03F00073 		and	r3, r3, #33554432
 528              		.loc 1 280 6
 529 00b0 002B     		cmp	r3, #0
 530 00b2 3ED0     		beq	.L34
 281:Drivers/STM32F4xx_HAL_Driver/Src/stm32f4xx_hal_exti.c ****   {
 282:Drivers/STM32F4xx_HAL_Driver/Src/stm32f4xx_hal_exti.c ****     /* Check if configuration of selected line is enable */
 283:Drivers/STM32F4xx_HAL_Driver/Src/stm32f4xx_hal_exti.c ****     if ((EXTI->RTSR & maskline) != 0x00u)
 531              		.loc 1 283 14
 532 00b4 254B     		ldr	r3, .L41+4
 533 00b6 9A68     		ldr	r2, [r3, #8]
 534              		.loc 1 283 21
 535 00b8 3B69     		ldr	r3, [r7, #16]
 536 00ba 1340     		ands	r3, r3, r2
 537              		.loc 1 283 8
 538 00bc 002B     		cmp	r3, #0
 539 00be 03D0     		beq	.L35
 284:Drivers/STM32F4xx_HAL_Driver/Src/stm32f4xx_hal_exti.c ****     {
 285:Drivers/STM32F4xx_HAL_Driver/Src/stm32f4xx_hal_exti.c ****       pExtiConfig->Trigger = EXTI_TRIGGER_RISING;
 540              		.loc 1 285 28
 541 00c0 3B68     		ldr	r3, [r7]
 542 00c2 0122     		movs	r2, #1
 543 00c4 9A60     		str	r2, [r3, #8]
 544 00c6 02E0     		b	.L36
 545              	.L35:
 286:Drivers/STM32F4xx_HAL_Driver/Src/stm32f4xx_hal_exti.c ****     }
 287:Drivers/STM32F4xx_HAL_Driver/Src/stm32f4xx_hal_exti.c ****     else
 288:Drivers/STM32F4xx_HAL_Driver/Src/stm32f4xx_hal_exti.c ****     {
 289:Drivers/STM32F4xx_HAL_Driver/Src/stm32f4xx_hal_exti.c ****       pExtiConfig->Trigger = EXTI_TRIGGER_NONE;
 546              		.loc 1 289 28
 547 00c8 3B68     		ldr	r3, [r7]
 548 00ca 0022     		movs	r2, #0
 549 00cc 9A60     		str	r2, [r3, #8]
 550              	.L36:
 290:Drivers/STM32F4xx_HAL_Driver/Src/stm32f4xx_hal_exti.c ****     }
 291:Drivers/STM32F4xx_HAL_Driver/Src/stm32f4xx_hal_exti.c **** 
 292:Drivers/STM32F4xx_HAL_Driver/Src/stm32f4xx_hal_exti.c ****     /* Get falling configuration */
 293:Drivers/STM32F4xx_HAL_Driver/Src/stm32f4xx_hal_exti.c ****     /* Check if configuration of selected line is enable */
 294:Drivers/STM32F4xx_HAL_Driver/Src/stm32f4xx_hal_exti.c ****     if ((EXTI->FTSR & maskline) != 0x00u)
 551              		.loc 1 294 14
 552 00ce 1F4B     		ldr	r3, .L41+4
 553 00d0 DA68     		ldr	r2, [r3, #12]
 554              		.loc 1 294 21
 555 00d2 3B69     		ldr	r3, [r7, #16]
 556 00d4 1340     		ands	r3, r3, r2
 557              		.loc 1 294 8
 558 00d6 002B     		cmp	r3, #0
 559 00d8 05D0     		beq	.L37
 295:Drivers/STM32F4xx_HAL_Driver/Src/stm32f4xx_hal_exti.c ****     {
ARM GAS  /tmp/ccxUuSEB.s 			page 16


 296:Drivers/STM32F4xx_HAL_Driver/Src/stm32f4xx_hal_exti.c ****       pExtiConfig->Trigger |= EXTI_TRIGGER_FALLING;
 560              		.loc 1 296 28
 561 00da 3B68     		ldr	r3, [r7]
 562 00dc 9B68     		ldr	r3, [r3, #8]
 563 00de 43F00202 		orr	r2, r3, #2
 564 00e2 3B68     		ldr	r3, [r7]
 565 00e4 9A60     		str	r2, [r3, #8]
 566              	.L37:
 297:Drivers/STM32F4xx_HAL_Driver/Src/stm32f4xx_hal_exti.c ****     }
 298:Drivers/STM32F4xx_HAL_Driver/Src/stm32f4xx_hal_exti.c **** 
 299:Drivers/STM32F4xx_HAL_Driver/Src/stm32f4xx_hal_exti.c ****     /* Get Gpio port selection for gpio lines */
 300:Drivers/STM32F4xx_HAL_Driver/Src/stm32f4xx_hal_exti.c ****     if ((pExtiConfig->Line & EXTI_GPIO) == EXTI_GPIO)
 567              		.loc 1 300 21
 568 00e6 3B68     		ldr	r3, [r7]
 569 00e8 1B68     		ldr	r3, [r3]
 570              		.loc 1 300 28
 571 00ea 03F0C063 		and	r3, r3, #100663296
 572              		.loc 1 300 8
 573 00ee B3F1C06F 		cmp	r3, #100663296
 574 00f2 1AD1     		bne	.L38
 301:Drivers/STM32F4xx_HAL_Driver/Src/stm32f4xx_hal_exti.c ****     {
 302:Drivers/STM32F4xx_HAL_Driver/Src/stm32f4xx_hal_exti.c ****       assert_param(IS_EXTI_GPIO_PIN(linepos));
 575              		.loc 1 302 7
 576 00f4 7B69     		ldr	r3, [r7, #20]
 577 00f6 0F2B     		cmp	r3, #15
 578 00f8 04D9     		bls	.L39
 579              		.loc 1 302 7 is_stmt 0 discriminator 1
 580 00fa 4FF49771 		mov	r1, #302
 581 00fe 1248     		ldr	r0, .L41
 582 0100 FFF7FEFF 		bl	assert_failed
 583              	.L39:
 303:Drivers/STM32F4xx_HAL_Driver/Src/stm32f4xx_hal_exti.c **** 
 304:Drivers/STM32F4xx_HAL_Driver/Src/stm32f4xx_hal_exti.c ****       regval = SYSCFG->EXTICR[linepos >> 2u];
 584              		.loc 1 304 22 is_stmt 1
 585 0104 124A     		ldr	r2, .L41+8
 586              		.loc 1 304 39
 587 0106 7B69     		ldr	r3, [r7, #20]
 588 0108 9B08     		lsrs	r3, r3, #2
 589              		.loc 1 304 14
 590 010a 0233     		adds	r3, r3, #2
 591 010c 52F82330 		ldr	r3, [r2, r3, lsl #2]
 592 0110 FB60     		str	r3, [r7, #12]
 305:Drivers/STM32F4xx_HAL_Driver/Src/stm32f4xx_hal_exti.c ****       pExtiConfig->GPIOSel = ((regval << (SYSCFG_EXTICR1_EXTI1_Pos * (3uL - (linepos & 0x03u)))) >>
 593              		.loc 1 305 75
 594 0112 7B69     		ldr	r3, [r7, #20]
 595 0114 DB43     		mvns	r3, r3
 596 0116 03F00303 		and	r3, r3, #3
 597              		.loc 1 305 68
 598 011a 9B00     		lsls	r3, r3, #2
 599              		.loc 1 305 39
 600 011c FA68     		ldr	r2, [r7, #12]
 601 011e 02FA03F3 		lsl	r3, r2, r3
 602              		.loc 1 305 98
 603 0122 1A0E     		lsrs	r2, r3, #24
 604              		.loc 1 305 28
 605 0124 3B68     		ldr	r3, [r7]
 606 0126 DA60     		str	r2, [r3, #12]
ARM GAS  /tmp/ccxUuSEB.s 			page 17


 607 0128 09E0     		b	.L40
 608              	.L38:
 306:Drivers/STM32F4xx_HAL_Driver/Src/stm32f4xx_hal_exti.c ****     }
 307:Drivers/STM32F4xx_HAL_Driver/Src/stm32f4xx_hal_exti.c ****     else
 308:Drivers/STM32F4xx_HAL_Driver/Src/stm32f4xx_hal_exti.c ****     {
 309:Drivers/STM32F4xx_HAL_Driver/Src/stm32f4xx_hal_exti.c ****       pExtiConfig->GPIOSel = 0x00u;
 609              		.loc 1 309 28
 610 012a 3B68     		ldr	r3, [r7]
 611 012c 0022     		movs	r2, #0
 612 012e DA60     		str	r2, [r3, #12]
 613 0130 05E0     		b	.L40
 614              	.L34:
 310:Drivers/STM32F4xx_HAL_Driver/Src/stm32f4xx_hal_exti.c ****     }
 311:Drivers/STM32F4xx_HAL_Driver/Src/stm32f4xx_hal_exti.c ****   }
 312:Drivers/STM32F4xx_HAL_Driver/Src/stm32f4xx_hal_exti.c ****   else
 313:Drivers/STM32F4xx_HAL_Driver/Src/stm32f4xx_hal_exti.c ****   {
 314:Drivers/STM32F4xx_HAL_Driver/Src/stm32f4xx_hal_exti.c ****     /* No Trigger selected */
 315:Drivers/STM32F4xx_HAL_Driver/Src/stm32f4xx_hal_exti.c ****     pExtiConfig->Trigger = EXTI_TRIGGER_NONE;
 615              		.loc 1 315 26
 616 0132 3B68     		ldr	r3, [r7]
 617 0134 0022     		movs	r2, #0
 618 0136 9A60     		str	r2, [r3, #8]
 316:Drivers/STM32F4xx_HAL_Driver/Src/stm32f4xx_hal_exti.c ****     pExtiConfig->GPIOSel = 0x00u;
 619              		.loc 1 316 26
 620 0138 3B68     		ldr	r3, [r7]
 621 013a 0022     		movs	r2, #0
 622 013c DA60     		str	r2, [r3, #12]
 623              	.L40:
 317:Drivers/STM32F4xx_HAL_Driver/Src/stm32f4xx_hal_exti.c ****   }
 318:Drivers/STM32F4xx_HAL_Driver/Src/stm32f4xx_hal_exti.c **** 
 319:Drivers/STM32F4xx_HAL_Driver/Src/stm32f4xx_hal_exti.c ****   return HAL_OK;
 624              		.loc 1 319 10
 625 013e 0023     		movs	r3, #0
 626              	.L27:
 320:Drivers/STM32F4xx_HAL_Driver/Src/stm32f4xx_hal_exti.c **** }
 627              		.loc 1 320 1
 628 0140 1846     		mov	r0, r3
 629 0142 1837     		adds	r7, r7, #24
 630              	.LCFI8:
 631              		.cfi_def_cfa_offset 8
 632 0144 BD46     		mov	sp, r7
 633              	.LCFI9:
 634              		.cfi_def_cfa_register 13
 635              		@ sp needed
 636 0146 80BD     		pop	{r7, pc}
 637              	.L42:
 638              		.align	2
 639              	.L41:
 640 0148 00000000 		.word	.LC0
 641 014c 003C0140 		.word	1073822720
 642 0150 00380140 		.word	1073821696
 643              		.cfi_endproc
 644              	.LFE131:
 646              		.section	.text.HAL_EXTI_ClearConfigLine,"ax",%progbits
 647              		.align	1
 648              		.global	HAL_EXTI_ClearConfigLine
 649              		.syntax unified
ARM GAS  /tmp/ccxUuSEB.s 			page 18


 650              		.thumb
 651              		.thumb_func
 652              		.fpu fpv4-sp-d16
 654              	HAL_EXTI_ClearConfigLine:
 655              	.LFB132:
 321:Drivers/STM32F4xx_HAL_Driver/Src/stm32f4xx_hal_exti.c **** 
 322:Drivers/STM32F4xx_HAL_Driver/Src/stm32f4xx_hal_exti.c **** /**
 323:Drivers/STM32F4xx_HAL_Driver/Src/stm32f4xx_hal_exti.c ****   * @brief  Clear whole configuration of a dedicated Exti line.
 324:Drivers/STM32F4xx_HAL_Driver/Src/stm32f4xx_hal_exti.c ****   * @param  hexti Exti handle.
 325:Drivers/STM32F4xx_HAL_Driver/Src/stm32f4xx_hal_exti.c ****   * @retval HAL Status.
 326:Drivers/STM32F4xx_HAL_Driver/Src/stm32f4xx_hal_exti.c ****   */
 327:Drivers/STM32F4xx_HAL_Driver/Src/stm32f4xx_hal_exti.c **** HAL_StatusTypeDef HAL_EXTI_ClearConfigLine(EXTI_HandleTypeDef *hexti)
 328:Drivers/STM32F4xx_HAL_Driver/Src/stm32f4xx_hal_exti.c **** {
 656              		.loc 1 328 1
 657              		.cfi_startproc
 658              		@ args = 0, pretend = 0, frame = 24
 659              		@ frame_needed = 1, uses_anonymous_args = 0
 660 0000 80B5     		push	{r7, lr}
 661              	.LCFI10:
 662              		.cfi_def_cfa_offset 8
 663              		.cfi_offset 7, -8
 664              		.cfi_offset 14, -4
 665 0002 86B0     		sub	sp, sp, #24
 666              	.LCFI11:
 667              		.cfi_def_cfa_offset 32
 668 0004 00AF     		add	r7, sp, #0
 669              	.LCFI12:
 670              		.cfi_def_cfa_register 7
 671 0006 7860     		str	r0, [r7, #4]
 329:Drivers/STM32F4xx_HAL_Driver/Src/stm32f4xx_hal_exti.c ****   uint32_t regval;
 330:Drivers/STM32F4xx_HAL_Driver/Src/stm32f4xx_hal_exti.c ****   uint32_t linepos;
 331:Drivers/STM32F4xx_HAL_Driver/Src/stm32f4xx_hal_exti.c ****   uint32_t maskline;
 332:Drivers/STM32F4xx_HAL_Driver/Src/stm32f4xx_hal_exti.c **** 
 333:Drivers/STM32F4xx_HAL_Driver/Src/stm32f4xx_hal_exti.c ****   /* Check null pointer */
 334:Drivers/STM32F4xx_HAL_Driver/Src/stm32f4xx_hal_exti.c ****   if (hexti == NULL)
 672              		.loc 1 334 6
 673 0008 7B68     		ldr	r3, [r7, #4]
 674 000a 002B     		cmp	r3, #0
 675 000c 01D1     		bne	.L44
 335:Drivers/STM32F4xx_HAL_Driver/Src/stm32f4xx_hal_exti.c ****   {
 336:Drivers/STM32F4xx_HAL_Driver/Src/stm32f4xx_hal_exti.c ****     return HAL_ERROR;
 676              		.loc 1 336 12
 677 000e 0123     		movs	r3, #1
 678 0010 75E0     		b	.L45
 679              	.L44:
 337:Drivers/STM32F4xx_HAL_Driver/Src/stm32f4xx_hal_exti.c ****   }
 338:Drivers/STM32F4xx_HAL_Driver/Src/stm32f4xx_hal_exti.c **** 
 339:Drivers/STM32F4xx_HAL_Driver/Src/stm32f4xx_hal_exti.c ****   /* Check the parameter */
 340:Drivers/STM32F4xx_HAL_Driver/Src/stm32f4xx_hal_exti.c ****   assert_param(IS_EXTI_LINE(hexti->Line));
 680              		.loc 1 340 3
 681 0012 7B68     		ldr	r3, [r7, #4]
 682 0014 1B68     		ldr	r3, [r3]
 683 0016 23F0C063 		bic	r3, r3, #100663296
 684 001a 23F01F03 		bic	r3, r3, #31
 685 001e 002B     		cmp	r3, #0
 686 0020 13D1     		bne	.L46
 687              		.loc 1 340 3 is_stmt 0 discriminator 2
ARM GAS  /tmp/ccxUuSEB.s 			page 19


 688 0022 7B68     		ldr	r3, [r7, #4]
 689 0024 1B68     		ldr	r3, [r3]
 690 0026 03F0C063 		and	r3, r3, #100663296
 691 002a B3F1007F 		cmp	r3, #33554432
 692 002e 06D0     		beq	.L47
 693              		.loc 1 340 3 discriminator 3
 694 0030 7B68     		ldr	r3, [r7, #4]
 695 0032 1B68     		ldr	r3, [r3]
 696 0034 03F0C063 		and	r3, r3, #100663296
 697 0038 B3F1C06F 		cmp	r3, #100663296
 698 003c 05D1     		bne	.L46
 699              	.L47:
 700              		.loc 1 340 3 discriminator 6
 701 003e 7B68     		ldr	r3, [r7, #4]
 702 0040 1B68     		ldr	r3, [r3]
 703 0042 03F01F03 		and	r3, r3, #31
 704 0046 162B     		cmp	r3, #22
 705 0048 04D9     		bls	.L48
 706              	.L46:
 707              		.loc 1 340 3 discriminator 7
 708 004a 4FF4AA71 		mov	r1, #340
 709 004e 2E48     		ldr	r0, .L51
 710 0050 FFF7FEFF 		bl	assert_failed
 711              	.L48:
 341:Drivers/STM32F4xx_HAL_Driver/Src/stm32f4xx_hal_exti.c **** 
 342:Drivers/STM32F4xx_HAL_Driver/Src/stm32f4xx_hal_exti.c ****   /* compute line mask */
 343:Drivers/STM32F4xx_HAL_Driver/Src/stm32f4xx_hal_exti.c ****   linepos = (hexti->Line & EXTI_PIN_MASK);
 712              		.loc 1 343 19 is_stmt 1
 713 0054 7B68     		ldr	r3, [r7, #4]
 714 0056 1B68     		ldr	r3, [r3]
 715              		.loc 1 343 11
 716 0058 03F01F03 		and	r3, r3, #31
 717 005c 7B61     		str	r3, [r7, #20]
 344:Drivers/STM32F4xx_HAL_Driver/Src/stm32f4xx_hal_exti.c ****   maskline = (1uL << linepos);
 718              		.loc 1 344 12
 719 005e 0122     		movs	r2, #1
 720 0060 7B69     		ldr	r3, [r7, #20]
 721 0062 02FA03F3 		lsl	r3, r2, r3
 722 0066 3B61     		str	r3, [r7, #16]
 345:Drivers/STM32F4xx_HAL_Driver/Src/stm32f4xx_hal_exti.c **** 
 346:Drivers/STM32F4xx_HAL_Driver/Src/stm32f4xx_hal_exti.c ****   /* 1] Clear interrupt mode */
 347:Drivers/STM32F4xx_HAL_Driver/Src/stm32f4xx_hal_exti.c ****   EXTI->IMR = (EXTI->IMR & ~maskline);
 723              		.loc 1 347 20
 724 0068 284B     		ldr	r3, .L51+4
 725 006a 1A68     		ldr	r2, [r3]
 726              		.loc 1 347 28
 727 006c 3B69     		ldr	r3, [r7, #16]
 728 006e DB43     		mvns	r3, r3
 729              		.loc 1 347 7
 730 0070 2649     		ldr	r1, .L51+4
 731              		.loc 1 347 26
 732 0072 1340     		ands	r3, r3, r2
 733              		.loc 1 347 13
 734 0074 0B60     		str	r3, [r1]
 348:Drivers/STM32F4xx_HAL_Driver/Src/stm32f4xx_hal_exti.c **** 
 349:Drivers/STM32F4xx_HAL_Driver/Src/stm32f4xx_hal_exti.c ****   /* 2] Clear event mode */
 350:Drivers/STM32F4xx_HAL_Driver/Src/stm32f4xx_hal_exti.c ****   EXTI->EMR = (EXTI->EMR & ~maskline);
ARM GAS  /tmp/ccxUuSEB.s 			page 20


 735              		.loc 1 350 20
 736 0076 254B     		ldr	r3, .L51+4
 737 0078 5A68     		ldr	r2, [r3, #4]
 738              		.loc 1 350 28
 739 007a 3B69     		ldr	r3, [r7, #16]
 740 007c DB43     		mvns	r3, r3
 741              		.loc 1 350 7
 742 007e 2349     		ldr	r1, .L51+4
 743              		.loc 1 350 26
 744 0080 1340     		ands	r3, r3, r2
 745              		.loc 1 350 13
 746 0082 4B60     		str	r3, [r1, #4]
 351:Drivers/STM32F4xx_HAL_Driver/Src/stm32f4xx_hal_exti.c **** 
 352:Drivers/STM32F4xx_HAL_Driver/Src/stm32f4xx_hal_exti.c ****   /* 3] Clear triggers in case of configurable lines */
 353:Drivers/STM32F4xx_HAL_Driver/Src/stm32f4xx_hal_exti.c ****   if ((hexti->Line & EXTI_CONFIG) != 0x00u)
 747              		.loc 1 353 13
 748 0084 7B68     		ldr	r3, [r7, #4]
 749 0086 1B68     		ldr	r3, [r3]
 750              		.loc 1 353 20
 751 0088 03F00073 		and	r3, r3, #33554432
 752              		.loc 1 353 6
 753 008c 002B     		cmp	r3, #0
 754 008e 35D0     		beq	.L49
 354:Drivers/STM32F4xx_HAL_Driver/Src/stm32f4xx_hal_exti.c ****   {
 355:Drivers/STM32F4xx_HAL_Driver/Src/stm32f4xx_hal_exti.c ****     EXTI->RTSR = (EXTI->RTSR & ~maskline);
 755              		.loc 1 355 23
 756 0090 1E4B     		ldr	r3, .L51+4
 757 0092 9A68     		ldr	r2, [r3, #8]
 758              		.loc 1 355 32
 759 0094 3B69     		ldr	r3, [r7, #16]
 760 0096 DB43     		mvns	r3, r3
 761              		.loc 1 355 9
 762 0098 1C49     		ldr	r1, .L51+4
 763              		.loc 1 355 30
 764 009a 1340     		ands	r3, r3, r2
 765              		.loc 1 355 16
 766 009c 8B60     		str	r3, [r1, #8]
 356:Drivers/STM32F4xx_HAL_Driver/Src/stm32f4xx_hal_exti.c ****     EXTI->FTSR = (EXTI->FTSR & ~maskline);
 767              		.loc 1 356 23
 768 009e 1B4B     		ldr	r3, .L51+4
 769 00a0 DA68     		ldr	r2, [r3, #12]
 770              		.loc 1 356 32
 771 00a2 3B69     		ldr	r3, [r7, #16]
 772 00a4 DB43     		mvns	r3, r3
 773              		.loc 1 356 9
 774 00a6 1949     		ldr	r1, .L51+4
 775              		.loc 1 356 30
 776 00a8 1340     		ands	r3, r3, r2
 777              		.loc 1 356 16
 778 00aa CB60     		str	r3, [r1, #12]
 357:Drivers/STM32F4xx_HAL_Driver/Src/stm32f4xx_hal_exti.c **** 
 358:Drivers/STM32F4xx_HAL_Driver/Src/stm32f4xx_hal_exti.c ****     /* Get Gpio port selection for gpio lines */
 359:Drivers/STM32F4xx_HAL_Driver/Src/stm32f4xx_hal_exti.c ****     if ((hexti->Line & EXTI_GPIO) == EXTI_GPIO)
 779              		.loc 1 359 15
 780 00ac 7B68     		ldr	r3, [r7, #4]
 781 00ae 1B68     		ldr	r3, [r3]
 782              		.loc 1 359 22
ARM GAS  /tmp/ccxUuSEB.s 			page 21


 783 00b0 03F0C063 		and	r3, r3, #100663296
 784              		.loc 1 359 8
 785 00b4 B3F1C06F 		cmp	r3, #100663296
 786 00b8 20D1     		bne	.L49
 360:Drivers/STM32F4xx_HAL_Driver/Src/stm32f4xx_hal_exti.c ****     {
 361:Drivers/STM32F4xx_HAL_Driver/Src/stm32f4xx_hal_exti.c ****       assert_param(IS_EXTI_GPIO_PIN(linepos));
 787              		.loc 1 361 7
 788 00ba 7B69     		ldr	r3, [r7, #20]
 789 00bc 0F2B     		cmp	r3, #15
 790 00be 04D9     		bls	.L50
 791              		.loc 1 361 7 is_stmt 0 discriminator 1
 792 00c0 40F26911 		movw	r1, #361
 793 00c4 1048     		ldr	r0, .L51
 794 00c6 FFF7FEFF 		bl	assert_failed
 795              	.L50:
 362:Drivers/STM32F4xx_HAL_Driver/Src/stm32f4xx_hal_exti.c **** 
 363:Drivers/STM32F4xx_HAL_Driver/Src/stm32f4xx_hal_exti.c ****       regval = SYSCFG->EXTICR[linepos >> 2u];
 796              		.loc 1 363 22 is_stmt 1
 797 00ca 114A     		ldr	r2, .L51+8
 798              		.loc 1 363 39
 799 00cc 7B69     		ldr	r3, [r7, #20]
 800 00ce 9B08     		lsrs	r3, r3, #2
 801              		.loc 1 363 14
 802 00d0 0233     		adds	r3, r3, #2
 803 00d2 52F82330 		ldr	r3, [r2, r3, lsl #2]
 804 00d6 FB60     		str	r3, [r7, #12]
 364:Drivers/STM32F4xx_HAL_Driver/Src/stm32f4xx_hal_exti.c ****       regval &= ~(SYSCFG_EXTICR1_EXTI0 << (SYSCFG_EXTICR1_EXTI1_Pos * (linepos & 0x03u)));
 805              		.loc 1 364 80
 806 00d8 7B69     		ldr	r3, [r7, #20]
 807 00da 03F00303 		and	r3, r3, #3
 808              		.loc 1 364 69
 809 00de 9B00     		lsls	r3, r3, #2
 810              		.loc 1 364 40
 811 00e0 0F22     		movs	r2, #15
 812 00e2 02FA03F3 		lsl	r3, r2, r3
 813              		.loc 1 364 17
 814 00e6 DB43     		mvns	r3, r3
 815              		.loc 1 364 14
 816 00e8 FA68     		ldr	r2, [r7, #12]
 817 00ea 1340     		ands	r3, r3, r2
 818 00ec FB60     		str	r3, [r7, #12]
 365:Drivers/STM32F4xx_HAL_Driver/Src/stm32f4xx_hal_exti.c ****       SYSCFG->EXTICR[linepos >> 2u] = regval;
 819              		.loc 1 365 13
 820 00ee 0849     		ldr	r1, .L51+8
 821              		.loc 1 365 30
 822 00f0 7B69     		ldr	r3, [r7, #20]
 823 00f2 9B08     		lsrs	r3, r3, #2
 824              		.loc 1 365 37
 825 00f4 0233     		adds	r3, r3, #2
 826 00f6 FA68     		ldr	r2, [r7, #12]
 827 00f8 41F82320 		str	r2, [r1, r3, lsl #2]
 828              	.L49:
 366:Drivers/STM32F4xx_HAL_Driver/Src/stm32f4xx_hal_exti.c ****     }
 367:Drivers/STM32F4xx_HAL_Driver/Src/stm32f4xx_hal_exti.c ****   }
 368:Drivers/STM32F4xx_HAL_Driver/Src/stm32f4xx_hal_exti.c **** 
 369:Drivers/STM32F4xx_HAL_Driver/Src/stm32f4xx_hal_exti.c ****   return HAL_OK;
 829              		.loc 1 369 10
ARM GAS  /tmp/ccxUuSEB.s 			page 22


 830 00fc 0023     		movs	r3, #0
 831              	.L45:
 370:Drivers/STM32F4xx_HAL_Driver/Src/stm32f4xx_hal_exti.c **** }
 832              		.loc 1 370 1
 833 00fe 1846     		mov	r0, r3
 834 0100 1837     		adds	r7, r7, #24
 835              	.LCFI13:
 836              		.cfi_def_cfa_offset 8
 837 0102 BD46     		mov	sp, r7
 838              	.LCFI14:
 839              		.cfi_def_cfa_register 13
 840              		@ sp needed
 841 0104 80BD     		pop	{r7, pc}
 842              	.L52:
 843 0106 00BF     		.align	2
 844              	.L51:
 845 0108 00000000 		.word	.LC0
 846 010c 003C0140 		.word	1073822720
 847 0110 00380140 		.word	1073821696
 848              		.cfi_endproc
 849              	.LFE132:
 851              		.section	.text.HAL_EXTI_RegisterCallback,"ax",%progbits
 852              		.align	1
 853              		.global	HAL_EXTI_RegisterCallback
 854              		.syntax unified
 855              		.thumb
 856              		.thumb_func
 857              		.fpu fpv4-sp-d16
 859              	HAL_EXTI_RegisterCallback:
 860              	.LFB133:
 371:Drivers/STM32F4xx_HAL_Driver/Src/stm32f4xx_hal_exti.c **** 
 372:Drivers/STM32F4xx_HAL_Driver/Src/stm32f4xx_hal_exti.c **** /**
 373:Drivers/STM32F4xx_HAL_Driver/Src/stm32f4xx_hal_exti.c ****   * @brief  Register callback for a dedicated Exti line.
 374:Drivers/STM32F4xx_HAL_Driver/Src/stm32f4xx_hal_exti.c ****   * @param  hexti Exti handle.
 375:Drivers/STM32F4xx_HAL_Driver/Src/stm32f4xx_hal_exti.c ****   * @param  CallbackID User callback identifier.
 376:Drivers/STM32F4xx_HAL_Driver/Src/stm32f4xx_hal_exti.c ****   *         This parameter can be one of @arg @ref EXTI_CallbackIDTypeDef values.
 377:Drivers/STM32F4xx_HAL_Driver/Src/stm32f4xx_hal_exti.c ****   * @param  pPendingCbfn function pointer to be stored as callback.
 378:Drivers/STM32F4xx_HAL_Driver/Src/stm32f4xx_hal_exti.c ****   * @retval HAL Status.
 379:Drivers/STM32F4xx_HAL_Driver/Src/stm32f4xx_hal_exti.c ****   */
 380:Drivers/STM32F4xx_HAL_Driver/Src/stm32f4xx_hal_exti.c **** HAL_StatusTypeDef HAL_EXTI_RegisterCallback(EXTI_HandleTypeDef *hexti, EXTI_CallbackIDTypeDef Callb
 381:Drivers/STM32F4xx_HAL_Driver/Src/stm32f4xx_hal_exti.c **** {
 861              		.loc 1 381 1
 862              		.cfi_startproc
 863              		@ args = 0, pretend = 0, frame = 24
 864              		@ frame_needed = 1, uses_anonymous_args = 0
 865              		@ link register save eliminated.
 866 0000 80B4     		push	{r7}
 867              	.LCFI15:
 868              		.cfi_def_cfa_offset 4
 869              		.cfi_offset 7, -4
 870 0002 87B0     		sub	sp, sp, #28
 871              	.LCFI16:
 872              		.cfi_def_cfa_offset 32
 873 0004 00AF     		add	r7, sp, #0
 874              	.LCFI17:
 875              		.cfi_def_cfa_register 7
 876 0006 F860     		str	r0, [r7, #12]
ARM GAS  /tmp/ccxUuSEB.s 			page 23


 877 0008 0B46     		mov	r3, r1
 878 000a 7A60     		str	r2, [r7, #4]
 879 000c FB72     		strb	r3, [r7, #11]
 382:Drivers/STM32F4xx_HAL_Driver/Src/stm32f4xx_hal_exti.c ****   HAL_StatusTypeDef status = HAL_OK;
 880              		.loc 1 382 21
 881 000e 0023     		movs	r3, #0
 882 0010 FB75     		strb	r3, [r7, #23]
 383:Drivers/STM32F4xx_HAL_Driver/Src/stm32f4xx_hal_exti.c **** 
 384:Drivers/STM32F4xx_HAL_Driver/Src/stm32f4xx_hal_exti.c ****   switch (CallbackID)
 883              		.loc 1 384 3
 884 0012 FB7A     		ldrb	r3, [r7, #11]	@ zero_extendqisi2
 885 0014 002B     		cmp	r3, #0
 886 0016 03D1     		bne	.L54
 385:Drivers/STM32F4xx_HAL_Driver/Src/stm32f4xx_hal_exti.c ****   {
 386:Drivers/STM32F4xx_HAL_Driver/Src/stm32f4xx_hal_exti.c ****     case  HAL_EXTI_COMMON_CB_ID:
 387:Drivers/STM32F4xx_HAL_Driver/Src/stm32f4xx_hal_exti.c ****       hexti->PendingCallback = pPendingCbfn;
 887              		.loc 1 387 30
 888 0018 FB68     		ldr	r3, [r7, #12]
 889 001a 7A68     		ldr	r2, [r7, #4]
 890 001c 5A60     		str	r2, [r3, #4]
 388:Drivers/STM32F4xx_HAL_Driver/Src/stm32f4xx_hal_exti.c ****       break;
 891              		.loc 1 388 7
 892 001e 02E0     		b	.L55
 893              	.L54:
 389:Drivers/STM32F4xx_HAL_Driver/Src/stm32f4xx_hal_exti.c **** 
 390:Drivers/STM32F4xx_HAL_Driver/Src/stm32f4xx_hal_exti.c ****     default:
 391:Drivers/STM32F4xx_HAL_Driver/Src/stm32f4xx_hal_exti.c ****       status = HAL_ERROR;
 894              		.loc 1 391 14
 895 0020 0123     		movs	r3, #1
 896 0022 FB75     		strb	r3, [r7, #23]
 392:Drivers/STM32F4xx_HAL_Driver/Src/stm32f4xx_hal_exti.c ****       break;
 897              		.loc 1 392 7
 898 0024 00BF     		nop
 899              	.L55:
 393:Drivers/STM32F4xx_HAL_Driver/Src/stm32f4xx_hal_exti.c ****   }
 394:Drivers/STM32F4xx_HAL_Driver/Src/stm32f4xx_hal_exti.c **** 
 395:Drivers/STM32F4xx_HAL_Driver/Src/stm32f4xx_hal_exti.c ****   return status;
 900              		.loc 1 395 10
 901 0026 FB7D     		ldrb	r3, [r7, #23]	@ zero_extendqisi2
 396:Drivers/STM32F4xx_HAL_Driver/Src/stm32f4xx_hal_exti.c **** }
 902              		.loc 1 396 1
 903 0028 1846     		mov	r0, r3
 904 002a 1C37     		adds	r7, r7, #28
 905              	.LCFI18:
 906              		.cfi_def_cfa_offset 4
 907 002c BD46     		mov	sp, r7
 908              	.LCFI19:
 909              		.cfi_def_cfa_register 13
 910              		@ sp needed
 911 002e 5DF8047B 		ldr	r7, [sp], #4
 912              	.LCFI20:
 913              		.cfi_restore 7
 914              		.cfi_def_cfa_offset 0
 915 0032 7047     		bx	lr
 916              		.cfi_endproc
 917              	.LFE133:
 919              		.section	.text.HAL_EXTI_GetHandle,"ax",%progbits
ARM GAS  /tmp/ccxUuSEB.s 			page 24


 920              		.align	1
 921              		.global	HAL_EXTI_GetHandle
 922              		.syntax unified
 923              		.thumb
 924              		.thumb_func
 925              		.fpu fpv4-sp-d16
 927              	HAL_EXTI_GetHandle:
 928              	.LFB134:
 397:Drivers/STM32F4xx_HAL_Driver/Src/stm32f4xx_hal_exti.c **** 
 398:Drivers/STM32F4xx_HAL_Driver/Src/stm32f4xx_hal_exti.c **** /**
 399:Drivers/STM32F4xx_HAL_Driver/Src/stm32f4xx_hal_exti.c ****   * @brief  Store line number as handle private field.
 400:Drivers/STM32F4xx_HAL_Driver/Src/stm32f4xx_hal_exti.c ****   * @param  hexti Exti handle.
 401:Drivers/STM32F4xx_HAL_Driver/Src/stm32f4xx_hal_exti.c ****   * @param  ExtiLine Exti line number.
 402:Drivers/STM32F4xx_HAL_Driver/Src/stm32f4xx_hal_exti.c ****   *         This parameter can be from 0 to @ref EXTI_LINE_NB.
 403:Drivers/STM32F4xx_HAL_Driver/Src/stm32f4xx_hal_exti.c ****   * @retval HAL Status.
 404:Drivers/STM32F4xx_HAL_Driver/Src/stm32f4xx_hal_exti.c ****   */
 405:Drivers/STM32F4xx_HAL_Driver/Src/stm32f4xx_hal_exti.c **** HAL_StatusTypeDef HAL_EXTI_GetHandle(EXTI_HandleTypeDef *hexti, uint32_t ExtiLine)
 406:Drivers/STM32F4xx_HAL_Driver/Src/stm32f4xx_hal_exti.c **** {
 929              		.loc 1 406 1
 930              		.cfi_startproc
 931              		@ args = 0, pretend = 0, frame = 8
 932              		@ frame_needed = 1, uses_anonymous_args = 0
 933 0000 80B5     		push	{r7, lr}
 934              	.LCFI21:
 935              		.cfi_def_cfa_offset 8
 936              		.cfi_offset 7, -8
 937              		.cfi_offset 14, -4
 938 0002 82B0     		sub	sp, sp, #8
 939              	.LCFI22:
 940              		.cfi_def_cfa_offset 16
 941 0004 00AF     		add	r7, sp, #0
 942              	.LCFI23:
 943              		.cfi_def_cfa_register 7
 944 0006 7860     		str	r0, [r7, #4]
 945 0008 3960     		str	r1, [r7]
 407:Drivers/STM32F4xx_HAL_Driver/Src/stm32f4xx_hal_exti.c ****   /* Check the parameters */
 408:Drivers/STM32F4xx_HAL_Driver/Src/stm32f4xx_hal_exti.c ****   assert_param(IS_EXTI_LINE(ExtiLine));
 946              		.loc 1 408 3
 947 000a 3B68     		ldr	r3, [r7]
 948 000c 23F0C063 		bic	r3, r3, #100663296
 949 0010 23F01F03 		bic	r3, r3, #31
 950 0014 002B     		cmp	r3, #0
 951 0016 10D1     		bne	.L58
 952              		.loc 1 408 3 is_stmt 0 discriminator 2
 953 0018 3B68     		ldr	r3, [r7]
 954 001a 03F0C063 		and	r3, r3, #100663296
 955 001e B3F1007F 		cmp	r3, #33554432
 956 0022 05D0     		beq	.L59
 957              		.loc 1 408 3 discriminator 3
 958 0024 3B68     		ldr	r3, [r7]
 959 0026 03F0C063 		and	r3, r3, #100663296
 960 002a B3F1C06F 		cmp	r3, #100663296
 961 002e 04D1     		bne	.L58
 962              	.L59:
 963              		.loc 1 408 3 discriminator 6
 964 0030 3B68     		ldr	r3, [r7]
 965 0032 03F01F03 		and	r3, r3, #31
ARM GAS  /tmp/ccxUuSEB.s 			page 25


 966 0036 162B     		cmp	r3, #22
 967 0038 04D9     		bls	.L60
 968              	.L58:
 969              		.loc 1 408 3 discriminator 7
 970 003a 4FF4CC71 		mov	r1, #408
 971 003e 0848     		ldr	r0, .L63
 972 0040 FFF7FEFF 		bl	assert_failed
 973              	.L60:
 409:Drivers/STM32F4xx_HAL_Driver/Src/stm32f4xx_hal_exti.c **** 
 410:Drivers/STM32F4xx_HAL_Driver/Src/stm32f4xx_hal_exti.c ****   /* Check null pointer */
 411:Drivers/STM32F4xx_HAL_Driver/Src/stm32f4xx_hal_exti.c ****   if (hexti == NULL)
 974              		.loc 1 411 6 is_stmt 1
 975 0044 7B68     		ldr	r3, [r7, #4]
 976 0046 002B     		cmp	r3, #0
 977 0048 01D1     		bne	.L61
 412:Drivers/STM32F4xx_HAL_Driver/Src/stm32f4xx_hal_exti.c ****   {
 413:Drivers/STM32F4xx_HAL_Driver/Src/stm32f4xx_hal_exti.c ****     return HAL_ERROR;
 978              		.loc 1 413 12
 979 004a 0123     		movs	r3, #1
 980 004c 03E0     		b	.L62
 981              	.L61:
 414:Drivers/STM32F4xx_HAL_Driver/Src/stm32f4xx_hal_exti.c ****   }
 415:Drivers/STM32F4xx_HAL_Driver/Src/stm32f4xx_hal_exti.c ****   else
 416:Drivers/STM32F4xx_HAL_Driver/Src/stm32f4xx_hal_exti.c ****   {
 417:Drivers/STM32F4xx_HAL_Driver/Src/stm32f4xx_hal_exti.c ****     /* Store line number as handle private field */
 418:Drivers/STM32F4xx_HAL_Driver/Src/stm32f4xx_hal_exti.c ****     hexti->Line = ExtiLine;
 982              		.loc 1 418 17
 983 004e 7B68     		ldr	r3, [r7, #4]
 984 0050 3A68     		ldr	r2, [r7]
 985 0052 1A60     		str	r2, [r3]
 419:Drivers/STM32F4xx_HAL_Driver/Src/stm32f4xx_hal_exti.c **** 
 420:Drivers/STM32F4xx_HAL_Driver/Src/stm32f4xx_hal_exti.c ****     return HAL_OK;
 986              		.loc 1 420 12
 987 0054 0023     		movs	r3, #0
 988              	.L62:
 421:Drivers/STM32F4xx_HAL_Driver/Src/stm32f4xx_hal_exti.c ****   }
 422:Drivers/STM32F4xx_HAL_Driver/Src/stm32f4xx_hal_exti.c **** }
 989              		.loc 1 422 1
 990 0056 1846     		mov	r0, r3
 991 0058 0837     		adds	r7, r7, #8
 992              	.LCFI24:
 993              		.cfi_def_cfa_offset 8
 994 005a BD46     		mov	sp, r7
 995              	.LCFI25:
 996              		.cfi_def_cfa_register 13
 997              		@ sp needed
 998 005c 80BD     		pop	{r7, pc}
 999              	.L64:
 1000 005e 00BF     		.align	2
 1001              	.L63:
 1002 0060 00000000 		.word	.LC0
 1003              		.cfi_endproc
 1004              	.LFE134:
 1006              		.section	.text.HAL_EXTI_IRQHandler,"ax",%progbits
 1007              		.align	1
 1008              		.global	HAL_EXTI_IRQHandler
 1009              		.syntax unified
ARM GAS  /tmp/ccxUuSEB.s 			page 26


 1010              		.thumb
 1011              		.thumb_func
 1012              		.fpu fpv4-sp-d16
 1014              	HAL_EXTI_IRQHandler:
 1015              	.LFB135:
 423:Drivers/STM32F4xx_HAL_Driver/Src/stm32f4xx_hal_exti.c **** 
 424:Drivers/STM32F4xx_HAL_Driver/Src/stm32f4xx_hal_exti.c **** /**
 425:Drivers/STM32F4xx_HAL_Driver/Src/stm32f4xx_hal_exti.c ****   * @}
 426:Drivers/STM32F4xx_HAL_Driver/Src/stm32f4xx_hal_exti.c ****   */
 427:Drivers/STM32F4xx_HAL_Driver/Src/stm32f4xx_hal_exti.c **** 
 428:Drivers/STM32F4xx_HAL_Driver/Src/stm32f4xx_hal_exti.c **** /** @addtogroup EXTI_Exported_Functions_Group2
 429:Drivers/STM32F4xx_HAL_Driver/Src/stm32f4xx_hal_exti.c ****   *  @brief EXTI IO functions.
 430:Drivers/STM32F4xx_HAL_Driver/Src/stm32f4xx_hal_exti.c ****   *
 431:Drivers/STM32F4xx_HAL_Driver/Src/stm32f4xx_hal_exti.c **** @verbatim
 432:Drivers/STM32F4xx_HAL_Driver/Src/stm32f4xx_hal_exti.c ****  ===============================================================================
 433:Drivers/STM32F4xx_HAL_Driver/Src/stm32f4xx_hal_exti.c ****                        ##### IO operation functions #####
 434:Drivers/STM32F4xx_HAL_Driver/Src/stm32f4xx_hal_exti.c ****  ===============================================================================
 435:Drivers/STM32F4xx_HAL_Driver/Src/stm32f4xx_hal_exti.c **** 
 436:Drivers/STM32F4xx_HAL_Driver/Src/stm32f4xx_hal_exti.c **** @endverbatim
 437:Drivers/STM32F4xx_HAL_Driver/Src/stm32f4xx_hal_exti.c ****   * @{
 438:Drivers/STM32F4xx_HAL_Driver/Src/stm32f4xx_hal_exti.c ****   */
 439:Drivers/STM32F4xx_HAL_Driver/Src/stm32f4xx_hal_exti.c **** 
 440:Drivers/STM32F4xx_HAL_Driver/Src/stm32f4xx_hal_exti.c **** /**
 441:Drivers/STM32F4xx_HAL_Driver/Src/stm32f4xx_hal_exti.c ****   * @brief  Handle EXTI interrupt request.
 442:Drivers/STM32F4xx_HAL_Driver/Src/stm32f4xx_hal_exti.c ****   * @param  hexti Exti handle.
 443:Drivers/STM32F4xx_HAL_Driver/Src/stm32f4xx_hal_exti.c ****   * @retval none.
 444:Drivers/STM32F4xx_HAL_Driver/Src/stm32f4xx_hal_exti.c ****   */
 445:Drivers/STM32F4xx_HAL_Driver/Src/stm32f4xx_hal_exti.c **** void HAL_EXTI_IRQHandler(EXTI_HandleTypeDef *hexti)
 446:Drivers/STM32F4xx_HAL_Driver/Src/stm32f4xx_hal_exti.c **** {
 1016              		.loc 1 446 1
 1017              		.cfi_startproc
 1018              		@ args = 0, pretend = 0, frame = 16
 1019              		@ frame_needed = 1, uses_anonymous_args = 0
 1020 0000 80B5     		push	{r7, lr}
 1021              	.LCFI26:
 1022              		.cfi_def_cfa_offset 8
 1023              		.cfi_offset 7, -8
 1024              		.cfi_offset 14, -4
 1025 0002 84B0     		sub	sp, sp, #16
 1026              	.LCFI27:
 1027              		.cfi_def_cfa_offset 24
 1028 0004 00AF     		add	r7, sp, #0
 1029              	.LCFI28:
 1030              		.cfi_def_cfa_register 7
 1031 0006 7860     		str	r0, [r7, #4]
 447:Drivers/STM32F4xx_HAL_Driver/Src/stm32f4xx_hal_exti.c ****   uint32_t regval;
 448:Drivers/STM32F4xx_HAL_Driver/Src/stm32f4xx_hal_exti.c ****   uint32_t maskline;
 449:Drivers/STM32F4xx_HAL_Driver/Src/stm32f4xx_hal_exti.c **** 
 450:Drivers/STM32F4xx_HAL_Driver/Src/stm32f4xx_hal_exti.c ****   /* Compute line mask */
 451:Drivers/STM32F4xx_HAL_Driver/Src/stm32f4xx_hal_exti.c ****   maskline = (1uL << (hexti->Line & EXTI_PIN_MASK));
 1032              		.loc 1 451 28
 1033 0008 7B68     		ldr	r3, [r7, #4]
 1034 000a 1B68     		ldr	r3, [r3]
 1035              		.loc 1 451 35
 1036 000c 03F01F03 		and	r3, r3, #31
 1037              		.loc 1 451 12
 1038 0010 0122     		movs	r2, #1
ARM GAS  /tmp/ccxUuSEB.s 			page 27


 1039 0012 02FA03F3 		lsl	r3, r2, r3
 1040 0016 FB60     		str	r3, [r7, #12]
 452:Drivers/STM32F4xx_HAL_Driver/Src/stm32f4xx_hal_exti.c **** 
 453:Drivers/STM32F4xx_HAL_Driver/Src/stm32f4xx_hal_exti.c ****   /* Get pending bit  */
 454:Drivers/STM32F4xx_HAL_Driver/Src/stm32f4xx_hal_exti.c ****   regval = (EXTI->PR & maskline);
 1041              		.loc 1 454 17
 1042 0018 0A4B     		ldr	r3, .L68
 1043 001a 5B69     		ldr	r3, [r3, #20]
 1044              		.loc 1 454 10
 1045 001c FA68     		ldr	r2, [r7, #12]
 1046 001e 1340     		ands	r3, r3, r2
 1047 0020 BB60     		str	r3, [r7, #8]
 455:Drivers/STM32F4xx_HAL_Driver/Src/stm32f4xx_hal_exti.c ****   if (regval != 0x00u)
 1048              		.loc 1 455 6
 1049 0022 BB68     		ldr	r3, [r7, #8]
 1050 0024 002B     		cmp	r3, #0
 1051 0026 09D0     		beq	.L67
 456:Drivers/STM32F4xx_HAL_Driver/Src/stm32f4xx_hal_exti.c ****   {
 457:Drivers/STM32F4xx_HAL_Driver/Src/stm32f4xx_hal_exti.c ****     /* Clear pending bit */
 458:Drivers/STM32F4xx_HAL_Driver/Src/stm32f4xx_hal_exti.c ****     EXTI->PR = maskline;
 1052              		.loc 1 458 9
 1053 0028 064A     		ldr	r2, .L68
 1054              		.loc 1 458 14
 1055 002a FB68     		ldr	r3, [r7, #12]
 1056 002c 5361     		str	r3, [r2, #20]
 459:Drivers/STM32F4xx_HAL_Driver/Src/stm32f4xx_hal_exti.c **** 
 460:Drivers/STM32F4xx_HAL_Driver/Src/stm32f4xx_hal_exti.c ****     /* Call callback */
 461:Drivers/STM32F4xx_HAL_Driver/Src/stm32f4xx_hal_exti.c ****     if (hexti->PendingCallback != NULL)
 1057              		.loc 1 461 14
 1058 002e 7B68     		ldr	r3, [r7, #4]
 1059 0030 5B68     		ldr	r3, [r3, #4]
 1060              		.loc 1 461 8
 1061 0032 002B     		cmp	r3, #0
 1062 0034 02D0     		beq	.L67
 462:Drivers/STM32F4xx_HAL_Driver/Src/stm32f4xx_hal_exti.c ****     {
 463:Drivers/STM32F4xx_HAL_Driver/Src/stm32f4xx_hal_exti.c ****       hexti->PendingCallback();
 1063              		.loc 1 463 12
 1064 0036 7B68     		ldr	r3, [r7, #4]
 1065 0038 5B68     		ldr	r3, [r3, #4]
 1066              		.loc 1 463 7
 1067 003a 9847     		blx	r3
 1068              	.LVL0:
 1069              	.L67:
 464:Drivers/STM32F4xx_HAL_Driver/Src/stm32f4xx_hal_exti.c ****     }
 465:Drivers/STM32F4xx_HAL_Driver/Src/stm32f4xx_hal_exti.c ****   }
 466:Drivers/STM32F4xx_HAL_Driver/Src/stm32f4xx_hal_exti.c **** }
 1070              		.loc 1 466 1
 1071 003c 00BF     		nop
 1072 003e 1037     		adds	r7, r7, #16
 1073              	.LCFI29:
 1074              		.cfi_def_cfa_offset 8
 1075 0040 BD46     		mov	sp, r7
 1076              	.LCFI30:
 1077              		.cfi_def_cfa_register 13
 1078              		@ sp needed
 1079 0042 80BD     		pop	{r7, pc}
 1080              	.L69:
ARM GAS  /tmp/ccxUuSEB.s 			page 28


 1081              		.align	2
 1082              	.L68:
 1083 0044 003C0140 		.word	1073822720
 1084              		.cfi_endproc
 1085              	.LFE135:
 1087              		.section	.text.HAL_EXTI_GetPending,"ax",%progbits
 1088              		.align	1
 1089              		.global	HAL_EXTI_GetPending
 1090              		.syntax unified
 1091              		.thumb
 1092              		.thumb_func
 1093              		.fpu fpv4-sp-d16
 1095              	HAL_EXTI_GetPending:
 1096              	.LFB136:
 467:Drivers/STM32F4xx_HAL_Driver/Src/stm32f4xx_hal_exti.c **** 
 468:Drivers/STM32F4xx_HAL_Driver/Src/stm32f4xx_hal_exti.c **** /**
 469:Drivers/STM32F4xx_HAL_Driver/Src/stm32f4xx_hal_exti.c ****   * @brief  Get interrupt pending bit of a dedicated line.
 470:Drivers/STM32F4xx_HAL_Driver/Src/stm32f4xx_hal_exti.c ****   * @param  hexti Exti handle.
 471:Drivers/STM32F4xx_HAL_Driver/Src/stm32f4xx_hal_exti.c ****   * @param  Edge Specify which pending edge as to be checked.
 472:Drivers/STM32F4xx_HAL_Driver/Src/stm32f4xx_hal_exti.c ****   *         This parameter can be one of the following values:
 473:Drivers/STM32F4xx_HAL_Driver/Src/stm32f4xx_hal_exti.c ****   *           @arg @ref EXTI_TRIGGER_RISING_FALLING
 474:Drivers/STM32F4xx_HAL_Driver/Src/stm32f4xx_hal_exti.c ****   *         This parameter is kept for compatibility with other series.
 475:Drivers/STM32F4xx_HAL_Driver/Src/stm32f4xx_hal_exti.c ****   * @retval 1 if interrupt is pending else 0.
 476:Drivers/STM32F4xx_HAL_Driver/Src/stm32f4xx_hal_exti.c ****   */
 477:Drivers/STM32F4xx_HAL_Driver/Src/stm32f4xx_hal_exti.c **** uint32_t HAL_EXTI_GetPending(EXTI_HandleTypeDef *hexti, uint32_t Edge)
 478:Drivers/STM32F4xx_HAL_Driver/Src/stm32f4xx_hal_exti.c **** {
 1097              		.loc 1 478 1
 1098              		.cfi_startproc
 1099              		@ args = 0, pretend = 0, frame = 24
 1100              		@ frame_needed = 1, uses_anonymous_args = 0
 1101 0000 80B5     		push	{r7, lr}
 1102              	.LCFI31:
 1103              		.cfi_def_cfa_offset 8
 1104              		.cfi_offset 7, -8
 1105              		.cfi_offset 14, -4
 1106 0002 86B0     		sub	sp, sp, #24
 1107              	.LCFI32:
 1108              		.cfi_def_cfa_offset 32
 1109 0004 00AF     		add	r7, sp, #0
 1110              	.LCFI33:
 1111              		.cfi_def_cfa_register 7
 1112 0006 7860     		str	r0, [r7, #4]
 1113 0008 3960     		str	r1, [r7]
 479:Drivers/STM32F4xx_HAL_Driver/Src/stm32f4xx_hal_exti.c ****   uint32_t regval;
 480:Drivers/STM32F4xx_HAL_Driver/Src/stm32f4xx_hal_exti.c ****   uint32_t linepos;
 481:Drivers/STM32F4xx_HAL_Driver/Src/stm32f4xx_hal_exti.c ****   uint32_t maskline;
 482:Drivers/STM32F4xx_HAL_Driver/Src/stm32f4xx_hal_exti.c **** 
 483:Drivers/STM32F4xx_HAL_Driver/Src/stm32f4xx_hal_exti.c ****   /* Check parameters */
 484:Drivers/STM32F4xx_HAL_Driver/Src/stm32f4xx_hal_exti.c ****   assert_param(IS_EXTI_LINE(hexti->Line));
 1114              		.loc 1 484 3
 1115 000a 7B68     		ldr	r3, [r7, #4]
 1116 000c 1B68     		ldr	r3, [r3]
 1117 000e 23F0C063 		bic	r3, r3, #100663296
 1118 0012 23F01F03 		bic	r3, r3, #31
 1119 0016 002B     		cmp	r3, #0
 1120 0018 13D1     		bne	.L71
 1121              		.loc 1 484 3 is_stmt 0 discriminator 2
ARM GAS  /tmp/ccxUuSEB.s 			page 29


 1122 001a 7B68     		ldr	r3, [r7, #4]
 1123 001c 1B68     		ldr	r3, [r3]
 1124 001e 03F0C063 		and	r3, r3, #100663296
 1125 0022 B3F1007F 		cmp	r3, #33554432
 1126 0026 06D0     		beq	.L72
 1127              		.loc 1 484 3 discriminator 3
 1128 0028 7B68     		ldr	r3, [r7, #4]
 1129 002a 1B68     		ldr	r3, [r3]
 1130 002c 03F0C063 		and	r3, r3, #100663296
 1131 0030 B3F1C06F 		cmp	r3, #100663296
 1132 0034 05D1     		bne	.L71
 1133              	.L72:
 1134              		.loc 1 484 3 discriminator 6
 1135 0036 7B68     		ldr	r3, [r7, #4]
 1136 0038 1B68     		ldr	r3, [r3]
 1137 003a 03F01F03 		and	r3, r3, #31
 1138 003e 162B     		cmp	r3, #22
 1139 0040 04D9     		bls	.L73
 1140              	.L71:
 1141              		.loc 1 484 3 discriminator 7
 1142 0042 4FF4F271 		mov	r1, #484
 1143 0046 1648     		ldr	r0, .L77
 1144 0048 FFF7FEFF 		bl	assert_failed
 1145              	.L73:
 485:Drivers/STM32F4xx_HAL_Driver/Src/stm32f4xx_hal_exti.c ****   assert_param(IS_EXTI_CONFIG_LINE(hexti->Line));
 1146              		.loc 1 485 3 is_stmt 1
 1147 004c 7B68     		ldr	r3, [r7, #4]
 1148 004e 1B68     		ldr	r3, [r3]
 1149 0050 03F00073 		and	r3, r3, #33554432
 1150 0054 002B     		cmp	r3, #0
 1151 0056 04D1     		bne	.L74
 1152              		.loc 1 485 3 is_stmt 0 discriminator 1
 1153 0058 40F2E511 		movw	r1, #485
 1154 005c 1048     		ldr	r0, .L77
 1155 005e FFF7FEFF 		bl	assert_failed
 1156              	.L74:
 486:Drivers/STM32F4xx_HAL_Driver/Src/stm32f4xx_hal_exti.c ****   assert_param(IS_EXTI_PENDING_EDGE(Edge));
 1157              		.loc 1 486 3 is_stmt 1
 1158 0062 3B68     		ldr	r3, [r7]
 1159 0064 032B     		cmp	r3, #3
 1160 0066 04D0     		beq	.L75
 1161              		.loc 1 486 3 is_stmt 0 discriminator 1
 1162 0068 4FF4F371 		mov	r1, #486
 1163 006c 0C48     		ldr	r0, .L77
 1164 006e FFF7FEFF 		bl	assert_failed
 1165              	.L75:
 487:Drivers/STM32F4xx_HAL_Driver/Src/stm32f4xx_hal_exti.c **** 
 488:Drivers/STM32F4xx_HAL_Driver/Src/stm32f4xx_hal_exti.c ****   /* Compute line mask */
 489:Drivers/STM32F4xx_HAL_Driver/Src/stm32f4xx_hal_exti.c ****   linepos = (hexti->Line & EXTI_PIN_MASK);
 1166              		.loc 1 489 19 is_stmt 1
 1167 0072 7B68     		ldr	r3, [r7, #4]
 1168 0074 1B68     		ldr	r3, [r3]
 1169              		.loc 1 489 11
 1170 0076 03F01F03 		and	r3, r3, #31
 1171 007a 7B61     		str	r3, [r7, #20]
 490:Drivers/STM32F4xx_HAL_Driver/Src/stm32f4xx_hal_exti.c ****   maskline = (1uL << linepos);
 1172              		.loc 1 490 12
ARM GAS  /tmp/ccxUuSEB.s 			page 30


 1173 007c 0122     		movs	r2, #1
 1174 007e 7B69     		ldr	r3, [r7, #20]
 1175 0080 02FA03F3 		lsl	r3, r2, r3
 1176 0084 3B61     		str	r3, [r7, #16]
 491:Drivers/STM32F4xx_HAL_Driver/Src/stm32f4xx_hal_exti.c **** 
 492:Drivers/STM32F4xx_HAL_Driver/Src/stm32f4xx_hal_exti.c ****   /* return 1 if bit is set else 0 */
 493:Drivers/STM32F4xx_HAL_Driver/Src/stm32f4xx_hal_exti.c ****   regval = ((EXTI->PR & maskline) >> linepos);
 1177              		.loc 1 493 18
 1178 0086 074B     		ldr	r3, .L77+4
 1179 0088 5A69     		ldr	r2, [r3, #20]
 1180              		.loc 1 493 23
 1181 008a 3B69     		ldr	r3, [r7, #16]
 1182 008c 1A40     		ands	r2, r2, r3
 1183              		.loc 1 493 10
 1184 008e 7B69     		ldr	r3, [r7, #20]
 1185 0090 22FA03F3 		lsr	r3, r2, r3
 1186 0094 FB60     		str	r3, [r7, #12]
 494:Drivers/STM32F4xx_HAL_Driver/Src/stm32f4xx_hal_exti.c ****   return regval;
 1187              		.loc 1 494 10
 1188 0096 FB68     		ldr	r3, [r7, #12]
 495:Drivers/STM32F4xx_HAL_Driver/Src/stm32f4xx_hal_exti.c **** }
 1189              		.loc 1 495 1
 1190 0098 1846     		mov	r0, r3
 1191 009a 1837     		adds	r7, r7, #24
 1192              	.LCFI34:
 1193              		.cfi_def_cfa_offset 8
 1194 009c BD46     		mov	sp, r7
 1195              	.LCFI35:
 1196              		.cfi_def_cfa_register 13
 1197              		@ sp needed
 1198 009e 80BD     		pop	{r7, pc}
 1199              	.L78:
 1200              		.align	2
 1201              	.L77:
 1202 00a0 00000000 		.word	.LC0
 1203 00a4 003C0140 		.word	1073822720
 1204              		.cfi_endproc
 1205              	.LFE136:
 1207              		.section	.text.HAL_EXTI_ClearPending,"ax",%progbits
 1208              		.align	1
 1209              		.global	HAL_EXTI_ClearPending
 1210              		.syntax unified
 1211              		.thumb
 1212              		.thumb_func
 1213              		.fpu fpv4-sp-d16
 1215              	HAL_EXTI_ClearPending:
 1216              	.LFB137:
 496:Drivers/STM32F4xx_HAL_Driver/Src/stm32f4xx_hal_exti.c **** 
 497:Drivers/STM32F4xx_HAL_Driver/Src/stm32f4xx_hal_exti.c **** /**
 498:Drivers/STM32F4xx_HAL_Driver/Src/stm32f4xx_hal_exti.c ****   * @brief  Clear interrupt pending bit of a dedicated line.
 499:Drivers/STM32F4xx_HAL_Driver/Src/stm32f4xx_hal_exti.c ****   * @param  hexti Exti handle.
 500:Drivers/STM32F4xx_HAL_Driver/Src/stm32f4xx_hal_exti.c ****   * @param  Edge Specify which pending edge as to be clear.
 501:Drivers/STM32F4xx_HAL_Driver/Src/stm32f4xx_hal_exti.c ****   *         This parameter can be one of the following values:
 502:Drivers/STM32F4xx_HAL_Driver/Src/stm32f4xx_hal_exti.c ****   *           @arg @ref EXTI_TRIGGER_RISING_FALLING
 503:Drivers/STM32F4xx_HAL_Driver/Src/stm32f4xx_hal_exti.c ****   *         This parameter is kept for compatibility with other series.
 504:Drivers/STM32F4xx_HAL_Driver/Src/stm32f4xx_hal_exti.c ****   * @retval None.
 505:Drivers/STM32F4xx_HAL_Driver/Src/stm32f4xx_hal_exti.c ****   */
ARM GAS  /tmp/ccxUuSEB.s 			page 31


 506:Drivers/STM32F4xx_HAL_Driver/Src/stm32f4xx_hal_exti.c **** void HAL_EXTI_ClearPending(EXTI_HandleTypeDef *hexti, uint32_t Edge)
 507:Drivers/STM32F4xx_HAL_Driver/Src/stm32f4xx_hal_exti.c **** {
 1217              		.loc 1 507 1
 1218              		.cfi_startproc
 1219              		@ args = 0, pretend = 0, frame = 16
 1220              		@ frame_needed = 1, uses_anonymous_args = 0
 1221 0000 80B5     		push	{r7, lr}
 1222              	.LCFI36:
 1223              		.cfi_def_cfa_offset 8
 1224              		.cfi_offset 7, -8
 1225              		.cfi_offset 14, -4
 1226 0002 84B0     		sub	sp, sp, #16
 1227              	.LCFI37:
 1228              		.cfi_def_cfa_offset 24
 1229 0004 00AF     		add	r7, sp, #0
 1230              	.LCFI38:
 1231              		.cfi_def_cfa_register 7
 1232 0006 7860     		str	r0, [r7, #4]
 1233 0008 3960     		str	r1, [r7]
 508:Drivers/STM32F4xx_HAL_Driver/Src/stm32f4xx_hal_exti.c ****   uint32_t maskline;
 509:Drivers/STM32F4xx_HAL_Driver/Src/stm32f4xx_hal_exti.c **** 
 510:Drivers/STM32F4xx_HAL_Driver/Src/stm32f4xx_hal_exti.c ****   /* Check parameters */
 511:Drivers/STM32F4xx_HAL_Driver/Src/stm32f4xx_hal_exti.c ****   assert_param(IS_EXTI_LINE(hexti->Line));
 1234              		.loc 1 511 3
 1235 000a 7B68     		ldr	r3, [r7, #4]
 1236 000c 1B68     		ldr	r3, [r3]
 1237 000e 23F0C063 		bic	r3, r3, #100663296
 1238 0012 23F01F03 		bic	r3, r3, #31
 1239 0016 002B     		cmp	r3, #0
 1240 0018 13D1     		bne	.L80
 1241              		.loc 1 511 3 is_stmt 0 discriminator 2
 1242 001a 7B68     		ldr	r3, [r7, #4]
 1243 001c 1B68     		ldr	r3, [r3]
 1244 001e 03F0C063 		and	r3, r3, #100663296
 1245 0022 B3F1007F 		cmp	r3, #33554432
 1246 0026 06D0     		beq	.L81
 1247              		.loc 1 511 3 discriminator 3
 1248 0028 7B68     		ldr	r3, [r7, #4]
 1249 002a 1B68     		ldr	r3, [r3]
 1250 002c 03F0C063 		and	r3, r3, #100663296
 1251 0030 B3F1C06F 		cmp	r3, #100663296
 1252 0034 05D1     		bne	.L80
 1253              	.L81:
 1254              		.loc 1 511 3 discriminator 6
 1255 0036 7B68     		ldr	r3, [r7, #4]
 1256 0038 1B68     		ldr	r3, [r3]
 1257 003a 03F01F03 		and	r3, r3, #31
 1258 003e 162B     		cmp	r3, #22
 1259 0040 04D9     		bls	.L82
 1260              	.L80:
 1261              		.loc 1 511 3 discriminator 7
 1262 0042 40F2FF11 		movw	r1, #511
 1263 0046 1248     		ldr	r0, .L85
 1264 0048 FFF7FEFF 		bl	assert_failed
 1265              	.L82:
 512:Drivers/STM32F4xx_HAL_Driver/Src/stm32f4xx_hal_exti.c ****   assert_param(IS_EXTI_CONFIG_LINE(hexti->Line));
 1266              		.loc 1 512 3 is_stmt 1
ARM GAS  /tmp/ccxUuSEB.s 			page 32


 1267 004c 7B68     		ldr	r3, [r7, #4]
 1268 004e 1B68     		ldr	r3, [r3]
 1269 0050 03F00073 		and	r3, r3, #33554432
 1270 0054 002B     		cmp	r3, #0
 1271 0056 04D1     		bne	.L83
 1272              		.loc 1 512 3 is_stmt 0 discriminator 1
 1273 0058 4FF40071 		mov	r1, #512
 1274 005c 0C48     		ldr	r0, .L85
 1275 005e FFF7FEFF 		bl	assert_failed
 1276              	.L83:
 513:Drivers/STM32F4xx_HAL_Driver/Src/stm32f4xx_hal_exti.c ****   assert_param(IS_EXTI_PENDING_EDGE(Edge));
 1277              		.loc 1 513 3 is_stmt 1
 1278 0062 3B68     		ldr	r3, [r7]
 1279 0064 032B     		cmp	r3, #3
 1280 0066 04D0     		beq	.L84
 1281              		.loc 1 513 3 is_stmt 0 discriminator 1
 1282 0068 40F20121 		movw	r1, #513
 1283 006c 0848     		ldr	r0, .L85
 1284 006e FFF7FEFF 		bl	assert_failed
 1285              	.L84:
 514:Drivers/STM32F4xx_HAL_Driver/Src/stm32f4xx_hal_exti.c **** 
 515:Drivers/STM32F4xx_HAL_Driver/Src/stm32f4xx_hal_exti.c ****   /* Compute line mask */
 516:Drivers/STM32F4xx_HAL_Driver/Src/stm32f4xx_hal_exti.c ****   maskline = (1uL << (hexti->Line & EXTI_PIN_MASK));
 1286              		.loc 1 516 28 is_stmt 1
 1287 0072 7B68     		ldr	r3, [r7, #4]
 1288 0074 1B68     		ldr	r3, [r3]
 1289              		.loc 1 516 35
 1290 0076 03F01F03 		and	r3, r3, #31
 1291              		.loc 1 516 12
 1292 007a 0122     		movs	r2, #1
 1293 007c 02FA03F3 		lsl	r3, r2, r3
 1294 0080 FB60     		str	r3, [r7, #12]
 517:Drivers/STM32F4xx_HAL_Driver/Src/stm32f4xx_hal_exti.c **** 
 518:Drivers/STM32F4xx_HAL_Driver/Src/stm32f4xx_hal_exti.c ****   /* Clear Pending bit */
 519:Drivers/STM32F4xx_HAL_Driver/Src/stm32f4xx_hal_exti.c ****   EXTI->PR =  maskline;
 1295              		.loc 1 519 7
 1296 0082 044A     		ldr	r2, .L85+4
 1297              		.loc 1 519 12
 1298 0084 FB68     		ldr	r3, [r7, #12]
 1299 0086 5361     		str	r3, [r2, #20]
 520:Drivers/STM32F4xx_HAL_Driver/Src/stm32f4xx_hal_exti.c **** }
 1300              		.loc 1 520 1
 1301 0088 00BF     		nop
 1302 008a 1037     		adds	r7, r7, #16
 1303              	.LCFI39:
 1304              		.cfi_def_cfa_offset 8
 1305 008c BD46     		mov	sp, r7
 1306              	.LCFI40:
 1307              		.cfi_def_cfa_register 13
 1308              		@ sp needed
 1309 008e 80BD     		pop	{r7, pc}
 1310              	.L86:
 1311              		.align	2
 1312              	.L85:
 1313 0090 00000000 		.word	.LC0
 1314 0094 003C0140 		.word	1073822720
 1315              		.cfi_endproc
ARM GAS  /tmp/ccxUuSEB.s 			page 33


 1316              	.LFE137:
 1318              		.section	.text.HAL_EXTI_GenerateSWI,"ax",%progbits
 1319              		.align	1
 1320              		.global	HAL_EXTI_GenerateSWI
 1321              		.syntax unified
 1322              		.thumb
 1323              		.thumb_func
 1324              		.fpu fpv4-sp-d16
 1326              	HAL_EXTI_GenerateSWI:
 1327              	.LFB138:
 521:Drivers/STM32F4xx_HAL_Driver/Src/stm32f4xx_hal_exti.c **** 
 522:Drivers/STM32F4xx_HAL_Driver/Src/stm32f4xx_hal_exti.c **** /**
 523:Drivers/STM32F4xx_HAL_Driver/Src/stm32f4xx_hal_exti.c ****   * @brief  Generate a software interrupt for a dedicated line.
 524:Drivers/STM32F4xx_HAL_Driver/Src/stm32f4xx_hal_exti.c ****   * @param  hexti Exti handle.
 525:Drivers/STM32F4xx_HAL_Driver/Src/stm32f4xx_hal_exti.c ****   * @retval None.
 526:Drivers/STM32F4xx_HAL_Driver/Src/stm32f4xx_hal_exti.c ****   */
 527:Drivers/STM32F4xx_HAL_Driver/Src/stm32f4xx_hal_exti.c **** void HAL_EXTI_GenerateSWI(EXTI_HandleTypeDef *hexti)
 528:Drivers/STM32F4xx_HAL_Driver/Src/stm32f4xx_hal_exti.c **** {
 1328              		.loc 1 528 1
 1329              		.cfi_startproc
 1330              		@ args = 0, pretend = 0, frame = 16
 1331              		@ frame_needed = 1, uses_anonymous_args = 0
 1332 0000 80B5     		push	{r7, lr}
 1333              	.LCFI41:
 1334              		.cfi_def_cfa_offset 8
 1335              		.cfi_offset 7, -8
 1336              		.cfi_offset 14, -4
 1337 0002 84B0     		sub	sp, sp, #16
 1338              	.LCFI42:
 1339              		.cfi_def_cfa_offset 24
 1340 0004 00AF     		add	r7, sp, #0
 1341              	.LCFI43:
 1342              		.cfi_def_cfa_register 7
 1343 0006 7860     		str	r0, [r7, #4]
 529:Drivers/STM32F4xx_HAL_Driver/Src/stm32f4xx_hal_exti.c ****   uint32_t maskline;
 530:Drivers/STM32F4xx_HAL_Driver/Src/stm32f4xx_hal_exti.c **** 
 531:Drivers/STM32F4xx_HAL_Driver/Src/stm32f4xx_hal_exti.c ****   /* Check parameters */
 532:Drivers/STM32F4xx_HAL_Driver/Src/stm32f4xx_hal_exti.c ****   assert_param(IS_EXTI_LINE(hexti->Line));
 1344              		.loc 1 532 3
 1345 0008 7B68     		ldr	r3, [r7, #4]
 1346 000a 1B68     		ldr	r3, [r3]
 1347 000c 23F0C063 		bic	r3, r3, #100663296
 1348 0010 23F01F03 		bic	r3, r3, #31
 1349 0014 002B     		cmp	r3, #0
 1350 0016 13D1     		bne	.L88
 1351              		.loc 1 532 3 is_stmt 0 discriminator 2
 1352 0018 7B68     		ldr	r3, [r7, #4]
 1353 001a 1B68     		ldr	r3, [r3]
 1354 001c 03F0C063 		and	r3, r3, #100663296
 1355 0020 B3F1007F 		cmp	r3, #33554432
 1356 0024 06D0     		beq	.L89
 1357              		.loc 1 532 3 discriminator 3
 1358 0026 7B68     		ldr	r3, [r7, #4]
 1359 0028 1B68     		ldr	r3, [r3]
 1360 002a 03F0C063 		and	r3, r3, #100663296
 1361 002e B3F1C06F 		cmp	r3, #100663296
 1362 0032 05D1     		bne	.L88
ARM GAS  /tmp/ccxUuSEB.s 			page 34


 1363              	.L89:
 1364              		.loc 1 532 3 discriminator 6
 1365 0034 7B68     		ldr	r3, [r7, #4]
 1366 0036 1B68     		ldr	r3, [r3]
 1367 0038 03F01F03 		and	r3, r3, #31
 1368 003c 162B     		cmp	r3, #22
 1369 003e 04D9     		bls	.L90
 1370              	.L88:
 1371              		.loc 1 532 3 discriminator 7
 1372 0040 4FF40571 		mov	r1, #532
 1373 0044 0E48     		ldr	r0, .L92
 1374 0046 FFF7FEFF 		bl	assert_failed
 1375              	.L90:
 533:Drivers/STM32F4xx_HAL_Driver/Src/stm32f4xx_hal_exti.c ****   assert_param(IS_EXTI_CONFIG_LINE(hexti->Line));
 1376              		.loc 1 533 3 is_stmt 1
 1377 004a 7B68     		ldr	r3, [r7, #4]
 1378 004c 1B68     		ldr	r3, [r3]
 1379 004e 03F00073 		and	r3, r3, #33554432
 1380 0052 002B     		cmp	r3, #0
 1381 0054 04D1     		bne	.L91
 1382              		.loc 1 533 3 is_stmt 0 discriminator 1
 1383 0056 40F21521 		movw	r1, #533
 1384 005a 0948     		ldr	r0, .L92
 1385 005c FFF7FEFF 		bl	assert_failed
 1386              	.L91:
 534:Drivers/STM32F4xx_HAL_Driver/Src/stm32f4xx_hal_exti.c **** 
 535:Drivers/STM32F4xx_HAL_Driver/Src/stm32f4xx_hal_exti.c ****   /* Compute line mask */
 536:Drivers/STM32F4xx_HAL_Driver/Src/stm32f4xx_hal_exti.c ****   maskline = (1uL << (hexti->Line & EXTI_PIN_MASK));
 1387              		.loc 1 536 28 is_stmt 1
 1388 0060 7B68     		ldr	r3, [r7, #4]
 1389 0062 1B68     		ldr	r3, [r3]
 1390              		.loc 1 536 35
 1391 0064 03F01F03 		and	r3, r3, #31
 1392              		.loc 1 536 12
 1393 0068 0122     		movs	r2, #1
 1394 006a 02FA03F3 		lsl	r3, r2, r3
 1395 006e FB60     		str	r3, [r7, #12]
 537:Drivers/STM32F4xx_HAL_Driver/Src/stm32f4xx_hal_exti.c **** 
 538:Drivers/STM32F4xx_HAL_Driver/Src/stm32f4xx_hal_exti.c ****   /* Generate Software interrupt */
 539:Drivers/STM32F4xx_HAL_Driver/Src/stm32f4xx_hal_exti.c ****   EXTI->SWIER = maskline;
 1396              		.loc 1 539 7
 1397 0070 044A     		ldr	r2, .L92+4
 1398              		.loc 1 539 15
 1399 0072 FB68     		ldr	r3, [r7, #12]
 1400 0074 1361     		str	r3, [r2, #16]
 540:Drivers/STM32F4xx_HAL_Driver/Src/stm32f4xx_hal_exti.c **** }
 1401              		.loc 1 540 1
 1402 0076 00BF     		nop
 1403 0078 1037     		adds	r7, r7, #16
 1404              	.LCFI44:
 1405              		.cfi_def_cfa_offset 8
 1406 007a BD46     		mov	sp, r7
 1407              	.LCFI45:
 1408              		.cfi_def_cfa_register 13
 1409              		@ sp needed
 1410 007c 80BD     		pop	{r7, pc}
 1411              	.L93:
ARM GAS  /tmp/ccxUuSEB.s 			page 35


 1412 007e 00BF     		.align	2
 1413              	.L92:
 1414 0080 00000000 		.word	.LC0
 1415 0084 003C0140 		.word	1073822720
 1416              		.cfi_endproc
 1417              	.LFE138:
 1419              		.text
 1420              	.Letext0:
 1421              		.file 2 "/usr/arm-none-eabi/include/machine/_default_types.h"
 1422              		.file 3 "/usr/arm-none-eabi/include/sys/_stdint.h"
 1423              		.file 4 "Drivers/CMSIS/Include/core_cm4.h"
 1424              		.file 5 "Drivers/CMSIS/Device/ST/STM32F4xx/Include/system_stm32f4xx.h"
 1425              		.file 6 "Drivers/CMSIS/Device/ST/STM32F4xx/Include/stm32f407xx.h"
 1426              		.file 7 "Drivers/STM32F4xx_HAL_Driver/Inc/stm32f4xx_hal_def.h"
 1427              		.file 8 "Drivers/STM32F4xx_HAL_Driver/Inc/stm32f4xx_hal_exti.h"
 1428              		.file 9 "Drivers/STM32F4xx_HAL_Driver/Inc/stm32f4xx_hal.h"
ARM GAS  /tmp/ccxUuSEB.s 			page 36

