ARM GAS  /tmp/ccsbOyJb.s 			page 1


   1              		.cpu cortex-m4
   2              		.eabi_attribute 27, 1
   3              		.eabi_attribute 28, 1
   4              		.eabi_attribute 20, 1
   5              		.eabi_attribute 21, 1
   6              		.eabi_attribute 23, 3
   7              		.eabi_attribute 24, 1
   8              		.eabi_attribute 25, 1
   9              		.eabi_attribute 26, 1
  10              		.eabi_attribute 30, 6
  11              		.eabi_attribute 34, 1
  12              		.eabi_attribute 18, 4
  13              		.file	"stm32f4xx_hal_pcd.c"
  14              		.text
  15              	.Ltext0:
  16              		.cfi_sections	.debug_frame
  17              		.section	.rodata
  18              		.align	2
  19              	.LC0:
  20 0000 44726976 		.ascii	"Drivers/STM32F4xx_HAL_Driver/Src/stm32f4xx_hal_pcd."
  20      6572732F 
  20      53544D33 
  20      32463478 
  20      785F4841 
  21 0033 6300     		.ascii	"c\000"
  22              		.section	.text.HAL_PCD_Init,"ax",%progbits
  23              		.align	1
  24              		.global	HAL_PCD_Init
  25              		.arch armv7e-m
  26              		.syntax unified
  27              		.thumb
  28              		.thumb_func
  29              		.fpu fpv4-sp-d16
  31              	HAL_PCD_Init:
  32              	.LFB130:
  33              		.file 1 "Drivers/STM32F4xx_HAL_Driver/Src/stm32f4xx_hal_pcd.c"
   1:Drivers/STM32F4xx_HAL_Driver/Src/stm32f4xx_hal_pcd.c **** /**
   2:Drivers/STM32F4xx_HAL_Driver/Src/stm32f4xx_hal_pcd.c ****   ******************************************************************************
   3:Drivers/STM32F4xx_HAL_Driver/Src/stm32f4xx_hal_pcd.c ****   * @file    stm32f4xx_hal_pcd.c
   4:Drivers/STM32F4xx_HAL_Driver/Src/stm32f4xx_hal_pcd.c ****   * @author  MCD Application Team
   5:Drivers/STM32F4xx_HAL_Driver/Src/stm32f4xx_hal_pcd.c ****   * @brief   PCD HAL module driver.
   6:Drivers/STM32F4xx_HAL_Driver/Src/stm32f4xx_hal_pcd.c ****   *          This file provides firmware functions to manage the following
   7:Drivers/STM32F4xx_HAL_Driver/Src/stm32f4xx_hal_pcd.c ****   *          functionalities of the USB Peripheral Controller:
   8:Drivers/STM32F4xx_HAL_Driver/Src/stm32f4xx_hal_pcd.c ****   *           + Initialization and de-initialization functions
   9:Drivers/STM32F4xx_HAL_Driver/Src/stm32f4xx_hal_pcd.c ****   *           + IO operation functions
  10:Drivers/STM32F4xx_HAL_Driver/Src/stm32f4xx_hal_pcd.c ****   *           + Peripheral Control functions
  11:Drivers/STM32F4xx_HAL_Driver/Src/stm32f4xx_hal_pcd.c ****   *           + Peripheral State functions
  12:Drivers/STM32F4xx_HAL_Driver/Src/stm32f4xx_hal_pcd.c ****   *
  13:Drivers/STM32F4xx_HAL_Driver/Src/stm32f4xx_hal_pcd.c ****   @verbatim
  14:Drivers/STM32F4xx_HAL_Driver/Src/stm32f4xx_hal_pcd.c ****   ==============================================================================
  15:Drivers/STM32F4xx_HAL_Driver/Src/stm32f4xx_hal_pcd.c ****                     ##### How to use this driver #####
  16:Drivers/STM32F4xx_HAL_Driver/Src/stm32f4xx_hal_pcd.c ****   ==============================================================================
  17:Drivers/STM32F4xx_HAL_Driver/Src/stm32f4xx_hal_pcd.c ****     [..]
  18:Drivers/STM32F4xx_HAL_Driver/Src/stm32f4xx_hal_pcd.c ****       The PCD HAL driver can be used as follows:
  19:Drivers/STM32F4xx_HAL_Driver/Src/stm32f4xx_hal_pcd.c **** 
  20:Drivers/STM32F4xx_HAL_Driver/Src/stm32f4xx_hal_pcd.c ****      (#) Declare a PCD_HandleTypeDef handle structure, for example:
  21:Drivers/STM32F4xx_HAL_Driver/Src/stm32f4xx_hal_pcd.c ****          PCD_HandleTypeDef  hpcd;
ARM GAS  /tmp/ccsbOyJb.s 			page 2


  22:Drivers/STM32F4xx_HAL_Driver/Src/stm32f4xx_hal_pcd.c **** 
  23:Drivers/STM32F4xx_HAL_Driver/Src/stm32f4xx_hal_pcd.c ****      (#) Fill parameters of Init structure in HCD handle
  24:Drivers/STM32F4xx_HAL_Driver/Src/stm32f4xx_hal_pcd.c **** 
  25:Drivers/STM32F4xx_HAL_Driver/Src/stm32f4xx_hal_pcd.c ****      (#) Call HAL_PCD_Init() API to initialize the PCD peripheral (Core, Device core, ...)
  26:Drivers/STM32F4xx_HAL_Driver/Src/stm32f4xx_hal_pcd.c **** 
  27:Drivers/STM32F4xx_HAL_Driver/Src/stm32f4xx_hal_pcd.c ****      (#) Initialize the PCD low level resources through the HAL_PCD_MspInit() API:
  28:Drivers/STM32F4xx_HAL_Driver/Src/stm32f4xx_hal_pcd.c ****          (##) Enable the PCD/USB Low Level interface clock using
  29:Drivers/STM32F4xx_HAL_Driver/Src/stm32f4xx_hal_pcd.c ****               (+++) __HAL_RCC_USB_OTG_FS_CLK_ENABLE();
  30:Drivers/STM32F4xx_HAL_Driver/Src/stm32f4xx_hal_pcd.c ****               (+++) __HAL_RCC_USB_OTG_HS_CLK_ENABLE(); (For High Speed Mode)
  31:Drivers/STM32F4xx_HAL_Driver/Src/stm32f4xx_hal_pcd.c **** 
  32:Drivers/STM32F4xx_HAL_Driver/Src/stm32f4xx_hal_pcd.c ****          (##) Initialize the related GPIO clocks
  33:Drivers/STM32F4xx_HAL_Driver/Src/stm32f4xx_hal_pcd.c ****          (##) Configure PCD pin-out
  34:Drivers/STM32F4xx_HAL_Driver/Src/stm32f4xx_hal_pcd.c ****          (##) Configure PCD NVIC interrupt
  35:Drivers/STM32F4xx_HAL_Driver/Src/stm32f4xx_hal_pcd.c **** 
  36:Drivers/STM32F4xx_HAL_Driver/Src/stm32f4xx_hal_pcd.c ****      (#)Associate the Upper USB device stack to the HAL PCD Driver:
  37:Drivers/STM32F4xx_HAL_Driver/Src/stm32f4xx_hal_pcd.c ****          (##) hpcd.pData = pdev;
  38:Drivers/STM32F4xx_HAL_Driver/Src/stm32f4xx_hal_pcd.c **** 
  39:Drivers/STM32F4xx_HAL_Driver/Src/stm32f4xx_hal_pcd.c ****      (#)Enable PCD transmission and reception:
  40:Drivers/STM32F4xx_HAL_Driver/Src/stm32f4xx_hal_pcd.c ****          (##) HAL_PCD_Start();
  41:Drivers/STM32F4xx_HAL_Driver/Src/stm32f4xx_hal_pcd.c **** 
  42:Drivers/STM32F4xx_HAL_Driver/Src/stm32f4xx_hal_pcd.c ****   @endverbatim
  43:Drivers/STM32F4xx_HAL_Driver/Src/stm32f4xx_hal_pcd.c ****   ******************************************************************************
  44:Drivers/STM32F4xx_HAL_Driver/Src/stm32f4xx_hal_pcd.c ****   * @attention
  45:Drivers/STM32F4xx_HAL_Driver/Src/stm32f4xx_hal_pcd.c ****   *
  46:Drivers/STM32F4xx_HAL_Driver/Src/stm32f4xx_hal_pcd.c ****   * <h2><center>&copy; Copyright (c) 2016 STMicroelectronics.
  47:Drivers/STM32F4xx_HAL_Driver/Src/stm32f4xx_hal_pcd.c ****   * All rights reserved.</center></h2>
  48:Drivers/STM32F4xx_HAL_Driver/Src/stm32f4xx_hal_pcd.c ****   *
  49:Drivers/STM32F4xx_HAL_Driver/Src/stm32f4xx_hal_pcd.c ****   * This software component is licensed by ST under BSD 3-Clause license,
  50:Drivers/STM32F4xx_HAL_Driver/Src/stm32f4xx_hal_pcd.c ****   * the "License"; You may not use this file except in compliance with the
  51:Drivers/STM32F4xx_HAL_Driver/Src/stm32f4xx_hal_pcd.c ****   * License. You may obtain a copy of the License at:
  52:Drivers/STM32F4xx_HAL_Driver/Src/stm32f4xx_hal_pcd.c ****   *                        opensource.org/licenses/BSD-3-Clause
  53:Drivers/STM32F4xx_HAL_Driver/Src/stm32f4xx_hal_pcd.c ****   *
  54:Drivers/STM32F4xx_HAL_Driver/Src/stm32f4xx_hal_pcd.c ****   ******************************************************************************
  55:Drivers/STM32F4xx_HAL_Driver/Src/stm32f4xx_hal_pcd.c ****   */
  56:Drivers/STM32F4xx_HAL_Driver/Src/stm32f4xx_hal_pcd.c **** 
  57:Drivers/STM32F4xx_HAL_Driver/Src/stm32f4xx_hal_pcd.c **** /* Includes ------------------------------------------------------------------*/
  58:Drivers/STM32F4xx_HAL_Driver/Src/stm32f4xx_hal_pcd.c **** #include "stm32f4xx_hal.h"
  59:Drivers/STM32F4xx_HAL_Driver/Src/stm32f4xx_hal_pcd.c **** 
  60:Drivers/STM32F4xx_HAL_Driver/Src/stm32f4xx_hal_pcd.c **** /** @addtogroup STM32F4xx_HAL_Driver
  61:Drivers/STM32F4xx_HAL_Driver/Src/stm32f4xx_hal_pcd.c ****   * @{
  62:Drivers/STM32F4xx_HAL_Driver/Src/stm32f4xx_hal_pcd.c ****   */
  63:Drivers/STM32F4xx_HAL_Driver/Src/stm32f4xx_hal_pcd.c **** 
  64:Drivers/STM32F4xx_HAL_Driver/Src/stm32f4xx_hal_pcd.c **** /** @defgroup PCD PCD
  65:Drivers/STM32F4xx_HAL_Driver/Src/stm32f4xx_hal_pcd.c ****   * @brief PCD HAL module driver
  66:Drivers/STM32F4xx_HAL_Driver/Src/stm32f4xx_hal_pcd.c ****   * @{
  67:Drivers/STM32F4xx_HAL_Driver/Src/stm32f4xx_hal_pcd.c ****   */
  68:Drivers/STM32F4xx_HAL_Driver/Src/stm32f4xx_hal_pcd.c **** 
  69:Drivers/STM32F4xx_HAL_Driver/Src/stm32f4xx_hal_pcd.c **** #ifdef HAL_PCD_MODULE_ENABLED
  70:Drivers/STM32F4xx_HAL_Driver/Src/stm32f4xx_hal_pcd.c **** 
  71:Drivers/STM32F4xx_HAL_Driver/Src/stm32f4xx_hal_pcd.c **** #if defined (USB_OTG_FS) || defined (USB_OTG_HS)
  72:Drivers/STM32F4xx_HAL_Driver/Src/stm32f4xx_hal_pcd.c **** 
  73:Drivers/STM32F4xx_HAL_Driver/Src/stm32f4xx_hal_pcd.c **** /* Private types -------------------------------------------------------------*/
  74:Drivers/STM32F4xx_HAL_Driver/Src/stm32f4xx_hal_pcd.c **** /* Private variables ---------------------------------------------------------*/
  75:Drivers/STM32F4xx_HAL_Driver/Src/stm32f4xx_hal_pcd.c **** /* Private constants ---------------------------------------------------------*/
  76:Drivers/STM32F4xx_HAL_Driver/Src/stm32f4xx_hal_pcd.c **** /* Private macros ------------------------------------------------------------*/
  77:Drivers/STM32F4xx_HAL_Driver/Src/stm32f4xx_hal_pcd.c **** /** @defgroup PCD_Private_Macros PCD Private Macros
  78:Drivers/STM32F4xx_HAL_Driver/Src/stm32f4xx_hal_pcd.c ****   * @{
ARM GAS  /tmp/ccsbOyJb.s 			page 3


  79:Drivers/STM32F4xx_HAL_Driver/Src/stm32f4xx_hal_pcd.c ****   */
  80:Drivers/STM32F4xx_HAL_Driver/Src/stm32f4xx_hal_pcd.c **** #define PCD_MIN(a, b)  (((a) < (b)) ? (a) : (b))
  81:Drivers/STM32F4xx_HAL_Driver/Src/stm32f4xx_hal_pcd.c **** #define PCD_MAX(a, b)  (((a) > (b)) ? (a) : (b))
  82:Drivers/STM32F4xx_HAL_Driver/Src/stm32f4xx_hal_pcd.c **** /**
  83:Drivers/STM32F4xx_HAL_Driver/Src/stm32f4xx_hal_pcd.c ****   * @}
  84:Drivers/STM32F4xx_HAL_Driver/Src/stm32f4xx_hal_pcd.c ****   */
  85:Drivers/STM32F4xx_HAL_Driver/Src/stm32f4xx_hal_pcd.c **** 
  86:Drivers/STM32F4xx_HAL_Driver/Src/stm32f4xx_hal_pcd.c **** /* Private functions prototypes ----------------------------------------------*/
  87:Drivers/STM32F4xx_HAL_Driver/Src/stm32f4xx_hal_pcd.c **** /** @defgroup PCD_Private_Functions PCD Private Functions
  88:Drivers/STM32F4xx_HAL_Driver/Src/stm32f4xx_hal_pcd.c ****   * @{
  89:Drivers/STM32F4xx_HAL_Driver/Src/stm32f4xx_hal_pcd.c ****   */
  90:Drivers/STM32F4xx_HAL_Driver/Src/stm32f4xx_hal_pcd.c **** #if defined (USB_OTG_FS) || defined (USB_OTG_HS)
  91:Drivers/STM32F4xx_HAL_Driver/Src/stm32f4xx_hal_pcd.c **** static HAL_StatusTypeDef PCD_WriteEmptyTxFifo(PCD_HandleTypeDef *hpcd, uint32_t epnum);
  92:Drivers/STM32F4xx_HAL_Driver/Src/stm32f4xx_hal_pcd.c **** static HAL_StatusTypeDef PCD_EP_OutXfrComplete_int(PCD_HandleTypeDef *hpcd, uint32_t epnum);
  93:Drivers/STM32F4xx_HAL_Driver/Src/stm32f4xx_hal_pcd.c **** static HAL_StatusTypeDef PCD_EP_OutSetupPacket_int(PCD_HandleTypeDef *hpcd, uint32_t epnum);
  94:Drivers/STM32F4xx_HAL_Driver/Src/stm32f4xx_hal_pcd.c **** #endif /* defined (USB_OTG_FS) || defined (USB_OTG_HS) */
  95:Drivers/STM32F4xx_HAL_Driver/Src/stm32f4xx_hal_pcd.c **** /**
  96:Drivers/STM32F4xx_HAL_Driver/Src/stm32f4xx_hal_pcd.c ****   * @}
  97:Drivers/STM32F4xx_HAL_Driver/Src/stm32f4xx_hal_pcd.c ****   */
  98:Drivers/STM32F4xx_HAL_Driver/Src/stm32f4xx_hal_pcd.c **** 
  99:Drivers/STM32F4xx_HAL_Driver/Src/stm32f4xx_hal_pcd.c **** /* Exported functions --------------------------------------------------------*/
 100:Drivers/STM32F4xx_HAL_Driver/Src/stm32f4xx_hal_pcd.c **** /** @defgroup PCD_Exported_Functions PCD Exported Functions
 101:Drivers/STM32F4xx_HAL_Driver/Src/stm32f4xx_hal_pcd.c ****   * @{
 102:Drivers/STM32F4xx_HAL_Driver/Src/stm32f4xx_hal_pcd.c ****   */
 103:Drivers/STM32F4xx_HAL_Driver/Src/stm32f4xx_hal_pcd.c **** 
 104:Drivers/STM32F4xx_HAL_Driver/Src/stm32f4xx_hal_pcd.c **** /** @defgroup PCD_Exported_Functions_Group1 Initialization and de-initialization functions
 105:Drivers/STM32F4xx_HAL_Driver/Src/stm32f4xx_hal_pcd.c ****  *  @brief    Initialization and Configuration functions
 106:Drivers/STM32F4xx_HAL_Driver/Src/stm32f4xx_hal_pcd.c ****  *
 107:Drivers/STM32F4xx_HAL_Driver/Src/stm32f4xx_hal_pcd.c **** @verbatim
 108:Drivers/STM32F4xx_HAL_Driver/Src/stm32f4xx_hal_pcd.c ****  ===============================================================================
 109:Drivers/STM32F4xx_HAL_Driver/Src/stm32f4xx_hal_pcd.c ****             ##### Initialization and de-initialization functions #####
 110:Drivers/STM32F4xx_HAL_Driver/Src/stm32f4xx_hal_pcd.c ****  ===============================================================================
 111:Drivers/STM32F4xx_HAL_Driver/Src/stm32f4xx_hal_pcd.c ****     [..]  This section provides functions allowing to:
 112:Drivers/STM32F4xx_HAL_Driver/Src/stm32f4xx_hal_pcd.c **** 
 113:Drivers/STM32F4xx_HAL_Driver/Src/stm32f4xx_hal_pcd.c **** @endverbatim
 114:Drivers/STM32F4xx_HAL_Driver/Src/stm32f4xx_hal_pcd.c ****   * @{
 115:Drivers/STM32F4xx_HAL_Driver/Src/stm32f4xx_hal_pcd.c ****   */
 116:Drivers/STM32F4xx_HAL_Driver/Src/stm32f4xx_hal_pcd.c **** 
 117:Drivers/STM32F4xx_HAL_Driver/Src/stm32f4xx_hal_pcd.c **** /**
 118:Drivers/STM32F4xx_HAL_Driver/Src/stm32f4xx_hal_pcd.c ****   * @brief  Initializes the PCD according to the specified
 119:Drivers/STM32F4xx_HAL_Driver/Src/stm32f4xx_hal_pcd.c ****   *         parameters in the PCD_InitTypeDef and initialize the associated handle.
 120:Drivers/STM32F4xx_HAL_Driver/Src/stm32f4xx_hal_pcd.c ****   * @param  hpcd PCD handle
 121:Drivers/STM32F4xx_HAL_Driver/Src/stm32f4xx_hal_pcd.c ****   * @retval HAL status
 122:Drivers/STM32F4xx_HAL_Driver/Src/stm32f4xx_hal_pcd.c ****   */
 123:Drivers/STM32F4xx_HAL_Driver/Src/stm32f4xx_hal_pcd.c **** HAL_StatusTypeDef HAL_PCD_Init(PCD_HandleTypeDef *hpcd)
 124:Drivers/STM32F4xx_HAL_Driver/Src/stm32f4xx_hal_pcd.c **** {
  34              		.loc 1 124 1
  35              		.cfi_startproc
  36              		@ args = 0, pretend = 0, frame = 16
  37              		@ frame_needed = 1, uses_anonymous_args = 0
  38 0000 F0B5     		push	{r4, r5, r6, r7, lr}
  39              	.LCFI0:
  40              		.cfi_def_cfa_offset 20
  41              		.cfi_offset 4, -20
  42              		.cfi_offset 5, -16
  43              		.cfi_offset 6, -12
  44              		.cfi_offset 7, -8
ARM GAS  /tmp/ccsbOyJb.s 			page 4


  45              		.cfi_offset 14, -4
  46 0002 8FB0     		sub	sp, sp, #60
  47              	.LCFI1:
  48              		.cfi_def_cfa_offset 80
  49 0004 0AAF     		add	r7, sp, #40
  50              	.LCFI2:
  51              		.cfi_def_cfa 7, 40
  52 0006 7860     		str	r0, [r7, #4]
 125:Drivers/STM32F4xx_HAL_Driver/Src/stm32f4xx_hal_pcd.c ****   USB_OTG_GlobalTypeDef *USBx;
 126:Drivers/STM32F4xx_HAL_Driver/Src/stm32f4xx_hal_pcd.c ****   uint8_t i;
 127:Drivers/STM32F4xx_HAL_Driver/Src/stm32f4xx_hal_pcd.c **** 
 128:Drivers/STM32F4xx_HAL_Driver/Src/stm32f4xx_hal_pcd.c ****   /* Check the PCD handle allocation */
 129:Drivers/STM32F4xx_HAL_Driver/Src/stm32f4xx_hal_pcd.c ****   if (hpcd == NULL)
  53              		.loc 1 129 6
  54 0008 7B68     		ldr	r3, [r7, #4]
  55 000a 002B     		cmp	r3, #0
  56 000c 01D1     		bne	.L2
 130:Drivers/STM32F4xx_HAL_Driver/Src/stm32f4xx_hal_pcd.c ****   {
 131:Drivers/STM32F4xx_HAL_Driver/Src/stm32f4xx_hal_pcd.c ****     return HAL_ERROR;
  57              		.loc 1 131 12
  58 000e 0123     		movs	r3, #1
  59 0010 1DE1     		b	.L3
  60              	.L2:
 132:Drivers/STM32F4xx_HAL_Driver/Src/stm32f4xx_hal_pcd.c ****   }
 133:Drivers/STM32F4xx_HAL_Driver/Src/stm32f4xx_hal_pcd.c **** 
 134:Drivers/STM32F4xx_HAL_Driver/Src/stm32f4xx_hal_pcd.c ****   /* Check the parameters */
 135:Drivers/STM32F4xx_HAL_Driver/Src/stm32f4xx_hal_pcd.c ****   assert_param(IS_PCD_ALL_INSTANCE(hpcd->Instance));
  61              		.loc 1 135 3
  62 0012 7B68     		ldr	r3, [r7, #4]
  63 0014 1B68     		ldr	r3, [r3]
  64 0016 B3F1A04F 		cmp	r3, #1342177280
  65 001a 08D0     		beq	.L4
  66              		.loc 1 135 3 is_stmt 0 discriminator 1
  67 001c 7B68     		ldr	r3, [r7, #4]
  68 001e 1B68     		ldr	r3, [r3]
  69 0020 8D4A     		ldr	r2, .L13
  70 0022 9342     		cmp	r3, r2
  71 0024 03D0     		beq	.L4
  72              		.loc 1 135 3 discriminator 2
  73 0026 8721     		movs	r1, #135
  74 0028 8C48     		ldr	r0, .L13+4
  75 002a FFF7FEFF 		bl	assert_failed
  76              	.L4:
 136:Drivers/STM32F4xx_HAL_Driver/Src/stm32f4xx_hal_pcd.c **** 
 137:Drivers/STM32F4xx_HAL_Driver/Src/stm32f4xx_hal_pcd.c ****   USBx = hpcd->Instance;
  77              		.loc 1 137 8 is_stmt 1
  78 002e 7B68     		ldr	r3, [r7, #4]
  79 0030 1B68     		ldr	r3, [r3]
  80 0032 BB60     		str	r3, [r7, #8]
 138:Drivers/STM32F4xx_HAL_Driver/Src/stm32f4xx_hal_pcd.c **** 
 139:Drivers/STM32F4xx_HAL_Driver/Src/stm32f4xx_hal_pcd.c ****   if (hpcd->State == HAL_PCD_STATE_RESET)
  81              		.loc 1 139 11
  82 0034 7B68     		ldr	r3, [r7, #4]
  83 0036 93F8BD33 		ldrb	r3, [r3, #957]
  84 003a DBB2     		uxtb	r3, r3
  85              		.loc 1 139 6
  86 003c 002B     		cmp	r3, #0
ARM GAS  /tmp/ccsbOyJb.s 			page 5


  87 003e 06D1     		bne	.L5
 140:Drivers/STM32F4xx_HAL_Driver/Src/stm32f4xx_hal_pcd.c ****   {
 141:Drivers/STM32F4xx_HAL_Driver/Src/stm32f4xx_hal_pcd.c ****     /* Allocate lock resource and initialize it */
 142:Drivers/STM32F4xx_HAL_Driver/Src/stm32f4xx_hal_pcd.c ****     hpcd->Lock = HAL_UNLOCKED;
  88              		.loc 1 142 16
  89 0040 7B68     		ldr	r3, [r7, #4]
  90 0042 0022     		movs	r2, #0
  91 0044 83F8BC23 		strb	r2, [r3, #956]
 143:Drivers/STM32F4xx_HAL_Driver/Src/stm32f4xx_hal_pcd.c **** 
 144:Drivers/STM32F4xx_HAL_Driver/Src/stm32f4xx_hal_pcd.c **** #if (USE_HAL_PCD_REGISTER_CALLBACKS == 1U)
 145:Drivers/STM32F4xx_HAL_Driver/Src/stm32f4xx_hal_pcd.c ****     hpcd->SOFCallback = HAL_PCD_SOFCallback;
 146:Drivers/STM32F4xx_HAL_Driver/Src/stm32f4xx_hal_pcd.c ****     hpcd->SetupStageCallback = HAL_PCD_SetupStageCallback;
 147:Drivers/STM32F4xx_HAL_Driver/Src/stm32f4xx_hal_pcd.c ****     hpcd->ResetCallback = HAL_PCD_ResetCallback;
 148:Drivers/STM32F4xx_HAL_Driver/Src/stm32f4xx_hal_pcd.c ****     hpcd->SuspendCallback = HAL_PCD_SuspendCallback;
 149:Drivers/STM32F4xx_HAL_Driver/Src/stm32f4xx_hal_pcd.c ****     hpcd->ResumeCallback = HAL_PCD_ResumeCallback;
 150:Drivers/STM32F4xx_HAL_Driver/Src/stm32f4xx_hal_pcd.c ****     hpcd->ConnectCallback = HAL_PCD_ConnectCallback;
 151:Drivers/STM32F4xx_HAL_Driver/Src/stm32f4xx_hal_pcd.c ****     hpcd->DisconnectCallback = HAL_PCD_DisconnectCallback;
 152:Drivers/STM32F4xx_HAL_Driver/Src/stm32f4xx_hal_pcd.c ****     hpcd->DataOutStageCallback = HAL_PCD_DataOutStageCallback;
 153:Drivers/STM32F4xx_HAL_Driver/Src/stm32f4xx_hal_pcd.c ****     hpcd->DataInStageCallback = HAL_PCD_DataInStageCallback;
 154:Drivers/STM32F4xx_HAL_Driver/Src/stm32f4xx_hal_pcd.c ****     hpcd->ISOOUTIncompleteCallback = HAL_PCD_ISOOUTIncompleteCallback;
 155:Drivers/STM32F4xx_HAL_Driver/Src/stm32f4xx_hal_pcd.c ****     hpcd->ISOINIncompleteCallback = HAL_PCD_ISOINIncompleteCallback;
 156:Drivers/STM32F4xx_HAL_Driver/Src/stm32f4xx_hal_pcd.c ****     hpcd->LPMCallback = HAL_PCDEx_LPM_Callback;
 157:Drivers/STM32F4xx_HAL_Driver/Src/stm32f4xx_hal_pcd.c ****     hpcd->BCDCallback = HAL_PCDEx_BCD_Callback;
 158:Drivers/STM32F4xx_HAL_Driver/Src/stm32f4xx_hal_pcd.c **** 
 159:Drivers/STM32F4xx_HAL_Driver/Src/stm32f4xx_hal_pcd.c ****     if (hpcd->MspInitCallback == NULL)
 160:Drivers/STM32F4xx_HAL_Driver/Src/stm32f4xx_hal_pcd.c ****     {
 161:Drivers/STM32F4xx_HAL_Driver/Src/stm32f4xx_hal_pcd.c ****       hpcd->MspInitCallback = HAL_PCD_MspInit;
 162:Drivers/STM32F4xx_HAL_Driver/Src/stm32f4xx_hal_pcd.c ****     }
 163:Drivers/STM32F4xx_HAL_Driver/Src/stm32f4xx_hal_pcd.c **** 
 164:Drivers/STM32F4xx_HAL_Driver/Src/stm32f4xx_hal_pcd.c ****     /* Init the low level hardware */
 165:Drivers/STM32F4xx_HAL_Driver/Src/stm32f4xx_hal_pcd.c ****     hpcd->MspInitCallback(hpcd);
 166:Drivers/STM32F4xx_HAL_Driver/Src/stm32f4xx_hal_pcd.c **** #else
 167:Drivers/STM32F4xx_HAL_Driver/Src/stm32f4xx_hal_pcd.c ****     /* Init the low level hardware : GPIO, CLOCK, NVIC... */
 168:Drivers/STM32F4xx_HAL_Driver/Src/stm32f4xx_hal_pcd.c ****     HAL_PCD_MspInit(hpcd);
  92              		.loc 1 168 5
  93 0048 7868     		ldr	r0, [r7, #4]
  94 004a FFF7FEFF 		bl	HAL_PCD_MspInit
  95              	.L5:
 169:Drivers/STM32F4xx_HAL_Driver/Src/stm32f4xx_hal_pcd.c **** #endif /* (USE_HAL_PCD_REGISTER_CALLBACKS) */
 170:Drivers/STM32F4xx_HAL_Driver/Src/stm32f4xx_hal_pcd.c ****   }
 171:Drivers/STM32F4xx_HAL_Driver/Src/stm32f4xx_hal_pcd.c **** 
 172:Drivers/STM32F4xx_HAL_Driver/Src/stm32f4xx_hal_pcd.c ****   hpcd->State = HAL_PCD_STATE_BUSY;
  96              		.loc 1 172 15
  97 004e 7B68     		ldr	r3, [r7, #4]
  98 0050 0322     		movs	r2, #3
  99 0052 83F8BD23 		strb	r2, [r3, #957]
 173:Drivers/STM32F4xx_HAL_Driver/Src/stm32f4xx_hal_pcd.c **** 
 174:Drivers/STM32F4xx_HAL_Driver/Src/stm32f4xx_hal_pcd.c ****   /* Disable DMA mode for FS instance */
 175:Drivers/STM32F4xx_HAL_Driver/Src/stm32f4xx_hal_pcd.c ****   if ((USBx->CID & (0x1U << 8)) == 0U)
 100              		.loc 1 175 12
 101 0056 BB68     		ldr	r3, [r7, #8]
 102 0058 DB6B     		ldr	r3, [r3, #60]
 103              		.loc 1 175 18
 104 005a 03F48073 		and	r3, r3, #256
 105              		.loc 1 175 6
 106 005e 002B     		cmp	r3, #0
 107 0060 02D1     		bne	.L6
ARM GAS  /tmp/ccsbOyJb.s 			page 6


 176:Drivers/STM32F4xx_HAL_Driver/Src/stm32f4xx_hal_pcd.c ****   {
 177:Drivers/STM32F4xx_HAL_Driver/Src/stm32f4xx_hal_pcd.c ****     hpcd->Init.dma_enable = 0U;
 108              		.loc 1 177 27
 109 0062 7B68     		ldr	r3, [r7, #4]
 110 0064 0022     		movs	r2, #0
 111 0066 1A61     		str	r2, [r3, #16]
 112              	.L6:
 178:Drivers/STM32F4xx_HAL_Driver/Src/stm32f4xx_hal_pcd.c ****   }
 179:Drivers/STM32F4xx_HAL_Driver/Src/stm32f4xx_hal_pcd.c **** 
 180:Drivers/STM32F4xx_HAL_Driver/Src/stm32f4xx_hal_pcd.c ****   /* Disable the Interrupts */
 181:Drivers/STM32F4xx_HAL_Driver/Src/stm32f4xx_hal_pcd.c ****   __HAL_PCD_DISABLE(hpcd);
 113              		.loc 1 181 3
 114 0068 7B68     		ldr	r3, [r7, #4]
 115 006a 1B68     		ldr	r3, [r3]
 116 006c 1846     		mov	r0, r3
 117 006e FFF7FEFF 		bl	USB_DisableGlobalInt
 182:Drivers/STM32F4xx_HAL_Driver/Src/stm32f4xx_hal_pcd.c **** 
 183:Drivers/STM32F4xx_HAL_Driver/Src/stm32f4xx_hal_pcd.c ****   /*Init the Core (common init.) */
 184:Drivers/STM32F4xx_HAL_Driver/Src/stm32f4xx_hal_pcd.c ****   if (USB_CoreInit(hpcd->Instance, hpcd->Init) != HAL_OK)
 118              		.loc 1 184 24
 119 0072 7B68     		ldr	r3, [r7, #4]
 120 0074 1B68     		ldr	r3, [r3]
 121 0076 3B60     		str	r3, [r7]
 122              		.loc 1 184 7
 123 0078 7E68     		ldr	r6, [r7, #4]
 124 007a 6D46     		mov	r5, sp
 125 007c 06F11004 		add	r4, r6, #16
 126 0080 0FCC     		ldmia	r4!, {r0, r1, r2, r3}
 127 0082 0FC5     		stmia	r5!, {r0, r1, r2, r3}
 128 0084 0FCC     		ldmia	r4!, {r0, r1, r2, r3}
 129 0086 0FC5     		stmia	r5!, {r0, r1, r2, r3}
 130 0088 94E80300 		ldm	r4, {r0, r1}
 131 008c 85E80300 		stm	r5, {r0, r1}
 132 0090 331D     		adds	r3, r6, #4
 133 0092 0ECB     		ldm	r3, {r1, r2, r3}
 134 0094 3868     		ldr	r0, [r7]
 135 0096 FFF7FEFF 		bl	USB_CoreInit
 136 009a 0346     		mov	r3, r0
 137              		.loc 1 184 6
 138 009c 002B     		cmp	r3, #0
 139 009e 05D0     		beq	.L7
 185:Drivers/STM32F4xx_HAL_Driver/Src/stm32f4xx_hal_pcd.c ****   {
 186:Drivers/STM32F4xx_HAL_Driver/Src/stm32f4xx_hal_pcd.c ****     hpcd->State = HAL_PCD_STATE_ERROR;
 140              		.loc 1 186 17
 141 00a0 7B68     		ldr	r3, [r7, #4]
 142 00a2 0222     		movs	r2, #2
 143 00a4 83F8BD23 		strb	r2, [r3, #957]
 187:Drivers/STM32F4xx_HAL_Driver/Src/stm32f4xx_hal_pcd.c ****     return HAL_ERROR;
 144              		.loc 1 187 12
 145 00a8 0123     		movs	r3, #1
 146 00aa D0E0     		b	.L3
 147              	.L7:
 188:Drivers/STM32F4xx_HAL_Driver/Src/stm32f4xx_hal_pcd.c ****   }
 189:Drivers/STM32F4xx_HAL_Driver/Src/stm32f4xx_hal_pcd.c **** 
 190:Drivers/STM32F4xx_HAL_Driver/Src/stm32f4xx_hal_pcd.c ****   /* Force Device Mode*/
 191:Drivers/STM32F4xx_HAL_Driver/Src/stm32f4xx_hal_pcd.c ****   (void)USB_SetCurrentMode(hpcd->Instance, USB_DEVICE_MODE);
 148              		.loc 1 191 32
ARM GAS  /tmp/ccsbOyJb.s 			page 7


 149 00ac 7B68     		ldr	r3, [r7, #4]
 150 00ae 1B68     		ldr	r3, [r3]
 151              		.loc 1 191 9
 152 00b0 0021     		movs	r1, #0
 153 00b2 1846     		mov	r0, r3
 154 00b4 FFF7FEFF 		bl	USB_SetCurrentMode
 192:Drivers/STM32F4xx_HAL_Driver/Src/stm32f4xx_hal_pcd.c **** 
 193:Drivers/STM32F4xx_HAL_Driver/Src/stm32f4xx_hal_pcd.c ****   /* Init endpoints structures */
 194:Drivers/STM32F4xx_HAL_Driver/Src/stm32f4xx_hal_pcd.c ****   for (i = 0U; i < hpcd->Init.dev_endpoints; i++)
 155              		.loc 1 194 10
 156 00b8 0023     		movs	r3, #0
 157 00ba FB73     		strb	r3, [r7, #15]
 158              		.loc 1 194 3
 159 00bc 4AE0     		b	.L8
 160              	.L9:
 195:Drivers/STM32F4xx_HAL_Driver/Src/stm32f4xx_hal_pcd.c ****   {
 196:Drivers/STM32F4xx_HAL_Driver/Src/stm32f4xx_hal_pcd.c ****     /* Init ep structure */
 197:Drivers/STM32F4xx_HAL_Driver/Src/stm32f4xx_hal_pcd.c ****     hpcd->IN_ep[i].is_in = 1U;
 161              		.loc 1 197 19 discriminator 3
 162 00be FA7B     		ldrb	r2, [r7, #15]	@ zero_extendqisi2
 163              		.loc 1 197 26 discriminator 3
 164 00c0 7968     		ldr	r1, [r7, #4]
 165 00c2 1346     		mov	r3, r2
 166 00c4 DB00     		lsls	r3, r3, #3
 167 00c6 9B1A     		subs	r3, r3, r2
 168 00c8 9B00     		lsls	r3, r3, #2
 169 00ca 0B44     		add	r3, r3, r1
 170 00cc 3D33     		adds	r3, r3, #61
 171 00ce 0122     		movs	r2, #1
 172 00d0 1A70     		strb	r2, [r3]
 198:Drivers/STM32F4xx_HAL_Driver/Src/stm32f4xx_hal_pcd.c ****     hpcd->IN_ep[i].num = i;
 173              		.loc 1 198 19 discriminator 3
 174 00d2 FA7B     		ldrb	r2, [r7, #15]	@ zero_extendqisi2
 175              		.loc 1 198 24 discriminator 3
 176 00d4 7968     		ldr	r1, [r7, #4]
 177 00d6 1346     		mov	r3, r2
 178 00d8 DB00     		lsls	r3, r3, #3
 179 00da 9B1A     		subs	r3, r3, r2
 180 00dc 9B00     		lsls	r3, r3, #2
 181 00de 0B44     		add	r3, r3, r1
 182 00e0 3C33     		adds	r3, r3, #60
 183 00e2 FA7B     		ldrb	r2, [r7, #15]
 184 00e4 1A70     		strb	r2, [r3]
 199:Drivers/STM32F4xx_HAL_Driver/Src/stm32f4xx_hal_pcd.c ****     hpcd->IN_ep[i].tx_fifo_num = i;
 185              		.loc 1 199 19 discriminator 3
 186 00e6 FA7B     		ldrb	r2, [r7, #15]	@ zero_extendqisi2
 187              		.loc 1 199 32 discriminator 3
 188 00e8 FB7B     		ldrb	r3, [r7, #15]	@ zero_extendqisi2
 189 00ea 98B2     		uxth	r0, r3
 190 00ec 7968     		ldr	r1, [r7, #4]
 191 00ee 1346     		mov	r3, r2
 192 00f0 DB00     		lsls	r3, r3, #3
 193 00f2 9B1A     		subs	r3, r3, r2
 194 00f4 9B00     		lsls	r3, r3, #2
 195 00f6 0B44     		add	r3, r3, r1
 196 00f8 4233     		adds	r3, r3, #66
 197 00fa 0246     		mov	r2, r0	@ movhi
ARM GAS  /tmp/ccsbOyJb.s 			page 8


 198 00fc 1A80     		strh	r2, [r3]	@ movhi
 200:Drivers/STM32F4xx_HAL_Driver/Src/stm32f4xx_hal_pcd.c ****     /* Control until ep is activated */
 201:Drivers/STM32F4xx_HAL_Driver/Src/stm32f4xx_hal_pcd.c ****     hpcd->IN_ep[i].type = EP_TYPE_CTRL;
 199              		.loc 1 201 19 discriminator 3
 200 00fe FA7B     		ldrb	r2, [r7, #15]	@ zero_extendqisi2
 201              		.loc 1 201 25 discriminator 3
 202 0100 7968     		ldr	r1, [r7, #4]
 203 0102 1346     		mov	r3, r2
 204 0104 DB00     		lsls	r3, r3, #3
 205 0106 9B1A     		subs	r3, r3, r2
 206 0108 9B00     		lsls	r3, r3, #2
 207 010a 0B44     		add	r3, r3, r1
 208 010c 3F33     		adds	r3, r3, #63
 209 010e 0022     		movs	r2, #0
 210 0110 1A70     		strb	r2, [r3]
 202:Drivers/STM32F4xx_HAL_Driver/Src/stm32f4xx_hal_pcd.c ****     hpcd->IN_ep[i].maxpacket = 0U;
 211              		.loc 1 202 19 discriminator 3
 212 0112 FA7B     		ldrb	r2, [r7, #15]	@ zero_extendqisi2
 213              		.loc 1 202 30 discriminator 3
 214 0114 7968     		ldr	r1, [r7, #4]
 215 0116 1346     		mov	r3, r2
 216 0118 DB00     		lsls	r3, r3, #3
 217 011a 9B1A     		subs	r3, r3, r2
 218 011c 9B00     		lsls	r3, r3, #2
 219 011e 0B44     		add	r3, r3, r1
 220 0120 4433     		adds	r3, r3, #68
 221 0122 0022     		movs	r2, #0
 222 0124 1A60     		str	r2, [r3]
 203:Drivers/STM32F4xx_HAL_Driver/Src/stm32f4xx_hal_pcd.c ****     hpcd->IN_ep[i].xfer_buff = 0U;
 223              		.loc 1 203 19 discriminator 3
 224 0126 FA7B     		ldrb	r2, [r7, #15]	@ zero_extendqisi2
 225              		.loc 1 203 30 discriminator 3
 226 0128 7968     		ldr	r1, [r7, #4]
 227 012a 1346     		mov	r3, r2
 228 012c DB00     		lsls	r3, r3, #3
 229 012e 9B1A     		subs	r3, r3, r2
 230 0130 9B00     		lsls	r3, r3, #2
 231 0132 0B44     		add	r3, r3, r1
 232 0134 4833     		adds	r3, r3, #72
 233 0136 0022     		movs	r2, #0
 234 0138 1A60     		str	r2, [r3]
 204:Drivers/STM32F4xx_HAL_Driver/Src/stm32f4xx_hal_pcd.c ****     hpcd->IN_ep[i].xfer_len = 0U;
 235              		.loc 1 204 19 discriminator 3
 236 013a FA7B     		ldrb	r2, [r7, #15]	@ zero_extendqisi2
 237              		.loc 1 204 29 discriminator 3
 238 013c 7968     		ldr	r1, [r7, #4]
 239 013e 1346     		mov	r3, r2
 240 0140 DB00     		lsls	r3, r3, #3
 241 0142 9B1A     		subs	r3, r3, r2
 242 0144 9B00     		lsls	r3, r3, #2
 243 0146 0B44     		add	r3, r3, r1
 244 0148 5033     		adds	r3, r3, #80
 245 014a 0022     		movs	r2, #0
 246 014c 1A60     		str	r2, [r3]
 194:Drivers/STM32F4xx_HAL_Driver/Src/stm32f4xx_hal_pcd.c ****   {
 247              		.loc 1 194 47 discriminator 3
 248 014e FB7B     		ldrb	r3, [r7, #15]	@ zero_extendqisi2
ARM GAS  /tmp/ccsbOyJb.s 			page 9


 249 0150 0133     		adds	r3, r3, #1
 250 0152 FB73     		strb	r3, [r7, #15]
 251              	.L8:
 194:Drivers/STM32F4xx_HAL_Driver/Src/stm32f4xx_hal_pcd.c ****   {
 252              		.loc 1 194 18 discriminator 1
 253 0154 FA7B     		ldrb	r2, [r7, #15]	@ zero_extendqisi2
 194:Drivers/STM32F4xx_HAL_Driver/Src/stm32f4xx_hal_pcd.c ****   {
 254              		.loc 1 194 30 discriminator 1
 255 0156 7B68     		ldr	r3, [r7, #4]
 256 0158 5B68     		ldr	r3, [r3, #4]
 194:Drivers/STM32F4xx_HAL_Driver/Src/stm32f4xx_hal_pcd.c ****   {
 257              		.loc 1 194 3 discriminator 1
 258 015a 9A42     		cmp	r2, r3
 259 015c AFD3     		bcc	.L9
 205:Drivers/STM32F4xx_HAL_Driver/Src/stm32f4xx_hal_pcd.c ****   }
 206:Drivers/STM32F4xx_HAL_Driver/Src/stm32f4xx_hal_pcd.c **** 
 207:Drivers/STM32F4xx_HAL_Driver/Src/stm32f4xx_hal_pcd.c ****   for (i = 0U; i < hpcd->Init.dev_endpoints; i++)
 260              		.loc 1 207 10
 261 015e 0023     		movs	r3, #0
 262 0160 FB73     		strb	r3, [r7, #15]
 263              		.loc 1 207 3
 264 0162 44E0     		b	.L10
 265              	.L11:
 208:Drivers/STM32F4xx_HAL_Driver/Src/stm32f4xx_hal_pcd.c ****   {
 209:Drivers/STM32F4xx_HAL_Driver/Src/stm32f4xx_hal_pcd.c ****     hpcd->OUT_ep[i].is_in = 0U;
 266              		.loc 1 209 20 discriminator 3
 267 0164 FA7B     		ldrb	r2, [r7, #15]	@ zero_extendqisi2
 268              		.loc 1 209 27 discriminator 3
 269 0166 7968     		ldr	r1, [r7, #4]
 270 0168 1346     		mov	r3, r2
 271 016a DB00     		lsls	r3, r3, #3
 272 016c 9B1A     		subs	r3, r3, r2
 273 016e 9B00     		lsls	r3, r3, #2
 274 0170 0B44     		add	r3, r3, r1
 275 0172 03F2FD13 		addw	r3, r3, #509
 276 0176 0022     		movs	r2, #0
 277 0178 1A70     		strb	r2, [r3]
 210:Drivers/STM32F4xx_HAL_Driver/Src/stm32f4xx_hal_pcd.c ****     hpcd->OUT_ep[i].num = i;
 278              		.loc 1 210 20 discriminator 3
 279 017a FA7B     		ldrb	r2, [r7, #15]	@ zero_extendqisi2
 280              		.loc 1 210 25 discriminator 3
 281 017c 7968     		ldr	r1, [r7, #4]
 282 017e 1346     		mov	r3, r2
 283 0180 DB00     		lsls	r3, r3, #3
 284 0182 9B1A     		subs	r3, r3, r2
 285 0184 9B00     		lsls	r3, r3, #2
 286 0186 0B44     		add	r3, r3, r1
 287 0188 03F5FE73 		add	r3, r3, #508
 288 018c FA7B     		ldrb	r2, [r7, #15]
 289 018e 1A70     		strb	r2, [r3]
 211:Drivers/STM32F4xx_HAL_Driver/Src/stm32f4xx_hal_pcd.c ****     /* Control until ep is activated */
 212:Drivers/STM32F4xx_HAL_Driver/Src/stm32f4xx_hal_pcd.c ****     hpcd->OUT_ep[i].type = EP_TYPE_CTRL;
 290              		.loc 1 212 20 discriminator 3
 291 0190 FA7B     		ldrb	r2, [r7, #15]	@ zero_extendqisi2
 292              		.loc 1 212 26 discriminator 3
 293 0192 7968     		ldr	r1, [r7, #4]
 294 0194 1346     		mov	r3, r2
ARM GAS  /tmp/ccsbOyJb.s 			page 10


 295 0196 DB00     		lsls	r3, r3, #3
 296 0198 9B1A     		subs	r3, r3, r2
 297 019a 9B00     		lsls	r3, r3, #2
 298 019c 0B44     		add	r3, r3, r1
 299 019e 03F2FF13 		addw	r3, r3, #511
 300 01a2 0022     		movs	r2, #0
 301 01a4 1A70     		strb	r2, [r3]
 213:Drivers/STM32F4xx_HAL_Driver/Src/stm32f4xx_hal_pcd.c ****     hpcd->OUT_ep[i].maxpacket = 0U;
 302              		.loc 1 213 20 discriminator 3
 303 01a6 FA7B     		ldrb	r2, [r7, #15]	@ zero_extendqisi2
 304              		.loc 1 213 31 discriminator 3
 305 01a8 7968     		ldr	r1, [r7, #4]
 306 01aa 1346     		mov	r3, r2
 307 01ac DB00     		lsls	r3, r3, #3
 308 01ae 9B1A     		subs	r3, r3, r2
 309 01b0 9B00     		lsls	r3, r3, #2
 310 01b2 0B44     		add	r3, r3, r1
 311 01b4 03F50173 		add	r3, r3, #516
 312 01b8 0022     		movs	r2, #0
 313 01ba 1A60     		str	r2, [r3]
 214:Drivers/STM32F4xx_HAL_Driver/Src/stm32f4xx_hal_pcd.c ****     hpcd->OUT_ep[i].xfer_buff = 0U;
 314              		.loc 1 214 20 discriminator 3
 315 01bc FA7B     		ldrb	r2, [r7, #15]	@ zero_extendqisi2
 316              		.loc 1 214 31 discriminator 3
 317 01be 7968     		ldr	r1, [r7, #4]
 318 01c0 1346     		mov	r3, r2
 319 01c2 DB00     		lsls	r3, r3, #3
 320 01c4 9B1A     		subs	r3, r3, r2
 321 01c6 9B00     		lsls	r3, r3, #2
 322 01c8 0B44     		add	r3, r3, r1
 323 01ca 03F50273 		add	r3, r3, #520
 324 01ce 0022     		movs	r2, #0
 325 01d0 1A60     		str	r2, [r3]
 215:Drivers/STM32F4xx_HAL_Driver/Src/stm32f4xx_hal_pcd.c ****     hpcd->OUT_ep[i].xfer_len = 0U;
 326              		.loc 1 215 20 discriminator 3
 327 01d2 FA7B     		ldrb	r2, [r7, #15]	@ zero_extendqisi2
 328              		.loc 1 215 30 discriminator 3
 329 01d4 7968     		ldr	r1, [r7, #4]
 330 01d6 1346     		mov	r3, r2
 331 01d8 DB00     		lsls	r3, r3, #3
 332 01da 9B1A     		subs	r3, r3, r2
 333 01dc 9B00     		lsls	r3, r3, #2
 334 01de 0B44     		add	r3, r3, r1
 335 01e0 03F50473 		add	r3, r3, #528
 336 01e4 0022     		movs	r2, #0
 337 01e6 1A60     		str	r2, [r3]
 207:Drivers/STM32F4xx_HAL_Driver/Src/stm32f4xx_hal_pcd.c ****   {
 338              		.loc 1 207 47 discriminator 3
 339 01e8 FB7B     		ldrb	r3, [r7, #15]	@ zero_extendqisi2
 340 01ea 0133     		adds	r3, r3, #1
 341 01ec FB73     		strb	r3, [r7, #15]
 342              	.L10:
 207:Drivers/STM32F4xx_HAL_Driver/Src/stm32f4xx_hal_pcd.c ****   {
 343              		.loc 1 207 18 discriminator 1
 344 01ee FA7B     		ldrb	r2, [r7, #15]	@ zero_extendqisi2
 207:Drivers/STM32F4xx_HAL_Driver/Src/stm32f4xx_hal_pcd.c ****   {
 345              		.loc 1 207 30 discriminator 1
ARM GAS  /tmp/ccsbOyJb.s 			page 11


 346 01f0 7B68     		ldr	r3, [r7, #4]
 347 01f2 5B68     		ldr	r3, [r3, #4]
 207:Drivers/STM32F4xx_HAL_Driver/Src/stm32f4xx_hal_pcd.c ****   {
 348              		.loc 1 207 3 discriminator 1
 349 01f4 9A42     		cmp	r2, r3
 350 01f6 B5D3     		bcc	.L11
 216:Drivers/STM32F4xx_HAL_Driver/Src/stm32f4xx_hal_pcd.c ****   }
 217:Drivers/STM32F4xx_HAL_Driver/Src/stm32f4xx_hal_pcd.c **** 
 218:Drivers/STM32F4xx_HAL_Driver/Src/stm32f4xx_hal_pcd.c ****   /* Init Device */
 219:Drivers/STM32F4xx_HAL_Driver/Src/stm32f4xx_hal_pcd.c ****   if (USB_DevInit(hpcd->Instance, hpcd->Init) != HAL_OK)
 351              		.loc 1 219 23
 352 01f8 7B68     		ldr	r3, [r7, #4]
 353 01fa 1B68     		ldr	r3, [r3]
 354 01fc 3B60     		str	r3, [r7]
 355              		.loc 1 219 7
 356 01fe 7E68     		ldr	r6, [r7, #4]
 357 0200 6D46     		mov	r5, sp
 358 0202 06F11004 		add	r4, r6, #16
 359 0206 0FCC     		ldmia	r4!, {r0, r1, r2, r3}
 360 0208 0FC5     		stmia	r5!, {r0, r1, r2, r3}
 361 020a 0FCC     		ldmia	r4!, {r0, r1, r2, r3}
 362 020c 0FC5     		stmia	r5!, {r0, r1, r2, r3}
 363 020e 94E80300 		ldm	r4, {r0, r1}
 364 0212 85E80300 		stm	r5, {r0, r1}
 365 0216 331D     		adds	r3, r6, #4
 366 0218 0ECB     		ldm	r3, {r1, r2, r3}
 367 021a 3868     		ldr	r0, [r7]
 368 021c FFF7FEFF 		bl	USB_DevInit
 369 0220 0346     		mov	r3, r0
 370              		.loc 1 219 6
 371 0222 002B     		cmp	r3, #0
 372 0224 05D0     		beq	.L12
 220:Drivers/STM32F4xx_HAL_Driver/Src/stm32f4xx_hal_pcd.c ****   {
 221:Drivers/STM32F4xx_HAL_Driver/Src/stm32f4xx_hal_pcd.c ****     hpcd->State = HAL_PCD_STATE_ERROR;
 373              		.loc 1 221 17
 374 0226 7B68     		ldr	r3, [r7, #4]
 375 0228 0222     		movs	r2, #2
 376 022a 83F8BD23 		strb	r2, [r3, #957]
 222:Drivers/STM32F4xx_HAL_Driver/Src/stm32f4xx_hal_pcd.c ****     return HAL_ERROR;
 377              		.loc 1 222 12
 378 022e 0123     		movs	r3, #1
 379 0230 0DE0     		b	.L3
 380              	.L12:
 223:Drivers/STM32F4xx_HAL_Driver/Src/stm32f4xx_hal_pcd.c ****   }
 224:Drivers/STM32F4xx_HAL_Driver/Src/stm32f4xx_hal_pcd.c **** 
 225:Drivers/STM32F4xx_HAL_Driver/Src/stm32f4xx_hal_pcd.c ****   hpcd->USB_Address = 0U;
 381              		.loc 1 225 21
 382 0232 7B68     		ldr	r3, [r7, #4]
 383 0234 0022     		movs	r2, #0
 384 0236 83F83820 		strb	r2, [r3, #56]
 226:Drivers/STM32F4xx_HAL_Driver/Src/stm32f4xx_hal_pcd.c ****   hpcd->State = HAL_PCD_STATE_READY;
 385              		.loc 1 226 15
 386 023a 7B68     		ldr	r3, [r7, #4]
 387 023c 0122     		movs	r2, #1
 388 023e 83F8BD23 		strb	r2, [r3, #957]
 227:Drivers/STM32F4xx_HAL_Driver/Src/stm32f4xx_hal_pcd.c ****   #if defined(STM32F446xx) || defined(STM32F469xx) || defined(STM32F479xx) || defined(STM32F412Zx) 
 228:Drivers/STM32F4xx_HAL_Driver/Src/stm32f4xx_hal_pcd.c ****   /* Activate LPM */
ARM GAS  /tmp/ccsbOyJb.s 			page 12


 229:Drivers/STM32F4xx_HAL_Driver/Src/stm32f4xx_hal_pcd.c ****   if (hpcd->Init.lpm_enable == 1U)
 230:Drivers/STM32F4xx_HAL_Driver/Src/stm32f4xx_hal_pcd.c ****   {
 231:Drivers/STM32F4xx_HAL_Driver/Src/stm32f4xx_hal_pcd.c ****     (void)HAL_PCDEx_ActivateLPM(hpcd);
 232:Drivers/STM32F4xx_HAL_Driver/Src/stm32f4xx_hal_pcd.c ****   }
 233:Drivers/STM32F4xx_HAL_Driver/Src/stm32f4xx_hal_pcd.c ****   #endif /* defined(STM32F446xx) || defined(STM32F469xx) || defined(STM32F479xx) || defined(STM32F4
 234:Drivers/STM32F4xx_HAL_Driver/Src/stm32f4xx_hal_pcd.c ****   (void)USB_DevDisconnect(hpcd->Instance);
 389              		.loc 1 234 31
 390 0242 7B68     		ldr	r3, [r7, #4]
 391 0244 1B68     		ldr	r3, [r3]
 392              		.loc 1 234 9
 393 0246 1846     		mov	r0, r3
 394 0248 FFF7FEFF 		bl	USB_DevDisconnect
 235:Drivers/STM32F4xx_HAL_Driver/Src/stm32f4xx_hal_pcd.c **** 
 236:Drivers/STM32F4xx_HAL_Driver/Src/stm32f4xx_hal_pcd.c ****   return HAL_OK;
 395              		.loc 1 236 10
 396 024c 0023     		movs	r3, #0
 397              	.L3:
 237:Drivers/STM32F4xx_HAL_Driver/Src/stm32f4xx_hal_pcd.c **** }
 398              		.loc 1 237 1
 399 024e 1846     		mov	r0, r3
 400 0250 1437     		adds	r7, r7, #20
 401              	.LCFI3:
 402              		.cfi_def_cfa_offset 20
 403 0252 BD46     		mov	sp, r7
 404              	.LCFI4:
 405              		.cfi_def_cfa_register 13
 406              		@ sp needed
 407 0254 F0BD     		pop	{r4, r5, r6, r7, pc}
 408              	.L14:
 409 0256 00BF     		.align	2
 410              	.L13:
 411 0258 00000440 		.word	1074003968
 412 025c 00000000 		.word	.LC0
 413              		.cfi_endproc
 414              	.LFE130:
 416              		.section	.text.HAL_PCD_DeInit,"ax",%progbits
 417              		.align	1
 418              		.global	HAL_PCD_DeInit
 419              		.syntax unified
 420              		.thumb
 421              		.thumb_func
 422              		.fpu fpv4-sp-d16
 424              	HAL_PCD_DeInit:
 425              	.LFB131:
 238:Drivers/STM32F4xx_HAL_Driver/Src/stm32f4xx_hal_pcd.c **** 
 239:Drivers/STM32F4xx_HAL_Driver/Src/stm32f4xx_hal_pcd.c **** /**
 240:Drivers/STM32F4xx_HAL_Driver/Src/stm32f4xx_hal_pcd.c ****   * @brief  DeInitializes the PCD peripheral.
 241:Drivers/STM32F4xx_HAL_Driver/Src/stm32f4xx_hal_pcd.c ****   * @param  hpcd PCD handle
 242:Drivers/STM32F4xx_HAL_Driver/Src/stm32f4xx_hal_pcd.c ****   * @retval HAL status
 243:Drivers/STM32F4xx_HAL_Driver/Src/stm32f4xx_hal_pcd.c ****   */
 244:Drivers/STM32F4xx_HAL_Driver/Src/stm32f4xx_hal_pcd.c **** HAL_StatusTypeDef HAL_PCD_DeInit(PCD_HandleTypeDef *hpcd)
 245:Drivers/STM32F4xx_HAL_Driver/Src/stm32f4xx_hal_pcd.c **** {
 426              		.loc 1 245 1
 427              		.cfi_startproc
 428              		@ args = 0, pretend = 0, frame = 8
 429              		@ frame_needed = 1, uses_anonymous_args = 0
 430 0000 80B5     		push	{r7, lr}
ARM GAS  /tmp/ccsbOyJb.s 			page 13


 431              	.LCFI5:
 432              		.cfi_def_cfa_offset 8
 433              		.cfi_offset 7, -8
 434              		.cfi_offset 14, -4
 435 0002 82B0     		sub	sp, sp, #8
 436              	.LCFI6:
 437              		.cfi_def_cfa_offset 16
 438 0004 00AF     		add	r7, sp, #0
 439              	.LCFI7:
 440              		.cfi_def_cfa_register 7
 441 0006 7860     		str	r0, [r7, #4]
 246:Drivers/STM32F4xx_HAL_Driver/Src/stm32f4xx_hal_pcd.c ****   /* Check the PCD handle allocation */
 247:Drivers/STM32F4xx_HAL_Driver/Src/stm32f4xx_hal_pcd.c ****   if (hpcd == NULL)
 442              		.loc 1 247 6
 443 0008 7B68     		ldr	r3, [r7, #4]
 444 000a 002B     		cmp	r3, #0
 445 000c 01D1     		bne	.L16
 248:Drivers/STM32F4xx_HAL_Driver/Src/stm32f4xx_hal_pcd.c ****   {
 249:Drivers/STM32F4xx_HAL_Driver/Src/stm32f4xx_hal_pcd.c ****     return HAL_ERROR;
 446              		.loc 1 249 12
 447 000e 0123     		movs	r3, #1
 448 0010 0EE0     		b	.L17
 449              	.L16:
 250:Drivers/STM32F4xx_HAL_Driver/Src/stm32f4xx_hal_pcd.c ****   }
 251:Drivers/STM32F4xx_HAL_Driver/Src/stm32f4xx_hal_pcd.c **** 
 252:Drivers/STM32F4xx_HAL_Driver/Src/stm32f4xx_hal_pcd.c ****   hpcd->State = HAL_PCD_STATE_BUSY;
 450              		.loc 1 252 15
 451 0012 7B68     		ldr	r3, [r7, #4]
 452 0014 0322     		movs	r2, #3
 453 0016 83F8BD23 		strb	r2, [r3, #957]
 253:Drivers/STM32F4xx_HAL_Driver/Src/stm32f4xx_hal_pcd.c **** 
 254:Drivers/STM32F4xx_HAL_Driver/Src/stm32f4xx_hal_pcd.c ****   /* Stop Device */
 255:Drivers/STM32F4xx_HAL_Driver/Src/stm32f4xx_hal_pcd.c ****   (void)HAL_PCD_Stop(hpcd);
 454              		.loc 1 255 9
 455 001a 7868     		ldr	r0, [r7, #4]
 456 001c FFF7FEFF 		bl	HAL_PCD_Stop
 256:Drivers/STM32F4xx_HAL_Driver/Src/stm32f4xx_hal_pcd.c **** 
 257:Drivers/STM32F4xx_HAL_Driver/Src/stm32f4xx_hal_pcd.c **** #if (USE_HAL_PCD_REGISTER_CALLBACKS == 1U)
 258:Drivers/STM32F4xx_HAL_Driver/Src/stm32f4xx_hal_pcd.c ****   if (hpcd->MspDeInitCallback == NULL)
 259:Drivers/STM32F4xx_HAL_Driver/Src/stm32f4xx_hal_pcd.c ****   {
 260:Drivers/STM32F4xx_HAL_Driver/Src/stm32f4xx_hal_pcd.c ****     hpcd->MspDeInitCallback = HAL_PCD_MspDeInit; /* Legacy weak MspDeInit  */
 261:Drivers/STM32F4xx_HAL_Driver/Src/stm32f4xx_hal_pcd.c ****   }
 262:Drivers/STM32F4xx_HAL_Driver/Src/stm32f4xx_hal_pcd.c **** 
 263:Drivers/STM32F4xx_HAL_Driver/Src/stm32f4xx_hal_pcd.c ****   /* DeInit the low level hardware */
 264:Drivers/STM32F4xx_HAL_Driver/Src/stm32f4xx_hal_pcd.c ****   hpcd->MspDeInitCallback(hpcd);
 265:Drivers/STM32F4xx_HAL_Driver/Src/stm32f4xx_hal_pcd.c **** #else
 266:Drivers/STM32F4xx_HAL_Driver/Src/stm32f4xx_hal_pcd.c ****   /* DeInit the low level hardware: CLOCK, NVIC.*/
 267:Drivers/STM32F4xx_HAL_Driver/Src/stm32f4xx_hal_pcd.c ****   HAL_PCD_MspDeInit(hpcd);
 457              		.loc 1 267 3
 458 0020 7868     		ldr	r0, [r7, #4]
 459 0022 FFF7FEFF 		bl	HAL_PCD_MspDeInit
 268:Drivers/STM32F4xx_HAL_Driver/Src/stm32f4xx_hal_pcd.c **** #endif /* USE_HAL_PCD_REGISTER_CALLBACKS */
 269:Drivers/STM32F4xx_HAL_Driver/Src/stm32f4xx_hal_pcd.c **** 
 270:Drivers/STM32F4xx_HAL_Driver/Src/stm32f4xx_hal_pcd.c ****   hpcd->State = HAL_PCD_STATE_RESET;
 460              		.loc 1 270 15
 461 0026 7B68     		ldr	r3, [r7, #4]
 462 0028 0022     		movs	r2, #0
ARM GAS  /tmp/ccsbOyJb.s 			page 14


 463 002a 83F8BD23 		strb	r2, [r3, #957]
 271:Drivers/STM32F4xx_HAL_Driver/Src/stm32f4xx_hal_pcd.c **** 
 272:Drivers/STM32F4xx_HAL_Driver/Src/stm32f4xx_hal_pcd.c ****   return HAL_OK;
 464              		.loc 1 272 10
 465 002e 0023     		movs	r3, #0
 466              	.L17:
 273:Drivers/STM32F4xx_HAL_Driver/Src/stm32f4xx_hal_pcd.c **** }
 467              		.loc 1 273 1
 468 0030 1846     		mov	r0, r3
 469 0032 0837     		adds	r7, r7, #8
 470              	.LCFI8:
 471              		.cfi_def_cfa_offset 8
 472 0034 BD46     		mov	sp, r7
 473              	.LCFI9:
 474              		.cfi_def_cfa_register 13
 475              		@ sp needed
 476 0036 80BD     		pop	{r7, pc}
 477              		.cfi_endproc
 478              	.LFE131:
 480              		.section	.text.HAL_PCD_MspInit,"ax",%progbits
 481              		.align	1
 482              		.weak	HAL_PCD_MspInit
 483              		.syntax unified
 484              		.thumb
 485              		.thumb_func
 486              		.fpu fpv4-sp-d16
 488              	HAL_PCD_MspInit:
 489              	.LFB132:
 274:Drivers/STM32F4xx_HAL_Driver/Src/stm32f4xx_hal_pcd.c **** 
 275:Drivers/STM32F4xx_HAL_Driver/Src/stm32f4xx_hal_pcd.c **** /**
 276:Drivers/STM32F4xx_HAL_Driver/Src/stm32f4xx_hal_pcd.c ****   * @brief  Initializes the PCD MSP.
 277:Drivers/STM32F4xx_HAL_Driver/Src/stm32f4xx_hal_pcd.c ****   * @param  hpcd PCD handle
 278:Drivers/STM32F4xx_HAL_Driver/Src/stm32f4xx_hal_pcd.c ****   * @retval None
 279:Drivers/STM32F4xx_HAL_Driver/Src/stm32f4xx_hal_pcd.c ****   */
 280:Drivers/STM32F4xx_HAL_Driver/Src/stm32f4xx_hal_pcd.c **** __weak void HAL_PCD_MspInit(PCD_HandleTypeDef *hpcd)
 281:Drivers/STM32F4xx_HAL_Driver/Src/stm32f4xx_hal_pcd.c **** {
 490              		.loc 1 281 1
 491              		.cfi_startproc
 492              		@ args = 0, pretend = 0, frame = 8
 493              		@ frame_needed = 1, uses_anonymous_args = 0
 494              		@ link register save eliminated.
 495 0000 80B4     		push	{r7}
 496              	.LCFI10:
 497              		.cfi_def_cfa_offset 4
 498              		.cfi_offset 7, -4
 499 0002 83B0     		sub	sp, sp, #12
 500              	.LCFI11:
 501              		.cfi_def_cfa_offset 16
 502 0004 00AF     		add	r7, sp, #0
 503              	.LCFI12:
 504              		.cfi_def_cfa_register 7
 505 0006 7860     		str	r0, [r7, #4]
 282:Drivers/STM32F4xx_HAL_Driver/Src/stm32f4xx_hal_pcd.c ****   /* Prevent unused argument(s) compilation warning */
 283:Drivers/STM32F4xx_HAL_Driver/Src/stm32f4xx_hal_pcd.c ****   UNUSED(hpcd);
 284:Drivers/STM32F4xx_HAL_Driver/Src/stm32f4xx_hal_pcd.c **** 
 285:Drivers/STM32F4xx_HAL_Driver/Src/stm32f4xx_hal_pcd.c ****   /* NOTE : This function should not be modified, when the callback is needed,
 286:Drivers/STM32F4xx_HAL_Driver/Src/stm32f4xx_hal_pcd.c ****             the HAL_PCD_MspInit could be implemented in the user file
ARM GAS  /tmp/ccsbOyJb.s 			page 15


 287:Drivers/STM32F4xx_HAL_Driver/Src/stm32f4xx_hal_pcd.c ****    */
 288:Drivers/STM32F4xx_HAL_Driver/Src/stm32f4xx_hal_pcd.c **** }
 506              		.loc 1 288 1
 507 0008 00BF     		nop
 508 000a 0C37     		adds	r7, r7, #12
 509              	.LCFI13:
 510              		.cfi_def_cfa_offset 4
 511 000c BD46     		mov	sp, r7
 512              	.LCFI14:
 513              		.cfi_def_cfa_register 13
 514              		@ sp needed
 515 000e 5DF8047B 		ldr	r7, [sp], #4
 516              	.LCFI15:
 517              		.cfi_restore 7
 518              		.cfi_def_cfa_offset 0
 519 0012 7047     		bx	lr
 520              		.cfi_endproc
 521              	.LFE132:
 523              		.section	.text.HAL_PCD_MspDeInit,"ax",%progbits
 524              		.align	1
 525              		.weak	HAL_PCD_MspDeInit
 526              		.syntax unified
 527              		.thumb
 528              		.thumb_func
 529              		.fpu fpv4-sp-d16
 531              	HAL_PCD_MspDeInit:
 532              	.LFB133:
 289:Drivers/STM32F4xx_HAL_Driver/Src/stm32f4xx_hal_pcd.c **** 
 290:Drivers/STM32F4xx_HAL_Driver/Src/stm32f4xx_hal_pcd.c **** /**
 291:Drivers/STM32F4xx_HAL_Driver/Src/stm32f4xx_hal_pcd.c ****   * @brief  DeInitializes PCD MSP.
 292:Drivers/STM32F4xx_HAL_Driver/Src/stm32f4xx_hal_pcd.c ****   * @param  hpcd PCD handle
 293:Drivers/STM32F4xx_HAL_Driver/Src/stm32f4xx_hal_pcd.c ****   * @retval None
 294:Drivers/STM32F4xx_HAL_Driver/Src/stm32f4xx_hal_pcd.c ****   */
 295:Drivers/STM32F4xx_HAL_Driver/Src/stm32f4xx_hal_pcd.c **** __weak void HAL_PCD_MspDeInit(PCD_HandleTypeDef *hpcd)
 296:Drivers/STM32F4xx_HAL_Driver/Src/stm32f4xx_hal_pcd.c **** {
 533              		.loc 1 296 1
 534              		.cfi_startproc
 535              		@ args = 0, pretend = 0, frame = 8
 536              		@ frame_needed = 1, uses_anonymous_args = 0
 537              		@ link register save eliminated.
 538 0000 80B4     		push	{r7}
 539              	.LCFI16:
 540              		.cfi_def_cfa_offset 4
 541              		.cfi_offset 7, -4
 542 0002 83B0     		sub	sp, sp, #12
 543              	.LCFI17:
 544              		.cfi_def_cfa_offset 16
 545 0004 00AF     		add	r7, sp, #0
 546              	.LCFI18:
 547              		.cfi_def_cfa_register 7
 548 0006 7860     		str	r0, [r7, #4]
 297:Drivers/STM32F4xx_HAL_Driver/Src/stm32f4xx_hal_pcd.c ****   /* Prevent unused argument(s) compilation warning */
 298:Drivers/STM32F4xx_HAL_Driver/Src/stm32f4xx_hal_pcd.c ****   UNUSED(hpcd);
 299:Drivers/STM32F4xx_HAL_Driver/Src/stm32f4xx_hal_pcd.c **** 
 300:Drivers/STM32F4xx_HAL_Driver/Src/stm32f4xx_hal_pcd.c ****   /* NOTE : This function should not be modified, when the callback is needed,
 301:Drivers/STM32F4xx_HAL_Driver/Src/stm32f4xx_hal_pcd.c ****             the HAL_PCD_MspDeInit could be implemented in the user file
 302:Drivers/STM32F4xx_HAL_Driver/Src/stm32f4xx_hal_pcd.c ****    */
ARM GAS  /tmp/ccsbOyJb.s 			page 16


 303:Drivers/STM32F4xx_HAL_Driver/Src/stm32f4xx_hal_pcd.c **** }
 549              		.loc 1 303 1
 550 0008 00BF     		nop
 551 000a 0C37     		adds	r7, r7, #12
 552              	.LCFI19:
 553              		.cfi_def_cfa_offset 4
 554 000c BD46     		mov	sp, r7
 555              	.LCFI20:
 556              		.cfi_def_cfa_register 13
 557              		@ sp needed
 558 000e 5DF8047B 		ldr	r7, [sp], #4
 559              	.LCFI21:
 560              		.cfi_restore 7
 561              		.cfi_def_cfa_offset 0
 562 0012 7047     		bx	lr
 563              		.cfi_endproc
 564              	.LFE133:
 566              		.section	.text.HAL_PCD_Start,"ax",%progbits
 567              		.align	1
 568              		.global	HAL_PCD_Start
 569              		.syntax unified
 570              		.thumb
 571              		.thumb_func
 572              		.fpu fpv4-sp-d16
 574              	HAL_PCD_Start:
 575              	.LFB134:
 304:Drivers/STM32F4xx_HAL_Driver/Src/stm32f4xx_hal_pcd.c **** 
 305:Drivers/STM32F4xx_HAL_Driver/Src/stm32f4xx_hal_pcd.c **** #if (USE_HAL_PCD_REGISTER_CALLBACKS == 1U)
 306:Drivers/STM32F4xx_HAL_Driver/Src/stm32f4xx_hal_pcd.c **** /**
 307:Drivers/STM32F4xx_HAL_Driver/Src/stm32f4xx_hal_pcd.c ****   * @brief  Register a User USB PCD Callback
 308:Drivers/STM32F4xx_HAL_Driver/Src/stm32f4xx_hal_pcd.c ****   *         To be used instead of the weak predefined callback
 309:Drivers/STM32F4xx_HAL_Driver/Src/stm32f4xx_hal_pcd.c ****   * @param  hpcd USB PCD handle
 310:Drivers/STM32F4xx_HAL_Driver/Src/stm32f4xx_hal_pcd.c ****   * @param  CallbackID ID of the callback to be registered
 311:Drivers/STM32F4xx_HAL_Driver/Src/stm32f4xx_hal_pcd.c ****   *         This parameter can be one of the following values:
 312:Drivers/STM32F4xx_HAL_Driver/Src/stm32f4xx_hal_pcd.c ****   *          @arg @ref HAL_PCD_SOF_CB_ID USB PCD SOF callback ID
 313:Drivers/STM32F4xx_HAL_Driver/Src/stm32f4xx_hal_pcd.c ****   *          @arg @ref HAL_PCD_SETUPSTAGE_CB_ID USB PCD Setup callback ID
 314:Drivers/STM32F4xx_HAL_Driver/Src/stm32f4xx_hal_pcd.c ****   *          @arg @ref HAL_PCD_RESET_CB_ID USB PCD Reset callback ID
 315:Drivers/STM32F4xx_HAL_Driver/Src/stm32f4xx_hal_pcd.c ****   *          @arg @ref HAL_PCD_SUSPEND_CB_ID USB PCD Suspend callback ID
 316:Drivers/STM32F4xx_HAL_Driver/Src/stm32f4xx_hal_pcd.c ****   *          @arg @ref HAL_PCD_RESUME_CB_ID USB PCD Resume callback ID
 317:Drivers/STM32F4xx_HAL_Driver/Src/stm32f4xx_hal_pcd.c ****   *          @arg @ref HAL_PCD_CONNECT_CB_ID USB PCD Connect callback ID
 318:Drivers/STM32F4xx_HAL_Driver/Src/stm32f4xx_hal_pcd.c ****   *          @arg @ref HAL_PCD_DISCONNECT_CB_ID OTG PCD Disconnect callback ID
 319:Drivers/STM32F4xx_HAL_Driver/Src/stm32f4xx_hal_pcd.c ****   *          @arg @ref HAL_PCD_MSPINIT_CB_ID MspDeInit callback ID
 320:Drivers/STM32F4xx_HAL_Driver/Src/stm32f4xx_hal_pcd.c ****   *          @arg @ref HAL_PCD_MSPDEINIT_CB_ID MspDeInit callback ID
 321:Drivers/STM32F4xx_HAL_Driver/Src/stm32f4xx_hal_pcd.c ****   * @param  pCallback pointer to the Callback function
 322:Drivers/STM32F4xx_HAL_Driver/Src/stm32f4xx_hal_pcd.c ****   * @retval HAL status
 323:Drivers/STM32F4xx_HAL_Driver/Src/stm32f4xx_hal_pcd.c ****   */
 324:Drivers/STM32F4xx_HAL_Driver/Src/stm32f4xx_hal_pcd.c **** HAL_StatusTypeDef HAL_PCD_RegisterCallback(PCD_HandleTypeDef *hpcd, HAL_PCD_CallbackIDTypeDef Callb
 325:Drivers/STM32F4xx_HAL_Driver/Src/stm32f4xx_hal_pcd.c **** {
 326:Drivers/STM32F4xx_HAL_Driver/Src/stm32f4xx_hal_pcd.c ****   HAL_StatusTypeDef status = HAL_OK;
 327:Drivers/STM32F4xx_HAL_Driver/Src/stm32f4xx_hal_pcd.c **** 
 328:Drivers/STM32F4xx_HAL_Driver/Src/stm32f4xx_hal_pcd.c ****   if (pCallback == NULL)
 329:Drivers/STM32F4xx_HAL_Driver/Src/stm32f4xx_hal_pcd.c ****   {
 330:Drivers/STM32F4xx_HAL_Driver/Src/stm32f4xx_hal_pcd.c ****     /* Update the error code */
 331:Drivers/STM32F4xx_HAL_Driver/Src/stm32f4xx_hal_pcd.c ****     hpcd->ErrorCode |= HAL_PCD_ERROR_INVALID_CALLBACK;
 332:Drivers/STM32F4xx_HAL_Driver/Src/stm32f4xx_hal_pcd.c ****     return HAL_ERROR;
 333:Drivers/STM32F4xx_HAL_Driver/Src/stm32f4xx_hal_pcd.c ****   }
 334:Drivers/STM32F4xx_HAL_Driver/Src/stm32f4xx_hal_pcd.c ****   /* Process locked */
ARM GAS  /tmp/ccsbOyJb.s 			page 17


 335:Drivers/STM32F4xx_HAL_Driver/Src/stm32f4xx_hal_pcd.c ****   __HAL_LOCK(hpcd);
 336:Drivers/STM32F4xx_HAL_Driver/Src/stm32f4xx_hal_pcd.c **** 
 337:Drivers/STM32F4xx_HAL_Driver/Src/stm32f4xx_hal_pcd.c ****   if (hpcd->State == HAL_PCD_STATE_READY)
 338:Drivers/STM32F4xx_HAL_Driver/Src/stm32f4xx_hal_pcd.c ****   {
 339:Drivers/STM32F4xx_HAL_Driver/Src/stm32f4xx_hal_pcd.c ****     switch (CallbackID)
 340:Drivers/STM32F4xx_HAL_Driver/Src/stm32f4xx_hal_pcd.c ****     {
 341:Drivers/STM32F4xx_HAL_Driver/Src/stm32f4xx_hal_pcd.c ****       case HAL_PCD_SOF_CB_ID :
 342:Drivers/STM32F4xx_HAL_Driver/Src/stm32f4xx_hal_pcd.c ****         hpcd->SOFCallback = pCallback;
 343:Drivers/STM32F4xx_HAL_Driver/Src/stm32f4xx_hal_pcd.c ****         break;
 344:Drivers/STM32F4xx_HAL_Driver/Src/stm32f4xx_hal_pcd.c **** 
 345:Drivers/STM32F4xx_HAL_Driver/Src/stm32f4xx_hal_pcd.c ****       case HAL_PCD_SETUPSTAGE_CB_ID :
 346:Drivers/STM32F4xx_HAL_Driver/Src/stm32f4xx_hal_pcd.c ****         hpcd->SetupStageCallback = pCallback;
 347:Drivers/STM32F4xx_HAL_Driver/Src/stm32f4xx_hal_pcd.c ****         break;
 348:Drivers/STM32F4xx_HAL_Driver/Src/stm32f4xx_hal_pcd.c **** 
 349:Drivers/STM32F4xx_HAL_Driver/Src/stm32f4xx_hal_pcd.c ****       case HAL_PCD_RESET_CB_ID :
 350:Drivers/STM32F4xx_HAL_Driver/Src/stm32f4xx_hal_pcd.c ****         hpcd->ResetCallback = pCallback;
 351:Drivers/STM32F4xx_HAL_Driver/Src/stm32f4xx_hal_pcd.c ****         break;
 352:Drivers/STM32F4xx_HAL_Driver/Src/stm32f4xx_hal_pcd.c **** 
 353:Drivers/STM32F4xx_HAL_Driver/Src/stm32f4xx_hal_pcd.c ****       case HAL_PCD_SUSPEND_CB_ID :
 354:Drivers/STM32F4xx_HAL_Driver/Src/stm32f4xx_hal_pcd.c ****         hpcd->SuspendCallback = pCallback;
 355:Drivers/STM32F4xx_HAL_Driver/Src/stm32f4xx_hal_pcd.c ****         break;
 356:Drivers/STM32F4xx_HAL_Driver/Src/stm32f4xx_hal_pcd.c **** 
 357:Drivers/STM32F4xx_HAL_Driver/Src/stm32f4xx_hal_pcd.c ****       case HAL_PCD_RESUME_CB_ID :
 358:Drivers/STM32F4xx_HAL_Driver/Src/stm32f4xx_hal_pcd.c ****         hpcd->ResumeCallback = pCallback;
 359:Drivers/STM32F4xx_HAL_Driver/Src/stm32f4xx_hal_pcd.c ****         break;
 360:Drivers/STM32F4xx_HAL_Driver/Src/stm32f4xx_hal_pcd.c **** 
 361:Drivers/STM32F4xx_HAL_Driver/Src/stm32f4xx_hal_pcd.c ****       case HAL_PCD_CONNECT_CB_ID :
 362:Drivers/STM32F4xx_HAL_Driver/Src/stm32f4xx_hal_pcd.c ****         hpcd->ConnectCallback = pCallback;
 363:Drivers/STM32F4xx_HAL_Driver/Src/stm32f4xx_hal_pcd.c ****         break;
 364:Drivers/STM32F4xx_HAL_Driver/Src/stm32f4xx_hal_pcd.c **** 
 365:Drivers/STM32F4xx_HAL_Driver/Src/stm32f4xx_hal_pcd.c ****       case HAL_PCD_DISCONNECT_CB_ID :
 366:Drivers/STM32F4xx_HAL_Driver/Src/stm32f4xx_hal_pcd.c ****         hpcd->DisconnectCallback = pCallback;
 367:Drivers/STM32F4xx_HAL_Driver/Src/stm32f4xx_hal_pcd.c ****         break;
 368:Drivers/STM32F4xx_HAL_Driver/Src/stm32f4xx_hal_pcd.c **** 
 369:Drivers/STM32F4xx_HAL_Driver/Src/stm32f4xx_hal_pcd.c ****       case HAL_PCD_MSPINIT_CB_ID :
 370:Drivers/STM32F4xx_HAL_Driver/Src/stm32f4xx_hal_pcd.c ****         hpcd->MspInitCallback = pCallback;
 371:Drivers/STM32F4xx_HAL_Driver/Src/stm32f4xx_hal_pcd.c ****         break;
 372:Drivers/STM32F4xx_HAL_Driver/Src/stm32f4xx_hal_pcd.c **** 
 373:Drivers/STM32F4xx_HAL_Driver/Src/stm32f4xx_hal_pcd.c ****       case HAL_PCD_MSPDEINIT_CB_ID :
 374:Drivers/STM32F4xx_HAL_Driver/Src/stm32f4xx_hal_pcd.c ****         hpcd->MspDeInitCallback = pCallback;
 375:Drivers/STM32F4xx_HAL_Driver/Src/stm32f4xx_hal_pcd.c ****         break;
 376:Drivers/STM32F4xx_HAL_Driver/Src/stm32f4xx_hal_pcd.c **** 
 377:Drivers/STM32F4xx_HAL_Driver/Src/stm32f4xx_hal_pcd.c ****       default :
 378:Drivers/STM32F4xx_HAL_Driver/Src/stm32f4xx_hal_pcd.c ****         /* Update the error code */
 379:Drivers/STM32F4xx_HAL_Driver/Src/stm32f4xx_hal_pcd.c ****         hpcd->ErrorCode |= HAL_PCD_ERROR_INVALID_CALLBACK;
 380:Drivers/STM32F4xx_HAL_Driver/Src/stm32f4xx_hal_pcd.c ****         /* Return error status */
 381:Drivers/STM32F4xx_HAL_Driver/Src/stm32f4xx_hal_pcd.c ****         status =  HAL_ERROR;
 382:Drivers/STM32F4xx_HAL_Driver/Src/stm32f4xx_hal_pcd.c ****         break;
 383:Drivers/STM32F4xx_HAL_Driver/Src/stm32f4xx_hal_pcd.c ****     }
 384:Drivers/STM32F4xx_HAL_Driver/Src/stm32f4xx_hal_pcd.c ****   }
 385:Drivers/STM32F4xx_HAL_Driver/Src/stm32f4xx_hal_pcd.c ****   else if (hpcd->State == HAL_PCD_STATE_RESET)
 386:Drivers/STM32F4xx_HAL_Driver/Src/stm32f4xx_hal_pcd.c ****   {
 387:Drivers/STM32F4xx_HAL_Driver/Src/stm32f4xx_hal_pcd.c ****     switch (CallbackID)
 388:Drivers/STM32F4xx_HAL_Driver/Src/stm32f4xx_hal_pcd.c ****     {
 389:Drivers/STM32F4xx_HAL_Driver/Src/stm32f4xx_hal_pcd.c ****       case HAL_PCD_MSPINIT_CB_ID :
 390:Drivers/STM32F4xx_HAL_Driver/Src/stm32f4xx_hal_pcd.c ****         hpcd->MspInitCallback = pCallback;
 391:Drivers/STM32F4xx_HAL_Driver/Src/stm32f4xx_hal_pcd.c ****         break;
ARM GAS  /tmp/ccsbOyJb.s 			page 18


 392:Drivers/STM32F4xx_HAL_Driver/Src/stm32f4xx_hal_pcd.c **** 
 393:Drivers/STM32F4xx_HAL_Driver/Src/stm32f4xx_hal_pcd.c ****       case HAL_PCD_MSPDEINIT_CB_ID :
 394:Drivers/STM32F4xx_HAL_Driver/Src/stm32f4xx_hal_pcd.c ****         hpcd->MspDeInitCallback = pCallback;
 395:Drivers/STM32F4xx_HAL_Driver/Src/stm32f4xx_hal_pcd.c ****         break;
 396:Drivers/STM32F4xx_HAL_Driver/Src/stm32f4xx_hal_pcd.c **** 
 397:Drivers/STM32F4xx_HAL_Driver/Src/stm32f4xx_hal_pcd.c ****       default :
 398:Drivers/STM32F4xx_HAL_Driver/Src/stm32f4xx_hal_pcd.c ****         /* Update the error code */
 399:Drivers/STM32F4xx_HAL_Driver/Src/stm32f4xx_hal_pcd.c ****         hpcd->ErrorCode |= HAL_PCD_ERROR_INVALID_CALLBACK;
 400:Drivers/STM32F4xx_HAL_Driver/Src/stm32f4xx_hal_pcd.c ****         /* Return error status */
 401:Drivers/STM32F4xx_HAL_Driver/Src/stm32f4xx_hal_pcd.c ****         status =  HAL_ERROR;
 402:Drivers/STM32F4xx_HAL_Driver/Src/stm32f4xx_hal_pcd.c ****         break;
 403:Drivers/STM32F4xx_HAL_Driver/Src/stm32f4xx_hal_pcd.c ****     }
 404:Drivers/STM32F4xx_HAL_Driver/Src/stm32f4xx_hal_pcd.c ****   }
 405:Drivers/STM32F4xx_HAL_Driver/Src/stm32f4xx_hal_pcd.c ****   else
 406:Drivers/STM32F4xx_HAL_Driver/Src/stm32f4xx_hal_pcd.c ****   {
 407:Drivers/STM32F4xx_HAL_Driver/Src/stm32f4xx_hal_pcd.c ****     /* Update the error code */
 408:Drivers/STM32F4xx_HAL_Driver/Src/stm32f4xx_hal_pcd.c ****     hpcd->ErrorCode |= HAL_PCD_ERROR_INVALID_CALLBACK;
 409:Drivers/STM32F4xx_HAL_Driver/Src/stm32f4xx_hal_pcd.c ****     /* Return error status */
 410:Drivers/STM32F4xx_HAL_Driver/Src/stm32f4xx_hal_pcd.c ****     status =  HAL_ERROR;
 411:Drivers/STM32F4xx_HAL_Driver/Src/stm32f4xx_hal_pcd.c ****   }
 412:Drivers/STM32F4xx_HAL_Driver/Src/stm32f4xx_hal_pcd.c **** 
 413:Drivers/STM32F4xx_HAL_Driver/Src/stm32f4xx_hal_pcd.c ****   /* Release Lock */
 414:Drivers/STM32F4xx_HAL_Driver/Src/stm32f4xx_hal_pcd.c ****   __HAL_UNLOCK(hpcd);
 415:Drivers/STM32F4xx_HAL_Driver/Src/stm32f4xx_hal_pcd.c ****   return status;
 416:Drivers/STM32F4xx_HAL_Driver/Src/stm32f4xx_hal_pcd.c **** }
 417:Drivers/STM32F4xx_HAL_Driver/Src/stm32f4xx_hal_pcd.c **** 
 418:Drivers/STM32F4xx_HAL_Driver/Src/stm32f4xx_hal_pcd.c **** /**
 419:Drivers/STM32F4xx_HAL_Driver/Src/stm32f4xx_hal_pcd.c ****   * @brief  Unregister an USB PCD Callback
 420:Drivers/STM32F4xx_HAL_Driver/Src/stm32f4xx_hal_pcd.c ****   *         USB PCD callabck is redirected to the weak predefined callback
 421:Drivers/STM32F4xx_HAL_Driver/Src/stm32f4xx_hal_pcd.c ****   * @param  hpcd USB PCD handle
 422:Drivers/STM32F4xx_HAL_Driver/Src/stm32f4xx_hal_pcd.c ****   * @param  CallbackID ID of the callback to be unregistered
 423:Drivers/STM32F4xx_HAL_Driver/Src/stm32f4xx_hal_pcd.c ****   *         This parameter can be one of the following values:
 424:Drivers/STM32F4xx_HAL_Driver/Src/stm32f4xx_hal_pcd.c ****   *          @arg @ref HAL_PCD_SOF_CB_ID USB PCD SOF callback ID
 425:Drivers/STM32F4xx_HAL_Driver/Src/stm32f4xx_hal_pcd.c ****   *          @arg @ref HAL_PCD_SETUPSTAGE_CB_ID USB PCD Setup callback ID
 426:Drivers/STM32F4xx_HAL_Driver/Src/stm32f4xx_hal_pcd.c ****   *          @arg @ref HAL_PCD_RESET_CB_ID USB PCD Reset callback ID
 427:Drivers/STM32F4xx_HAL_Driver/Src/stm32f4xx_hal_pcd.c ****   *          @arg @ref HAL_PCD_SUSPEND_CB_ID USB PCD Suspend callback ID
 428:Drivers/STM32F4xx_HAL_Driver/Src/stm32f4xx_hal_pcd.c ****   *          @arg @ref HAL_PCD_RESUME_CB_ID USB PCD Resume callback ID
 429:Drivers/STM32F4xx_HAL_Driver/Src/stm32f4xx_hal_pcd.c ****   *          @arg @ref HAL_PCD_CONNECT_CB_ID USB PCD Connect callback ID
 430:Drivers/STM32F4xx_HAL_Driver/Src/stm32f4xx_hal_pcd.c ****   *          @arg @ref HAL_PCD_DISCONNECT_CB_ID OTG PCD Disconnect callback ID
 431:Drivers/STM32F4xx_HAL_Driver/Src/stm32f4xx_hal_pcd.c ****   *          @arg @ref HAL_PCD_MSPINIT_CB_ID MspDeInit callback ID
 432:Drivers/STM32F4xx_HAL_Driver/Src/stm32f4xx_hal_pcd.c ****   *          @arg @ref HAL_PCD_MSPDEINIT_CB_ID MspDeInit callback ID
 433:Drivers/STM32F4xx_HAL_Driver/Src/stm32f4xx_hal_pcd.c ****   * @retval HAL status
 434:Drivers/STM32F4xx_HAL_Driver/Src/stm32f4xx_hal_pcd.c ****   */
 435:Drivers/STM32F4xx_HAL_Driver/Src/stm32f4xx_hal_pcd.c **** HAL_StatusTypeDef HAL_PCD_UnRegisterCallback(PCD_HandleTypeDef *hpcd, HAL_PCD_CallbackIDTypeDef Cal
 436:Drivers/STM32F4xx_HAL_Driver/Src/stm32f4xx_hal_pcd.c **** {
 437:Drivers/STM32F4xx_HAL_Driver/Src/stm32f4xx_hal_pcd.c ****   HAL_StatusTypeDef status = HAL_OK;
 438:Drivers/STM32F4xx_HAL_Driver/Src/stm32f4xx_hal_pcd.c **** 
 439:Drivers/STM32F4xx_HAL_Driver/Src/stm32f4xx_hal_pcd.c ****   /* Process locked */
 440:Drivers/STM32F4xx_HAL_Driver/Src/stm32f4xx_hal_pcd.c ****   __HAL_LOCK(hpcd);
 441:Drivers/STM32F4xx_HAL_Driver/Src/stm32f4xx_hal_pcd.c **** 
 442:Drivers/STM32F4xx_HAL_Driver/Src/stm32f4xx_hal_pcd.c ****   /* Setup Legacy weak Callbacks  */
 443:Drivers/STM32F4xx_HAL_Driver/Src/stm32f4xx_hal_pcd.c ****   if (hpcd->State == HAL_PCD_STATE_READY)
 444:Drivers/STM32F4xx_HAL_Driver/Src/stm32f4xx_hal_pcd.c ****   {
 445:Drivers/STM32F4xx_HAL_Driver/Src/stm32f4xx_hal_pcd.c ****     switch (CallbackID)
 446:Drivers/STM32F4xx_HAL_Driver/Src/stm32f4xx_hal_pcd.c ****     {
 447:Drivers/STM32F4xx_HAL_Driver/Src/stm32f4xx_hal_pcd.c ****       case HAL_PCD_SOF_CB_ID :
 448:Drivers/STM32F4xx_HAL_Driver/Src/stm32f4xx_hal_pcd.c ****         hpcd->SOFCallback = HAL_PCD_SOFCallback;
ARM GAS  /tmp/ccsbOyJb.s 			page 19


 449:Drivers/STM32F4xx_HAL_Driver/Src/stm32f4xx_hal_pcd.c ****         break;
 450:Drivers/STM32F4xx_HAL_Driver/Src/stm32f4xx_hal_pcd.c **** 
 451:Drivers/STM32F4xx_HAL_Driver/Src/stm32f4xx_hal_pcd.c ****       case HAL_PCD_SETUPSTAGE_CB_ID :
 452:Drivers/STM32F4xx_HAL_Driver/Src/stm32f4xx_hal_pcd.c ****         hpcd->SetupStageCallback = HAL_PCD_SetupStageCallback;
 453:Drivers/STM32F4xx_HAL_Driver/Src/stm32f4xx_hal_pcd.c ****         break;
 454:Drivers/STM32F4xx_HAL_Driver/Src/stm32f4xx_hal_pcd.c **** 
 455:Drivers/STM32F4xx_HAL_Driver/Src/stm32f4xx_hal_pcd.c ****       case HAL_PCD_RESET_CB_ID :
 456:Drivers/STM32F4xx_HAL_Driver/Src/stm32f4xx_hal_pcd.c ****         hpcd->ResetCallback = HAL_PCD_ResetCallback;
 457:Drivers/STM32F4xx_HAL_Driver/Src/stm32f4xx_hal_pcd.c ****         break;
 458:Drivers/STM32F4xx_HAL_Driver/Src/stm32f4xx_hal_pcd.c **** 
 459:Drivers/STM32F4xx_HAL_Driver/Src/stm32f4xx_hal_pcd.c ****       case HAL_PCD_SUSPEND_CB_ID :
 460:Drivers/STM32F4xx_HAL_Driver/Src/stm32f4xx_hal_pcd.c ****         hpcd->SuspendCallback = HAL_PCD_SuspendCallback;
 461:Drivers/STM32F4xx_HAL_Driver/Src/stm32f4xx_hal_pcd.c ****         break;
 462:Drivers/STM32F4xx_HAL_Driver/Src/stm32f4xx_hal_pcd.c **** 
 463:Drivers/STM32F4xx_HAL_Driver/Src/stm32f4xx_hal_pcd.c ****       case HAL_PCD_RESUME_CB_ID :
 464:Drivers/STM32F4xx_HAL_Driver/Src/stm32f4xx_hal_pcd.c ****         hpcd->ResumeCallback = HAL_PCD_ResumeCallback;
 465:Drivers/STM32F4xx_HAL_Driver/Src/stm32f4xx_hal_pcd.c ****         break;
 466:Drivers/STM32F4xx_HAL_Driver/Src/stm32f4xx_hal_pcd.c **** 
 467:Drivers/STM32F4xx_HAL_Driver/Src/stm32f4xx_hal_pcd.c ****       case HAL_PCD_CONNECT_CB_ID :
 468:Drivers/STM32F4xx_HAL_Driver/Src/stm32f4xx_hal_pcd.c ****         hpcd->ConnectCallback = HAL_PCD_ConnectCallback;
 469:Drivers/STM32F4xx_HAL_Driver/Src/stm32f4xx_hal_pcd.c ****         break;
 470:Drivers/STM32F4xx_HAL_Driver/Src/stm32f4xx_hal_pcd.c **** 
 471:Drivers/STM32F4xx_HAL_Driver/Src/stm32f4xx_hal_pcd.c ****       case HAL_PCD_DISCONNECT_CB_ID :
 472:Drivers/STM32F4xx_HAL_Driver/Src/stm32f4xx_hal_pcd.c ****         hpcd->DisconnectCallback = HAL_PCD_DisconnectCallback;
 473:Drivers/STM32F4xx_HAL_Driver/Src/stm32f4xx_hal_pcd.c ****         break;
 474:Drivers/STM32F4xx_HAL_Driver/Src/stm32f4xx_hal_pcd.c **** 
 475:Drivers/STM32F4xx_HAL_Driver/Src/stm32f4xx_hal_pcd.c ****       case HAL_PCD_MSPINIT_CB_ID :
 476:Drivers/STM32F4xx_HAL_Driver/Src/stm32f4xx_hal_pcd.c ****         hpcd->MspInitCallback = HAL_PCD_MspInit;
 477:Drivers/STM32F4xx_HAL_Driver/Src/stm32f4xx_hal_pcd.c ****         break;
 478:Drivers/STM32F4xx_HAL_Driver/Src/stm32f4xx_hal_pcd.c **** 
 479:Drivers/STM32F4xx_HAL_Driver/Src/stm32f4xx_hal_pcd.c ****       case HAL_PCD_MSPDEINIT_CB_ID :
 480:Drivers/STM32F4xx_HAL_Driver/Src/stm32f4xx_hal_pcd.c ****         hpcd->MspDeInitCallback = HAL_PCD_MspDeInit;
 481:Drivers/STM32F4xx_HAL_Driver/Src/stm32f4xx_hal_pcd.c ****         break;
 482:Drivers/STM32F4xx_HAL_Driver/Src/stm32f4xx_hal_pcd.c **** 
 483:Drivers/STM32F4xx_HAL_Driver/Src/stm32f4xx_hal_pcd.c ****       default :
 484:Drivers/STM32F4xx_HAL_Driver/Src/stm32f4xx_hal_pcd.c ****         /* Update the error code */
 485:Drivers/STM32F4xx_HAL_Driver/Src/stm32f4xx_hal_pcd.c ****         hpcd->ErrorCode |= HAL_PCD_ERROR_INVALID_CALLBACK;
 486:Drivers/STM32F4xx_HAL_Driver/Src/stm32f4xx_hal_pcd.c **** 
 487:Drivers/STM32F4xx_HAL_Driver/Src/stm32f4xx_hal_pcd.c ****         /* Return error status */
 488:Drivers/STM32F4xx_HAL_Driver/Src/stm32f4xx_hal_pcd.c ****         status =  HAL_ERROR;
 489:Drivers/STM32F4xx_HAL_Driver/Src/stm32f4xx_hal_pcd.c ****         break;
 490:Drivers/STM32F4xx_HAL_Driver/Src/stm32f4xx_hal_pcd.c ****     }
 491:Drivers/STM32F4xx_HAL_Driver/Src/stm32f4xx_hal_pcd.c ****   }
 492:Drivers/STM32F4xx_HAL_Driver/Src/stm32f4xx_hal_pcd.c ****   else if (hpcd->State == HAL_PCD_STATE_RESET)
 493:Drivers/STM32F4xx_HAL_Driver/Src/stm32f4xx_hal_pcd.c ****   {
 494:Drivers/STM32F4xx_HAL_Driver/Src/stm32f4xx_hal_pcd.c ****     switch (CallbackID)
 495:Drivers/STM32F4xx_HAL_Driver/Src/stm32f4xx_hal_pcd.c ****     {
 496:Drivers/STM32F4xx_HAL_Driver/Src/stm32f4xx_hal_pcd.c ****       case HAL_PCD_MSPINIT_CB_ID :
 497:Drivers/STM32F4xx_HAL_Driver/Src/stm32f4xx_hal_pcd.c ****         hpcd->MspInitCallback = HAL_PCD_MspInit;
 498:Drivers/STM32F4xx_HAL_Driver/Src/stm32f4xx_hal_pcd.c ****         break;
 499:Drivers/STM32F4xx_HAL_Driver/Src/stm32f4xx_hal_pcd.c **** 
 500:Drivers/STM32F4xx_HAL_Driver/Src/stm32f4xx_hal_pcd.c ****       case HAL_PCD_MSPDEINIT_CB_ID :
 501:Drivers/STM32F4xx_HAL_Driver/Src/stm32f4xx_hal_pcd.c ****         hpcd->MspDeInitCallback = HAL_PCD_MspDeInit;
 502:Drivers/STM32F4xx_HAL_Driver/Src/stm32f4xx_hal_pcd.c ****         break;
 503:Drivers/STM32F4xx_HAL_Driver/Src/stm32f4xx_hal_pcd.c **** 
 504:Drivers/STM32F4xx_HAL_Driver/Src/stm32f4xx_hal_pcd.c ****       default :
 505:Drivers/STM32F4xx_HAL_Driver/Src/stm32f4xx_hal_pcd.c ****         /* Update the error code */
ARM GAS  /tmp/ccsbOyJb.s 			page 20


 506:Drivers/STM32F4xx_HAL_Driver/Src/stm32f4xx_hal_pcd.c ****         hpcd->ErrorCode |= HAL_PCD_ERROR_INVALID_CALLBACK;
 507:Drivers/STM32F4xx_HAL_Driver/Src/stm32f4xx_hal_pcd.c **** 
 508:Drivers/STM32F4xx_HAL_Driver/Src/stm32f4xx_hal_pcd.c ****         /* Return error status */
 509:Drivers/STM32F4xx_HAL_Driver/Src/stm32f4xx_hal_pcd.c ****         status =  HAL_ERROR;
 510:Drivers/STM32F4xx_HAL_Driver/Src/stm32f4xx_hal_pcd.c ****         break;
 511:Drivers/STM32F4xx_HAL_Driver/Src/stm32f4xx_hal_pcd.c ****     }
 512:Drivers/STM32F4xx_HAL_Driver/Src/stm32f4xx_hal_pcd.c ****   }
 513:Drivers/STM32F4xx_HAL_Driver/Src/stm32f4xx_hal_pcd.c ****   else
 514:Drivers/STM32F4xx_HAL_Driver/Src/stm32f4xx_hal_pcd.c ****   {
 515:Drivers/STM32F4xx_HAL_Driver/Src/stm32f4xx_hal_pcd.c ****     /* Update the error code */
 516:Drivers/STM32F4xx_HAL_Driver/Src/stm32f4xx_hal_pcd.c ****     hpcd->ErrorCode |= HAL_PCD_ERROR_INVALID_CALLBACK;
 517:Drivers/STM32F4xx_HAL_Driver/Src/stm32f4xx_hal_pcd.c **** 
 518:Drivers/STM32F4xx_HAL_Driver/Src/stm32f4xx_hal_pcd.c ****     /* Return error status */
 519:Drivers/STM32F4xx_HAL_Driver/Src/stm32f4xx_hal_pcd.c ****     status =  HAL_ERROR;
 520:Drivers/STM32F4xx_HAL_Driver/Src/stm32f4xx_hal_pcd.c ****   }
 521:Drivers/STM32F4xx_HAL_Driver/Src/stm32f4xx_hal_pcd.c **** 
 522:Drivers/STM32F4xx_HAL_Driver/Src/stm32f4xx_hal_pcd.c ****   /* Release Lock */
 523:Drivers/STM32F4xx_HAL_Driver/Src/stm32f4xx_hal_pcd.c ****   __HAL_UNLOCK(hpcd);
 524:Drivers/STM32F4xx_HAL_Driver/Src/stm32f4xx_hal_pcd.c ****   return status;
 525:Drivers/STM32F4xx_HAL_Driver/Src/stm32f4xx_hal_pcd.c **** }
 526:Drivers/STM32F4xx_HAL_Driver/Src/stm32f4xx_hal_pcd.c **** 
 527:Drivers/STM32F4xx_HAL_Driver/Src/stm32f4xx_hal_pcd.c **** /**
 528:Drivers/STM32F4xx_HAL_Driver/Src/stm32f4xx_hal_pcd.c ****   * @brief  Register USB PCD Data OUT Stage Callback
 529:Drivers/STM32F4xx_HAL_Driver/Src/stm32f4xx_hal_pcd.c ****   *         To be used instead of the weak HAL_PCD_DataOutStageCallback() predefined callback
 530:Drivers/STM32F4xx_HAL_Driver/Src/stm32f4xx_hal_pcd.c ****   * @param  hpcd PCD handle
 531:Drivers/STM32F4xx_HAL_Driver/Src/stm32f4xx_hal_pcd.c ****   * @param  pCallback pointer to the USB PCD Data OUT Stage Callback function
 532:Drivers/STM32F4xx_HAL_Driver/Src/stm32f4xx_hal_pcd.c ****   * @retval HAL status
 533:Drivers/STM32F4xx_HAL_Driver/Src/stm32f4xx_hal_pcd.c ****   */
 534:Drivers/STM32F4xx_HAL_Driver/Src/stm32f4xx_hal_pcd.c **** HAL_StatusTypeDef HAL_PCD_RegisterDataOutStageCallback(PCD_HandleTypeDef *hpcd, pPCD_DataOutStageCa
 535:Drivers/STM32F4xx_HAL_Driver/Src/stm32f4xx_hal_pcd.c **** {
 536:Drivers/STM32F4xx_HAL_Driver/Src/stm32f4xx_hal_pcd.c ****   HAL_StatusTypeDef status = HAL_OK;
 537:Drivers/STM32F4xx_HAL_Driver/Src/stm32f4xx_hal_pcd.c **** 
 538:Drivers/STM32F4xx_HAL_Driver/Src/stm32f4xx_hal_pcd.c ****   if (pCallback == NULL)
 539:Drivers/STM32F4xx_HAL_Driver/Src/stm32f4xx_hal_pcd.c ****   {
 540:Drivers/STM32F4xx_HAL_Driver/Src/stm32f4xx_hal_pcd.c ****     /* Update the error code */
 541:Drivers/STM32F4xx_HAL_Driver/Src/stm32f4xx_hal_pcd.c ****     hpcd->ErrorCode |= HAL_PCD_ERROR_INVALID_CALLBACK;
 542:Drivers/STM32F4xx_HAL_Driver/Src/stm32f4xx_hal_pcd.c **** 
 543:Drivers/STM32F4xx_HAL_Driver/Src/stm32f4xx_hal_pcd.c ****     return HAL_ERROR;
 544:Drivers/STM32F4xx_HAL_Driver/Src/stm32f4xx_hal_pcd.c ****   }
 545:Drivers/STM32F4xx_HAL_Driver/Src/stm32f4xx_hal_pcd.c **** 
 546:Drivers/STM32F4xx_HAL_Driver/Src/stm32f4xx_hal_pcd.c ****   /* Process locked */
 547:Drivers/STM32F4xx_HAL_Driver/Src/stm32f4xx_hal_pcd.c ****   __HAL_LOCK(hpcd);
 548:Drivers/STM32F4xx_HAL_Driver/Src/stm32f4xx_hal_pcd.c **** 
 549:Drivers/STM32F4xx_HAL_Driver/Src/stm32f4xx_hal_pcd.c ****   if (hpcd->State == HAL_PCD_STATE_READY)
 550:Drivers/STM32F4xx_HAL_Driver/Src/stm32f4xx_hal_pcd.c ****   {
 551:Drivers/STM32F4xx_HAL_Driver/Src/stm32f4xx_hal_pcd.c ****     hpcd->DataOutStageCallback = pCallback;
 552:Drivers/STM32F4xx_HAL_Driver/Src/stm32f4xx_hal_pcd.c ****   }
 553:Drivers/STM32F4xx_HAL_Driver/Src/stm32f4xx_hal_pcd.c ****   else
 554:Drivers/STM32F4xx_HAL_Driver/Src/stm32f4xx_hal_pcd.c ****   {
 555:Drivers/STM32F4xx_HAL_Driver/Src/stm32f4xx_hal_pcd.c ****     /* Update the error code */
 556:Drivers/STM32F4xx_HAL_Driver/Src/stm32f4xx_hal_pcd.c ****     hpcd->ErrorCode |= HAL_PCD_ERROR_INVALID_CALLBACK;
 557:Drivers/STM32F4xx_HAL_Driver/Src/stm32f4xx_hal_pcd.c **** 
 558:Drivers/STM32F4xx_HAL_Driver/Src/stm32f4xx_hal_pcd.c ****     /* Return error status */
 559:Drivers/STM32F4xx_HAL_Driver/Src/stm32f4xx_hal_pcd.c ****     status =  HAL_ERROR;
 560:Drivers/STM32F4xx_HAL_Driver/Src/stm32f4xx_hal_pcd.c ****   }
 561:Drivers/STM32F4xx_HAL_Driver/Src/stm32f4xx_hal_pcd.c **** 
 562:Drivers/STM32F4xx_HAL_Driver/Src/stm32f4xx_hal_pcd.c ****   /* Release Lock */
ARM GAS  /tmp/ccsbOyJb.s 			page 21


 563:Drivers/STM32F4xx_HAL_Driver/Src/stm32f4xx_hal_pcd.c ****   __HAL_UNLOCK(hpcd);
 564:Drivers/STM32F4xx_HAL_Driver/Src/stm32f4xx_hal_pcd.c **** 
 565:Drivers/STM32F4xx_HAL_Driver/Src/stm32f4xx_hal_pcd.c ****   return status;
 566:Drivers/STM32F4xx_HAL_Driver/Src/stm32f4xx_hal_pcd.c **** }
 567:Drivers/STM32F4xx_HAL_Driver/Src/stm32f4xx_hal_pcd.c **** 
 568:Drivers/STM32F4xx_HAL_Driver/Src/stm32f4xx_hal_pcd.c **** /**
 569:Drivers/STM32F4xx_HAL_Driver/Src/stm32f4xx_hal_pcd.c ****   * @brief  UnRegister the USB PCD Data OUT Stage Callback
 570:Drivers/STM32F4xx_HAL_Driver/Src/stm32f4xx_hal_pcd.c ****   *         USB PCD Data OUT Stage Callback is redirected to the weak HAL_PCD_DataOutStageCallback(
 571:Drivers/STM32F4xx_HAL_Driver/Src/stm32f4xx_hal_pcd.c ****   * @param  hpcd PCD handle
 572:Drivers/STM32F4xx_HAL_Driver/Src/stm32f4xx_hal_pcd.c ****   * @retval HAL status
 573:Drivers/STM32F4xx_HAL_Driver/Src/stm32f4xx_hal_pcd.c ****   */
 574:Drivers/STM32F4xx_HAL_Driver/Src/stm32f4xx_hal_pcd.c **** HAL_StatusTypeDef HAL_PCD_UnRegisterDataOutStageCallback(PCD_HandleTypeDef *hpcd)
 575:Drivers/STM32F4xx_HAL_Driver/Src/stm32f4xx_hal_pcd.c **** {
 576:Drivers/STM32F4xx_HAL_Driver/Src/stm32f4xx_hal_pcd.c ****   HAL_StatusTypeDef status = HAL_OK;
 577:Drivers/STM32F4xx_HAL_Driver/Src/stm32f4xx_hal_pcd.c **** 
 578:Drivers/STM32F4xx_HAL_Driver/Src/stm32f4xx_hal_pcd.c ****   /* Process locked */
 579:Drivers/STM32F4xx_HAL_Driver/Src/stm32f4xx_hal_pcd.c ****   __HAL_LOCK(hpcd);
 580:Drivers/STM32F4xx_HAL_Driver/Src/stm32f4xx_hal_pcd.c **** 
 581:Drivers/STM32F4xx_HAL_Driver/Src/stm32f4xx_hal_pcd.c ****   if (hpcd->State == HAL_PCD_STATE_READY)
 582:Drivers/STM32F4xx_HAL_Driver/Src/stm32f4xx_hal_pcd.c ****   {
 583:Drivers/STM32F4xx_HAL_Driver/Src/stm32f4xx_hal_pcd.c ****     hpcd->DataOutStageCallback = HAL_PCD_DataOutStageCallback; /* Legacy weak DataOutStageCallback 
 584:Drivers/STM32F4xx_HAL_Driver/Src/stm32f4xx_hal_pcd.c ****   }
 585:Drivers/STM32F4xx_HAL_Driver/Src/stm32f4xx_hal_pcd.c ****   else
 586:Drivers/STM32F4xx_HAL_Driver/Src/stm32f4xx_hal_pcd.c ****   {
 587:Drivers/STM32F4xx_HAL_Driver/Src/stm32f4xx_hal_pcd.c ****     /* Update the error code */
 588:Drivers/STM32F4xx_HAL_Driver/Src/stm32f4xx_hal_pcd.c ****     hpcd->ErrorCode |= HAL_PCD_ERROR_INVALID_CALLBACK;
 589:Drivers/STM32F4xx_HAL_Driver/Src/stm32f4xx_hal_pcd.c **** 
 590:Drivers/STM32F4xx_HAL_Driver/Src/stm32f4xx_hal_pcd.c ****     /* Return error status */
 591:Drivers/STM32F4xx_HAL_Driver/Src/stm32f4xx_hal_pcd.c ****     status =  HAL_ERROR;
 592:Drivers/STM32F4xx_HAL_Driver/Src/stm32f4xx_hal_pcd.c ****   }
 593:Drivers/STM32F4xx_HAL_Driver/Src/stm32f4xx_hal_pcd.c **** 
 594:Drivers/STM32F4xx_HAL_Driver/Src/stm32f4xx_hal_pcd.c ****   /* Release Lock */
 595:Drivers/STM32F4xx_HAL_Driver/Src/stm32f4xx_hal_pcd.c ****   __HAL_UNLOCK(hpcd);
 596:Drivers/STM32F4xx_HAL_Driver/Src/stm32f4xx_hal_pcd.c **** 
 597:Drivers/STM32F4xx_HAL_Driver/Src/stm32f4xx_hal_pcd.c ****   return status;
 598:Drivers/STM32F4xx_HAL_Driver/Src/stm32f4xx_hal_pcd.c **** }
 599:Drivers/STM32F4xx_HAL_Driver/Src/stm32f4xx_hal_pcd.c **** 
 600:Drivers/STM32F4xx_HAL_Driver/Src/stm32f4xx_hal_pcd.c **** /**
 601:Drivers/STM32F4xx_HAL_Driver/Src/stm32f4xx_hal_pcd.c ****   * @brief  Register USB PCD Data IN Stage Callback
 602:Drivers/STM32F4xx_HAL_Driver/Src/stm32f4xx_hal_pcd.c ****   *         To be used instead of the weak HAL_PCD_DataInStageCallback() predefined callback
 603:Drivers/STM32F4xx_HAL_Driver/Src/stm32f4xx_hal_pcd.c ****   * @param  hpcd PCD handle
 604:Drivers/STM32F4xx_HAL_Driver/Src/stm32f4xx_hal_pcd.c ****   * @param  pCallback pointer to the USB PCD Data IN Stage Callback function
 605:Drivers/STM32F4xx_HAL_Driver/Src/stm32f4xx_hal_pcd.c ****   * @retval HAL status
 606:Drivers/STM32F4xx_HAL_Driver/Src/stm32f4xx_hal_pcd.c ****   */
 607:Drivers/STM32F4xx_HAL_Driver/Src/stm32f4xx_hal_pcd.c **** HAL_StatusTypeDef HAL_PCD_RegisterDataInStageCallback(PCD_HandleTypeDef *hpcd, pPCD_DataInStageCall
 608:Drivers/STM32F4xx_HAL_Driver/Src/stm32f4xx_hal_pcd.c **** {
 609:Drivers/STM32F4xx_HAL_Driver/Src/stm32f4xx_hal_pcd.c ****   HAL_StatusTypeDef status = HAL_OK;
 610:Drivers/STM32F4xx_HAL_Driver/Src/stm32f4xx_hal_pcd.c **** 
 611:Drivers/STM32F4xx_HAL_Driver/Src/stm32f4xx_hal_pcd.c ****   if (pCallback == NULL)
 612:Drivers/STM32F4xx_HAL_Driver/Src/stm32f4xx_hal_pcd.c ****   {
 613:Drivers/STM32F4xx_HAL_Driver/Src/stm32f4xx_hal_pcd.c ****     /* Update the error code */
 614:Drivers/STM32F4xx_HAL_Driver/Src/stm32f4xx_hal_pcd.c ****     hpcd->ErrorCode |= HAL_PCD_ERROR_INVALID_CALLBACK;
 615:Drivers/STM32F4xx_HAL_Driver/Src/stm32f4xx_hal_pcd.c **** 
 616:Drivers/STM32F4xx_HAL_Driver/Src/stm32f4xx_hal_pcd.c ****     return HAL_ERROR;
 617:Drivers/STM32F4xx_HAL_Driver/Src/stm32f4xx_hal_pcd.c ****   }
 618:Drivers/STM32F4xx_HAL_Driver/Src/stm32f4xx_hal_pcd.c **** 
 619:Drivers/STM32F4xx_HAL_Driver/Src/stm32f4xx_hal_pcd.c ****   /* Process locked */
ARM GAS  /tmp/ccsbOyJb.s 			page 22


 620:Drivers/STM32F4xx_HAL_Driver/Src/stm32f4xx_hal_pcd.c ****   __HAL_LOCK(hpcd);
 621:Drivers/STM32F4xx_HAL_Driver/Src/stm32f4xx_hal_pcd.c **** 
 622:Drivers/STM32F4xx_HAL_Driver/Src/stm32f4xx_hal_pcd.c ****   if (hpcd->State == HAL_PCD_STATE_READY)
 623:Drivers/STM32F4xx_HAL_Driver/Src/stm32f4xx_hal_pcd.c ****   {
 624:Drivers/STM32F4xx_HAL_Driver/Src/stm32f4xx_hal_pcd.c ****     hpcd->DataInStageCallback = pCallback;
 625:Drivers/STM32F4xx_HAL_Driver/Src/stm32f4xx_hal_pcd.c ****   }
 626:Drivers/STM32F4xx_HAL_Driver/Src/stm32f4xx_hal_pcd.c ****   else
 627:Drivers/STM32F4xx_HAL_Driver/Src/stm32f4xx_hal_pcd.c ****   {
 628:Drivers/STM32F4xx_HAL_Driver/Src/stm32f4xx_hal_pcd.c ****     /* Update the error code */
 629:Drivers/STM32F4xx_HAL_Driver/Src/stm32f4xx_hal_pcd.c ****     hpcd->ErrorCode |= HAL_PCD_ERROR_INVALID_CALLBACK;
 630:Drivers/STM32F4xx_HAL_Driver/Src/stm32f4xx_hal_pcd.c **** 
 631:Drivers/STM32F4xx_HAL_Driver/Src/stm32f4xx_hal_pcd.c ****     /* Return error status */
 632:Drivers/STM32F4xx_HAL_Driver/Src/stm32f4xx_hal_pcd.c ****     status =  HAL_ERROR;
 633:Drivers/STM32F4xx_HAL_Driver/Src/stm32f4xx_hal_pcd.c ****   }
 634:Drivers/STM32F4xx_HAL_Driver/Src/stm32f4xx_hal_pcd.c **** 
 635:Drivers/STM32F4xx_HAL_Driver/Src/stm32f4xx_hal_pcd.c ****   /* Release Lock */
 636:Drivers/STM32F4xx_HAL_Driver/Src/stm32f4xx_hal_pcd.c ****   __HAL_UNLOCK(hpcd);
 637:Drivers/STM32F4xx_HAL_Driver/Src/stm32f4xx_hal_pcd.c **** 
 638:Drivers/STM32F4xx_HAL_Driver/Src/stm32f4xx_hal_pcd.c ****   return status;
 639:Drivers/STM32F4xx_HAL_Driver/Src/stm32f4xx_hal_pcd.c **** }
 640:Drivers/STM32F4xx_HAL_Driver/Src/stm32f4xx_hal_pcd.c **** 
 641:Drivers/STM32F4xx_HAL_Driver/Src/stm32f4xx_hal_pcd.c **** /**
 642:Drivers/STM32F4xx_HAL_Driver/Src/stm32f4xx_hal_pcd.c ****   * @brief  UnRegister the USB PCD Data IN Stage Callback
 643:Drivers/STM32F4xx_HAL_Driver/Src/stm32f4xx_hal_pcd.c ****   *         USB PCD Data OUT Stage Callback is redirected to the weak HAL_PCD_DataInStageCallback()
 644:Drivers/STM32F4xx_HAL_Driver/Src/stm32f4xx_hal_pcd.c ****   * @param  hpcd PCD handle
 645:Drivers/STM32F4xx_HAL_Driver/Src/stm32f4xx_hal_pcd.c ****   * @retval HAL status
 646:Drivers/STM32F4xx_HAL_Driver/Src/stm32f4xx_hal_pcd.c ****   */
 647:Drivers/STM32F4xx_HAL_Driver/Src/stm32f4xx_hal_pcd.c **** HAL_StatusTypeDef HAL_PCD_UnRegisterDataInStageCallback(PCD_HandleTypeDef *hpcd)
 648:Drivers/STM32F4xx_HAL_Driver/Src/stm32f4xx_hal_pcd.c **** {
 649:Drivers/STM32F4xx_HAL_Driver/Src/stm32f4xx_hal_pcd.c ****   HAL_StatusTypeDef status = HAL_OK;
 650:Drivers/STM32F4xx_HAL_Driver/Src/stm32f4xx_hal_pcd.c **** 
 651:Drivers/STM32F4xx_HAL_Driver/Src/stm32f4xx_hal_pcd.c ****   /* Process locked */
 652:Drivers/STM32F4xx_HAL_Driver/Src/stm32f4xx_hal_pcd.c ****   __HAL_LOCK(hpcd);
 653:Drivers/STM32F4xx_HAL_Driver/Src/stm32f4xx_hal_pcd.c **** 
 654:Drivers/STM32F4xx_HAL_Driver/Src/stm32f4xx_hal_pcd.c ****   if (hpcd->State == HAL_PCD_STATE_READY)
 655:Drivers/STM32F4xx_HAL_Driver/Src/stm32f4xx_hal_pcd.c ****   {
 656:Drivers/STM32F4xx_HAL_Driver/Src/stm32f4xx_hal_pcd.c ****     hpcd->DataInStageCallback = HAL_PCD_DataInStageCallback; /* Legacy weak DataInStageCallback  */
 657:Drivers/STM32F4xx_HAL_Driver/Src/stm32f4xx_hal_pcd.c ****   }
 658:Drivers/STM32F4xx_HAL_Driver/Src/stm32f4xx_hal_pcd.c ****   else
 659:Drivers/STM32F4xx_HAL_Driver/Src/stm32f4xx_hal_pcd.c ****   {
 660:Drivers/STM32F4xx_HAL_Driver/Src/stm32f4xx_hal_pcd.c ****     /* Update the error code */
 661:Drivers/STM32F4xx_HAL_Driver/Src/stm32f4xx_hal_pcd.c ****     hpcd->ErrorCode |= HAL_PCD_ERROR_INVALID_CALLBACK;
 662:Drivers/STM32F4xx_HAL_Driver/Src/stm32f4xx_hal_pcd.c **** 
 663:Drivers/STM32F4xx_HAL_Driver/Src/stm32f4xx_hal_pcd.c ****     /* Return error status */
 664:Drivers/STM32F4xx_HAL_Driver/Src/stm32f4xx_hal_pcd.c ****     status =  HAL_ERROR;
 665:Drivers/STM32F4xx_HAL_Driver/Src/stm32f4xx_hal_pcd.c ****   }
 666:Drivers/STM32F4xx_HAL_Driver/Src/stm32f4xx_hal_pcd.c **** 
 667:Drivers/STM32F4xx_HAL_Driver/Src/stm32f4xx_hal_pcd.c ****   /* Release Lock */
 668:Drivers/STM32F4xx_HAL_Driver/Src/stm32f4xx_hal_pcd.c ****   __HAL_UNLOCK(hpcd);
 669:Drivers/STM32F4xx_HAL_Driver/Src/stm32f4xx_hal_pcd.c **** 
 670:Drivers/STM32F4xx_HAL_Driver/Src/stm32f4xx_hal_pcd.c ****   return status;
 671:Drivers/STM32F4xx_HAL_Driver/Src/stm32f4xx_hal_pcd.c **** }
 672:Drivers/STM32F4xx_HAL_Driver/Src/stm32f4xx_hal_pcd.c **** 
 673:Drivers/STM32F4xx_HAL_Driver/Src/stm32f4xx_hal_pcd.c **** /**
 674:Drivers/STM32F4xx_HAL_Driver/Src/stm32f4xx_hal_pcd.c ****   * @brief  Register USB PCD Iso OUT incomplete Callback
 675:Drivers/STM32F4xx_HAL_Driver/Src/stm32f4xx_hal_pcd.c ****   *         To be used instead of the weak HAL_PCD_ISOOUTIncompleteCallback() predefined callback
 676:Drivers/STM32F4xx_HAL_Driver/Src/stm32f4xx_hal_pcd.c ****   * @param  hpcd PCD handle
ARM GAS  /tmp/ccsbOyJb.s 			page 23


 677:Drivers/STM32F4xx_HAL_Driver/Src/stm32f4xx_hal_pcd.c ****   * @param  pCallback pointer to the USB PCD Iso OUT incomplete Callback function
 678:Drivers/STM32F4xx_HAL_Driver/Src/stm32f4xx_hal_pcd.c ****   * @retval HAL status
 679:Drivers/STM32F4xx_HAL_Driver/Src/stm32f4xx_hal_pcd.c ****   */
 680:Drivers/STM32F4xx_HAL_Driver/Src/stm32f4xx_hal_pcd.c **** HAL_StatusTypeDef HAL_PCD_RegisterIsoOutIncpltCallback(PCD_HandleTypeDef *hpcd, pPCD_IsoOutIncpltCa
 681:Drivers/STM32F4xx_HAL_Driver/Src/stm32f4xx_hal_pcd.c **** {
 682:Drivers/STM32F4xx_HAL_Driver/Src/stm32f4xx_hal_pcd.c ****   HAL_StatusTypeDef status = HAL_OK;
 683:Drivers/STM32F4xx_HAL_Driver/Src/stm32f4xx_hal_pcd.c **** 
 684:Drivers/STM32F4xx_HAL_Driver/Src/stm32f4xx_hal_pcd.c ****   if (pCallback == NULL)
 685:Drivers/STM32F4xx_HAL_Driver/Src/stm32f4xx_hal_pcd.c ****   {
 686:Drivers/STM32F4xx_HAL_Driver/Src/stm32f4xx_hal_pcd.c ****     /* Update the error code */
 687:Drivers/STM32F4xx_HAL_Driver/Src/stm32f4xx_hal_pcd.c ****     hpcd->ErrorCode |= HAL_PCD_ERROR_INVALID_CALLBACK;
 688:Drivers/STM32F4xx_HAL_Driver/Src/stm32f4xx_hal_pcd.c **** 
 689:Drivers/STM32F4xx_HAL_Driver/Src/stm32f4xx_hal_pcd.c ****     return HAL_ERROR;
 690:Drivers/STM32F4xx_HAL_Driver/Src/stm32f4xx_hal_pcd.c ****   }
 691:Drivers/STM32F4xx_HAL_Driver/Src/stm32f4xx_hal_pcd.c **** 
 692:Drivers/STM32F4xx_HAL_Driver/Src/stm32f4xx_hal_pcd.c ****   /* Process locked */
 693:Drivers/STM32F4xx_HAL_Driver/Src/stm32f4xx_hal_pcd.c ****   __HAL_LOCK(hpcd);
 694:Drivers/STM32F4xx_HAL_Driver/Src/stm32f4xx_hal_pcd.c **** 
 695:Drivers/STM32F4xx_HAL_Driver/Src/stm32f4xx_hal_pcd.c ****   if (hpcd->State == HAL_PCD_STATE_READY)
 696:Drivers/STM32F4xx_HAL_Driver/Src/stm32f4xx_hal_pcd.c ****   {
 697:Drivers/STM32F4xx_HAL_Driver/Src/stm32f4xx_hal_pcd.c ****     hpcd->ISOOUTIncompleteCallback = pCallback;
 698:Drivers/STM32F4xx_HAL_Driver/Src/stm32f4xx_hal_pcd.c ****   }
 699:Drivers/STM32F4xx_HAL_Driver/Src/stm32f4xx_hal_pcd.c ****   else
 700:Drivers/STM32F4xx_HAL_Driver/Src/stm32f4xx_hal_pcd.c ****   {
 701:Drivers/STM32F4xx_HAL_Driver/Src/stm32f4xx_hal_pcd.c ****     /* Update the error code */
 702:Drivers/STM32F4xx_HAL_Driver/Src/stm32f4xx_hal_pcd.c ****     hpcd->ErrorCode |= HAL_PCD_ERROR_INVALID_CALLBACK;
 703:Drivers/STM32F4xx_HAL_Driver/Src/stm32f4xx_hal_pcd.c **** 
 704:Drivers/STM32F4xx_HAL_Driver/Src/stm32f4xx_hal_pcd.c ****     /* Return error status */
 705:Drivers/STM32F4xx_HAL_Driver/Src/stm32f4xx_hal_pcd.c ****     status =  HAL_ERROR;
 706:Drivers/STM32F4xx_HAL_Driver/Src/stm32f4xx_hal_pcd.c ****   }
 707:Drivers/STM32F4xx_HAL_Driver/Src/stm32f4xx_hal_pcd.c **** 
 708:Drivers/STM32F4xx_HAL_Driver/Src/stm32f4xx_hal_pcd.c ****   /* Release Lock */
 709:Drivers/STM32F4xx_HAL_Driver/Src/stm32f4xx_hal_pcd.c ****   __HAL_UNLOCK(hpcd);
 710:Drivers/STM32F4xx_HAL_Driver/Src/stm32f4xx_hal_pcd.c **** 
 711:Drivers/STM32F4xx_HAL_Driver/Src/stm32f4xx_hal_pcd.c ****   return status;
 712:Drivers/STM32F4xx_HAL_Driver/Src/stm32f4xx_hal_pcd.c **** }
 713:Drivers/STM32F4xx_HAL_Driver/Src/stm32f4xx_hal_pcd.c **** 
 714:Drivers/STM32F4xx_HAL_Driver/Src/stm32f4xx_hal_pcd.c **** /**
 715:Drivers/STM32F4xx_HAL_Driver/Src/stm32f4xx_hal_pcd.c ****   * @brief  UnRegister the USB PCD Iso OUT incomplete Callback
 716:Drivers/STM32F4xx_HAL_Driver/Src/stm32f4xx_hal_pcd.c ****   *         USB PCD Iso OUT incomplete Callback is redirected to the weak HAL_PCD_ISOOUTIncompleteC
 717:Drivers/STM32F4xx_HAL_Driver/Src/stm32f4xx_hal_pcd.c ****   * @param  hpcd PCD handle
 718:Drivers/STM32F4xx_HAL_Driver/Src/stm32f4xx_hal_pcd.c ****   * @retval HAL status
 719:Drivers/STM32F4xx_HAL_Driver/Src/stm32f4xx_hal_pcd.c ****   */
 720:Drivers/STM32F4xx_HAL_Driver/Src/stm32f4xx_hal_pcd.c **** HAL_StatusTypeDef HAL_PCD_UnRegisterIsoOutIncpltCallback(PCD_HandleTypeDef *hpcd)
 721:Drivers/STM32F4xx_HAL_Driver/Src/stm32f4xx_hal_pcd.c **** {
 722:Drivers/STM32F4xx_HAL_Driver/Src/stm32f4xx_hal_pcd.c ****   HAL_StatusTypeDef status = HAL_OK;
 723:Drivers/STM32F4xx_HAL_Driver/Src/stm32f4xx_hal_pcd.c **** 
 724:Drivers/STM32F4xx_HAL_Driver/Src/stm32f4xx_hal_pcd.c ****   /* Process locked */
 725:Drivers/STM32F4xx_HAL_Driver/Src/stm32f4xx_hal_pcd.c ****   __HAL_LOCK(hpcd);
 726:Drivers/STM32F4xx_HAL_Driver/Src/stm32f4xx_hal_pcd.c **** 
 727:Drivers/STM32F4xx_HAL_Driver/Src/stm32f4xx_hal_pcd.c ****   if (hpcd->State == HAL_PCD_STATE_READY)
 728:Drivers/STM32F4xx_HAL_Driver/Src/stm32f4xx_hal_pcd.c ****   {
 729:Drivers/STM32F4xx_HAL_Driver/Src/stm32f4xx_hal_pcd.c ****     hpcd->ISOOUTIncompleteCallback = HAL_PCD_ISOOUTIncompleteCallback; /* Legacy weak ISOOUTIncompl
 730:Drivers/STM32F4xx_HAL_Driver/Src/stm32f4xx_hal_pcd.c ****   }
 731:Drivers/STM32F4xx_HAL_Driver/Src/stm32f4xx_hal_pcd.c ****   else
 732:Drivers/STM32F4xx_HAL_Driver/Src/stm32f4xx_hal_pcd.c ****   {
 733:Drivers/STM32F4xx_HAL_Driver/Src/stm32f4xx_hal_pcd.c ****     /* Update the error code */
ARM GAS  /tmp/ccsbOyJb.s 			page 24


 734:Drivers/STM32F4xx_HAL_Driver/Src/stm32f4xx_hal_pcd.c ****     hpcd->ErrorCode |= HAL_PCD_ERROR_INVALID_CALLBACK;
 735:Drivers/STM32F4xx_HAL_Driver/Src/stm32f4xx_hal_pcd.c **** 
 736:Drivers/STM32F4xx_HAL_Driver/Src/stm32f4xx_hal_pcd.c ****     /* Return error status */
 737:Drivers/STM32F4xx_HAL_Driver/Src/stm32f4xx_hal_pcd.c ****     status =  HAL_ERROR;
 738:Drivers/STM32F4xx_HAL_Driver/Src/stm32f4xx_hal_pcd.c ****   }
 739:Drivers/STM32F4xx_HAL_Driver/Src/stm32f4xx_hal_pcd.c **** 
 740:Drivers/STM32F4xx_HAL_Driver/Src/stm32f4xx_hal_pcd.c ****   /* Release Lock */
 741:Drivers/STM32F4xx_HAL_Driver/Src/stm32f4xx_hal_pcd.c ****   __HAL_UNLOCK(hpcd);
 742:Drivers/STM32F4xx_HAL_Driver/Src/stm32f4xx_hal_pcd.c **** 
 743:Drivers/STM32F4xx_HAL_Driver/Src/stm32f4xx_hal_pcd.c ****   return status;
 744:Drivers/STM32F4xx_HAL_Driver/Src/stm32f4xx_hal_pcd.c **** }
 745:Drivers/STM32F4xx_HAL_Driver/Src/stm32f4xx_hal_pcd.c **** 
 746:Drivers/STM32F4xx_HAL_Driver/Src/stm32f4xx_hal_pcd.c **** /**
 747:Drivers/STM32F4xx_HAL_Driver/Src/stm32f4xx_hal_pcd.c ****   * @brief  Register USB PCD Iso IN incomplete Callback
 748:Drivers/STM32F4xx_HAL_Driver/Src/stm32f4xx_hal_pcd.c ****   *         To be used instead of the weak HAL_PCD_ISOINIncompleteCallback() predefined callback
 749:Drivers/STM32F4xx_HAL_Driver/Src/stm32f4xx_hal_pcd.c ****   * @param  hpcd PCD handle
 750:Drivers/STM32F4xx_HAL_Driver/Src/stm32f4xx_hal_pcd.c ****   * @param  pCallback pointer to the USB PCD Iso IN incomplete Callback function
 751:Drivers/STM32F4xx_HAL_Driver/Src/stm32f4xx_hal_pcd.c ****   * @retval HAL status
 752:Drivers/STM32F4xx_HAL_Driver/Src/stm32f4xx_hal_pcd.c ****   */
 753:Drivers/STM32F4xx_HAL_Driver/Src/stm32f4xx_hal_pcd.c **** HAL_StatusTypeDef HAL_PCD_RegisterIsoInIncpltCallback(PCD_HandleTypeDef *hpcd, pPCD_IsoInIncpltCall
 754:Drivers/STM32F4xx_HAL_Driver/Src/stm32f4xx_hal_pcd.c **** {
 755:Drivers/STM32F4xx_HAL_Driver/Src/stm32f4xx_hal_pcd.c ****   HAL_StatusTypeDef status = HAL_OK;
 756:Drivers/STM32F4xx_HAL_Driver/Src/stm32f4xx_hal_pcd.c **** 
 757:Drivers/STM32F4xx_HAL_Driver/Src/stm32f4xx_hal_pcd.c ****   if (pCallback == NULL)
 758:Drivers/STM32F4xx_HAL_Driver/Src/stm32f4xx_hal_pcd.c ****   {
 759:Drivers/STM32F4xx_HAL_Driver/Src/stm32f4xx_hal_pcd.c ****     /* Update the error code */
 760:Drivers/STM32F4xx_HAL_Driver/Src/stm32f4xx_hal_pcd.c ****     hpcd->ErrorCode |= HAL_PCD_ERROR_INVALID_CALLBACK;
 761:Drivers/STM32F4xx_HAL_Driver/Src/stm32f4xx_hal_pcd.c **** 
 762:Drivers/STM32F4xx_HAL_Driver/Src/stm32f4xx_hal_pcd.c ****     return HAL_ERROR;
 763:Drivers/STM32F4xx_HAL_Driver/Src/stm32f4xx_hal_pcd.c ****   }
 764:Drivers/STM32F4xx_HAL_Driver/Src/stm32f4xx_hal_pcd.c **** 
 765:Drivers/STM32F4xx_HAL_Driver/Src/stm32f4xx_hal_pcd.c ****   /* Process locked */
 766:Drivers/STM32F4xx_HAL_Driver/Src/stm32f4xx_hal_pcd.c ****   __HAL_LOCK(hpcd);
 767:Drivers/STM32F4xx_HAL_Driver/Src/stm32f4xx_hal_pcd.c **** 
 768:Drivers/STM32F4xx_HAL_Driver/Src/stm32f4xx_hal_pcd.c ****   if (hpcd->State == HAL_PCD_STATE_READY)
 769:Drivers/STM32F4xx_HAL_Driver/Src/stm32f4xx_hal_pcd.c ****   {
 770:Drivers/STM32F4xx_HAL_Driver/Src/stm32f4xx_hal_pcd.c ****     hpcd->ISOINIncompleteCallback = pCallback;
 771:Drivers/STM32F4xx_HAL_Driver/Src/stm32f4xx_hal_pcd.c ****   }
 772:Drivers/STM32F4xx_HAL_Driver/Src/stm32f4xx_hal_pcd.c ****   else
 773:Drivers/STM32F4xx_HAL_Driver/Src/stm32f4xx_hal_pcd.c ****   {
 774:Drivers/STM32F4xx_HAL_Driver/Src/stm32f4xx_hal_pcd.c ****     /* Update the error code */
 775:Drivers/STM32F4xx_HAL_Driver/Src/stm32f4xx_hal_pcd.c ****     hpcd->ErrorCode |= HAL_PCD_ERROR_INVALID_CALLBACK;
 776:Drivers/STM32F4xx_HAL_Driver/Src/stm32f4xx_hal_pcd.c **** 
 777:Drivers/STM32F4xx_HAL_Driver/Src/stm32f4xx_hal_pcd.c ****     /* Return error status */
 778:Drivers/STM32F4xx_HAL_Driver/Src/stm32f4xx_hal_pcd.c ****     status =  HAL_ERROR;
 779:Drivers/STM32F4xx_HAL_Driver/Src/stm32f4xx_hal_pcd.c ****   }
 780:Drivers/STM32F4xx_HAL_Driver/Src/stm32f4xx_hal_pcd.c **** 
 781:Drivers/STM32F4xx_HAL_Driver/Src/stm32f4xx_hal_pcd.c ****   /* Release Lock */
 782:Drivers/STM32F4xx_HAL_Driver/Src/stm32f4xx_hal_pcd.c ****   __HAL_UNLOCK(hpcd);
 783:Drivers/STM32F4xx_HAL_Driver/Src/stm32f4xx_hal_pcd.c **** 
 784:Drivers/STM32F4xx_HAL_Driver/Src/stm32f4xx_hal_pcd.c ****   return status;
 785:Drivers/STM32F4xx_HAL_Driver/Src/stm32f4xx_hal_pcd.c **** }
 786:Drivers/STM32F4xx_HAL_Driver/Src/stm32f4xx_hal_pcd.c **** 
 787:Drivers/STM32F4xx_HAL_Driver/Src/stm32f4xx_hal_pcd.c **** /**
 788:Drivers/STM32F4xx_HAL_Driver/Src/stm32f4xx_hal_pcd.c ****   * @brief  UnRegister the USB PCD Iso IN incomplete Callback
 789:Drivers/STM32F4xx_HAL_Driver/Src/stm32f4xx_hal_pcd.c ****   *         USB PCD Iso IN incomplete Callback is redirected to the weak HAL_PCD_ISOINIncompleteCal
 790:Drivers/STM32F4xx_HAL_Driver/Src/stm32f4xx_hal_pcd.c ****   * @param  hpcd PCD handle
ARM GAS  /tmp/ccsbOyJb.s 			page 25


 791:Drivers/STM32F4xx_HAL_Driver/Src/stm32f4xx_hal_pcd.c ****   * @retval HAL status
 792:Drivers/STM32F4xx_HAL_Driver/Src/stm32f4xx_hal_pcd.c ****   */
 793:Drivers/STM32F4xx_HAL_Driver/Src/stm32f4xx_hal_pcd.c **** HAL_StatusTypeDef HAL_PCD_UnRegisterIsoInIncpltCallback(PCD_HandleTypeDef *hpcd)
 794:Drivers/STM32F4xx_HAL_Driver/Src/stm32f4xx_hal_pcd.c **** {
 795:Drivers/STM32F4xx_HAL_Driver/Src/stm32f4xx_hal_pcd.c ****   HAL_StatusTypeDef status = HAL_OK;
 796:Drivers/STM32F4xx_HAL_Driver/Src/stm32f4xx_hal_pcd.c **** 
 797:Drivers/STM32F4xx_HAL_Driver/Src/stm32f4xx_hal_pcd.c ****   /* Process locked */
 798:Drivers/STM32F4xx_HAL_Driver/Src/stm32f4xx_hal_pcd.c ****   __HAL_LOCK(hpcd);
 799:Drivers/STM32F4xx_HAL_Driver/Src/stm32f4xx_hal_pcd.c **** 
 800:Drivers/STM32F4xx_HAL_Driver/Src/stm32f4xx_hal_pcd.c ****   if (hpcd->State == HAL_PCD_STATE_READY)
 801:Drivers/STM32F4xx_HAL_Driver/Src/stm32f4xx_hal_pcd.c ****   {
 802:Drivers/STM32F4xx_HAL_Driver/Src/stm32f4xx_hal_pcd.c ****     hpcd->ISOINIncompleteCallback = HAL_PCD_ISOINIncompleteCallback; /* Legacy weak ISOINIncomplete
 803:Drivers/STM32F4xx_HAL_Driver/Src/stm32f4xx_hal_pcd.c ****   }
 804:Drivers/STM32F4xx_HAL_Driver/Src/stm32f4xx_hal_pcd.c ****   else
 805:Drivers/STM32F4xx_HAL_Driver/Src/stm32f4xx_hal_pcd.c ****   {
 806:Drivers/STM32F4xx_HAL_Driver/Src/stm32f4xx_hal_pcd.c ****     /* Update the error code */
 807:Drivers/STM32F4xx_HAL_Driver/Src/stm32f4xx_hal_pcd.c ****     hpcd->ErrorCode |= HAL_PCD_ERROR_INVALID_CALLBACK;
 808:Drivers/STM32F4xx_HAL_Driver/Src/stm32f4xx_hal_pcd.c **** 
 809:Drivers/STM32F4xx_HAL_Driver/Src/stm32f4xx_hal_pcd.c ****     /* Return error status */
 810:Drivers/STM32F4xx_HAL_Driver/Src/stm32f4xx_hal_pcd.c ****     status =  HAL_ERROR;
 811:Drivers/STM32F4xx_HAL_Driver/Src/stm32f4xx_hal_pcd.c ****   }
 812:Drivers/STM32F4xx_HAL_Driver/Src/stm32f4xx_hal_pcd.c **** 
 813:Drivers/STM32F4xx_HAL_Driver/Src/stm32f4xx_hal_pcd.c ****   /* Release Lock */
 814:Drivers/STM32F4xx_HAL_Driver/Src/stm32f4xx_hal_pcd.c ****   __HAL_UNLOCK(hpcd);
 815:Drivers/STM32F4xx_HAL_Driver/Src/stm32f4xx_hal_pcd.c **** 
 816:Drivers/STM32F4xx_HAL_Driver/Src/stm32f4xx_hal_pcd.c ****   return status;
 817:Drivers/STM32F4xx_HAL_Driver/Src/stm32f4xx_hal_pcd.c **** }
 818:Drivers/STM32F4xx_HAL_Driver/Src/stm32f4xx_hal_pcd.c **** 
 819:Drivers/STM32F4xx_HAL_Driver/Src/stm32f4xx_hal_pcd.c **** /**
 820:Drivers/STM32F4xx_HAL_Driver/Src/stm32f4xx_hal_pcd.c ****   * @brief  Register USB PCD BCD Callback
 821:Drivers/STM32F4xx_HAL_Driver/Src/stm32f4xx_hal_pcd.c ****   *         To be used instead of the weak HAL_PCDEx_BCD_Callback() predefined callback
 822:Drivers/STM32F4xx_HAL_Driver/Src/stm32f4xx_hal_pcd.c ****   * @param  hpcd PCD handle
 823:Drivers/STM32F4xx_HAL_Driver/Src/stm32f4xx_hal_pcd.c ****   * @param  pCallback pointer to the USB PCD BCD Callback function
 824:Drivers/STM32F4xx_HAL_Driver/Src/stm32f4xx_hal_pcd.c ****   * @retval HAL status
 825:Drivers/STM32F4xx_HAL_Driver/Src/stm32f4xx_hal_pcd.c ****   */
 826:Drivers/STM32F4xx_HAL_Driver/Src/stm32f4xx_hal_pcd.c **** HAL_StatusTypeDef HAL_PCD_RegisterBcdCallback(PCD_HandleTypeDef *hpcd, pPCD_BcdCallbackTypeDef pCal
 827:Drivers/STM32F4xx_HAL_Driver/Src/stm32f4xx_hal_pcd.c **** {
 828:Drivers/STM32F4xx_HAL_Driver/Src/stm32f4xx_hal_pcd.c ****   HAL_StatusTypeDef status = HAL_OK;
 829:Drivers/STM32F4xx_HAL_Driver/Src/stm32f4xx_hal_pcd.c **** 
 830:Drivers/STM32F4xx_HAL_Driver/Src/stm32f4xx_hal_pcd.c ****   if (pCallback == NULL)
 831:Drivers/STM32F4xx_HAL_Driver/Src/stm32f4xx_hal_pcd.c ****   {
 832:Drivers/STM32F4xx_HAL_Driver/Src/stm32f4xx_hal_pcd.c ****     /* Update the error code */
 833:Drivers/STM32F4xx_HAL_Driver/Src/stm32f4xx_hal_pcd.c ****     hpcd->ErrorCode |= HAL_PCD_ERROR_INVALID_CALLBACK;
 834:Drivers/STM32F4xx_HAL_Driver/Src/stm32f4xx_hal_pcd.c **** 
 835:Drivers/STM32F4xx_HAL_Driver/Src/stm32f4xx_hal_pcd.c ****     return HAL_ERROR;
 836:Drivers/STM32F4xx_HAL_Driver/Src/stm32f4xx_hal_pcd.c ****   }
 837:Drivers/STM32F4xx_HAL_Driver/Src/stm32f4xx_hal_pcd.c **** 
 838:Drivers/STM32F4xx_HAL_Driver/Src/stm32f4xx_hal_pcd.c ****   /* Process locked */
 839:Drivers/STM32F4xx_HAL_Driver/Src/stm32f4xx_hal_pcd.c ****   __HAL_LOCK(hpcd);
 840:Drivers/STM32F4xx_HAL_Driver/Src/stm32f4xx_hal_pcd.c **** 
 841:Drivers/STM32F4xx_HAL_Driver/Src/stm32f4xx_hal_pcd.c ****   if (hpcd->State == HAL_PCD_STATE_READY)
 842:Drivers/STM32F4xx_HAL_Driver/Src/stm32f4xx_hal_pcd.c ****   {
 843:Drivers/STM32F4xx_HAL_Driver/Src/stm32f4xx_hal_pcd.c ****     hpcd->BCDCallback = pCallback;
 844:Drivers/STM32F4xx_HAL_Driver/Src/stm32f4xx_hal_pcd.c ****   }
 845:Drivers/STM32F4xx_HAL_Driver/Src/stm32f4xx_hal_pcd.c ****   else
 846:Drivers/STM32F4xx_HAL_Driver/Src/stm32f4xx_hal_pcd.c ****   {
 847:Drivers/STM32F4xx_HAL_Driver/Src/stm32f4xx_hal_pcd.c ****     /* Update the error code */
ARM GAS  /tmp/ccsbOyJb.s 			page 26


 848:Drivers/STM32F4xx_HAL_Driver/Src/stm32f4xx_hal_pcd.c ****     hpcd->ErrorCode |= HAL_PCD_ERROR_INVALID_CALLBACK;
 849:Drivers/STM32F4xx_HAL_Driver/Src/stm32f4xx_hal_pcd.c **** 
 850:Drivers/STM32F4xx_HAL_Driver/Src/stm32f4xx_hal_pcd.c ****     /* Return error status */
 851:Drivers/STM32F4xx_HAL_Driver/Src/stm32f4xx_hal_pcd.c ****     status =  HAL_ERROR;
 852:Drivers/STM32F4xx_HAL_Driver/Src/stm32f4xx_hal_pcd.c ****   }
 853:Drivers/STM32F4xx_HAL_Driver/Src/stm32f4xx_hal_pcd.c **** 
 854:Drivers/STM32F4xx_HAL_Driver/Src/stm32f4xx_hal_pcd.c ****   /* Release Lock */
 855:Drivers/STM32F4xx_HAL_Driver/Src/stm32f4xx_hal_pcd.c ****   __HAL_UNLOCK(hpcd);
 856:Drivers/STM32F4xx_HAL_Driver/Src/stm32f4xx_hal_pcd.c **** 
 857:Drivers/STM32F4xx_HAL_Driver/Src/stm32f4xx_hal_pcd.c ****   return status;
 858:Drivers/STM32F4xx_HAL_Driver/Src/stm32f4xx_hal_pcd.c **** }
 859:Drivers/STM32F4xx_HAL_Driver/Src/stm32f4xx_hal_pcd.c **** 
 860:Drivers/STM32F4xx_HAL_Driver/Src/stm32f4xx_hal_pcd.c **** /**
 861:Drivers/STM32F4xx_HAL_Driver/Src/stm32f4xx_hal_pcd.c ****   * @brief  UnRegister the USB PCD BCD Callback
 862:Drivers/STM32F4xx_HAL_Driver/Src/stm32f4xx_hal_pcd.c ****   *         USB BCD Callback is redirected to the weak HAL_PCDEx_BCD_Callback() predefined callback
 863:Drivers/STM32F4xx_HAL_Driver/Src/stm32f4xx_hal_pcd.c ****   * @param  hpcd PCD handle
 864:Drivers/STM32F4xx_HAL_Driver/Src/stm32f4xx_hal_pcd.c ****   * @retval HAL status
 865:Drivers/STM32F4xx_HAL_Driver/Src/stm32f4xx_hal_pcd.c ****   */
 866:Drivers/STM32F4xx_HAL_Driver/Src/stm32f4xx_hal_pcd.c **** HAL_StatusTypeDef HAL_PCD_UnRegisterBcdCallback(PCD_HandleTypeDef *hpcd)
 867:Drivers/STM32F4xx_HAL_Driver/Src/stm32f4xx_hal_pcd.c **** {
 868:Drivers/STM32F4xx_HAL_Driver/Src/stm32f4xx_hal_pcd.c ****   HAL_StatusTypeDef status = HAL_OK;
 869:Drivers/STM32F4xx_HAL_Driver/Src/stm32f4xx_hal_pcd.c **** 
 870:Drivers/STM32F4xx_HAL_Driver/Src/stm32f4xx_hal_pcd.c ****   /* Process locked */
 871:Drivers/STM32F4xx_HAL_Driver/Src/stm32f4xx_hal_pcd.c ****   __HAL_LOCK(hpcd);
 872:Drivers/STM32F4xx_HAL_Driver/Src/stm32f4xx_hal_pcd.c **** 
 873:Drivers/STM32F4xx_HAL_Driver/Src/stm32f4xx_hal_pcd.c ****   if (hpcd->State == HAL_PCD_STATE_READY)
 874:Drivers/STM32F4xx_HAL_Driver/Src/stm32f4xx_hal_pcd.c ****   {
 875:Drivers/STM32F4xx_HAL_Driver/Src/stm32f4xx_hal_pcd.c ****     hpcd->BCDCallback = HAL_PCDEx_BCD_Callback; /* Legacy weak HAL_PCDEx_BCD_Callback  */
 876:Drivers/STM32F4xx_HAL_Driver/Src/stm32f4xx_hal_pcd.c ****   }
 877:Drivers/STM32F4xx_HAL_Driver/Src/stm32f4xx_hal_pcd.c ****   else
 878:Drivers/STM32F4xx_HAL_Driver/Src/stm32f4xx_hal_pcd.c ****   {
 879:Drivers/STM32F4xx_HAL_Driver/Src/stm32f4xx_hal_pcd.c ****     /* Update the error code */
 880:Drivers/STM32F4xx_HAL_Driver/Src/stm32f4xx_hal_pcd.c ****     hpcd->ErrorCode |= HAL_PCD_ERROR_INVALID_CALLBACK;
 881:Drivers/STM32F4xx_HAL_Driver/Src/stm32f4xx_hal_pcd.c **** 
 882:Drivers/STM32F4xx_HAL_Driver/Src/stm32f4xx_hal_pcd.c ****     /* Return error status */
 883:Drivers/STM32F4xx_HAL_Driver/Src/stm32f4xx_hal_pcd.c ****     status =  HAL_ERROR;
 884:Drivers/STM32F4xx_HAL_Driver/Src/stm32f4xx_hal_pcd.c ****   }
 885:Drivers/STM32F4xx_HAL_Driver/Src/stm32f4xx_hal_pcd.c **** 
 886:Drivers/STM32F4xx_HAL_Driver/Src/stm32f4xx_hal_pcd.c ****   /* Release Lock */
 887:Drivers/STM32F4xx_HAL_Driver/Src/stm32f4xx_hal_pcd.c ****   __HAL_UNLOCK(hpcd);
 888:Drivers/STM32F4xx_HAL_Driver/Src/stm32f4xx_hal_pcd.c **** 
 889:Drivers/STM32F4xx_HAL_Driver/Src/stm32f4xx_hal_pcd.c ****   return status;
 890:Drivers/STM32F4xx_HAL_Driver/Src/stm32f4xx_hal_pcd.c **** }
 891:Drivers/STM32F4xx_HAL_Driver/Src/stm32f4xx_hal_pcd.c **** 
 892:Drivers/STM32F4xx_HAL_Driver/Src/stm32f4xx_hal_pcd.c **** /**
 893:Drivers/STM32F4xx_HAL_Driver/Src/stm32f4xx_hal_pcd.c ****   * @brief  Register USB PCD LPM Callback
 894:Drivers/STM32F4xx_HAL_Driver/Src/stm32f4xx_hal_pcd.c ****   *         To be used instead of the weak HAL_PCDEx_LPM_Callback() predefined callback
 895:Drivers/STM32F4xx_HAL_Driver/Src/stm32f4xx_hal_pcd.c ****   * @param  hpcd PCD handle
 896:Drivers/STM32F4xx_HAL_Driver/Src/stm32f4xx_hal_pcd.c ****   * @param  pCallback pointer to the USB PCD LPM Callback function
 897:Drivers/STM32F4xx_HAL_Driver/Src/stm32f4xx_hal_pcd.c ****   * @retval HAL status
 898:Drivers/STM32F4xx_HAL_Driver/Src/stm32f4xx_hal_pcd.c ****   */
 899:Drivers/STM32F4xx_HAL_Driver/Src/stm32f4xx_hal_pcd.c **** HAL_StatusTypeDef HAL_PCD_RegisterLpmCallback(PCD_HandleTypeDef *hpcd, pPCD_LpmCallbackTypeDef pCal
 900:Drivers/STM32F4xx_HAL_Driver/Src/stm32f4xx_hal_pcd.c **** {
 901:Drivers/STM32F4xx_HAL_Driver/Src/stm32f4xx_hal_pcd.c ****   HAL_StatusTypeDef status = HAL_OK;
 902:Drivers/STM32F4xx_HAL_Driver/Src/stm32f4xx_hal_pcd.c **** 
 903:Drivers/STM32F4xx_HAL_Driver/Src/stm32f4xx_hal_pcd.c ****   if (pCallback == NULL)
 904:Drivers/STM32F4xx_HAL_Driver/Src/stm32f4xx_hal_pcd.c ****   {
ARM GAS  /tmp/ccsbOyJb.s 			page 27


 905:Drivers/STM32F4xx_HAL_Driver/Src/stm32f4xx_hal_pcd.c ****     /* Update the error code */
 906:Drivers/STM32F4xx_HAL_Driver/Src/stm32f4xx_hal_pcd.c ****     hpcd->ErrorCode |= HAL_PCD_ERROR_INVALID_CALLBACK;
 907:Drivers/STM32F4xx_HAL_Driver/Src/stm32f4xx_hal_pcd.c **** 
 908:Drivers/STM32F4xx_HAL_Driver/Src/stm32f4xx_hal_pcd.c ****     return HAL_ERROR;
 909:Drivers/STM32F4xx_HAL_Driver/Src/stm32f4xx_hal_pcd.c ****   }
 910:Drivers/STM32F4xx_HAL_Driver/Src/stm32f4xx_hal_pcd.c **** 
 911:Drivers/STM32F4xx_HAL_Driver/Src/stm32f4xx_hal_pcd.c ****   /* Process locked */
 912:Drivers/STM32F4xx_HAL_Driver/Src/stm32f4xx_hal_pcd.c ****   __HAL_LOCK(hpcd);
 913:Drivers/STM32F4xx_HAL_Driver/Src/stm32f4xx_hal_pcd.c **** 
 914:Drivers/STM32F4xx_HAL_Driver/Src/stm32f4xx_hal_pcd.c ****   if (hpcd->State == HAL_PCD_STATE_READY)
 915:Drivers/STM32F4xx_HAL_Driver/Src/stm32f4xx_hal_pcd.c ****   {
 916:Drivers/STM32F4xx_HAL_Driver/Src/stm32f4xx_hal_pcd.c ****     hpcd->LPMCallback = pCallback;
 917:Drivers/STM32F4xx_HAL_Driver/Src/stm32f4xx_hal_pcd.c ****   }
 918:Drivers/STM32F4xx_HAL_Driver/Src/stm32f4xx_hal_pcd.c ****   else
 919:Drivers/STM32F4xx_HAL_Driver/Src/stm32f4xx_hal_pcd.c ****   {
 920:Drivers/STM32F4xx_HAL_Driver/Src/stm32f4xx_hal_pcd.c ****     /* Update the error code */
 921:Drivers/STM32F4xx_HAL_Driver/Src/stm32f4xx_hal_pcd.c ****     hpcd->ErrorCode |= HAL_PCD_ERROR_INVALID_CALLBACK;
 922:Drivers/STM32F4xx_HAL_Driver/Src/stm32f4xx_hal_pcd.c **** 
 923:Drivers/STM32F4xx_HAL_Driver/Src/stm32f4xx_hal_pcd.c ****     /* Return error status */
 924:Drivers/STM32F4xx_HAL_Driver/Src/stm32f4xx_hal_pcd.c ****     status =  HAL_ERROR;
 925:Drivers/STM32F4xx_HAL_Driver/Src/stm32f4xx_hal_pcd.c ****   }
 926:Drivers/STM32F4xx_HAL_Driver/Src/stm32f4xx_hal_pcd.c **** 
 927:Drivers/STM32F4xx_HAL_Driver/Src/stm32f4xx_hal_pcd.c ****   /* Release Lock */
 928:Drivers/STM32F4xx_HAL_Driver/Src/stm32f4xx_hal_pcd.c ****   __HAL_UNLOCK(hpcd);
 929:Drivers/STM32F4xx_HAL_Driver/Src/stm32f4xx_hal_pcd.c **** 
 930:Drivers/STM32F4xx_HAL_Driver/Src/stm32f4xx_hal_pcd.c ****   return status;
 931:Drivers/STM32F4xx_HAL_Driver/Src/stm32f4xx_hal_pcd.c **** }
 932:Drivers/STM32F4xx_HAL_Driver/Src/stm32f4xx_hal_pcd.c **** 
 933:Drivers/STM32F4xx_HAL_Driver/Src/stm32f4xx_hal_pcd.c **** /**
 934:Drivers/STM32F4xx_HAL_Driver/Src/stm32f4xx_hal_pcd.c ****   * @brief  UnRegister the USB PCD LPM Callback
 935:Drivers/STM32F4xx_HAL_Driver/Src/stm32f4xx_hal_pcd.c ****   *         USB LPM Callback is redirected to the weak HAL_PCDEx_LPM_Callback() predefined callback
 936:Drivers/STM32F4xx_HAL_Driver/Src/stm32f4xx_hal_pcd.c ****   * @param  hpcd PCD handle
 937:Drivers/STM32F4xx_HAL_Driver/Src/stm32f4xx_hal_pcd.c ****   * @retval HAL status
 938:Drivers/STM32F4xx_HAL_Driver/Src/stm32f4xx_hal_pcd.c ****   */
 939:Drivers/STM32F4xx_HAL_Driver/Src/stm32f4xx_hal_pcd.c **** HAL_StatusTypeDef HAL_PCD_UnRegisterLpmCallback(PCD_HandleTypeDef *hpcd)
 940:Drivers/STM32F4xx_HAL_Driver/Src/stm32f4xx_hal_pcd.c **** {
 941:Drivers/STM32F4xx_HAL_Driver/Src/stm32f4xx_hal_pcd.c ****   HAL_StatusTypeDef status = HAL_OK;
 942:Drivers/STM32F4xx_HAL_Driver/Src/stm32f4xx_hal_pcd.c **** 
 943:Drivers/STM32F4xx_HAL_Driver/Src/stm32f4xx_hal_pcd.c ****   /* Process locked */
 944:Drivers/STM32F4xx_HAL_Driver/Src/stm32f4xx_hal_pcd.c ****   __HAL_LOCK(hpcd);
 945:Drivers/STM32F4xx_HAL_Driver/Src/stm32f4xx_hal_pcd.c **** 
 946:Drivers/STM32F4xx_HAL_Driver/Src/stm32f4xx_hal_pcd.c ****   if (hpcd->State == HAL_PCD_STATE_READY)
 947:Drivers/STM32F4xx_HAL_Driver/Src/stm32f4xx_hal_pcd.c ****   {
 948:Drivers/STM32F4xx_HAL_Driver/Src/stm32f4xx_hal_pcd.c ****     hpcd->LPMCallback = HAL_PCDEx_LPM_Callback; /* Legacy weak HAL_PCDEx_LPM_Callback  */
 949:Drivers/STM32F4xx_HAL_Driver/Src/stm32f4xx_hal_pcd.c ****   }
 950:Drivers/STM32F4xx_HAL_Driver/Src/stm32f4xx_hal_pcd.c ****   else
 951:Drivers/STM32F4xx_HAL_Driver/Src/stm32f4xx_hal_pcd.c ****   {
 952:Drivers/STM32F4xx_HAL_Driver/Src/stm32f4xx_hal_pcd.c ****     /* Update the error code */
 953:Drivers/STM32F4xx_HAL_Driver/Src/stm32f4xx_hal_pcd.c ****     hpcd->ErrorCode |= HAL_PCD_ERROR_INVALID_CALLBACK;
 954:Drivers/STM32F4xx_HAL_Driver/Src/stm32f4xx_hal_pcd.c **** 
 955:Drivers/STM32F4xx_HAL_Driver/Src/stm32f4xx_hal_pcd.c ****     /* Return error status */
 956:Drivers/STM32F4xx_HAL_Driver/Src/stm32f4xx_hal_pcd.c ****     status =  HAL_ERROR;
 957:Drivers/STM32F4xx_HAL_Driver/Src/stm32f4xx_hal_pcd.c ****   }
 958:Drivers/STM32F4xx_HAL_Driver/Src/stm32f4xx_hal_pcd.c **** 
 959:Drivers/STM32F4xx_HAL_Driver/Src/stm32f4xx_hal_pcd.c ****   /* Release Lock */
 960:Drivers/STM32F4xx_HAL_Driver/Src/stm32f4xx_hal_pcd.c ****   __HAL_UNLOCK(hpcd);
 961:Drivers/STM32F4xx_HAL_Driver/Src/stm32f4xx_hal_pcd.c **** 
ARM GAS  /tmp/ccsbOyJb.s 			page 28


 962:Drivers/STM32F4xx_HAL_Driver/Src/stm32f4xx_hal_pcd.c ****   return status;
 963:Drivers/STM32F4xx_HAL_Driver/Src/stm32f4xx_hal_pcd.c **** }
 964:Drivers/STM32F4xx_HAL_Driver/Src/stm32f4xx_hal_pcd.c **** #endif /* USE_HAL_PCD_REGISTER_CALLBACKS */
 965:Drivers/STM32F4xx_HAL_Driver/Src/stm32f4xx_hal_pcd.c **** 
 966:Drivers/STM32F4xx_HAL_Driver/Src/stm32f4xx_hal_pcd.c **** /**
 967:Drivers/STM32F4xx_HAL_Driver/Src/stm32f4xx_hal_pcd.c ****   * @}
 968:Drivers/STM32F4xx_HAL_Driver/Src/stm32f4xx_hal_pcd.c ****   */
 969:Drivers/STM32F4xx_HAL_Driver/Src/stm32f4xx_hal_pcd.c **** 
 970:Drivers/STM32F4xx_HAL_Driver/Src/stm32f4xx_hal_pcd.c **** /** @defgroup PCD_Exported_Functions_Group2 Input and Output operation functions
 971:Drivers/STM32F4xx_HAL_Driver/Src/stm32f4xx_hal_pcd.c ****  *  @brief   Data transfers functions
 972:Drivers/STM32F4xx_HAL_Driver/Src/stm32f4xx_hal_pcd.c ****  *
 973:Drivers/STM32F4xx_HAL_Driver/Src/stm32f4xx_hal_pcd.c **** @verbatim
 974:Drivers/STM32F4xx_HAL_Driver/Src/stm32f4xx_hal_pcd.c ****  ===============================================================================
 975:Drivers/STM32F4xx_HAL_Driver/Src/stm32f4xx_hal_pcd.c ****                       ##### IO operation functions #####
 976:Drivers/STM32F4xx_HAL_Driver/Src/stm32f4xx_hal_pcd.c ****  ===============================================================================
 977:Drivers/STM32F4xx_HAL_Driver/Src/stm32f4xx_hal_pcd.c ****     [..]
 978:Drivers/STM32F4xx_HAL_Driver/Src/stm32f4xx_hal_pcd.c ****     This subsection provides a set of functions allowing to manage the PCD data
 979:Drivers/STM32F4xx_HAL_Driver/Src/stm32f4xx_hal_pcd.c ****     transfers.
 980:Drivers/STM32F4xx_HAL_Driver/Src/stm32f4xx_hal_pcd.c **** 
 981:Drivers/STM32F4xx_HAL_Driver/Src/stm32f4xx_hal_pcd.c **** @endverbatim
 982:Drivers/STM32F4xx_HAL_Driver/Src/stm32f4xx_hal_pcd.c ****   * @{
 983:Drivers/STM32F4xx_HAL_Driver/Src/stm32f4xx_hal_pcd.c ****   */
 984:Drivers/STM32F4xx_HAL_Driver/Src/stm32f4xx_hal_pcd.c **** 
 985:Drivers/STM32F4xx_HAL_Driver/Src/stm32f4xx_hal_pcd.c **** /**
 986:Drivers/STM32F4xx_HAL_Driver/Src/stm32f4xx_hal_pcd.c ****   * @brief  Start the USB device
 987:Drivers/STM32F4xx_HAL_Driver/Src/stm32f4xx_hal_pcd.c ****   * @param  hpcd PCD handle
 988:Drivers/STM32F4xx_HAL_Driver/Src/stm32f4xx_hal_pcd.c ****   * @retval HAL status
 989:Drivers/STM32F4xx_HAL_Driver/Src/stm32f4xx_hal_pcd.c ****   */
 990:Drivers/STM32F4xx_HAL_Driver/Src/stm32f4xx_hal_pcd.c **** HAL_StatusTypeDef HAL_PCD_Start(PCD_HandleTypeDef *hpcd)
 991:Drivers/STM32F4xx_HAL_Driver/Src/stm32f4xx_hal_pcd.c **** {
 576              		.loc 1 991 1
 577              		.cfi_startproc
 578              		@ args = 0, pretend = 0, frame = 16
 579              		@ frame_needed = 1, uses_anonymous_args = 0
 580 0000 80B5     		push	{r7, lr}
 581              	.LCFI22:
 582              		.cfi_def_cfa_offset 8
 583              		.cfi_offset 7, -8
 584              		.cfi_offset 14, -4
 585 0002 84B0     		sub	sp, sp, #16
 586              	.LCFI23:
 587              		.cfi_def_cfa_offset 24
 588 0004 00AF     		add	r7, sp, #0
 589              	.LCFI24:
 590              		.cfi_def_cfa_register 7
 591 0006 7860     		str	r0, [r7, #4]
 992:Drivers/STM32F4xx_HAL_Driver/Src/stm32f4xx_hal_pcd.c **** #if defined (USB_OTG_FS) || defined (USB_OTG_HS)
 993:Drivers/STM32F4xx_HAL_Driver/Src/stm32f4xx_hal_pcd.c ****   USB_OTG_GlobalTypeDef *USBx = hpcd->Instance;
 592              		.loc 1 993 26
 593 0008 7B68     		ldr	r3, [r7, #4]
 594 000a 1B68     		ldr	r3, [r3]
 595 000c FB60     		str	r3, [r7, #12]
 994:Drivers/STM32F4xx_HAL_Driver/Src/stm32f4xx_hal_pcd.c **** #endif /* defined (USB_OTG_FS) || defined (USB_OTG_HS) */
 995:Drivers/STM32F4xx_HAL_Driver/Src/stm32f4xx_hal_pcd.c **** 
 996:Drivers/STM32F4xx_HAL_Driver/Src/stm32f4xx_hal_pcd.c ****   __HAL_LOCK(hpcd);
 596              		.loc 1 996 3
 597 000e 7B68     		ldr	r3, [r7, #4]
ARM GAS  /tmp/ccsbOyJb.s 			page 29


 598 0010 93F8BC33 		ldrb	r3, [r3, #956]	@ zero_extendqisi2
 599 0014 012B     		cmp	r3, #1
 600 0016 01D1     		bne	.L21
 601              		.loc 1 996 3 is_stmt 0 discriminator 1
 602 0018 0223     		movs	r3, #2
 603 001a 20E0     		b	.L22
 604              	.L21:
 605              		.loc 1 996 3 discriminator 2
 606 001c 7B68     		ldr	r3, [r7, #4]
 607 001e 0122     		movs	r2, #1
 608 0020 83F8BC23 		strb	r2, [r3, #956]
 997:Drivers/STM32F4xx_HAL_Driver/Src/stm32f4xx_hal_pcd.c **** #if defined (USB_OTG_FS) || defined (USB_OTG_HS)
 998:Drivers/STM32F4xx_HAL_Driver/Src/stm32f4xx_hal_pcd.c ****   if ((hpcd->Init.battery_charging_enable == 1U) &&
 609              		.loc 1 998 18 is_stmt 1 discriminator 2
 610 0024 7B68     		ldr	r3, [r7, #4]
 611 0026 9B6A     		ldr	r3, [r3, #40]
 612              		.loc 1 998 6 discriminator 2
 613 0028 012B     		cmp	r3, #1
 614 002a 09D1     		bne	.L23
 999:Drivers/STM32F4xx_HAL_Driver/Src/stm32f4xx_hal_pcd.c ****       (hpcd->Init.phy_itface != USB_OTG_ULPI_PHY))
 615              		.loc 1 999 18 discriminator 1
 616 002c 7B68     		ldr	r3, [r7, #4]
 617 002e 9B69     		ldr	r3, [r3, #24]
 998:Drivers/STM32F4xx_HAL_Driver/Src/stm32f4xx_hal_pcd.c ****       (hpcd->Init.phy_itface != USB_OTG_ULPI_PHY))
 618              		.loc 1 998 50 discriminator 1
 619 0030 012B     		cmp	r3, #1
 620 0032 05D0     		beq	.L23
1000:Drivers/STM32F4xx_HAL_Driver/Src/stm32f4xx_hal_pcd.c ****   {
1001:Drivers/STM32F4xx_HAL_Driver/Src/stm32f4xx_hal_pcd.c ****     /* Enable USB Transceiver */
1002:Drivers/STM32F4xx_HAL_Driver/Src/stm32f4xx_hal_pcd.c ****     USBx->GCCFG |= USB_OTG_GCCFG_PWRDWN;
 621              		.loc 1 1002 17
 622 0034 FB68     		ldr	r3, [r7, #12]
 623 0036 9B6B     		ldr	r3, [r3, #56]
 624 0038 43F48032 		orr	r2, r3, #65536
 625 003c FB68     		ldr	r3, [r7, #12]
 626 003e 9A63     		str	r2, [r3, #56]
 627              	.L23:
1003:Drivers/STM32F4xx_HAL_Driver/Src/stm32f4xx_hal_pcd.c ****   }
1004:Drivers/STM32F4xx_HAL_Driver/Src/stm32f4xx_hal_pcd.c **** #endif /* defined (USB_OTG_FS) || defined (USB_OTG_HS) */
1005:Drivers/STM32F4xx_HAL_Driver/Src/stm32f4xx_hal_pcd.c ****   (void)USB_DevConnect(hpcd->Instance);
 628              		.loc 1 1005 28
 629 0040 7B68     		ldr	r3, [r7, #4]
 630 0042 1B68     		ldr	r3, [r3]
 631              		.loc 1 1005 9
 632 0044 1846     		mov	r0, r3
 633 0046 FFF7FEFF 		bl	USB_DevConnect
1006:Drivers/STM32F4xx_HAL_Driver/Src/stm32f4xx_hal_pcd.c ****   __HAL_PCD_ENABLE(hpcd);
 634              		.loc 1 1006 3
 635 004a 7B68     		ldr	r3, [r7, #4]
 636 004c 1B68     		ldr	r3, [r3]
 637 004e 1846     		mov	r0, r3
 638 0050 FFF7FEFF 		bl	USB_EnableGlobalInt
1007:Drivers/STM32F4xx_HAL_Driver/Src/stm32f4xx_hal_pcd.c ****   __HAL_UNLOCK(hpcd);
 639              		.loc 1 1007 3
 640 0054 7B68     		ldr	r3, [r7, #4]
 641 0056 0022     		movs	r2, #0
 642 0058 83F8BC23 		strb	r2, [r3, #956]
ARM GAS  /tmp/ccsbOyJb.s 			page 30


1008:Drivers/STM32F4xx_HAL_Driver/Src/stm32f4xx_hal_pcd.c ****   return HAL_OK;
 643              		.loc 1 1008 10
 644 005c 0023     		movs	r3, #0
 645              	.L22:
1009:Drivers/STM32F4xx_HAL_Driver/Src/stm32f4xx_hal_pcd.c **** }
 646              		.loc 1 1009 1
 647 005e 1846     		mov	r0, r3
 648 0060 1037     		adds	r7, r7, #16
 649              	.LCFI25:
 650              		.cfi_def_cfa_offset 8
 651 0062 BD46     		mov	sp, r7
 652              	.LCFI26:
 653              		.cfi_def_cfa_register 13
 654              		@ sp needed
 655 0064 80BD     		pop	{r7, pc}
 656              		.cfi_endproc
 657              	.LFE134:
 659              		.section	.text.HAL_PCD_Stop,"ax",%progbits
 660              		.align	1
 661              		.global	HAL_PCD_Stop
 662              		.syntax unified
 663              		.thumb
 664              		.thumb_func
 665              		.fpu fpv4-sp-d16
 667              	HAL_PCD_Stop:
 668              	.LFB135:
1010:Drivers/STM32F4xx_HAL_Driver/Src/stm32f4xx_hal_pcd.c **** 
1011:Drivers/STM32F4xx_HAL_Driver/Src/stm32f4xx_hal_pcd.c **** /**
1012:Drivers/STM32F4xx_HAL_Driver/Src/stm32f4xx_hal_pcd.c ****   * @brief  Stop the USB device.
1013:Drivers/STM32F4xx_HAL_Driver/Src/stm32f4xx_hal_pcd.c ****   * @param  hpcd PCD handle
1014:Drivers/STM32F4xx_HAL_Driver/Src/stm32f4xx_hal_pcd.c ****   * @retval HAL status
1015:Drivers/STM32F4xx_HAL_Driver/Src/stm32f4xx_hal_pcd.c ****   */
1016:Drivers/STM32F4xx_HAL_Driver/Src/stm32f4xx_hal_pcd.c **** HAL_StatusTypeDef HAL_PCD_Stop(PCD_HandleTypeDef *hpcd)
1017:Drivers/STM32F4xx_HAL_Driver/Src/stm32f4xx_hal_pcd.c **** {
 669              		.loc 1 1017 1
 670              		.cfi_startproc
 671              		@ args = 0, pretend = 0, frame = 8
 672              		@ frame_needed = 1, uses_anonymous_args = 0
 673 0000 80B5     		push	{r7, lr}
 674              	.LCFI27:
 675              		.cfi_def_cfa_offset 8
 676              		.cfi_offset 7, -8
 677              		.cfi_offset 14, -4
 678 0002 82B0     		sub	sp, sp, #8
 679              	.LCFI28:
 680              		.cfi_def_cfa_offset 16
 681 0004 00AF     		add	r7, sp, #0
 682              	.LCFI29:
 683              		.cfi_def_cfa_register 7
 684 0006 7860     		str	r0, [r7, #4]
1018:Drivers/STM32F4xx_HAL_Driver/Src/stm32f4xx_hal_pcd.c ****   __HAL_LOCK(hpcd);
 685              		.loc 1 1018 3
 686 0008 7B68     		ldr	r3, [r7, #4]
 687 000a 93F8BC33 		ldrb	r3, [r3, #956]	@ zero_extendqisi2
 688 000e 012B     		cmp	r3, #1
 689 0010 01D1     		bne	.L25
 690              		.loc 1 1018 3 is_stmt 0 discriminator 1
ARM GAS  /tmp/ccsbOyJb.s 			page 31


 691 0012 0223     		movs	r3, #2
 692 0014 20E0     		b	.L26
 693              	.L25:
 694              		.loc 1 1018 3 discriminator 2
 695 0016 7B68     		ldr	r3, [r7, #4]
 696 0018 0122     		movs	r2, #1
 697 001a 83F8BC23 		strb	r2, [r3, #956]
1019:Drivers/STM32F4xx_HAL_Driver/Src/stm32f4xx_hal_pcd.c ****   __HAL_PCD_DISABLE(hpcd);
 698              		.loc 1 1019 3 is_stmt 1 discriminator 2
 699 001e 7B68     		ldr	r3, [r7, #4]
 700 0020 1B68     		ldr	r3, [r3]
 701 0022 1846     		mov	r0, r3
 702 0024 FFF7FEFF 		bl	USB_DisableGlobalInt
1020:Drivers/STM32F4xx_HAL_Driver/Src/stm32f4xx_hal_pcd.c **** 
1021:Drivers/STM32F4xx_HAL_Driver/Src/stm32f4xx_hal_pcd.c ****   if (USB_StopDevice(hpcd->Instance) != HAL_OK)
 703              		.loc 1 1021 26 discriminator 2
 704 0028 7B68     		ldr	r3, [r7, #4]
 705 002a 1B68     		ldr	r3, [r3]
 706              		.loc 1 1021 7 discriminator 2
 707 002c 1846     		mov	r0, r3
 708 002e FFF7FEFF 		bl	USB_StopDevice
 709 0032 0346     		mov	r3, r0
 710              		.loc 1 1021 6 discriminator 2
 711 0034 002B     		cmp	r3, #0
 712 0036 05D0     		beq	.L27
1022:Drivers/STM32F4xx_HAL_Driver/Src/stm32f4xx_hal_pcd.c ****   {
1023:Drivers/STM32F4xx_HAL_Driver/Src/stm32f4xx_hal_pcd.c ****     __HAL_UNLOCK(hpcd);
 713              		.loc 1 1023 5
 714 0038 7B68     		ldr	r3, [r7, #4]
 715 003a 0022     		movs	r2, #0
 716 003c 83F8BC23 		strb	r2, [r3, #956]
1024:Drivers/STM32F4xx_HAL_Driver/Src/stm32f4xx_hal_pcd.c ****     return HAL_ERROR;
 717              		.loc 1 1024 12
 718 0040 0123     		movs	r3, #1
 719 0042 09E0     		b	.L26
 720              	.L27:
1025:Drivers/STM32F4xx_HAL_Driver/Src/stm32f4xx_hal_pcd.c ****   }
1026:Drivers/STM32F4xx_HAL_Driver/Src/stm32f4xx_hal_pcd.c **** 
1027:Drivers/STM32F4xx_HAL_Driver/Src/stm32f4xx_hal_pcd.c ****   (void)USB_DevDisconnect(hpcd->Instance);
 721              		.loc 1 1027 31
 722 0044 7B68     		ldr	r3, [r7, #4]
 723 0046 1B68     		ldr	r3, [r3]
 724              		.loc 1 1027 9
 725 0048 1846     		mov	r0, r3
 726 004a FFF7FEFF 		bl	USB_DevDisconnect
1028:Drivers/STM32F4xx_HAL_Driver/Src/stm32f4xx_hal_pcd.c ****   __HAL_UNLOCK(hpcd);
 727              		.loc 1 1028 3
 728 004e 7B68     		ldr	r3, [r7, #4]
 729 0050 0022     		movs	r2, #0
 730 0052 83F8BC23 		strb	r2, [r3, #956]
1029:Drivers/STM32F4xx_HAL_Driver/Src/stm32f4xx_hal_pcd.c **** 
1030:Drivers/STM32F4xx_HAL_Driver/Src/stm32f4xx_hal_pcd.c ****   return HAL_OK;
 731              		.loc 1 1030 10
 732 0056 0023     		movs	r3, #0
 733              	.L26:
1031:Drivers/STM32F4xx_HAL_Driver/Src/stm32f4xx_hal_pcd.c **** }
 734              		.loc 1 1031 1
ARM GAS  /tmp/ccsbOyJb.s 			page 32


 735 0058 1846     		mov	r0, r3
 736 005a 0837     		adds	r7, r7, #8
 737              	.LCFI30:
 738              		.cfi_def_cfa_offset 8
 739 005c BD46     		mov	sp, r7
 740              	.LCFI31:
 741              		.cfi_def_cfa_register 13
 742              		@ sp needed
 743 005e 80BD     		pop	{r7, pc}
 744              		.cfi_endproc
 745              	.LFE135:
 747              		.section	.text.HAL_PCD_IRQHandler,"ax",%progbits
 748              		.align	1
 749              		.global	HAL_PCD_IRQHandler
 750              		.syntax unified
 751              		.thumb
 752              		.thumb_func
 753              		.fpu fpv4-sp-d16
 755              	HAL_PCD_IRQHandler:
 756              	.LFB136:
1032:Drivers/STM32F4xx_HAL_Driver/Src/stm32f4xx_hal_pcd.c **** #if defined (USB_OTG_FS) || defined (USB_OTG_HS)
1033:Drivers/STM32F4xx_HAL_Driver/Src/stm32f4xx_hal_pcd.c **** /**
1034:Drivers/STM32F4xx_HAL_Driver/Src/stm32f4xx_hal_pcd.c ****   * @brief  Handles PCD interrupt request.
1035:Drivers/STM32F4xx_HAL_Driver/Src/stm32f4xx_hal_pcd.c ****   * @param  hpcd PCD handle
1036:Drivers/STM32F4xx_HAL_Driver/Src/stm32f4xx_hal_pcd.c ****   * @retval HAL status
1037:Drivers/STM32F4xx_HAL_Driver/Src/stm32f4xx_hal_pcd.c ****   */
1038:Drivers/STM32F4xx_HAL_Driver/Src/stm32f4xx_hal_pcd.c **** void HAL_PCD_IRQHandler(PCD_HandleTypeDef *hpcd)
1039:Drivers/STM32F4xx_HAL_Driver/Src/stm32f4xx_hal_pcd.c **** {
 757              		.loc 1 1039 1
 758              		.cfi_startproc
 759              		@ args = 0, pretend = 0, frame = 48
 760              		@ frame_needed = 1, uses_anonymous_args = 0
 761 0000 90B5     		push	{r4, r7, lr}
 762              	.LCFI32:
 763              		.cfi_def_cfa_offset 12
 764              		.cfi_offset 4, -12
 765              		.cfi_offset 7, -8
 766              		.cfi_offset 14, -4
 767 0002 8DB0     		sub	sp, sp, #52
 768              	.LCFI33:
 769              		.cfi_def_cfa_offset 64
 770 0004 00AF     		add	r7, sp, #0
 771              	.LCFI34:
 772              		.cfi_def_cfa_register 7
 773 0006 7860     		str	r0, [r7, #4]
1040:Drivers/STM32F4xx_HAL_Driver/Src/stm32f4xx_hal_pcd.c ****   USB_OTG_GlobalTypeDef *USBx = hpcd->Instance;
 774              		.loc 1 1040 26
 775 0008 7B68     		ldr	r3, [r7, #4]
 776 000a 1B68     		ldr	r3, [r3]
 777 000c 3B62     		str	r3, [r7, #32]
1041:Drivers/STM32F4xx_HAL_Driver/Src/stm32f4xx_hal_pcd.c ****   uint32_t USBx_BASE = (uint32_t)USBx;
 778              		.loc 1 1041 12
 779 000e 3B6A     		ldr	r3, [r7, #32]
 780 0010 FB61     		str	r3, [r7, #28]
1042:Drivers/STM32F4xx_HAL_Driver/Src/stm32f4xx_hal_pcd.c ****   uint32_t i, ep_intr, epint, epnum;
1043:Drivers/STM32F4xx_HAL_Driver/Src/stm32f4xx_hal_pcd.c ****   uint32_t fifoemptymsk, temp;
1044:Drivers/STM32F4xx_HAL_Driver/Src/stm32f4xx_hal_pcd.c ****   USB_OTG_EPTypeDef *ep;
ARM GAS  /tmp/ccsbOyJb.s 			page 33


1045:Drivers/STM32F4xx_HAL_Driver/Src/stm32f4xx_hal_pcd.c **** 
1046:Drivers/STM32F4xx_HAL_Driver/Src/stm32f4xx_hal_pcd.c ****   /* ensure that we are in device mode */
1047:Drivers/STM32F4xx_HAL_Driver/Src/stm32f4xx_hal_pcd.c ****   if (USB_GetMode(hpcd->Instance) == USB_OTG_MODE_DEVICE)
 781              		.loc 1 1047 23
 782 0012 7B68     		ldr	r3, [r7, #4]
 783 0014 1B68     		ldr	r3, [r3]
 784              		.loc 1 1047 7
 785 0016 1846     		mov	r0, r3
 786 0018 FFF7FEFF 		bl	USB_GetMode
 787 001c 0346     		mov	r3, r0
 788              		.loc 1 1047 6
 789 001e 002B     		cmp	r3, #0
 790 0020 40F09D83 		bne	.L28
1048:Drivers/STM32F4xx_HAL_Driver/Src/stm32f4xx_hal_pcd.c ****   {
1049:Drivers/STM32F4xx_HAL_Driver/Src/stm32f4xx_hal_pcd.c ****     /* avoid spurious interrupt */
1050:Drivers/STM32F4xx_HAL_Driver/Src/stm32f4xx_hal_pcd.c ****     if (__HAL_PCD_IS_INVALID_INTERRUPT(hpcd))
 791              		.loc 1 1050 9
 792 0024 7B68     		ldr	r3, [r7, #4]
 793 0026 1B68     		ldr	r3, [r3]
 794 0028 1846     		mov	r0, r3
 795 002a FFF7FEFF 		bl	USB_ReadInterrupts
 796 002e 0346     		mov	r3, r0
 797              		.loc 1 1050 8
 798 0030 002B     		cmp	r3, #0
 799 0032 00F09383 		beq	.L69
1051:Drivers/STM32F4xx_HAL_Driver/Src/stm32f4xx_hal_pcd.c ****     {
1052:Drivers/STM32F4xx_HAL_Driver/Src/stm32f4xx_hal_pcd.c ****       return;
1053:Drivers/STM32F4xx_HAL_Driver/Src/stm32f4xx_hal_pcd.c ****     }
1054:Drivers/STM32F4xx_HAL_Driver/Src/stm32f4xx_hal_pcd.c **** 
1055:Drivers/STM32F4xx_HAL_Driver/Src/stm32f4xx_hal_pcd.c ****     if (__HAL_PCD_GET_FLAG(hpcd, USB_OTG_GINTSTS_MMIS))
 800              		.loc 1 1055 9
 801 0036 7B68     		ldr	r3, [r7, #4]
 802 0038 1B68     		ldr	r3, [r3]
 803 003a 1846     		mov	r0, r3
 804 003c FFF7FEFF 		bl	USB_ReadInterrupts
 805 0040 0346     		mov	r3, r0
 806 0042 03F00203 		and	r3, r3, #2
 807              		.loc 1 1055 8
 808 0046 022B     		cmp	r3, #2
 809 0048 07D1     		bne	.L31
1056:Drivers/STM32F4xx_HAL_Driver/Src/stm32f4xx_hal_pcd.c ****     {
1057:Drivers/STM32F4xx_HAL_Driver/Src/stm32f4xx_hal_pcd.c ****       /* incorrect mode, acknowledge the interrupt */
1058:Drivers/STM32F4xx_HAL_Driver/Src/stm32f4xx_hal_pcd.c ****       __HAL_PCD_CLEAR_FLAG(hpcd, USB_OTG_GINTSTS_MMIS);
 810              		.loc 1 1058 7
 811 004a 7B68     		ldr	r3, [r7, #4]
 812 004c 1B68     		ldr	r3, [r3]
 813 004e 5A69     		ldr	r2, [r3, #20]
 814 0050 7B68     		ldr	r3, [r7, #4]
 815 0052 1B68     		ldr	r3, [r3]
 816 0054 02F00202 		and	r2, r2, #2
 817 0058 5A61     		str	r2, [r3, #20]
 818              	.L31:
1059:Drivers/STM32F4xx_HAL_Driver/Src/stm32f4xx_hal_pcd.c ****     }
1060:Drivers/STM32F4xx_HAL_Driver/Src/stm32f4xx_hal_pcd.c **** 
1061:Drivers/STM32F4xx_HAL_Driver/Src/stm32f4xx_hal_pcd.c ****      /* Handle RxQLevel Interrupt */
1062:Drivers/STM32F4xx_HAL_Driver/Src/stm32f4xx_hal_pcd.c ****     if (__HAL_PCD_GET_FLAG(hpcd, USB_OTG_GINTSTS_RXFLVL))
 819              		.loc 1 1062 9
ARM GAS  /tmp/ccsbOyJb.s 			page 34


 820 005a 7B68     		ldr	r3, [r7, #4]
 821 005c 1B68     		ldr	r3, [r3]
 822 005e 1846     		mov	r0, r3
 823 0060 FFF7FEFF 		bl	USB_ReadInterrupts
 824 0064 0346     		mov	r3, r0
 825 0066 03F01003 		and	r3, r3, #16
 826              		.loc 1 1062 8
 827 006a 102B     		cmp	r3, #16
 828 006c 61D1     		bne	.L32
1063:Drivers/STM32F4xx_HAL_Driver/Src/stm32f4xx_hal_pcd.c ****     {
1064:Drivers/STM32F4xx_HAL_Driver/Src/stm32f4xx_hal_pcd.c ****       USB_MASK_INTERRUPT(hpcd->Instance, USB_OTG_GINTSTS_RXFLVL);
 829              		.loc 1 1064 7
 830 006e 7B68     		ldr	r3, [r7, #4]
 831 0070 1B68     		ldr	r3, [r3]
 832 0072 9A69     		ldr	r2, [r3, #24]
 833 0074 7B68     		ldr	r3, [r7, #4]
 834 0076 1B68     		ldr	r3, [r3]
 835 0078 22F01002 		bic	r2, r2, #16
 836 007c 9A61     		str	r2, [r3, #24]
1065:Drivers/STM32F4xx_HAL_Driver/Src/stm32f4xx_hal_pcd.c **** 
1066:Drivers/STM32F4xx_HAL_Driver/Src/stm32f4xx_hal_pcd.c ****       temp = USBx->GRXSTSP;
 837              		.loc 1 1066 12
 838 007e 3B6A     		ldr	r3, [r7, #32]
 839 0080 1B6A     		ldr	r3, [r3, #32]
 840 0082 BB61     		str	r3, [r7, #24]
1067:Drivers/STM32F4xx_HAL_Driver/Src/stm32f4xx_hal_pcd.c **** 
1068:Drivers/STM32F4xx_HAL_Driver/Src/stm32f4xx_hal_pcd.c ****       ep = &hpcd->OUT_ep[temp & USB_OTG_GRXSTSP_EPNUM];
 841              		.loc 1 1068 31
 842 0084 BB69     		ldr	r3, [r7, #24]
 843 0086 03F00F02 		and	r2, r3, #15
 844              		.loc 1 1068 10
 845 008a 1346     		mov	r3, r2
 846 008c DB00     		lsls	r3, r3, #3
 847 008e 9B1A     		subs	r3, r3, r2
 848 0090 9B00     		lsls	r3, r3, #2
 849 0092 03F5FC73 		add	r3, r3, #504
 850 0096 7A68     		ldr	r2, [r7, #4]
 851 0098 1344     		add	r3, r3, r2
 852 009a 0433     		adds	r3, r3, #4
 853 009c 7B61     		str	r3, [r7, #20]
1069:Drivers/STM32F4xx_HAL_Driver/Src/stm32f4xx_hal_pcd.c **** 
1070:Drivers/STM32F4xx_HAL_Driver/Src/stm32f4xx_hal_pcd.c ****       if (((temp & USB_OTG_GRXSTSP_PKTSTS) >> 17) ==  STS_DATA_UPDT)
 854              		.loc 1 1070 44
 855 009e BB69     		ldr	r3, [r7, #24]
 856 00a0 5B0C     		lsrs	r3, r3, #17
 857 00a2 03F00F03 		and	r3, r3, #15
 858              		.loc 1 1070 10
 859 00a6 022B     		cmp	r3, #2
 860 00a8 24D1     		bne	.L33
1071:Drivers/STM32F4xx_HAL_Driver/Src/stm32f4xx_hal_pcd.c ****       {
1072:Drivers/STM32F4xx_HAL_Driver/Src/stm32f4xx_hal_pcd.c ****         if ((temp & USB_OTG_GRXSTSP_BCNT) != 0U)
 861              		.loc 1 1072 19
 862 00aa BA69     		ldr	r2, [r7, #24]
 863 00ac 47F6F073 		movw	r3, #32752
 864 00b0 1340     		ands	r3, r3, r2
 865              		.loc 1 1072 12
 866 00b2 002B     		cmp	r3, #0
ARM GAS  /tmp/ccsbOyJb.s 			page 35


 867 00b4 35D0     		beq	.L34
1073:Drivers/STM32F4xx_HAL_Driver/Src/stm32f4xx_hal_pcd.c ****         {
1074:Drivers/STM32F4xx_HAL_Driver/Src/stm32f4xx_hal_pcd.c ****           (void)USB_ReadPacket(USBx, ep->xfer_buff,
 868              		.loc 1 1074 17
 869 00b6 7B69     		ldr	r3, [r7, #20]
 870 00b8 D968     		ldr	r1, [r3, #12]
1075:Drivers/STM32F4xx_HAL_Driver/Src/stm32f4xx_hal_pcd.c ****                                (uint16_t)((temp & USB_OTG_GRXSTSP_BCNT) >> 4));
 871              		.loc 1 1075 73
 872 00ba BB69     		ldr	r3, [r7, #24]
 873 00bc 1B09     		lsrs	r3, r3, #4
 874              		.loc 1 1075 32
 875 00be 9BB2     		uxth	r3, r3
1074:Drivers/STM32F4xx_HAL_Driver/Src/stm32f4xx_hal_pcd.c ****                                (uint16_t)((temp & USB_OTG_GRXSTSP_BCNT) >> 4));
 876              		.loc 1 1074 17
 877 00c0 C3F30A03 		ubfx	r3, r3, #0, #11
 878 00c4 9BB2     		uxth	r3, r3
 879 00c6 1A46     		mov	r2, r3
 880 00c8 386A     		ldr	r0, [r7, #32]
 881 00ca FFF7FEFF 		bl	USB_ReadPacket
1076:Drivers/STM32F4xx_HAL_Driver/Src/stm32f4xx_hal_pcd.c **** 
1077:Drivers/STM32F4xx_HAL_Driver/Src/stm32f4xx_hal_pcd.c ****           ep->xfer_buff += (temp & USB_OTG_GRXSTSP_BCNT) >> 4;
 882              		.loc 1 1077 25
 883 00ce 7B69     		ldr	r3, [r7, #20]
 884 00d0 DA68     		ldr	r2, [r3, #12]
 885              		.loc 1 1077 58
 886 00d2 BB69     		ldr	r3, [r7, #24]
 887 00d4 1B09     		lsrs	r3, r3, #4
 888 00d6 C3F30A03 		ubfx	r3, r3, #0, #11
 889              		.loc 1 1077 25
 890 00da 1A44     		add	r2, r2, r3
 891 00dc 7B69     		ldr	r3, [r7, #20]
 892 00de DA60     		str	r2, [r3, #12]
1078:Drivers/STM32F4xx_HAL_Driver/Src/stm32f4xx_hal_pcd.c ****           ep->xfer_count += (temp & USB_OTG_GRXSTSP_BCNT) >> 4;
 893              		.loc 1 1078 26
 894 00e0 7B69     		ldr	r3, [r7, #20]
 895 00e2 9A69     		ldr	r2, [r3, #24]
 896              		.loc 1 1078 59
 897 00e4 BB69     		ldr	r3, [r7, #24]
 898 00e6 1B09     		lsrs	r3, r3, #4
 899 00e8 C3F30A03 		ubfx	r3, r3, #0, #11
 900              		.loc 1 1078 26
 901 00ec 1A44     		add	r2, r2, r3
 902 00ee 7B69     		ldr	r3, [r7, #20]
 903 00f0 9A61     		str	r2, [r3, #24]
 904 00f2 16E0     		b	.L34
 905              	.L33:
1079:Drivers/STM32F4xx_HAL_Driver/Src/stm32f4xx_hal_pcd.c ****         }
1080:Drivers/STM32F4xx_HAL_Driver/Src/stm32f4xx_hal_pcd.c ****       }
1081:Drivers/STM32F4xx_HAL_Driver/Src/stm32f4xx_hal_pcd.c ****       else if (((temp & USB_OTG_GRXSTSP_PKTSTS) >> 17) ==  STS_SETUP_UPDT)
 906              		.loc 1 1081 49
 907 00f4 BB69     		ldr	r3, [r7, #24]
 908 00f6 5B0C     		lsrs	r3, r3, #17
 909 00f8 03F00F03 		and	r3, r3, #15
 910              		.loc 1 1081 15
 911 00fc 062B     		cmp	r3, #6
 912 00fe 10D1     		bne	.L34
1082:Drivers/STM32F4xx_HAL_Driver/Src/stm32f4xx_hal_pcd.c ****       {
ARM GAS  /tmp/ccsbOyJb.s 			page 36


1083:Drivers/STM32F4xx_HAL_Driver/Src/stm32f4xx_hal_pcd.c ****         (void)USB_ReadPacket(USBx, (uint8_t *)hpcd->Setup, 8U);
 913              		.loc 1 1083 47
 914 0100 7B68     		ldr	r3, [r7, #4]
 915 0102 03F57173 		add	r3, r3, #964
 916              		.loc 1 1083 15
 917 0106 0822     		movs	r2, #8
 918 0108 1946     		mov	r1, r3
 919 010a 386A     		ldr	r0, [r7, #32]
 920 010c FFF7FEFF 		bl	USB_ReadPacket
1084:Drivers/STM32F4xx_HAL_Driver/Src/stm32f4xx_hal_pcd.c ****         ep->xfer_count += (temp & USB_OTG_GRXSTSP_BCNT) >> 4;
 921              		.loc 1 1084 24
 922 0110 7B69     		ldr	r3, [r7, #20]
 923 0112 9A69     		ldr	r2, [r3, #24]
 924              		.loc 1 1084 57
 925 0114 BB69     		ldr	r3, [r7, #24]
 926 0116 1B09     		lsrs	r3, r3, #4
 927 0118 C3F30A03 		ubfx	r3, r3, #0, #11
 928              		.loc 1 1084 24
 929 011c 1A44     		add	r2, r2, r3
 930 011e 7B69     		ldr	r3, [r7, #20]
 931 0120 9A61     		str	r2, [r3, #24]
 932              	.L34:
1085:Drivers/STM32F4xx_HAL_Driver/Src/stm32f4xx_hal_pcd.c ****       }
1086:Drivers/STM32F4xx_HAL_Driver/Src/stm32f4xx_hal_pcd.c ****       else
1087:Drivers/STM32F4xx_HAL_Driver/Src/stm32f4xx_hal_pcd.c ****       {
1088:Drivers/STM32F4xx_HAL_Driver/Src/stm32f4xx_hal_pcd.c ****         /* ... */
1089:Drivers/STM32F4xx_HAL_Driver/Src/stm32f4xx_hal_pcd.c ****       }
1090:Drivers/STM32F4xx_HAL_Driver/Src/stm32f4xx_hal_pcd.c ****       USB_UNMASK_INTERRUPT(hpcd->Instance, USB_OTG_GINTSTS_RXFLVL);
 933              		.loc 1 1090 7
 934 0122 7B68     		ldr	r3, [r7, #4]
 935 0124 1B68     		ldr	r3, [r3]
 936 0126 9A69     		ldr	r2, [r3, #24]
 937 0128 7B68     		ldr	r3, [r7, #4]
 938 012a 1B68     		ldr	r3, [r3]
 939 012c 42F01002 		orr	r2, r2, #16
 940 0130 9A61     		str	r2, [r3, #24]
 941              	.L32:
1091:Drivers/STM32F4xx_HAL_Driver/Src/stm32f4xx_hal_pcd.c ****     }
1092:Drivers/STM32F4xx_HAL_Driver/Src/stm32f4xx_hal_pcd.c **** 
1093:Drivers/STM32F4xx_HAL_Driver/Src/stm32f4xx_hal_pcd.c ****     if (__HAL_PCD_GET_FLAG(hpcd, USB_OTG_GINTSTS_OEPINT))
 942              		.loc 1 1093 9
 943 0132 7B68     		ldr	r3, [r7, #4]
 944 0134 1B68     		ldr	r3, [r3]
 945 0136 1846     		mov	r0, r3
 946 0138 FFF7FEFF 		bl	USB_ReadInterrupts
 947 013c 0346     		mov	r3, r0
 948 013e 03F40023 		and	r3, r3, #524288
 949              		.loc 1 1093 8
 950 0142 B3F5002F 		cmp	r3, #524288
 951 0146 6ED1     		bne	.L35
1094:Drivers/STM32F4xx_HAL_Driver/Src/stm32f4xx_hal_pcd.c ****     {
1095:Drivers/STM32F4xx_HAL_Driver/Src/stm32f4xx_hal_pcd.c ****       epnum = 0U;
 952              		.loc 1 1095 13
 953 0148 0023     		movs	r3, #0
 954 014a 7B62     		str	r3, [r7, #36]
1096:Drivers/STM32F4xx_HAL_Driver/Src/stm32f4xx_hal_pcd.c **** 
1097:Drivers/STM32F4xx_HAL_Driver/Src/stm32f4xx_hal_pcd.c ****       /* Read in the device interrupt bits */
ARM GAS  /tmp/ccsbOyJb.s 			page 37


1098:Drivers/STM32F4xx_HAL_Driver/Src/stm32f4xx_hal_pcd.c ****       ep_intr = USB_ReadDevAllOutEpInterrupt(hpcd->Instance);
 955              		.loc 1 1098 50
 956 014c 7B68     		ldr	r3, [r7, #4]
 957 014e 1B68     		ldr	r3, [r3]
 958              		.loc 1 1098 17
 959 0150 1846     		mov	r0, r3
 960 0152 FFF7FEFF 		bl	USB_ReadDevAllOutEpInterrupt
 961 0156 B862     		str	r0, [r7, #40]
1099:Drivers/STM32F4xx_HAL_Driver/Src/stm32f4xx_hal_pcd.c **** 
1100:Drivers/STM32F4xx_HAL_Driver/Src/stm32f4xx_hal_pcd.c ****       while (ep_intr != 0U)
 962              		.loc 1 1100 13
 963 0158 62E0     		b	.L36
 964              	.L42:
1101:Drivers/STM32F4xx_HAL_Driver/Src/stm32f4xx_hal_pcd.c ****       {
1102:Drivers/STM32F4xx_HAL_Driver/Src/stm32f4xx_hal_pcd.c ****         if ((ep_intr & 0x1U) != 0U)
 965              		.loc 1 1102 22
 966 015a BB6A     		ldr	r3, [r7, #40]
 967 015c 03F00103 		and	r3, r3, #1
 968              		.loc 1 1102 12
 969 0160 002B     		cmp	r3, #0
 970 0162 57D0     		beq	.L37
1103:Drivers/STM32F4xx_HAL_Driver/Src/stm32f4xx_hal_pcd.c ****         {
1104:Drivers/STM32F4xx_HAL_Driver/Src/stm32f4xx_hal_pcd.c ****           epint = USB_ReadDevOutEPInterrupt(hpcd->Instance, (uint8_t)epnum);
 971              		.loc 1 1104 49
 972 0164 7B68     		ldr	r3, [r7, #4]
 973 0166 1B68     		ldr	r3, [r3]
 974              		.loc 1 1104 19
 975 0168 7A6A     		ldr	r2, [r7, #36]
 976 016a D2B2     		uxtb	r2, r2
 977 016c 1146     		mov	r1, r2
 978 016e 1846     		mov	r0, r3
 979 0170 FFF7FEFF 		bl	USB_ReadDevOutEPInterrupt
 980 0174 3861     		str	r0, [r7, #16]
1105:Drivers/STM32F4xx_HAL_Driver/Src/stm32f4xx_hal_pcd.c **** 
1106:Drivers/STM32F4xx_HAL_Driver/Src/stm32f4xx_hal_pcd.c ****           if ((epint & USB_OTG_DOEPINT_XFRC) == USB_OTG_DOEPINT_XFRC)
 981              		.loc 1 1106 22
 982 0176 3B69     		ldr	r3, [r7, #16]
 983 0178 03F00103 		and	r3, r3, #1
 984              		.loc 1 1106 14
 985 017c 002B     		cmp	r3, #0
 986 017e 0CD0     		beq	.L38
1107:Drivers/STM32F4xx_HAL_Driver/Src/stm32f4xx_hal_pcd.c ****           {
1108:Drivers/STM32F4xx_HAL_Driver/Src/stm32f4xx_hal_pcd.c ****             CLEAR_OUT_EP_INTR(epnum, USB_OTG_DOEPINT_XFRC);
 987              		.loc 1 1108 13
 988 0180 7B6A     		ldr	r3, [r7, #36]
 989 0182 5A01     		lsls	r2, r3, #5
 990 0184 FB69     		ldr	r3, [r7, #28]
 991 0186 1344     		add	r3, r3, r2
 992 0188 03F53063 		add	r3, r3, #2816
 993 018c 1A46     		mov	r2, r3
 994 018e 0123     		movs	r3, #1
 995 0190 9360     		str	r3, [r2, #8]
1109:Drivers/STM32F4xx_HAL_Driver/Src/stm32f4xx_hal_pcd.c ****             (void)PCD_EP_OutXfrComplete_int(hpcd, epnum);
 996              		.loc 1 1109 19
 997 0192 796A     		ldr	r1, [r7, #36]
 998 0194 7868     		ldr	r0, [r7, #4]
 999 0196 FFF7FEFF 		bl	PCD_EP_OutXfrComplete_int
ARM GAS  /tmp/ccsbOyJb.s 			page 38


 1000              	.L38:
1110:Drivers/STM32F4xx_HAL_Driver/Src/stm32f4xx_hal_pcd.c ****           }
1111:Drivers/STM32F4xx_HAL_Driver/Src/stm32f4xx_hal_pcd.c **** 
1112:Drivers/STM32F4xx_HAL_Driver/Src/stm32f4xx_hal_pcd.c ****           if ((epint & USB_OTG_DOEPINT_STUP) == USB_OTG_DOEPINT_STUP)
 1001              		.loc 1 1112 22
 1002 019a 3B69     		ldr	r3, [r7, #16]
 1003 019c 03F00803 		and	r3, r3, #8
 1004              		.loc 1 1112 14
 1005 01a0 002B     		cmp	r3, #0
 1006 01a2 0CD0     		beq	.L39
1113:Drivers/STM32F4xx_HAL_Driver/Src/stm32f4xx_hal_pcd.c ****           {
1114:Drivers/STM32F4xx_HAL_Driver/Src/stm32f4xx_hal_pcd.c ****             CLEAR_OUT_EP_INTR(epnum, USB_OTG_DOEPINT_STUP);
 1007              		.loc 1 1114 13
 1008 01a4 7B6A     		ldr	r3, [r7, #36]
 1009 01a6 5A01     		lsls	r2, r3, #5
 1010 01a8 FB69     		ldr	r3, [r7, #28]
 1011 01aa 1344     		add	r3, r3, r2
 1012 01ac 03F53063 		add	r3, r3, #2816
 1013 01b0 1A46     		mov	r2, r3
 1014 01b2 0823     		movs	r3, #8
 1015 01b4 9360     		str	r3, [r2, #8]
1115:Drivers/STM32F4xx_HAL_Driver/Src/stm32f4xx_hal_pcd.c ****             /* Class B setup phase done for previous decoded setup */
1116:Drivers/STM32F4xx_HAL_Driver/Src/stm32f4xx_hal_pcd.c ****             (void)PCD_EP_OutSetupPacket_int(hpcd, epnum);
 1016              		.loc 1 1116 19
 1017 01b6 796A     		ldr	r1, [r7, #36]
 1018 01b8 7868     		ldr	r0, [r7, #4]
 1019 01ba FFF7FEFF 		bl	PCD_EP_OutSetupPacket_int
 1020              	.L39:
1117:Drivers/STM32F4xx_HAL_Driver/Src/stm32f4xx_hal_pcd.c ****           }
1118:Drivers/STM32F4xx_HAL_Driver/Src/stm32f4xx_hal_pcd.c **** 
1119:Drivers/STM32F4xx_HAL_Driver/Src/stm32f4xx_hal_pcd.c ****           if ((epint & USB_OTG_DOEPINT_OTEPDIS) == USB_OTG_DOEPINT_OTEPDIS)
 1021              		.loc 1 1119 22
 1022 01be 3B69     		ldr	r3, [r7, #16]
 1023 01c0 03F01003 		and	r3, r3, #16
 1024              		.loc 1 1119 14
 1025 01c4 002B     		cmp	r3, #0
 1026 01c6 08D0     		beq	.L40
1120:Drivers/STM32F4xx_HAL_Driver/Src/stm32f4xx_hal_pcd.c ****           {
1121:Drivers/STM32F4xx_HAL_Driver/Src/stm32f4xx_hal_pcd.c ****             CLEAR_OUT_EP_INTR(epnum, USB_OTG_DOEPINT_OTEPDIS);
 1027              		.loc 1 1121 13
 1028 01c8 7B6A     		ldr	r3, [r7, #36]
 1029 01ca 5A01     		lsls	r2, r3, #5
 1030 01cc FB69     		ldr	r3, [r7, #28]
 1031 01ce 1344     		add	r3, r3, r2
 1032 01d0 03F53063 		add	r3, r3, #2816
 1033 01d4 1A46     		mov	r2, r3
 1034 01d6 1023     		movs	r3, #16
 1035 01d8 9360     		str	r3, [r2, #8]
 1036              	.L40:
1122:Drivers/STM32F4xx_HAL_Driver/Src/stm32f4xx_hal_pcd.c ****           }
1123:Drivers/STM32F4xx_HAL_Driver/Src/stm32f4xx_hal_pcd.c **** 
1124:Drivers/STM32F4xx_HAL_Driver/Src/stm32f4xx_hal_pcd.c ****           /* Clear Status Phase Received interrupt */
1125:Drivers/STM32F4xx_HAL_Driver/Src/stm32f4xx_hal_pcd.c ****           if ((epint & USB_OTG_DOEPINT_OTEPSPR) == USB_OTG_DOEPINT_OTEPSPR)
 1037              		.loc 1 1125 22
 1038 01da 3B69     		ldr	r3, [r7, #16]
 1039 01dc 03F02003 		and	r3, r3, #32
 1040              		.loc 1 1125 14
ARM GAS  /tmp/ccsbOyJb.s 			page 39


 1041 01e0 002B     		cmp	r3, #0
 1042 01e2 08D0     		beq	.L41
1126:Drivers/STM32F4xx_HAL_Driver/Src/stm32f4xx_hal_pcd.c ****           {
1127:Drivers/STM32F4xx_HAL_Driver/Src/stm32f4xx_hal_pcd.c ****             CLEAR_OUT_EP_INTR(epnum, USB_OTG_DOEPINT_OTEPSPR);
 1043              		.loc 1 1127 13
 1044 01e4 7B6A     		ldr	r3, [r7, #36]
 1045 01e6 5A01     		lsls	r2, r3, #5
 1046 01e8 FB69     		ldr	r3, [r7, #28]
 1047 01ea 1344     		add	r3, r3, r2
 1048 01ec 03F53063 		add	r3, r3, #2816
 1049 01f0 1A46     		mov	r2, r3
 1050 01f2 2023     		movs	r3, #32
 1051 01f4 9360     		str	r3, [r2, #8]
 1052              	.L41:
1128:Drivers/STM32F4xx_HAL_Driver/Src/stm32f4xx_hal_pcd.c ****           }
1129:Drivers/STM32F4xx_HAL_Driver/Src/stm32f4xx_hal_pcd.c **** 
1130:Drivers/STM32F4xx_HAL_Driver/Src/stm32f4xx_hal_pcd.c ****           /* Clear OUT NAK interrupt */
1131:Drivers/STM32F4xx_HAL_Driver/Src/stm32f4xx_hal_pcd.c ****           if ((epint & USB_OTG_DOEPINT_NAK) == USB_OTG_DOEPINT_NAK)
 1053              		.loc 1 1131 22
 1054 01f6 3B69     		ldr	r3, [r7, #16]
 1055 01f8 03F40053 		and	r3, r3, #8192
 1056              		.loc 1 1131 14
 1057 01fc 002B     		cmp	r3, #0
 1058 01fe 09D0     		beq	.L37
1132:Drivers/STM32F4xx_HAL_Driver/Src/stm32f4xx_hal_pcd.c ****           {
1133:Drivers/STM32F4xx_HAL_Driver/Src/stm32f4xx_hal_pcd.c ****             CLEAR_OUT_EP_INTR(epnum, USB_OTG_DOEPINT_NAK);
 1059              		.loc 1 1133 13
 1060 0200 7B6A     		ldr	r3, [r7, #36]
 1061 0202 5A01     		lsls	r2, r3, #5
 1062 0204 FB69     		ldr	r3, [r7, #28]
 1063 0206 1344     		add	r3, r3, r2
 1064 0208 03F53063 		add	r3, r3, #2816
 1065 020c 1A46     		mov	r2, r3
 1066 020e 4FF40053 		mov	r3, #8192
 1067 0212 9360     		str	r3, [r2, #8]
 1068              	.L37:
1134:Drivers/STM32F4xx_HAL_Driver/Src/stm32f4xx_hal_pcd.c ****           }
1135:Drivers/STM32F4xx_HAL_Driver/Src/stm32f4xx_hal_pcd.c ****         }
1136:Drivers/STM32F4xx_HAL_Driver/Src/stm32f4xx_hal_pcd.c ****         epnum++;
 1069              		.loc 1 1136 14
 1070 0214 7B6A     		ldr	r3, [r7, #36]
 1071 0216 0133     		adds	r3, r3, #1
 1072 0218 7B62     		str	r3, [r7, #36]
1137:Drivers/STM32F4xx_HAL_Driver/Src/stm32f4xx_hal_pcd.c ****         ep_intr >>= 1U;
 1073              		.loc 1 1137 17
 1074 021a BB6A     		ldr	r3, [r7, #40]
 1075 021c 5B08     		lsrs	r3, r3, #1
 1076 021e BB62     		str	r3, [r7, #40]
 1077              	.L36:
1100:Drivers/STM32F4xx_HAL_Driver/Src/stm32f4xx_hal_pcd.c ****       {
 1078              		.loc 1 1100 13
 1079 0220 BB6A     		ldr	r3, [r7, #40]
 1080 0222 002B     		cmp	r3, #0
 1081 0224 99D1     		bne	.L42
 1082              	.L35:
1138:Drivers/STM32F4xx_HAL_Driver/Src/stm32f4xx_hal_pcd.c ****       }
1139:Drivers/STM32F4xx_HAL_Driver/Src/stm32f4xx_hal_pcd.c ****     }
ARM GAS  /tmp/ccsbOyJb.s 			page 40


1140:Drivers/STM32F4xx_HAL_Driver/Src/stm32f4xx_hal_pcd.c **** 
1141:Drivers/STM32F4xx_HAL_Driver/Src/stm32f4xx_hal_pcd.c ****     if (__HAL_PCD_GET_FLAG(hpcd, USB_OTG_GINTSTS_IEPINT))
 1083              		.loc 1 1141 9
 1084 0226 7B68     		ldr	r3, [r7, #4]
 1085 0228 1B68     		ldr	r3, [r3]
 1086 022a 1846     		mov	r0, r3
 1087 022c FFF7FEFF 		bl	USB_ReadInterrupts
 1088 0230 0346     		mov	r3, r0
 1089 0232 03F48023 		and	r3, r3, #262144
 1090              		.loc 1 1141 8
 1091 0236 B3F5802F 		cmp	r3, #262144
 1092 023a 40F0C080 		bne	.L43
1142:Drivers/STM32F4xx_HAL_Driver/Src/stm32f4xx_hal_pcd.c ****     {
1143:Drivers/STM32F4xx_HAL_Driver/Src/stm32f4xx_hal_pcd.c ****       /* Read in the device interrupt bits */
1144:Drivers/STM32F4xx_HAL_Driver/Src/stm32f4xx_hal_pcd.c ****       ep_intr = USB_ReadDevAllInEpInterrupt(hpcd->Instance);
 1093              		.loc 1 1144 49
 1094 023e 7B68     		ldr	r3, [r7, #4]
 1095 0240 1B68     		ldr	r3, [r3]
 1096              		.loc 1 1144 17
 1097 0242 1846     		mov	r0, r3
 1098 0244 FFF7FEFF 		bl	USB_ReadDevAllInEpInterrupt
 1099 0248 B862     		str	r0, [r7, #40]
1145:Drivers/STM32F4xx_HAL_Driver/Src/stm32f4xx_hal_pcd.c **** 
1146:Drivers/STM32F4xx_HAL_Driver/Src/stm32f4xx_hal_pcd.c ****       epnum = 0U;
 1100              		.loc 1 1146 13
 1101 024a 0023     		movs	r3, #0
 1102 024c 7B62     		str	r3, [r7, #36]
1147:Drivers/STM32F4xx_HAL_Driver/Src/stm32f4xx_hal_pcd.c **** 
1148:Drivers/STM32F4xx_HAL_Driver/Src/stm32f4xx_hal_pcd.c ****       while (ep_intr != 0U)
 1103              		.loc 1 1148 13
 1104 024e B2E0     		b	.L44
 1105              	.L52:
1149:Drivers/STM32F4xx_HAL_Driver/Src/stm32f4xx_hal_pcd.c ****       {
1150:Drivers/STM32F4xx_HAL_Driver/Src/stm32f4xx_hal_pcd.c ****         if ((ep_intr & 0x1U) != 0U) /* In ITR */
 1106              		.loc 1 1150 22
 1107 0250 BB6A     		ldr	r3, [r7, #40]
 1108 0252 03F00103 		and	r3, r3, #1
 1109              		.loc 1 1150 12
 1110 0256 002B     		cmp	r3, #0
 1111 0258 00F0A780 		beq	.L45
1151:Drivers/STM32F4xx_HAL_Driver/Src/stm32f4xx_hal_pcd.c ****         {
1152:Drivers/STM32F4xx_HAL_Driver/Src/stm32f4xx_hal_pcd.c ****           epint = USB_ReadDevInEPInterrupt(hpcd->Instance, (uint8_t)epnum);
 1112              		.loc 1 1152 48
 1113 025c 7B68     		ldr	r3, [r7, #4]
 1114 025e 1B68     		ldr	r3, [r3]
 1115              		.loc 1 1152 19
 1116 0260 7A6A     		ldr	r2, [r7, #36]
 1117 0262 D2B2     		uxtb	r2, r2
 1118 0264 1146     		mov	r1, r2
 1119 0266 1846     		mov	r0, r3
 1120 0268 FFF7FEFF 		bl	USB_ReadDevInEPInterrupt
 1121 026c 3861     		str	r0, [r7, #16]
1153:Drivers/STM32F4xx_HAL_Driver/Src/stm32f4xx_hal_pcd.c **** 
1154:Drivers/STM32F4xx_HAL_Driver/Src/stm32f4xx_hal_pcd.c ****           if ((epint & USB_OTG_DIEPINT_XFRC) == USB_OTG_DIEPINT_XFRC)
 1122              		.loc 1 1154 22
 1123 026e 3B69     		ldr	r3, [r7, #16]
 1124 0270 03F00103 		and	r3, r3, #1
ARM GAS  /tmp/ccsbOyJb.s 			page 41


 1125              		.loc 1 1154 14
 1126 0274 002B     		cmp	r3, #0
 1127 0276 57D0     		beq	.L46
1155:Drivers/STM32F4xx_HAL_Driver/Src/stm32f4xx_hal_pcd.c ****           {
1156:Drivers/STM32F4xx_HAL_Driver/Src/stm32f4xx_hal_pcd.c ****             fifoemptymsk = (uint32_t)(0x1UL << (epnum & EP_ADDR_MSK));
 1128              		.loc 1 1156 55
 1129 0278 7B6A     		ldr	r3, [r7, #36]
 1130 027a 03F00F03 		and	r3, r3, #15
 1131              		.loc 1 1156 26
 1132 027e 0122     		movs	r2, #1
 1133 0280 02FA03F3 		lsl	r3, r2, r3
 1134 0284 FB60     		str	r3, [r7, #12]
1157:Drivers/STM32F4xx_HAL_Driver/Src/stm32f4xx_hal_pcd.c ****             USBx_DEVICE->DIEPEMPMSK &= ~fifoemptymsk;
 1135              		.loc 1 1157 37
 1136 0286 FB69     		ldr	r3, [r7, #28]
 1137 0288 03F50063 		add	r3, r3, #2048
 1138 028c 5A6B     		ldr	r2, [r3, #52]
 1139              		.loc 1 1157 40
 1140 028e FB68     		ldr	r3, [r7, #12]
 1141 0290 DB43     		mvns	r3, r3
 1142              		.loc 1 1157 37
 1143 0292 F969     		ldr	r1, [r7, #28]
 1144 0294 01F50061 		add	r1, r1, #2048
 1145 0298 1340     		ands	r3, r3, r2
 1146 029a 4B63     		str	r3, [r1, #52]
1158:Drivers/STM32F4xx_HAL_Driver/Src/stm32f4xx_hal_pcd.c **** 
1159:Drivers/STM32F4xx_HAL_Driver/Src/stm32f4xx_hal_pcd.c ****             CLEAR_IN_EP_INTR(epnum, USB_OTG_DIEPINT_XFRC);
 1147              		.loc 1 1159 13
 1148 029c 7B6A     		ldr	r3, [r7, #36]
 1149 029e 5A01     		lsls	r2, r3, #5
 1150 02a0 FB69     		ldr	r3, [r7, #28]
 1151 02a2 1344     		add	r3, r3, r2
 1152 02a4 03F51063 		add	r3, r3, #2304
 1153 02a8 1A46     		mov	r2, r3
 1154 02aa 0123     		movs	r3, #1
 1155 02ac 9360     		str	r3, [r2, #8]
1160:Drivers/STM32F4xx_HAL_Driver/Src/stm32f4xx_hal_pcd.c **** 
1161:Drivers/STM32F4xx_HAL_Driver/Src/stm32f4xx_hal_pcd.c ****             if (hpcd->Init.dma_enable == 1U)
 1156              		.loc 1 1161 27
 1157 02ae 7B68     		ldr	r3, [r7, #4]
 1158 02b0 1B69     		ldr	r3, [r3, #16]
 1159              		.loc 1 1161 16
 1160 02b2 012B     		cmp	r3, #1
 1161 02b4 32D1     		bne	.L47
1162:Drivers/STM32F4xx_HAL_Driver/Src/stm32f4xx_hal_pcd.c ****             {
1163:Drivers/STM32F4xx_HAL_Driver/Src/stm32f4xx_hal_pcd.c ****               hpcd->IN_ep[epnum].xfer_buff += hpcd->IN_ep[epnum].maxpacket;
 1162              		.loc 1 1163 44
 1163 02b6 7968     		ldr	r1, [r7, #4]
 1164 02b8 7A6A     		ldr	r2, [r7, #36]
 1165 02ba 1346     		mov	r3, r2
 1166 02bc DB00     		lsls	r3, r3, #3
 1167 02be 9B1A     		subs	r3, r3, r2
 1168 02c0 9B00     		lsls	r3, r3, #2
 1169 02c2 0B44     		add	r3, r3, r1
 1170 02c4 4833     		adds	r3, r3, #72
 1171 02c6 1968     		ldr	r1, [r3]
 1172              		.loc 1 1163 65
ARM GAS  /tmp/ccsbOyJb.s 			page 42


 1173 02c8 7868     		ldr	r0, [r7, #4]
 1174 02ca 7A6A     		ldr	r2, [r7, #36]
 1175 02cc 1346     		mov	r3, r2
 1176 02ce DB00     		lsls	r3, r3, #3
 1177 02d0 9B1A     		subs	r3, r3, r2
 1178 02d2 9B00     		lsls	r3, r3, #2
 1179 02d4 0344     		add	r3, r3, r0
 1180 02d6 4433     		adds	r3, r3, #68
 1181 02d8 1B68     		ldr	r3, [r3]
 1182              		.loc 1 1163 44
 1183 02da 1944     		add	r1, r1, r3
 1184 02dc 7868     		ldr	r0, [r7, #4]
 1185 02de 7A6A     		ldr	r2, [r7, #36]
 1186 02e0 1346     		mov	r3, r2
 1187 02e2 DB00     		lsls	r3, r3, #3
 1188 02e4 9B1A     		subs	r3, r3, r2
 1189 02e6 9B00     		lsls	r3, r3, #2
 1190 02e8 0344     		add	r3, r3, r0
 1191 02ea 4833     		adds	r3, r3, #72
 1192 02ec 1960     		str	r1, [r3]
1164:Drivers/STM32F4xx_HAL_Driver/Src/stm32f4xx_hal_pcd.c **** 
1165:Drivers/STM32F4xx_HAL_Driver/Src/stm32f4xx_hal_pcd.c ****               /* this is ZLP, so prepare EP0 for next setup */
1166:Drivers/STM32F4xx_HAL_Driver/Src/stm32f4xx_hal_pcd.c ****               if ((epnum == 0U) && (hpcd->IN_ep[epnum].xfer_len == 0U))
 1193              		.loc 1 1166 18
 1194 02ee 7B6A     		ldr	r3, [r7, #36]
 1195 02f0 002B     		cmp	r3, #0
 1196 02f2 13D1     		bne	.L47
 1197              		.loc 1 1166 55 discriminator 1
 1198 02f4 7968     		ldr	r1, [r7, #4]
 1199 02f6 7A6A     		ldr	r2, [r7, #36]
 1200 02f8 1346     		mov	r3, r2
 1201 02fa DB00     		lsls	r3, r3, #3
 1202 02fc 9B1A     		subs	r3, r3, r2
 1203 02fe 9B00     		lsls	r3, r3, #2
 1204 0300 0B44     		add	r3, r3, r1
 1205 0302 5033     		adds	r3, r3, #80
 1206 0304 1B68     		ldr	r3, [r3]
 1207              		.loc 1 1166 33 discriminator 1
 1208 0306 002B     		cmp	r3, #0
 1209 0308 08D1     		bne	.L47
1167:Drivers/STM32F4xx_HAL_Driver/Src/stm32f4xx_hal_pcd.c ****               {
1168:Drivers/STM32F4xx_HAL_Driver/Src/stm32f4xx_hal_pcd.c ****                 /* prepare to rx more setup packets */
1169:Drivers/STM32F4xx_HAL_Driver/Src/stm32f4xx_hal_pcd.c ****                 (void)USB_EP0_OutStart(hpcd->Instance, 1U, (uint8_t *)hpcd->Setup);
 1210              		.loc 1 1169 44
 1211 030a 7B68     		ldr	r3, [r7, #4]
 1212 030c 1868     		ldr	r0, [r3]
 1213              		.loc 1 1169 71
 1214 030e 7B68     		ldr	r3, [r7, #4]
 1215 0310 03F57173 		add	r3, r3, #964
 1216              		.loc 1 1169 23
 1217 0314 1A46     		mov	r2, r3
 1218 0316 0121     		movs	r1, #1
 1219 0318 FFF7FEFF 		bl	USB_EP0_OutStart
 1220              	.L47:
1170:Drivers/STM32F4xx_HAL_Driver/Src/stm32f4xx_hal_pcd.c ****               }
1171:Drivers/STM32F4xx_HAL_Driver/Src/stm32f4xx_hal_pcd.c ****             }
1172:Drivers/STM32F4xx_HAL_Driver/Src/stm32f4xx_hal_pcd.c **** 
ARM GAS  /tmp/ccsbOyJb.s 			page 43


1173:Drivers/STM32F4xx_HAL_Driver/Src/stm32f4xx_hal_pcd.c **** #if (USE_HAL_PCD_REGISTER_CALLBACKS == 1U)
1174:Drivers/STM32F4xx_HAL_Driver/Src/stm32f4xx_hal_pcd.c ****             hpcd->DataInStageCallback(hpcd, (uint8_t)epnum);
1175:Drivers/STM32F4xx_HAL_Driver/Src/stm32f4xx_hal_pcd.c **** #else
1176:Drivers/STM32F4xx_HAL_Driver/Src/stm32f4xx_hal_pcd.c ****             HAL_PCD_DataInStageCallback(hpcd, (uint8_t)epnum);
 1221              		.loc 1 1176 13
 1222 031c 7B6A     		ldr	r3, [r7, #36]
 1223 031e DBB2     		uxtb	r3, r3
 1224 0320 1946     		mov	r1, r3
 1225 0322 7868     		ldr	r0, [r7, #4]
 1226 0324 FFF7FEFF 		bl	HAL_PCD_DataInStageCallback
 1227              	.L46:
1177:Drivers/STM32F4xx_HAL_Driver/Src/stm32f4xx_hal_pcd.c **** #endif /* USE_HAL_PCD_REGISTER_CALLBACKS */
1178:Drivers/STM32F4xx_HAL_Driver/Src/stm32f4xx_hal_pcd.c ****           }
1179:Drivers/STM32F4xx_HAL_Driver/Src/stm32f4xx_hal_pcd.c ****           if ((epint & USB_OTG_DIEPINT_TOC) == USB_OTG_DIEPINT_TOC)
 1228              		.loc 1 1179 22
 1229 0328 3B69     		ldr	r3, [r7, #16]
 1230 032a 03F00803 		and	r3, r3, #8
 1231              		.loc 1 1179 14
 1232 032e 002B     		cmp	r3, #0
 1233 0330 08D0     		beq	.L48
1180:Drivers/STM32F4xx_HAL_Driver/Src/stm32f4xx_hal_pcd.c ****           {
1181:Drivers/STM32F4xx_HAL_Driver/Src/stm32f4xx_hal_pcd.c ****             CLEAR_IN_EP_INTR(epnum, USB_OTG_DIEPINT_TOC);
 1234              		.loc 1 1181 13
 1235 0332 7B6A     		ldr	r3, [r7, #36]
 1236 0334 5A01     		lsls	r2, r3, #5
 1237 0336 FB69     		ldr	r3, [r7, #28]
 1238 0338 1344     		add	r3, r3, r2
 1239 033a 03F51063 		add	r3, r3, #2304
 1240 033e 1A46     		mov	r2, r3
 1241 0340 0823     		movs	r3, #8
 1242 0342 9360     		str	r3, [r2, #8]
 1243              	.L48:
1182:Drivers/STM32F4xx_HAL_Driver/Src/stm32f4xx_hal_pcd.c ****           }
1183:Drivers/STM32F4xx_HAL_Driver/Src/stm32f4xx_hal_pcd.c ****           if ((epint & USB_OTG_DIEPINT_ITTXFE) == USB_OTG_DIEPINT_ITTXFE)
 1244              		.loc 1 1183 22
 1245 0344 3B69     		ldr	r3, [r7, #16]
 1246 0346 03F01003 		and	r3, r3, #16
 1247              		.loc 1 1183 14
 1248 034a 002B     		cmp	r3, #0
 1249 034c 08D0     		beq	.L49
1184:Drivers/STM32F4xx_HAL_Driver/Src/stm32f4xx_hal_pcd.c ****           {
1185:Drivers/STM32F4xx_HAL_Driver/Src/stm32f4xx_hal_pcd.c ****             CLEAR_IN_EP_INTR(epnum, USB_OTG_DIEPINT_ITTXFE);
 1250              		.loc 1 1185 13
 1251 034e 7B6A     		ldr	r3, [r7, #36]
 1252 0350 5A01     		lsls	r2, r3, #5
 1253 0352 FB69     		ldr	r3, [r7, #28]
 1254 0354 1344     		add	r3, r3, r2
 1255 0356 03F51063 		add	r3, r3, #2304
 1256 035a 1A46     		mov	r2, r3
 1257 035c 1023     		movs	r3, #16
 1258 035e 9360     		str	r3, [r2, #8]
 1259              	.L49:
1186:Drivers/STM32F4xx_HAL_Driver/Src/stm32f4xx_hal_pcd.c ****           }
1187:Drivers/STM32F4xx_HAL_Driver/Src/stm32f4xx_hal_pcd.c ****           if ((epint & USB_OTG_DIEPINT_INEPNE) == USB_OTG_DIEPINT_INEPNE)
 1260              		.loc 1 1187 22
 1261 0360 3B69     		ldr	r3, [r7, #16]
 1262 0362 03F04003 		and	r3, r3, #64
ARM GAS  /tmp/ccsbOyJb.s 			page 44


 1263              		.loc 1 1187 14
 1264 0366 002B     		cmp	r3, #0
 1265 0368 08D0     		beq	.L50
1188:Drivers/STM32F4xx_HAL_Driver/Src/stm32f4xx_hal_pcd.c ****           {
1189:Drivers/STM32F4xx_HAL_Driver/Src/stm32f4xx_hal_pcd.c ****             CLEAR_IN_EP_INTR(epnum, USB_OTG_DIEPINT_INEPNE);
 1266              		.loc 1 1189 13
 1267 036a 7B6A     		ldr	r3, [r7, #36]
 1268 036c 5A01     		lsls	r2, r3, #5
 1269 036e FB69     		ldr	r3, [r7, #28]
 1270 0370 1344     		add	r3, r3, r2
 1271 0372 03F51063 		add	r3, r3, #2304
 1272 0376 1A46     		mov	r2, r3
 1273 0378 4023     		movs	r3, #64
 1274 037a 9360     		str	r3, [r2, #8]
 1275              	.L50:
1190:Drivers/STM32F4xx_HAL_Driver/Src/stm32f4xx_hal_pcd.c ****           }
1191:Drivers/STM32F4xx_HAL_Driver/Src/stm32f4xx_hal_pcd.c ****           if ((epint & USB_OTG_DIEPINT_EPDISD) == USB_OTG_DIEPINT_EPDISD)
 1276              		.loc 1 1191 22
 1277 037c 3B69     		ldr	r3, [r7, #16]
 1278 037e 03F00203 		and	r3, r3, #2
 1279              		.loc 1 1191 14
 1280 0382 002B     		cmp	r3, #0
 1281 0384 08D0     		beq	.L51
1192:Drivers/STM32F4xx_HAL_Driver/Src/stm32f4xx_hal_pcd.c ****           {
1193:Drivers/STM32F4xx_HAL_Driver/Src/stm32f4xx_hal_pcd.c ****             CLEAR_IN_EP_INTR(epnum, USB_OTG_DIEPINT_EPDISD);
 1282              		.loc 1 1193 13
 1283 0386 7B6A     		ldr	r3, [r7, #36]
 1284 0388 5A01     		lsls	r2, r3, #5
 1285 038a FB69     		ldr	r3, [r7, #28]
 1286 038c 1344     		add	r3, r3, r2
 1287 038e 03F51063 		add	r3, r3, #2304
 1288 0392 1A46     		mov	r2, r3
 1289 0394 0223     		movs	r3, #2
 1290 0396 9360     		str	r3, [r2, #8]
 1291              	.L51:
1194:Drivers/STM32F4xx_HAL_Driver/Src/stm32f4xx_hal_pcd.c ****           }
1195:Drivers/STM32F4xx_HAL_Driver/Src/stm32f4xx_hal_pcd.c ****           if ((epint & USB_OTG_DIEPINT_TXFE) == USB_OTG_DIEPINT_TXFE)
 1292              		.loc 1 1195 22
 1293 0398 3B69     		ldr	r3, [r7, #16]
 1294 039a 03F08003 		and	r3, r3, #128
 1295              		.loc 1 1195 14
 1296 039e 002B     		cmp	r3, #0
 1297 03a0 03D0     		beq	.L45
1196:Drivers/STM32F4xx_HAL_Driver/Src/stm32f4xx_hal_pcd.c ****           {
1197:Drivers/STM32F4xx_HAL_Driver/Src/stm32f4xx_hal_pcd.c ****             (void)PCD_WriteEmptyTxFifo(hpcd, epnum);
 1298              		.loc 1 1197 19
 1299 03a2 796A     		ldr	r1, [r7, #36]
 1300 03a4 7868     		ldr	r0, [r7, #4]
 1301 03a6 FFF7FEFF 		bl	PCD_WriteEmptyTxFifo
 1302              	.L45:
1198:Drivers/STM32F4xx_HAL_Driver/Src/stm32f4xx_hal_pcd.c ****           }
1199:Drivers/STM32F4xx_HAL_Driver/Src/stm32f4xx_hal_pcd.c ****         }
1200:Drivers/STM32F4xx_HAL_Driver/Src/stm32f4xx_hal_pcd.c ****         epnum++;
 1303              		.loc 1 1200 14
 1304 03aa 7B6A     		ldr	r3, [r7, #36]
 1305 03ac 0133     		adds	r3, r3, #1
 1306 03ae 7B62     		str	r3, [r7, #36]
ARM GAS  /tmp/ccsbOyJb.s 			page 45


1201:Drivers/STM32F4xx_HAL_Driver/Src/stm32f4xx_hal_pcd.c ****         ep_intr >>= 1U;
 1307              		.loc 1 1201 17
 1308 03b0 BB6A     		ldr	r3, [r7, #40]
 1309 03b2 5B08     		lsrs	r3, r3, #1
 1310 03b4 BB62     		str	r3, [r7, #40]
 1311              	.L44:
1148:Drivers/STM32F4xx_HAL_Driver/Src/stm32f4xx_hal_pcd.c ****       {
 1312              		.loc 1 1148 13
 1313 03b6 BB6A     		ldr	r3, [r7, #40]
 1314 03b8 002B     		cmp	r3, #0
 1315 03ba 7FF449AF 		bne	.L52
 1316              	.L43:
1202:Drivers/STM32F4xx_HAL_Driver/Src/stm32f4xx_hal_pcd.c ****       }
1203:Drivers/STM32F4xx_HAL_Driver/Src/stm32f4xx_hal_pcd.c ****     }
1204:Drivers/STM32F4xx_HAL_Driver/Src/stm32f4xx_hal_pcd.c **** 
1205:Drivers/STM32F4xx_HAL_Driver/Src/stm32f4xx_hal_pcd.c ****     /* Handle Resume Interrupt */
1206:Drivers/STM32F4xx_HAL_Driver/Src/stm32f4xx_hal_pcd.c ****     if (__HAL_PCD_GET_FLAG(hpcd, USB_OTG_GINTSTS_WKUINT))
 1317              		.loc 1 1206 9
 1318 03be 7B68     		ldr	r3, [r7, #4]
 1319 03c0 1B68     		ldr	r3, [r3]
 1320 03c2 1846     		mov	r0, r3
 1321 03c4 FFF7FEFF 		bl	USB_ReadInterrupts
 1322 03c8 0346     		mov	r3, r0
 1323 03ca 03F00043 		and	r3, r3, #-2147483648
 1324              		.loc 1 1206 8
 1325 03ce B3F1004F 		cmp	r3, #-2147483648
 1326 03d2 22D1     		bne	.L53
1207:Drivers/STM32F4xx_HAL_Driver/Src/stm32f4xx_hal_pcd.c ****     {
1208:Drivers/STM32F4xx_HAL_Driver/Src/stm32f4xx_hal_pcd.c ****       /* Clear the Remote Wake-up Signaling */
1209:Drivers/STM32F4xx_HAL_Driver/Src/stm32f4xx_hal_pcd.c ****       USBx_DEVICE->DCTL &= ~USB_OTG_DCTL_RWUSIG;
 1327              		.loc 1 1209 25
 1328 03d4 FB69     		ldr	r3, [r7, #28]
 1329 03d6 03F50063 		add	r3, r3, #2048
 1330 03da 5B68     		ldr	r3, [r3, #4]
 1331 03dc FA69     		ldr	r2, [r7, #28]
 1332 03de 02F50062 		add	r2, r2, #2048
 1333 03e2 23F00103 		bic	r3, r3, #1
 1334 03e6 5360     		str	r3, [r2, #4]
1210:Drivers/STM32F4xx_HAL_Driver/Src/stm32f4xx_hal_pcd.c **** 
1211:Drivers/STM32F4xx_HAL_Driver/Src/stm32f4xx_hal_pcd.c ****       if (hpcd->LPM_State == LPM_L1)
 1335              		.loc 1 1211 15
 1336 03e8 7B68     		ldr	r3, [r7, #4]
 1337 03ea 93F8F433 		ldrb	r3, [r3, #1012]	@ zero_extendqisi2
 1338              		.loc 1 1211 10
 1339 03ee 012B     		cmp	r3, #1
 1340 03f0 08D1     		bne	.L54
1212:Drivers/STM32F4xx_HAL_Driver/Src/stm32f4xx_hal_pcd.c ****       {
1213:Drivers/STM32F4xx_HAL_Driver/Src/stm32f4xx_hal_pcd.c ****         hpcd->LPM_State = LPM_L0;
 1341              		.loc 1 1213 25
 1342 03f2 7B68     		ldr	r3, [r7, #4]
 1343 03f4 0022     		movs	r2, #0
 1344 03f6 83F8F423 		strb	r2, [r3, #1012]
1214:Drivers/STM32F4xx_HAL_Driver/Src/stm32f4xx_hal_pcd.c **** 
1215:Drivers/STM32F4xx_HAL_Driver/Src/stm32f4xx_hal_pcd.c **** #if (USE_HAL_PCD_REGISTER_CALLBACKS == 1U)
1216:Drivers/STM32F4xx_HAL_Driver/Src/stm32f4xx_hal_pcd.c ****         hpcd->LPMCallback(hpcd, PCD_LPM_L0_ACTIVE);
1217:Drivers/STM32F4xx_HAL_Driver/Src/stm32f4xx_hal_pcd.c **** #else
1218:Drivers/STM32F4xx_HAL_Driver/Src/stm32f4xx_hal_pcd.c ****         HAL_PCDEx_LPM_Callback(hpcd, PCD_LPM_L0_ACTIVE);
ARM GAS  /tmp/ccsbOyJb.s 			page 46


 1345              		.loc 1 1218 9
 1346 03fa 0021     		movs	r1, #0
 1347 03fc 7868     		ldr	r0, [r7, #4]
 1348 03fe FFF7FEFF 		bl	HAL_PCDEx_LPM_Callback
 1349 0402 02E0     		b	.L55
 1350              	.L54:
1219:Drivers/STM32F4xx_HAL_Driver/Src/stm32f4xx_hal_pcd.c **** #endif /* USE_HAL_PCD_REGISTER_CALLBACKS */
1220:Drivers/STM32F4xx_HAL_Driver/Src/stm32f4xx_hal_pcd.c ****       }
1221:Drivers/STM32F4xx_HAL_Driver/Src/stm32f4xx_hal_pcd.c ****       else
1222:Drivers/STM32F4xx_HAL_Driver/Src/stm32f4xx_hal_pcd.c ****       {
1223:Drivers/STM32F4xx_HAL_Driver/Src/stm32f4xx_hal_pcd.c **** #if (USE_HAL_PCD_REGISTER_CALLBACKS == 1U)
1224:Drivers/STM32F4xx_HAL_Driver/Src/stm32f4xx_hal_pcd.c ****         hpcd->ResumeCallback(hpcd);
1225:Drivers/STM32F4xx_HAL_Driver/Src/stm32f4xx_hal_pcd.c **** #else
1226:Drivers/STM32F4xx_HAL_Driver/Src/stm32f4xx_hal_pcd.c ****         HAL_PCD_ResumeCallback(hpcd);
 1351              		.loc 1 1226 9
 1352 0404 7868     		ldr	r0, [r7, #4]
 1353 0406 FFF7FEFF 		bl	HAL_PCD_ResumeCallback
 1354              	.L55:
1227:Drivers/STM32F4xx_HAL_Driver/Src/stm32f4xx_hal_pcd.c **** #endif /* USE_HAL_PCD_REGISTER_CALLBACKS */
1228:Drivers/STM32F4xx_HAL_Driver/Src/stm32f4xx_hal_pcd.c ****       }
1229:Drivers/STM32F4xx_HAL_Driver/Src/stm32f4xx_hal_pcd.c **** 
1230:Drivers/STM32F4xx_HAL_Driver/Src/stm32f4xx_hal_pcd.c ****       __HAL_PCD_CLEAR_FLAG(hpcd, USB_OTG_GINTSTS_WKUINT);
 1355              		.loc 1 1230 7
 1356 040a 7B68     		ldr	r3, [r7, #4]
 1357 040c 1B68     		ldr	r3, [r3]
 1358 040e 5A69     		ldr	r2, [r3, #20]
 1359 0410 7B68     		ldr	r3, [r7, #4]
 1360 0412 1B68     		ldr	r3, [r3]
 1361 0414 02F00042 		and	r2, r2, #-2147483648
 1362 0418 5A61     		str	r2, [r3, #20]
 1363              	.L53:
1231:Drivers/STM32F4xx_HAL_Driver/Src/stm32f4xx_hal_pcd.c ****     }
1232:Drivers/STM32F4xx_HAL_Driver/Src/stm32f4xx_hal_pcd.c **** 
1233:Drivers/STM32F4xx_HAL_Driver/Src/stm32f4xx_hal_pcd.c ****     /* Handle Suspend Interrupt */
1234:Drivers/STM32F4xx_HAL_Driver/Src/stm32f4xx_hal_pcd.c ****     if (__HAL_PCD_GET_FLAG(hpcd, USB_OTG_GINTSTS_USBSUSP))
 1364              		.loc 1 1234 9
 1365 041a 7B68     		ldr	r3, [r7, #4]
 1366 041c 1B68     		ldr	r3, [r3]
 1367 041e 1846     		mov	r0, r3
 1368 0420 FFF7FEFF 		bl	USB_ReadInterrupts
 1369 0424 0346     		mov	r3, r0
 1370 0426 03F40063 		and	r3, r3, #2048
 1371              		.loc 1 1234 8
 1372 042a B3F5006F 		cmp	r3, #2048
 1373 042e 12D1     		bne	.L56
1235:Drivers/STM32F4xx_HAL_Driver/Src/stm32f4xx_hal_pcd.c ****     {
1236:Drivers/STM32F4xx_HAL_Driver/Src/stm32f4xx_hal_pcd.c ****       if ((USBx_DEVICE->DSTS & USB_OTG_DSTS_SUSPSTS) == USB_OTG_DSTS_SUSPSTS)
 1374              		.loc 1 1236 12
 1375 0430 FB69     		ldr	r3, [r7, #28]
 1376 0432 03F50063 		add	r3, r3, #2048
 1377              		.loc 1 1236 23
 1378 0436 9B68     		ldr	r3, [r3, #8]
 1379              		.loc 1 1236 30
 1380 0438 03F00103 		and	r3, r3, #1
 1381              		.loc 1 1236 10
 1382 043c 012B     		cmp	r3, #1
 1383 043e 02D1     		bne	.L57
ARM GAS  /tmp/ccsbOyJb.s 			page 47


1237:Drivers/STM32F4xx_HAL_Driver/Src/stm32f4xx_hal_pcd.c ****       {
1238:Drivers/STM32F4xx_HAL_Driver/Src/stm32f4xx_hal_pcd.c **** #if (USE_HAL_PCD_REGISTER_CALLBACKS == 1U)
1239:Drivers/STM32F4xx_HAL_Driver/Src/stm32f4xx_hal_pcd.c ****         hpcd->SuspendCallback(hpcd);
1240:Drivers/STM32F4xx_HAL_Driver/Src/stm32f4xx_hal_pcd.c **** #else
1241:Drivers/STM32F4xx_HAL_Driver/Src/stm32f4xx_hal_pcd.c ****         HAL_PCD_SuspendCallback(hpcd);
 1384              		.loc 1 1241 9
 1385 0440 7868     		ldr	r0, [r7, #4]
 1386 0442 FFF7FEFF 		bl	HAL_PCD_SuspendCallback
 1387              	.L57:
1242:Drivers/STM32F4xx_HAL_Driver/Src/stm32f4xx_hal_pcd.c **** #endif /* USE_HAL_PCD_REGISTER_CALLBACKS */
1243:Drivers/STM32F4xx_HAL_Driver/Src/stm32f4xx_hal_pcd.c ****       }
1244:Drivers/STM32F4xx_HAL_Driver/Src/stm32f4xx_hal_pcd.c ****       __HAL_PCD_CLEAR_FLAG(hpcd, USB_OTG_GINTSTS_USBSUSP);
 1388              		.loc 1 1244 7
 1389 0446 7B68     		ldr	r3, [r7, #4]
 1390 0448 1B68     		ldr	r3, [r3]
 1391 044a 5A69     		ldr	r2, [r3, #20]
 1392 044c 7B68     		ldr	r3, [r7, #4]
 1393 044e 1B68     		ldr	r3, [r3]
 1394 0450 02F40062 		and	r2, r2, #2048
 1395 0454 5A61     		str	r2, [r3, #20]
 1396              	.L56:
1245:Drivers/STM32F4xx_HAL_Driver/Src/stm32f4xx_hal_pcd.c ****     }
1246:Drivers/STM32F4xx_HAL_Driver/Src/stm32f4xx_hal_pcd.c ****     #if defined(STM32F446xx) || defined(STM32F469xx) || defined(STM32F479xx) || defined(STM32F412Zx
1247:Drivers/STM32F4xx_HAL_Driver/Src/stm32f4xx_hal_pcd.c ****     /* Handle LPM Interrupt */
1248:Drivers/STM32F4xx_HAL_Driver/Src/stm32f4xx_hal_pcd.c ****     if (__HAL_PCD_GET_FLAG(hpcd, USB_OTG_GINTSTS_LPMINT))
1249:Drivers/STM32F4xx_HAL_Driver/Src/stm32f4xx_hal_pcd.c ****     {
1250:Drivers/STM32F4xx_HAL_Driver/Src/stm32f4xx_hal_pcd.c ****       __HAL_PCD_CLEAR_FLAG(hpcd, USB_OTG_GINTSTS_LPMINT);
1251:Drivers/STM32F4xx_HAL_Driver/Src/stm32f4xx_hal_pcd.c **** 
1252:Drivers/STM32F4xx_HAL_Driver/Src/stm32f4xx_hal_pcd.c ****       if (hpcd->LPM_State == LPM_L0)
1253:Drivers/STM32F4xx_HAL_Driver/Src/stm32f4xx_hal_pcd.c ****       {
1254:Drivers/STM32F4xx_HAL_Driver/Src/stm32f4xx_hal_pcd.c ****         hpcd->LPM_State = LPM_L1;
1255:Drivers/STM32F4xx_HAL_Driver/Src/stm32f4xx_hal_pcd.c ****         hpcd->BESL = (hpcd->Instance->GLPMCFG & USB_OTG_GLPMCFG_BESL) >> 2U;
1256:Drivers/STM32F4xx_HAL_Driver/Src/stm32f4xx_hal_pcd.c **** 
1257:Drivers/STM32F4xx_HAL_Driver/Src/stm32f4xx_hal_pcd.c **** #if (USE_HAL_PCD_REGISTER_CALLBACKS == 1U)
1258:Drivers/STM32F4xx_HAL_Driver/Src/stm32f4xx_hal_pcd.c ****         hpcd->LPMCallback(hpcd, PCD_LPM_L1_ACTIVE);
1259:Drivers/STM32F4xx_HAL_Driver/Src/stm32f4xx_hal_pcd.c **** #else
1260:Drivers/STM32F4xx_HAL_Driver/Src/stm32f4xx_hal_pcd.c ****         HAL_PCDEx_LPM_Callback(hpcd, PCD_LPM_L1_ACTIVE);
1261:Drivers/STM32F4xx_HAL_Driver/Src/stm32f4xx_hal_pcd.c **** #endif /* USE_HAL_PCD_REGISTER_CALLBACKS */
1262:Drivers/STM32F4xx_HAL_Driver/Src/stm32f4xx_hal_pcd.c ****       }
1263:Drivers/STM32F4xx_HAL_Driver/Src/stm32f4xx_hal_pcd.c ****       else
1264:Drivers/STM32F4xx_HAL_Driver/Src/stm32f4xx_hal_pcd.c ****       {
1265:Drivers/STM32F4xx_HAL_Driver/Src/stm32f4xx_hal_pcd.c **** #if (USE_HAL_PCD_REGISTER_CALLBACKS == 1U)
1266:Drivers/STM32F4xx_HAL_Driver/Src/stm32f4xx_hal_pcd.c ****         hpcd->SuspendCallback(hpcd);
1267:Drivers/STM32F4xx_HAL_Driver/Src/stm32f4xx_hal_pcd.c **** #else
1268:Drivers/STM32F4xx_HAL_Driver/Src/stm32f4xx_hal_pcd.c ****         HAL_PCD_SuspendCallback(hpcd);
1269:Drivers/STM32F4xx_HAL_Driver/Src/stm32f4xx_hal_pcd.c **** #endif /* USE_HAL_PCD_REGISTER_CALLBACKS */
1270:Drivers/STM32F4xx_HAL_Driver/Src/stm32f4xx_hal_pcd.c ****       }
1271:Drivers/STM32F4xx_HAL_Driver/Src/stm32f4xx_hal_pcd.c ****     }
1272:Drivers/STM32F4xx_HAL_Driver/Src/stm32f4xx_hal_pcd.c ****     #endif /* defined(STM32F446xx) || defined(STM32F469xx) || defined(STM32F479xx) || defined(STM32
1273:Drivers/STM32F4xx_HAL_Driver/Src/stm32f4xx_hal_pcd.c ****     /* Handle Reset Interrupt */
1274:Drivers/STM32F4xx_HAL_Driver/Src/stm32f4xx_hal_pcd.c ****     if (__HAL_PCD_GET_FLAG(hpcd, USB_OTG_GINTSTS_USBRST))
 1397              		.loc 1 1274 9
 1398 0456 7B68     		ldr	r3, [r7, #4]
 1399 0458 1B68     		ldr	r3, [r3]
 1400 045a 1846     		mov	r0, r3
 1401 045c FFF7FEFF 		bl	USB_ReadInterrupts
 1402 0460 0346     		mov	r3, r0
ARM GAS  /tmp/ccsbOyJb.s 			page 48


 1403 0462 03F48053 		and	r3, r3, #4096
 1404              		.loc 1 1274 8
 1405 0466 B3F5805F 		cmp	r3, #4096
 1406 046a 40F0C780 		bne	.L58
1275:Drivers/STM32F4xx_HAL_Driver/Src/stm32f4xx_hal_pcd.c ****     {
1276:Drivers/STM32F4xx_HAL_Driver/Src/stm32f4xx_hal_pcd.c ****       USBx_DEVICE->DCTL &= ~USB_OTG_DCTL_RWUSIG;
 1407              		.loc 1 1276 25
 1408 046e FB69     		ldr	r3, [r7, #28]
 1409 0470 03F50063 		add	r3, r3, #2048
 1410 0474 5B68     		ldr	r3, [r3, #4]
 1411 0476 FA69     		ldr	r2, [r7, #28]
 1412 0478 02F50062 		add	r2, r2, #2048
 1413 047c 23F00103 		bic	r3, r3, #1
 1414 0480 5360     		str	r3, [r2, #4]
1277:Drivers/STM32F4xx_HAL_Driver/Src/stm32f4xx_hal_pcd.c ****       (void)USB_FlushTxFifo(hpcd->Instance, 0x10U);
 1415              		.loc 1 1277 33
 1416 0482 7B68     		ldr	r3, [r7, #4]
 1417 0484 1B68     		ldr	r3, [r3]
 1418              		.loc 1 1277 13
 1419 0486 1021     		movs	r1, #16
 1420 0488 1846     		mov	r0, r3
 1421 048a FFF7FEFF 		bl	USB_FlushTxFifo
1278:Drivers/STM32F4xx_HAL_Driver/Src/stm32f4xx_hal_pcd.c **** 
1279:Drivers/STM32F4xx_HAL_Driver/Src/stm32f4xx_hal_pcd.c ****       for (i = 0U; i < hpcd->Init.dev_endpoints; i++)
 1422              		.loc 1 1279 14
 1423 048e 0023     		movs	r3, #0
 1424 0490 FB62     		str	r3, [r7, #44]
 1425              		.loc 1 1279 7
 1426 0492 56E0     		b	.L59
 1427              	.L60:
1280:Drivers/STM32F4xx_HAL_Driver/Src/stm32f4xx_hal_pcd.c ****       {
1281:Drivers/STM32F4xx_HAL_Driver/Src/stm32f4xx_hal_pcd.c ****         USBx_INEP(i)->DIEPINT = 0xFB7FU;
 1428              		.loc 1 1281 9 discriminator 3
 1429 0494 FB6A     		ldr	r3, [r7, #44]
 1430 0496 5A01     		lsls	r2, r3, #5
 1431 0498 FB69     		ldr	r3, [r7, #28]
 1432 049a 1344     		add	r3, r3, r2
 1433 049c 03F51063 		add	r3, r3, #2304
 1434 04a0 1A46     		mov	r2, r3
 1435              		.loc 1 1281 31 discriminator 3
 1436 04a2 4FF67F33 		movw	r3, #64383
 1437 04a6 9360     		str	r3, [r2, #8]
1282:Drivers/STM32F4xx_HAL_Driver/Src/stm32f4xx_hal_pcd.c ****         USBx_INEP(i)->DIEPCTL &= ~USB_OTG_DIEPCTL_STALL;
 1438              		.loc 1 1282 31 discriminator 3
 1439 04a8 FB6A     		ldr	r3, [r7, #44]
 1440 04aa 5A01     		lsls	r2, r3, #5
 1441 04ac FB69     		ldr	r3, [r7, #28]
 1442 04ae 1344     		add	r3, r3, r2
 1443 04b0 03F51063 		add	r3, r3, #2304
 1444 04b4 1B68     		ldr	r3, [r3]
 1445 04b6 FA6A     		ldr	r2, [r7, #44]
 1446 04b8 5101     		lsls	r1, r2, #5
 1447 04ba FA69     		ldr	r2, [r7, #28]
 1448 04bc 0A44     		add	r2, r2, r1
 1449 04be 02F51062 		add	r2, r2, #2304
 1450 04c2 23F40013 		bic	r3, r3, #2097152
 1451 04c6 1360     		str	r3, [r2]
ARM GAS  /tmp/ccsbOyJb.s 			page 49


1283:Drivers/STM32F4xx_HAL_Driver/Src/stm32f4xx_hal_pcd.c ****         USBx_INEP(i)->DIEPCTL |= USB_OTG_DIEPCTL_SNAK;
 1452              		.loc 1 1283 31 discriminator 3
 1453 04c8 FB6A     		ldr	r3, [r7, #44]
 1454 04ca 5A01     		lsls	r2, r3, #5
 1455 04cc FB69     		ldr	r3, [r7, #28]
 1456 04ce 1344     		add	r3, r3, r2
 1457 04d0 03F51063 		add	r3, r3, #2304
 1458 04d4 1B68     		ldr	r3, [r3]
 1459 04d6 FA6A     		ldr	r2, [r7, #44]
 1460 04d8 5101     		lsls	r1, r2, #5
 1461 04da FA69     		ldr	r2, [r7, #28]
 1462 04dc 0A44     		add	r2, r2, r1
 1463 04de 02F51062 		add	r2, r2, #2304
 1464 04e2 43F00063 		orr	r3, r3, #134217728
 1465 04e6 1360     		str	r3, [r2]
1284:Drivers/STM32F4xx_HAL_Driver/Src/stm32f4xx_hal_pcd.c ****         USBx_OUTEP(i)->DOEPINT = 0xFB7FU;
 1466              		.loc 1 1284 9 discriminator 3
 1467 04e8 FB6A     		ldr	r3, [r7, #44]
 1468 04ea 5A01     		lsls	r2, r3, #5
 1469 04ec FB69     		ldr	r3, [r7, #28]
 1470 04ee 1344     		add	r3, r3, r2
 1471 04f0 03F53063 		add	r3, r3, #2816
 1472 04f4 1A46     		mov	r2, r3
 1473              		.loc 1 1284 32 discriminator 3
 1474 04f6 4FF67F33 		movw	r3, #64383
 1475 04fa 9360     		str	r3, [r2, #8]
1285:Drivers/STM32F4xx_HAL_Driver/Src/stm32f4xx_hal_pcd.c ****         USBx_OUTEP(i)->DOEPCTL &= ~USB_OTG_DOEPCTL_STALL;
 1476              		.loc 1 1285 32 discriminator 3
 1477 04fc FB6A     		ldr	r3, [r7, #44]
 1478 04fe 5A01     		lsls	r2, r3, #5
 1479 0500 FB69     		ldr	r3, [r7, #28]
 1480 0502 1344     		add	r3, r3, r2
 1481 0504 03F53063 		add	r3, r3, #2816
 1482 0508 1B68     		ldr	r3, [r3]
 1483 050a FA6A     		ldr	r2, [r7, #44]
 1484 050c 5101     		lsls	r1, r2, #5
 1485 050e FA69     		ldr	r2, [r7, #28]
 1486 0510 0A44     		add	r2, r2, r1
 1487 0512 02F53062 		add	r2, r2, #2816
 1488 0516 23F40013 		bic	r3, r3, #2097152
 1489 051a 1360     		str	r3, [r2]
1286:Drivers/STM32F4xx_HAL_Driver/Src/stm32f4xx_hal_pcd.c ****         USBx_OUTEP(i)->DOEPCTL |= USB_OTG_DOEPCTL_SNAK;
 1490              		.loc 1 1286 32 discriminator 3
 1491 051c FB6A     		ldr	r3, [r7, #44]
 1492 051e 5A01     		lsls	r2, r3, #5
 1493 0520 FB69     		ldr	r3, [r7, #28]
 1494 0522 1344     		add	r3, r3, r2
 1495 0524 03F53063 		add	r3, r3, #2816
 1496 0528 1B68     		ldr	r3, [r3]
 1497 052a FA6A     		ldr	r2, [r7, #44]
 1498 052c 5101     		lsls	r1, r2, #5
 1499 052e FA69     		ldr	r2, [r7, #28]
 1500 0530 0A44     		add	r2, r2, r1
 1501 0532 02F53062 		add	r2, r2, #2816
 1502 0536 43F00063 		orr	r3, r3, #134217728
 1503 053a 1360     		str	r3, [r2]
1279:Drivers/STM32F4xx_HAL_Driver/Src/stm32f4xx_hal_pcd.c ****       {
ARM GAS  /tmp/ccsbOyJb.s 			page 50


 1504              		.loc 1 1279 51 discriminator 3
 1505 053c FB6A     		ldr	r3, [r7, #44]
 1506 053e 0133     		adds	r3, r3, #1
 1507 0540 FB62     		str	r3, [r7, #44]
 1508              	.L59:
1279:Drivers/STM32F4xx_HAL_Driver/Src/stm32f4xx_hal_pcd.c ****       {
 1509              		.loc 1 1279 34 discriminator 1
 1510 0542 7B68     		ldr	r3, [r7, #4]
 1511 0544 5B68     		ldr	r3, [r3, #4]
1279:Drivers/STM32F4xx_HAL_Driver/Src/stm32f4xx_hal_pcd.c ****       {
 1512              		.loc 1 1279 7 discriminator 1
 1513 0546 FA6A     		ldr	r2, [r7, #44]
 1514 0548 9A42     		cmp	r2, r3
 1515 054a A3D3     		bcc	.L60
1287:Drivers/STM32F4xx_HAL_Driver/Src/stm32f4xx_hal_pcd.c ****       }
1288:Drivers/STM32F4xx_HAL_Driver/Src/stm32f4xx_hal_pcd.c ****       USBx_DEVICE->DAINTMSK |= 0x10001U;
 1516              		.loc 1 1288 29
 1517 054c FB69     		ldr	r3, [r7, #28]
 1518 054e 03F50063 		add	r3, r3, #2048
 1519 0552 DB69     		ldr	r3, [r3, #28]
 1520 0554 FA69     		ldr	r2, [r7, #28]
 1521 0556 02F50062 		add	r2, r2, #2048
 1522 055a 43F00113 		orr	r3, r3, #65537
 1523 055e D361     		str	r3, [r2, #28]
1289:Drivers/STM32F4xx_HAL_Driver/Src/stm32f4xx_hal_pcd.c **** 
1290:Drivers/STM32F4xx_HAL_Driver/Src/stm32f4xx_hal_pcd.c ****       if (hpcd->Init.use_dedicated_ep1 != 0U)
 1524              		.loc 1 1290 21
 1525 0560 7B68     		ldr	r3, [r7, #4]
 1526 0562 1B6B     		ldr	r3, [r3, #48]
 1527              		.loc 1 1290 10
 1528 0564 002B     		cmp	r3, #0
 1529 0566 16D0     		beq	.L61
1291:Drivers/STM32F4xx_HAL_Driver/Src/stm32f4xx_hal_pcd.c ****       {
1292:Drivers/STM32F4xx_HAL_Driver/Src/stm32f4xx_hal_pcd.c ****         USBx_DEVICE->DOUTEP1MSK |= USB_OTG_DOEPMSK_STUPM |
 1530              		.loc 1 1292 33
 1531 0568 FB69     		ldr	r3, [r7, #28]
 1532 056a 03F50063 		add	r3, r3, #2048
 1533 056e D3F88430 		ldr	r3, [r3, #132]
 1534 0572 FA69     		ldr	r2, [r7, #28]
 1535 0574 02F50062 		add	r2, r2, #2048
 1536 0578 43F00B03 		orr	r3, r3, #11
 1537 057c C2F88430 		str	r3, [r2, #132]
1293:Drivers/STM32F4xx_HAL_Driver/Src/stm32f4xx_hal_pcd.c ****                                    USB_OTG_DOEPMSK_XFRCM |
1294:Drivers/STM32F4xx_HAL_Driver/Src/stm32f4xx_hal_pcd.c ****                                    USB_OTG_DOEPMSK_EPDM;
1295:Drivers/STM32F4xx_HAL_Driver/Src/stm32f4xx_hal_pcd.c **** 
1296:Drivers/STM32F4xx_HAL_Driver/Src/stm32f4xx_hal_pcd.c ****         USBx_DEVICE->DINEP1MSK |= USB_OTG_DIEPMSK_TOM |
 1538              		.loc 1 1296 32
 1539 0580 FB69     		ldr	r3, [r7, #28]
 1540 0582 03F50063 		add	r3, r3, #2048
 1541 0586 5B6C     		ldr	r3, [r3, #68]
 1542 0588 FA69     		ldr	r2, [r7, #28]
 1543 058a 02F50062 		add	r2, r2, #2048
 1544 058e 43F00B03 		orr	r3, r3, #11
 1545 0592 5364     		str	r3, [r2, #68]
 1546 0594 15E0     		b	.L62
 1547              	.L61:
1297:Drivers/STM32F4xx_HAL_Driver/Src/stm32f4xx_hal_pcd.c ****                                   USB_OTG_DIEPMSK_XFRCM |
ARM GAS  /tmp/ccsbOyJb.s 			page 51


1298:Drivers/STM32F4xx_HAL_Driver/Src/stm32f4xx_hal_pcd.c ****                                   USB_OTG_DIEPMSK_EPDM;
1299:Drivers/STM32F4xx_HAL_Driver/Src/stm32f4xx_hal_pcd.c ****       }
1300:Drivers/STM32F4xx_HAL_Driver/Src/stm32f4xx_hal_pcd.c ****       else
1301:Drivers/STM32F4xx_HAL_Driver/Src/stm32f4xx_hal_pcd.c ****       {
1302:Drivers/STM32F4xx_HAL_Driver/Src/stm32f4xx_hal_pcd.c ****         USBx_DEVICE->DOEPMSK |= USB_OTG_DOEPMSK_STUPM |
 1548              		.loc 1 1302 30
 1549 0596 FB69     		ldr	r3, [r7, #28]
 1550 0598 03F50063 		add	r3, r3, #2048
 1551 059c 5B69     		ldr	r3, [r3, #20]
 1552 059e FA69     		ldr	r2, [r7, #28]
 1553 05a0 02F50062 		add	r2, r2, #2048
 1554 05a4 43F40053 		orr	r3, r3, #8192
 1555 05a8 43F02B03 		orr	r3, r3, #43
 1556 05ac 5361     		str	r3, [r2, #20]
1303:Drivers/STM32F4xx_HAL_Driver/Src/stm32f4xx_hal_pcd.c ****                                 USB_OTG_DOEPMSK_XFRCM |
1304:Drivers/STM32F4xx_HAL_Driver/Src/stm32f4xx_hal_pcd.c ****                                 USB_OTG_DOEPMSK_EPDM |
1305:Drivers/STM32F4xx_HAL_Driver/Src/stm32f4xx_hal_pcd.c ****                                 USB_OTG_DOEPMSK_OTEPSPRM |
1306:Drivers/STM32F4xx_HAL_Driver/Src/stm32f4xx_hal_pcd.c ****                                 USB_OTG_DOEPMSK_NAKM;
1307:Drivers/STM32F4xx_HAL_Driver/Src/stm32f4xx_hal_pcd.c **** 
1308:Drivers/STM32F4xx_HAL_Driver/Src/stm32f4xx_hal_pcd.c ****         USBx_DEVICE->DIEPMSK |= USB_OTG_DIEPMSK_TOM |
 1557              		.loc 1 1308 30
 1558 05ae FB69     		ldr	r3, [r7, #28]
 1559 05b0 03F50063 		add	r3, r3, #2048
 1560 05b4 1B69     		ldr	r3, [r3, #16]
 1561 05b6 FA69     		ldr	r2, [r7, #28]
 1562 05b8 02F50062 		add	r2, r2, #2048
 1563 05bc 43F00B03 		orr	r3, r3, #11
 1564 05c0 1361     		str	r3, [r2, #16]
 1565              	.L62:
1309:Drivers/STM32F4xx_HAL_Driver/Src/stm32f4xx_hal_pcd.c ****                                 USB_OTG_DIEPMSK_XFRCM |
1310:Drivers/STM32F4xx_HAL_Driver/Src/stm32f4xx_hal_pcd.c ****                                 USB_OTG_DIEPMSK_EPDM;
1311:Drivers/STM32F4xx_HAL_Driver/Src/stm32f4xx_hal_pcd.c ****       }
1312:Drivers/STM32F4xx_HAL_Driver/Src/stm32f4xx_hal_pcd.c **** 
1313:Drivers/STM32F4xx_HAL_Driver/Src/stm32f4xx_hal_pcd.c ****       /* Set Default Address to 0 */
1314:Drivers/STM32F4xx_HAL_Driver/Src/stm32f4xx_hal_pcd.c ****       USBx_DEVICE->DCFG &= ~USB_OTG_DCFG_DAD;
 1566              		.loc 1 1314 25
 1567 05c2 FB69     		ldr	r3, [r7, #28]
 1568 05c4 03F50063 		add	r3, r3, #2048
 1569 05c8 1B68     		ldr	r3, [r3]
 1570 05ca FA69     		ldr	r2, [r7, #28]
 1571 05cc 02F50062 		add	r2, r2, #2048
 1572 05d0 23F4FE63 		bic	r3, r3, #2032
 1573 05d4 1360     		str	r3, [r2]
1315:Drivers/STM32F4xx_HAL_Driver/Src/stm32f4xx_hal_pcd.c **** 
1316:Drivers/STM32F4xx_HAL_Driver/Src/stm32f4xx_hal_pcd.c ****       /* setup EP0 to receive SETUP packets */
1317:Drivers/STM32F4xx_HAL_Driver/Src/stm32f4xx_hal_pcd.c ****       (void)USB_EP0_OutStart(hpcd->Instance, (uint8_t)hpcd->Init.dma_enable,
 1574              		.loc 1 1317 34
 1575 05d6 7B68     		ldr	r3, [r7, #4]
 1576 05d8 1868     		ldr	r0, [r3]
 1577              		.loc 1 1317 65
 1578 05da 7B68     		ldr	r3, [r7, #4]
 1579 05dc 1B69     		ldr	r3, [r3, #16]
 1580              		.loc 1 1317 13
 1581 05de D9B2     		uxtb	r1, r3
1318:Drivers/STM32F4xx_HAL_Driver/Src/stm32f4xx_hal_pcd.c ****                              (uint8_t *)hpcd->Setup);
 1582              		.loc 1 1318 41
 1583 05e0 7B68     		ldr	r3, [r7, #4]
ARM GAS  /tmp/ccsbOyJb.s 			page 52


 1584 05e2 03F57173 		add	r3, r3, #964
1317:Drivers/STM32F4xx_HAL_Driver/Src/stm32f4xx_hal_pcd.c ****                              (uint8_t *)hpcd->Setup);
 1585              		.loc 1 1317 13
 1586 05e6 1A46     		mov	r2, r3
 1587 05e8 FFF7FEFF 		bl	USB_EP0_OutStart
1319:Drivers/STM32F4xx_HAL_Driver/Src/stm32f4xx_hal_pcd.c **** 
1320:Drivers/STM32F4xx_HAL_Driver/Src/stm32f4xx_hal_pcd.c ****       __HAL_PCD_CLEAR_FLAG(hpcd, USB_OTG_GINTSTS_USBRST);
 1588              		.loc 1 1320 7
 1589 05ec 7B68     		ldr	r3, [r7, #4]
 1590 05ee 1B68     		ldr	r3, [r3]
 1591 05f0 5A69     		ldr	r2, [r3, #20]
 1592 05f2 7B68     		ldr	r3, [r7, #4]
 1593 05f4 1B68     		ldr	r3, [r3]
 1594 05f6 02F48052 		and	r2, r2, #4096
 1595 05fa 5A61     		str	r2, [r3, #20]
 1596              	.L58:
1321:Drivers/STM32F4xx_HAL_Driver/Src/stm32f4xx_hal_pcd.c ****     }
1322:Drivers/STM32F4xx_HAL_Driver/Src/stm32f4xx_hal_pcd.c **** 
1323:Drivers/STM32F4xx_HAL_Driver/Src/stm32f4xx_hal_pcd.c ****     /* Handle Enumeration done Interrupt */
1324:Drivers/STM32F4xx_HAL_Driver/Src/stm32f4xx_hal_pcd.c ****     if (__HAL_PCD_GET_FLAG(hpcd, USB_OTG_GINTSTS_ENUMDNE))
 1597              		.loc 1 1324 9
 1598 05fc 7B68     		ldr	r3, [r7, #4]
 1599 05fe 1B68     		ldr	r3, [r3]
 1600 0600 1846     		mov	r0, r3
 1601 0602 FFF7FEFF 		bl	USB_ReadInterrupts
 1602 0606 0346     		mov	r3, r0
 1603 0608 03F40053 		and	r3, r3, #8192
 1604              		.loc 1 1324 8
 1605 060c B3F5005F 		cmp	r3, #8192
 1606 0610 24D1     		bne	.L63
1325:Drivers/STM32F4xx_HAL_Driver/Src/stm32f4xx_hal_pcd.c ****     {
1326:Drivers/STM32F4xx_HAL_Driver/Src/stm32f4xx_hal_pcd.c ****       (void)USB_ActivateSetup(hpcd->Instance);
 1607              		.loc 1 1326 35
 1608 0612 7B68     		ldr	r3, [r7, #4]
 1609 0614 1B68     		ldr	r3, [r3]
 1610              		.loc 1 1326 13
 1611 0616 1846     		mov	r0, r3
 1612 0618 FFF7FEFF 		bl	USB_ActivateSetup
1327:Drivers/STM32F4xx_HAL_Driver/Src/stm32f4xx_hal_pcd.c ****       hpcd->Init.speed = USB_GetDevSpeed(hpcd->Instance);
 1613              		.loc 1 1327 46
 1614 061c 7B68     		ldr	r3, [r7, #4]
 1615 061e 1B68     		ldr	r3, [r3]
 1616              		.loc 1 1327 26
 1617 0620 1846     		mov	r0, r3
 1618 0622 FFF7FEFF 		bl	USB_GetDevSpeed
 1619 0626 0346     		mov	r3, r0
 1620 0628 1A46     		mov	r2, r3
 1621              		.loc 1 1327 24
 1622 062a 7B68     		ldr	r3, [r7, #4]
 1623 062c DA60     		str	r2, [r3, #12]
1328:Drivers/STM32F4xx_HAL_Driver/Src/stm32f4xx_hal_pcd.c **** 
1329:Drivers/STM32F4xx_HAL_Driver/Src/stm32f4xx_hal_pcd.c ****       /* Set USB Turnaround time */
1330:Drivers/STM32F4xx_HAL_Driver/Src/stm32f4xx_hal_pcd.c ****       (void)USB_SetTurnaroundTime(hpcd->Instance,
 1624              		.loc 1 1330 39
 1625 062e 7B68     		ldr	r3, [r7, #4]
 1626 0630 1C68     		ldr	r4, [r3]
 1627              		.loc 1 1330 13
ARM GAS  /tmp/ccsbOyJb.s 			page 53


 1628 0632 FFF7FEFF 		bl	HAL_RCC_GetHCLKFreq
 1629 0636 0146     		mov	r1, r0
1331:Drivers/STM32F4xx_HAL_Driver/Src/stm32f4xx_hal_pcd.c ****                                   HAL_RCC_GetHCLKFreq(),
1332:Drivers/STM32F4xx_HAL_Driver/Src/stm32f4xx_hal_pcd.c ****                                   (uint8_t)hpcd->Init.speed);
 1630              		.loc 1 1332 54
 1631 0638 7B68     		ldr	r3, [r7, #4]
 1632 063a DB68     		ldr	r3, [r3, #12]
1330:Drivers/STM32F4xx_HAL_Driver/Src/stm32f4xx_hal_pcd.c ****                                   HAL_RCC_GetHCLKFreq(),
 1633              		.loc 1 1330 13
 1634 063c DBB2     		uxtb	r3, r3
 1635 063e 1A46     		mov	r2, r3
 1636 0640 2046     		mov	r0, r4
 1637 0642 FFF7FEFF 		bl	USB_SetTurnaroundTime
1333:Drivers/STM32F4xx_HAL_Driver/Src/stm32f4xx_hal_pcd.c **** 
1334:Drivers/STM32F4xx_HAL_Driver/Src/stm32f4xx_hal_pcd.c **** #if (USE_HAL_PCD_REGISTER_CALLBACKS == 1U)
1335:Drivers/STM32F4xx_HAL_Driver/Src/stm32f4xx_hal_pcd.c ****       hpcd->ResetCallback(hpcd);
1336:Drivers/STM32F4xx_HAL_Driver/Src/stm32f4xx_hal_pcd.c **** #else
1337:Drivers/STM32F4xx_HAL_Driver/Src/stm32f4xx_hal_pcd.c ****       HAL_PCD_ResetCallback(hpcd);
 1638              		.loc 1 1337 7
 1639 0646 7868     		ldr	r0, [r7, #4]
 1640 0648 FFF7FEFF 		bl	HAL_PCD_ResetCallback
1338:Drivers/STM32F4xx_HAL_Driver/Src/stm32f4xx_hal_pcd.c **** #endif /* USE_HAL_PCD_REGISTER_CALLBACKS */
1339:Drivers/STM32F4xx_HAL_Driver/Src/stm32f4xx_hal_pcd.c **** 
1340:Drivers/STM32F4xx_HAL_Driver/Src/stm32f4xx_hal_pcd.c ****       __HAL_PCD_CLEAR_FLAG(hpcd, USB_OTG_GINTSTS_ENUMDNE);
 1641              		.loc 1 1340 7
 1642 064c 7B68     		ldr	r3, [r7, #4]
 1643 064e 1B68     		ldr	r3, [r3]
 1644 0650 5A69     		ldr	r2, [r3, #20]
 1645 0652 7B68     		ldr	r3, [r7, #4]
 1646 0654 1B68     		ldr	r3, [r3]
 1647 0656 02F40052 		and	r2, r2, #8192
 1648 065a 5A61     		str	r2, [r3, #20]
 1649              	.L63:
1341:Drivers/STM32F4xx_HAL_Driver/Src/stm32f4xx_hal_pcd.c ****     }
1342:Drivers/STM32F4xx_HAL_Driver/Src/stm32f4xx_hal_pcd.c **** 
1343:Drivers/STM32F4xx_HAL_Driver/Src/stm32f4xx_hal_pcd.c ****     /* Handle SOF Interrupt */
1344:Drivers/STM32F4xx_HAL_Driver/Src/stm32f4xx_hal_pcd.c ****     if (__HAL_PCD_GET_FLAG(hpcd, USB_OTG_GINTSTS_SOF))
 1650              		.loc 1 1344 9
 1651 065c 7B68     		ldr	r3, [r7, #4]
 1652 065e 1B68     		ldr	r3, [r3]
 1653 0660 1846     		mov	r0, r3
 1654 0662 FFF7FEFF 		bl	USB_ReadInterrupts
 1655 0666 0346     		mov	r3, r0
 1656 0668 03F00803 		and	r3, r3, #8
 1657              		.loc 1 1344 8
 1658 066c 082B     		cmp	r3, #8
 1659 066e 0AD1     		bne	.L64
1345:Drivers/STM32F4xx_HAL_Driver/Src/stm32f4xx_hal_pcd.c ****     {
1346:Drivers/STM32F4xx_HAL_Driver/Src/stm32f4xx_hal_pcd.c **** #if (USE_HAL_PCD_REGISTER_CALLBACKS == 1U)
1347:Drivers/STM32F4xx_HAL_Driver/Src/stm32f4xx_hal_pcd.c ****       hpcd->SOFCallback(hpcd);
1348:Drivers/STM32F4xx_HAL_Driver/Src/stm32f4xx_hal_pcd.c **** #else
1349:Drivers/STM32F4xx_HAL_Driver/Src/stm32f4xx_hal_pcd.c ****       HAL_PCD_SOFCallback(hpcd);
 1660              		.loc 1 1349 7
 1661 0670 7868     		ldr	r0, [r7, #4]
 1662 0672 FFF7FEFF 		bl	HAL_PCD_SOFCallback
1350:Drivers/STM32F4xx_HAL_Driver/Src/stm32f4xx_hal_pcd.c **** #endif /* USE_HAL_PCD_REGISTER_CALLBACKS */
1351:Drivers/STM32F4xx_HAL_Driver/Src/stm32f4xx_hal_pcd.c **** 
ARM GAS  /tmp/ccsbOyJb.s 			page 54


1352:Drivers/STM32F4xx_HAL_Driver/Src/stm32f4xx_hal_pcd.c ****       __HAL_PCD_CLEAR_FLAG(hpcd, USB_OTG_GINTSTS_SOF);
 1663              		.loc 1 1352 7
 1664 0676 7B68     		ldr	r3, [r7, #4]
 1665 0678 1B68     		ldr	r3, [r3]
 1666 067a 5A69     		ldr	r2, [r3, #20]
 1667 067c 7B68     		ldr	r3, [r7, #4]
 1668 067e 1B68     		ldr	r3, [r3]
 1669 0680 02F00802 		and	r2, r2, #8
 1670 0684 5A61     		str	r2, [r3, #20]
 1671              	.L64:
1353:Drivers/STM32F4xx_HAL_Driver/Src/stm32f4xx_hal_pcd.c ****     }
1354:Drivers/STM32F4xx_HAL_Driver/Src/stm32f4xx_hal_pcd.c **** 
1355:Drivers/STM32F4xx_HAL_Driver/Src/stm32f4xx_hal_pcd.c ****     /* Handle Incomplete ISO IN Interrupt */
1356:Drivers/STM32F4xx_HAL_Driver/Src/stm32f4xx_hal_pcd.c ****     if (__HAL_PCD_GET_FLAG(hpcd, USB_OTG_GINTSTS_IISOIXFR))
 1672              		.loc 1 1356 9
 1673 0686 7B68     		ldr	r3, [r7, #4]
 1674 0688 1B68     		ldr	r3, [r3]
 1675 068a 1846     		mov	r0, r3
 1676 068c FFF7FEFF 		bl	USB_ReadInterrupts
 1677 0690 0346     		mov	r3, r0
 1678 0692 03F48013 		and	r3, r3, #1048576
 1679              		.loc 1 1356 8
 1680 0696 B3F5801F 		cmp	r3, #1048576
 1681 069a 0FD1     		bne	.L65
1357:Drivers/STM32F4xx_HAL_Driver/Src/stm32f4xx_hal_pcd.c ****     {
1358:Drivers/STM32F4xx_HAL_Driver/Src/stm32f4xx_hal_pcd.c ****       /* Keep application checking the corresponding Iso IN endpoint
1359:Drivers/STM32F4xx_HAL_Driver/Src/stm32f4xx_hal_pcd.c ****       causing the incomplete Interrupt */
1360:Drivers/STM32F4xx_HAL_Driver/Src/stm32f4xx_hal_pcd.c ****       epnum = 0U;
 1682              		.loc 1 1360 13
 1683 069c 0023     		movs	r3, #0
 1684 069e 7B62     		str	r3, [r7, #36]
1361:Drivers/STM32F4xx_HAL_Driver/Src/stm32f4xx_hal_pcd.c **** 
1362:Drivers/STM32F4xx_HAL_Driver/Src/stm32f4xx_hal_pcd.c **** #if (USE_HAL_PCD_REGISTER_CALLBACKS == 1U)
1363:Drivers/STM32F4xx_HAL_Driver/Src/stm32f4xx_hal_pcd.c ****       hpcd->ISOINIncompleteCallback(hpcd, (uint8_t)epnum);
1364:Drivers/STM32F4xx_HAL_Driver/Src/stm32f4xx_hal_pcd.c **** #else
1365:Drivers/STM32F4xx_HAL_Driver/Src/stm32f4xx_hal_pcd.c ****       HAL_PCD_ISOINIncompleteCallback(hpcd, (uint8_t)epnum);
 1685              		.loc 1 1365 7
 1686 06a0 7B6A     		ldr	r3, [r7, #36]
 1687 06a2 DBB2     		uxtb	r3, r3
 1688 06a4 1946     		mov	r1, r3
 1689 06a6 7868     		ldr	r0, [r7, #4]
 1690 06a8 FFF7FEFF 		bl	HAL_PCD_ISOINIncompleteCallback
1366:Drivers/STM32F4xx_HAL_Driver/Src/stm32f4xx_hal_pcd.c **** #endif /* USE_HAL_PCD_REGISTER_CALLBACKS */
1367:Drivers/STM32F4xx_HAL_Driver/Src/stm32f4xx_hal_pcd.c **** 
1368:Drivers/STM32F4xx_HAL_Driver/Src/stm32f4xx_hal_pcd.c ****       __HAL_PCD_CLEAR_FLAG(hpcd, USB_OTG_GINTSTS_IISOIXFR);
 1691              		.loc 1 1368 7
 1692 06ac 7B68     		ldr	r3, [r7, #4]
 1693 06ae 1B68     		ldr	r3, [r3]
 1694 06b0 5A69     		ldr	r2, [r3, #20]
 1695 06b2 7B68     		ldr	r3, [r7, #4]
 1696 06b4 1B68     		ldr	r3, [r3]
 1697 06b6 02F48012 		and	r2, r2, #1048576
 1698 06ba 5A61     		str	r2, [r3, #20]
 1699              	.L65:
1369:Drivers/STM32F4xx_HAL_Driver/Src/stm32f4xx_hal_pcd.c ****     }
1370:Drivers/STM32F4xx_HAL_Driver/Src/stm32f4xx_hal_pcd.c **** 
1371:Drivers/STM32F4xx_HAL_Driver/Src/stm32f4xx_hal_pcd.c ****     /* Handle Incomplete ISO OUT Interrupt */
ARM GAS  /tmp/ccsbOyJb.s 			page 55


1372:Drivers/STM32F4xx_HAL_Driver/Src/stm32f4xx_hal_pcd.c ****     if (__HAL_PCD_GET_FLAG(hpcd, USB_OTG_GINTSTS_PXFR_INCOMPISOOUT))
 1700              		.loc 1 1372 9
 1701 06bc 7B68     		ldr	r3, [r7, #4]
 1702 06be 1B68     		ldr	r3, [r3]
 1703 06c0 1846     		mov	r0, r3
 1704 06c2 FFF7FEFF 		bl	USB_ReadInterrupts
 1705 06c6 0346     		mov	r3, r0
 1706 06c8 03F40013 		and	r3, r3, #2097152
 1707              		.loc 1 1372 8
 1708 06cc B3F5001F 		cmp	r3, #2097152
 1709 06d0 0FD1     		bne	.L66
1373:Drivers/STM32F4xx_HAL_Driver/Src/stm32f4xx_hal_pcd.c ****     {
1374:Drivers/STM32F4xx_HAL_Driver/Src/stm32f4xx_hal_pcd.c ****       /* Keep application checking the corresponding Iso OUT endpoint
1375:Drivers/STM32F4xx_HAL_Driver/Src/stm32f4xx_hal_pcd.c ****       causing the incomplete Interrupt */
1376:Drivers/STM32F4xx_HAL_Driver/Src/stm32f4xx_hal_pcd.c ****       epnum = 0U;
 1710              		.loc 1 1376 13
 1711 06d2 0023     		movs	r3, #0
 1712 06d4 7B62     		str	r3, [r7, #36]
1377:Drivers/STM32F4xx_HAL_Driver/Src/stm32f4xx_hal_pcd.c **** 
1378:Drivers/STM32F4xx_HAL_Driver/Src/stm32f4xx_hal_pcd.c **** #if (USE_HAL_PCD_REGISTER_CALLBACKS == 1U)
1379:Drivers/STM32F4xx_HAL_Driver/Src/stm32f4xx_hal_pcd.c ****       hpcd->ISOOUTIncompleteCallback(hpcd, (uint8_t)epnum);
1380:Drivers/STM32F4xx_HAL_Driver/Src/stm32f4xx_hal_pcd.c **** #else
1381:Drivers/STM32F4xx_HAL_Driver/Src/stm32f4xx_hal_pcd.c ****       HAL_PCD_ISOOUTIncompleteCallback(hpcd, (uint8_t)epnum);
 1713              		.loc 1 1381 7
 1714 06d6 7B6A     		ldr	r3, [r7, #36]
 1715 06d8 DBB2     		uxtb	r3, r3
 1716 06da 1946     		mov	r1, r3
 1717 06dc 7868     		ldr	r0, [r7, #4]
 1718 06de FFF7FEFF 		bl	HAL_PCD_ISOOUTIncompleteCallback
1382:Drivers/STM32F4xx_HAL_Driver/Src/stm32f4xx_hal_pcd.c **** #endif /* USE_HAL_PCD_REGISTER_CALLBACKS */
1383:Drivers/STM32F4xx_HAL_Driver/Src/stm32f4xx_hal_pcd.c **** 
1384:Drivers/STM32F4xx_HAL_Driver/Src/stm32f4xx_hal_pcd.c ****       __HAL_PCD_CLEAR_FLAG(hpcd, USB_OTG_GINTSTS_PXFR_INCOMPISOOUT);
 1719              		.loc 1 1384 7
 1720 06e2 7B68     		ldr	r3, [r7, #4]
 1721 06e4 1B68     		ldr	r3, [r3]
 1722 06e6 5A69     		ldr	r2, [r3, #20]
 1723 06e8 7B68     		ldr	r3, [r7, #4]
 1724 06ea 1B68     		ldr	r3, [r3]
 1725 06ec 02F40012 		and	r2, r2, #2097152
 1726 06f0 5A61     		str	r2, [r3, #20]
 1727              	.L66:
1385:Drivers/STM32F4xx_HAL_Driver/Src/stm32f4xx_hal_pcd.c ****     }
1386:Drivers/STM32F4xx_HAL_Driver/Src/stm32f4xx_hal_pcd.c **** 
1387:Drivers/STM32F4xx_HAL_Driver/Src/stm32f4xx_hal_pcd.c ****     /* Handle Connection event Interrupt */
1388:Drivers/STM32F4xx_HAL_Driver/Src/stm32f4xx_hal_pcd.c ****     if (__HAL_PCD_GET_FLAG(hpcd, USB_OTG_GINTSTS_SRQINT))
 1728              		.loc 1 1388 9
 1729 06f2 7B68     		ldr	r3, [r7, #4]
 1730 06f4 1B68     		ldr	r3, [r3]
 1731 06f6 1846     		mov	r0, r3
 1732 06f8 FFF7FEFF 		bl	USB_ReadInterrupts
 1733 06fc 0346     		mov	r3, r0
 1734 06fe 03F08043 		and	r3, r3, #1073741824
 1735              		.loc 1 1388 8
 1736 0702 B3F1804F 		cmp	r3, #1073741824
 1737 0706 0AD1     		bne	.L67
1389:Drivers/STM32F4xx_HAL_Driver/Src/stm32f4xx_hal_pcd.c ****     {
1390:Drivers/STM32F4xx_HAL_Driver/Src/stm32f4xx_hal_pcd.c **** #if (USE_HAL_PCD_REGISTER_CALLBACKS == 1U)
ARM GAS  /tmp/ccsbOyJb.s 			page 56


1391:Drivers/STM32F4xx_HAL_Driver/Src/stm32f4xx_hal_pcd.c ****       hpcd->ConnectCallback(hpcd);
1392:Drivers/STM32F4xx_HAL_Driver/Src/stm32f4xx_hal_pcd.c **** #else
1393:Drivers/STM32F4xx_HAL_Driver/Src/stm32f4xx_hal_pcd.c ****       HAL_PCD_ConnectCallback(hpcd);
 1738              		.loc 1 1393 7
 1739 0708 7868     		ldr	r0, [r7, #4]
 1740 070a FFF7FEFF 		bl	HAL_PCD_ConnectCallback
1394:Drivers/STM32F4xx_HAL_Driver/Src/stm32f4xx_hal_pcd.c **** #endif /* USE_HAL_PCD_REGISTER_CALLBACKS */
1395:Drivers/STM32F4xx_HAL_Driver/Src/stm32f4xx_hal_pcd.c **** 
1396:Drivers/STM32F4xx_HAL_Driver/Src/stm32f4xx_hal_pcd.c ****       __HAL_PCD_CLEAR_FLAG(hpcd, USB_OTG_GINTSTS_SRQINT);
 1741              		.loc 1 1396 7
 1742 070e 7B68     		ldr	r3, [r7, #4]
 1743 0710 1B68     		ldr	r3, [r3]
 1744 0712 5A69     		ldr	r2, [r3, #20]
 1745 0714 7B68     		ldr	r3, [r7, #4]
 1746 0716 1B68     		ldr	r3, [r3]
 1747 0718 02F08042 		and	r2, r2, #1073741824
 1748 071c 5A61     		str	r2, [r3, #20]
 1749              	.L67:
1397:Drivers/STM32F4xx_HAL_Driver/Src/stm32f4xx_hal_pcd.c ****     }
1398:Drivers/STM32F4xx_HAL_Driver/Src/stm32f4xx_hal_pcd.c **** 
1399:Drivers/STM32F4xx_HAL_Driver/Src/stm32f4xx_hal_pcd.c ****     /* Handle Disconnection event Interrupt */
1400:Drivers/STM32F4xx_HAL_Driver/Src/stm32f4xx_hal_pcd.c ****     if (__HAL_PCD_GET_FLAG(hpcd, USB_OTG_GINTSTS_OTGINT))
 1750              		.loc 1 1400 9
 1751 071e 7B68     		ldr	r3, [r7, #4]
 1752 0720 1B68     		ldr	r3, [r3]
 1753 0722 1846     		mov	r0, r3
 1754 0724 FFF7FEFF 		bl	USB_ReadInterrupts
 1755 0728 0346     		mov	r3, r0
 1756 072a 03F00403 		and	r3, r3, #4
 1757              		.loc 1 1400 8
 1758 072e 042B     		cmp	r3, #4
 1759 0730 15D1     		bne	.L28
1401:Drivers/STM32F4xx_HAL_Driver/Src/stm32f4xx_hal_pcd.c ****     {
1402:Drivers/STM32F4xx_HAL_Driver/Src/stm32f4xx_hal_pcd.c ****       temp = hpcd->Instance->GOTGINT;
 1760              		.loc 1 1402 18
 1761 0732 7B68     		ldr	r3, [r7, #4]
 1762 0734 1B68     		ldr	r3, [r3]
 1763              		.loc 1 1402 12
 1764 0736 5B68     		ldr	r3, [r3, #4]
 1765 0738 BB61     		str	r3, [r7, #24]
1403:Drivers/STM32F4xx_HAL_Driver/Src/stm32f4xx_hal_pcd.c **** 
1404:Drivers/STM32F4xx_HAL_Driver/Src/stm32f4xx_hal_pcd.c ****       if ((temp & USB_OTG_GOTGINT_SEDET) == USB_OTG_GOTGINT_SEDET)
 1766              		.loc 1 1404 17
 1767 073a BB69     		ldr	r3, [r7, #24]
 1768 073c 03F00403 		and	r3, r3, #4
 1769              		.loc 1 1404 10
 1770 0740 002B     		cmp	r3, #0
 1771 0742 02D0     		beq	.L68
1405:Drivers/STM32F4xx_HAL_Driver/Src/stm32f4xx_hal_pcd.c ****       {
1406:Drivers/STM32F4xx_HAL_Driver/Src/stm32f4xx_hal_pcd.c **** #if (USE_HAL_PCD_REGISTER_CALLBACKS == 1U)
1407:Drivers/STM32F4xx_HAL_Driver/Src/stm32f4xx_hal_pcd.c ****         hpcd->DisconnectCallback(hpcd);
1408:Drivers/STM32F4xx_HAL_Driver/Src/stm32f4xx_hal_pcd.c **** #else
1409:Drivers/STM32F4xx_HAL_Driver/Src/stm32f4xx_hal_pcd.c ****         HAL_PCD_DisconnectCallback(hpcd);
 1772              		.loc 1 1409 9
 1773 0744 7868     		ldr	r0, [r7, #4]
 1774 0746 FFF7FEFF 		bl	HAL_PCD_DisconnectCallback
 1775              	.L68:
ARM GAS  /tmp/ccsbOyJb.s 			page 57


1410:Drivers/STM32F4xx_HAL_Driver/Src/stm32f4xx_hal_pcd.c **** #endif /* USE_HAL_PCD_REGISTER_CALLBACKS */
1411:Drivers/STM32F4xx_HAL_Driver/Src/stm32f4xx_hal_pcd.c ****       }
1412:Drivers/STM32F4xx_HAL_Driver/Src/stm32f4xx_hal_pcd.c ****       hpcd->Instance->GOTGINT |= temp;
 1776              		.loc 1 1412 11
 1777 074a 7B68     		ldr	r3, [r7, #4]
 1778 074c 1B68     		ldr	r3, [r3]
 1779              		.loc 1 1412 31
 1780 074e 5968     		ldr	r1, [r3, #4]
 1781              		.loc 1 1412 11
 1782 0750 7B68     		ldr	r3, [r7, #4]
 1783 0752 1B68     		ldr	r3, [r3]
 1784              		.loc 1 1412 31
 1785 0754 BA69     		ldr	r2, [r7, #24]
 1786 0756 0A43     		orrs	r2, r2, r1
 1787 0758 5A60     		str	r2, [r3, #4]
 1788 075a 00E0     		b	.L28
 1789              	.L69:
1052:Drivers/STM32F4xx_HAL_Driver/Src/stm32f4xx_hal_pcd.c ****     }
 1790              		.loc 1 1052 7
 1791 075c 00BF     		nop
 1792              	.L28:
1413:Drivers/STM32F4xx_HAL_Driver/Src/stm32f4xx_hal_pcd.c ****     }
1414:Drivers/STM32F4xx_HAL_Driver/Src/stm32f4xx_hal_pcd.c ****   }
1415:Drivers/STM32F4xx_HAL_Driver/Src/stm32f4xx_hal_pcd.c **** }
 1793              		.loc 1 1415 1
 1794 075e 3437     		adds	r7, r7, #52
 1795              	.LCFI35:
 1796              		.cfi_def_cfa_offset 12
 1797 0760 BD46     		mov	sp, r7
 1798              	.LCFI36:
 1799              		.cfi_def_cfa_register 13
 1800              		@ sp needed
 1801 0762 90BD     		pop	{r4, r7, pc}
 1802              		.cfi_endproc
 1803              	.LFE136:
 1805              		.section	.text.HAL_PCD_DataOutStageCallback,"ax",%progbits
 1806              		.align	1
 1807              		.weak	HAL_PCD_DataOutStageCallback
 1808              		.syntax unified
 1809              		.thumb
 1810              		.thumb_func
 1811              		.fpu fpv4-sp-d16
 1813              	HAL_PCD_DataOutStageCallback:
 1814              	.LFB137:
1416:Drivers/STM32F4xx_HAL_Driver/Src/stm32f4xx_hal_pcd.c **** #endif /* defined (USB_OTG_FS) || defined (USB_OTG_HS) */
1417:Drivers/STM32F4xx_HAL_Driver/Src/stm32f4xx_hal_pcd.c **** 
1418:Drivers/STM32F4xx_HAL_Driver/Src/stm32f4xx_hal_pcd.c **** 
1419:Drivers/STM32F4xx_HAL_Driver/Src/stm32f4xx_hal_pcd.c **** /**
1420:Drivers/STM32F4xx_HAL_Driver/Src/stm32f4xx_hal_pcd.c ****   * @brief  Data OUT stage callback.
1421:Drivers/STM32F4xx_HAL_Driver/Src/stm32f4xx_hal_pcd.c ****   * @param  hpcd PCD handle
1422:Drivers/STM32F4xx_HAL_Driver/Src/stm32f4xx_hal_pcd.c ****   * @param  epnum endpoint number
1423:Drivers/STM32F4xx_HAL_Driver/Src/stm32f4xx_hal_pcd.c ****   * @retval None
1424:Drivers/STM32F4xx_HAL_Driver/Src/stm32f4xx_hal_pcd.c ****   */
1425:Drivers/STM32F4xx_HAL_Driver/Src/stm32f4xx_hal_pcd.c **** __weak void HAL_PCD_DataOutStageCallback(PCD_HandleTypeDef *hpcd, uint8_t epnum)
1426:Drivers/STM32F4xx_HAL_Driver/Src/stm32f4xx_hal_pcd.c **** {
 1815              		.loc 1 1426 1
 1816              		.cfi_startproc
ARM GAS  /tmp/ccsbOyJb.s 			page 58


 1817              		@ args = 0, pretend = 0, frame = 8
 1818              		@ frame_needed = 1, uses_anonymous_args = 0
 1819              		@ link register save eliminated.
 1820 0000 80B4     		push	{r7}
 1821              	.LCFI37:
 1822              		.cfi_def_cfa_offset 4
 1823              		.cfi_offset 7, -4
 1824 0002 83B0     		sub	sp, sp, #12
 1825              	.LCFI38:
 1826              		.cfi_def_cfa_offset 16
 1827 0004 00AF     		add	r7, sp, #0
 1828              	.LCFI39:
 1829              		.cfi_def_cfa_register 7
 1830 0006 7860     		str	r0, [r7, #4]
 1831 0008 0B46     		mov	r3, r1
 1832 000a FB70     		strb	r3, [r7, #3]
1427:Drivers/STM32F4xx_HAL_Driver/Src/stm32f4xx_hal_pcd.c ****   /* Prevent unused argument(s) compilation warning */
1428:Drivers/STM32F4xx_HAL_Driver/Src/stm32f4xx_hal_pcd.c ****   UNUSED(hpcd);
1429:Drivers/STM32F4xx_HAL_Driver/Src/stm32f4xx_hal_pcd.c ****   UNUSED(epnum);
1430:Drivers/STM32F4xx_HAL_Driver/Src/stm32f4xx_hal_pcd.c **** 
1431:Drivers/STM32F4xx_HAL_Driver/Src/stm32f4xx_hal_pcd.c ****   /* NOTE : This function should not be modified, when the callback is needed,
1432:Drivers/STM32F4xx_HAL_Driver/Src/stm32f4xx_hal_pcd.c ****             the HAL_PCD_DataOutStageCallback could be implemented in the user file
1433:Drivers/STM32F4xx_HAL_Driver/Src/stm32f4xx_hal_pcd.c ****    */
1434:Drivers/STM32F4xx_HAL_Driver/Src/stm32f4xx_hal_pcd.c **** }
 1833              		.loc 1 1434 1
 1834 000c 00BF     		nop
 1835 000e 0C37     		adds	r7, r7, #12
 1836              	.LCFI40:
 1837              		.cfi_def_cfa_offset 4
 1838 0010 BD46     		mov	sp, r7
 1839              	.LCFI41:
 1840              		.cfi_def_cfa_register 13
 1841              		@ sp needed
 1842 0012 5DF8047B 		ldr	r7, [sp], #4
 1843              	.LCFI42:
 1844              		.cfi_restore 7
 1845              		.cfi_def_cfa_offset 0
 1846 0016 7047     		bx	lr
 1847              		.cfi_endproc
 1848              	.LFE137:
 1850              		.section	.text.HAL_PCD_DataInStageCallback,"ax",%progbits
 1851              		.align	1
 1852              		.weak	HAL_PCD_DataInStageCallback
 1853              		.syntax unified
 1854              		.thumb
 1855              		.thumb_func
 1856              		.fpu fpv4-sp-d16
 1858              	HAL_PCD_DataInStageCallback:
 1859              	.LFB138:
1435:Drivers/STM32F4xx_HAL_Driver/Src/stm32f4xx_hal_pcd.c **** 
1436:Drivers/STM32F4xx_HAL_Driver/Src/stm32f4xx_hal_pcd.c **** /**
1437:Drivers/STM32F4xx_HAL_Driver/Src/stm32f4xx_hal_pcd.c ****   * @brief  Data IN stage callback
1438:Drivers/STM32F4xx_HAL_Driver/Src/stm32f4xx_hal_pcd.c ****   * @param  hpcd PCD handle
1439:Drivers/STM32F4xx_HAL_Driver/Src/stm32f4xx_hal_pcd.c ****   * @param  epnum endpoint number
1440:Drivers/STM32F4xx_HAL_Driver/Src/stm32f4xx_hal_pcd.c ****   * @retval None
1441:Drivers/STM32F4xx_HAL_Driver/Src/stm32f4xx_hal_pcd.c ****   */
1442:Drivers/STM32F4xx_HAL_Driver/Src/stm32f4xx_hal_pcd.c **** __weak void HAL_PCD_DataInStageCallback(PCD_HandleTypeDef *hpcd, uint8_t epnum)
ARM GAS  /tmp/ccsbOyJb.s 			page 59


1443:Drivers/STM32F4xx_HAL_Driver/Src/stm32f4xx_hal_pcd.c **** {
 1860              		.loc 1 1443 1
 1861              		.cfi_startproc
 1862              		@ args = 0, pretend = 0, frame = 8
 1863              		@ frame_needed = 1, uses_anonymous_args = 0
 1864              		@ link register save eliminated.
 1865 0000 80B4     		push	{r7}
 1866              	.LCFI43:
 1867              		.cfi_def_cfa_offset 4
 1868              		.cfi_offset 7, -4
 1869 0002 83B0     		sub	sp, sp, #12
 1870              	.LCFI44:
 1871              		.cfi_def_cfa_offset 16
 1872 0004 00AF     		add	r7, sp, #0
 1873              	.LCFI45:
 1874              		.cfi_def_cfa_register 7
 1875 0006 7860     		str	r0, [r7, #4]
 1876 0008 0B46     		mov	r3, r1
 1877 000a FB70     		strb	r3, [r7, #3]
1444:Drivers/STM32F4xx_HAL_Driver/Src/stm32f4xx_hal_pcd.c ****   /* Prevent unused argument(s) compilation warning */
1445:Drivers/STM32F4xx_HAL_Driver/Src/stm32f4xx_hal_pcd.c ****   UNUSED(hpcd);
1446:Drivers/STM32F4xx_HAL_Driver/Src/stm32f4xx_hal_pcd.c ****   UNUSED(epnum);
1447:Drivers/STM32F4xx_HAL_Driver/Src/stm32f4xx_hal_pcd.c **** 
1448:Drivers/STM32F4xx_HAL_Driver/Src/stm32f4xx_hal_pcd.c ****   /* NOTE : This function should not be modified, when the callback is needed,
1449:Drivers/STM32F4xx_HAL_Driver/Src/stm32f4xx_hal_pcd.c ****             the HAL_PCD_DataInStageCallback could be implemented in the user file
1450:Drivers/STM32F4xx_HAL_Driver/Src/stm32f4xx_hal_pcd.c ****    */
1451:Drivers/STM32F4xx_HAL_Driver/Src/stm32f4xx_hal_pcd.c **** }
 1878              		.loc 1 1451 1
 1879 000c 00BF     		nop
 1880 000e 0C37     		adds	r7, r7, #12
 1881              	.LCFI46:
 1882              		.cfi_def_cfa_offset 4
 1883 0010 BD46     		mov	sp, r7
 1884              	.LCFI47:
 1885              		.cfi_def_cfa_register 13
 1886              		@ sp needed
 1887 0012 5DF8047B 		ldr	r7, [sp], #4
 1888              	.LCFI48:
 1889              		.cfi_restore 7
 1890              		.cfi_def_cfa_offset 0
 1891 0016 7047     		bx	lr
 1892              		.cfi_endproc
 1893              	.LFE138:
 1895              		.section	.text.HAL_PCD_SetupStageCallback,"ax",%progbits
 1896              		.align	1
 1897              		.weak	HAL_PCD_SetupStageCallback
 1898              		.syntax unified
 1899              		.thumb
 1900              		.thumb_func
 1901              		.fpu fpv4-sp-d16
 1903              	HAL_PCD_SetupStageCallback:
 1904              	.LFB139:
1452:Drivers/STM32F4xx_HAL_Driver/Src/stm32f4xx_hal_pcd.c **** /**
1453:Drivers/STM32F4xx_HAL_Driver/Src/stm32f4xx_hal_pcd.c ****   * @brief  Setup stage callback
1454:Drivers/STM32F4xx_HAL_Driver/Src/stm32f4xx_hal_pcd.c ****   * @param  hpcd PCD handle
1455:Drivers/STM32F4xx_HAL_Driver/Src/stm32f4xx_hal_pcd.c ****   * @retval None
1456:Drivers/STM32F4xx_HAL_Driver/Src/stm32f4xx_hal_pcd.c ****   */
ARM GAS  /tmp/ccsbOyJb.s 			page 60


1457:Drivers/STM32F4xx_HAL_Driver/Src/stm32f4xx_hal_pcd.c **** __weak void HAL_PCD_SetupStageCallback(PCD_HandleTypeDef *hpcd)
1458:Drivers/STM32F4xx_HAL_Driver/Src/stm32f4xx_hal_pcd.c **** {
 1905              		.loc 1 1458 1
 1906              		.cfi_startproc
 1907              		@ args = 0, pretend = 0, frame = 8
 1908              		@ frame_needed = 1, uses_anonymous_args = 0
 1909              		@ link register save eliminated.
 1910 0000 80B4     		push	{r7}
 1911              	.LCFI49:
 1912              		.cfi_def_cfa_offset 4
 1913              		.cfi_offset 7, -4
 1914 0002 83B0     		sub	sp, sp, #12
 1915              	.LCFI50:
 1916              		.cfi_def_cfa_offset 16
 1917 0004 00AF     		add	r7, sp, #0
 1918              	.LCFI51:
 1919              		.cfi_def_cfa_register 7
 1920 0006 7860     		str	r0, [r7, #4]
1459:Drivers/STM32F4xx_HAL_Driver/Src/stm32f4xx_hal_pcd.c ****   /* Prevent unused argument(s) compilation warning */
1460:Drivers/STM32F4xx_HAL_Driver/Src/stm32f4xx_hal_pcd.c ****   UNUSED(hpcd);
1461:Drivers/STM32F4xx_HAL_Driver/Src/stm32f4xx_hal_pcd.c **** 
1462:Drivers/STM32F4xx_HAL_Driver/Src/stm32f4xx_hal_pcd.c ****   /* NOTE : This function should not be modified, when the callback is needed,
1463:Drivers/STM32F4xx_HAL_Driver/Src/stm32f4xx_hal_pcd.c ****             the HAL_PCD_SetupStageCallback could be implemented in the user file
1464:Drivers/STM32F4xx_HAL_Driver/Src/stm32f4xx_hal_pcd.c ****    */
1465:Drivers/STM32F4xx_HAL_Driver/Src/stm32f4xx_hal_pcd.c **** }
 1921              		.loc 1 1465 1
 1922 0008 00BF     		nop
 1923 000a 0C37     		adds	r7, r7, #12
 1924              	.LCFI52:
 1925              		.cfi_def_cfa_offset 4
 1926 000c BD46     		mov	sp, r7
 1927              	.LCFI53:
 1928              		.cfi_def_cfa_register 13
 1929              		@ sp needed
 1930 000e 5DF8047B 		ldr	r7, [sp], #4
 1931              	.LCFI54:
 1932              		.cfi_restore 7
 1933              		.cfi_def_cfa_offset 0
 1934 0012 7047     		bx	lr
 1935              		.cfi_endproc
 1936              	.LFE139:
 1938              		.section	.text.HAL_PCD_SOFCallback,"ax",%progbits
 1939              		.align	1
 1940              		.weak	HAL_PCD_SOFCallback
 1941              		.syntax unified
 1942              		.thumb
 1943              		.thumb_func
 1944              		.fpu fpv4-sp-d16
 1946              	HAL_PCD_SOFCallback:
 1947              	.LFB140:
1466:Drivers/STM32F4xx_HAL_Driver/Src/stm32f4xx_hal_pcd.c **** 
1467:Drivers/STM32F4xx_HAL_Driver/Src/stm32f4xx_hal_pcd.c **** /**
1468:Drivers/STM32F4xx_HAL_Driver/Src/stm32f4xx_hal_pcd.c ****   * @brief  USB Start Of Frame callback.
1469:Drivers/STM32F4xx_HAL_Driver/Src/stm32f4xx_hal_pcd.c ****   * @param  hpcd PCD handle
1470:Drivers/STM32F4xx_HAL_Driver/Src/stm32f4xx_hal_pcd.c ****   * @retval None
1471:Drivers/STM32F4xx_HAL_Driver/Src/stm32f4xx_hal_pcd.c ****   */
1472:Drivers/STM32F4xx_HAL_Driver/Src/stm32f4xx_hal_pcd.c **** __weak void HAL_PCD_SOFCallback(PCD_HandleTypeDef *hpcd)
ARM GAS  /tmp/ccsbOyJb.s 			page 61


1473:Drivers/STM32F4xx_HAL_Driver/Src/stm32f4xx_hal_pcd.c **** {
 1948              		.loc 1 1473 1
 1949              		.cfi_startproc
 1950              		@ args = 0, pretend = 0, frame = 8
 1951              		@ frame_needed = 1, uses_anonymous_args = 0
 1952              		@ link register save eliminated.
 1953 0000 80B4     		push	{r7}
 1954              	.LCFI55:
 1955              		.cfi_def_cfa_offset 4
 1956              		.cfi_offset 7, -4
 1957 0002 83B0     		sub	sp, sp, #12
 1958              	.LCFI56:
 1959              		.cfi_def_cfa_offset 16
 1960 0004 00AF     		add	r7, sp, #0
 1961              	.LCFI57:
 1962              		.cfi_def_cfa_register 7
 1963 0006 7860     		str	r0, [r7, #4]
1474:Drivers/STM32F4xx_HAL_Driver/Src/stm32f4xx_hal_pcd.c ****   /* Prevent unused argument(s) compilation warning */
1475:Drivers/STM32F4xx_HAL_Driver/Src/stm32f4xx_hal_pcd.c ****   UNUSED(hpcd);
1476:Drivers/STM32F4xx_HAL_Driver/Src/stm32f4xx_hal_pcd.c **** 
1477:Drivers/STM32F4xx_HAL_Driver/Src/stm32f4xx_hal_pcd.c ****   /* NOTE : This function should not be modified, when the callback is needed,
1478:Drivers/STM32F4xx_HAL_Driver/Src/stm32f4xx_hal_pcd.c ****             the HAL_PCD_SOFCallback could be implemented in the user file
1479:Drivers/STM32F4xx_HAL_Driver/Src/stm32f4xx_hal_pcd.c ****    */
1480:Drivers/STM32F4xx_HAL_Driver/Src/stm32f4xx_hal_pcd.c **** }
 1964              		.loc 1 1480 1
 1965 0008 00BF     		nop
 1966 000a 0C37     		adds	r7, r7, #12
 1967              	.LCFI58:
 1968              		.cfi_def_cfa_offset 4
 1969 000c BD46     		mov	sp, r7
 1970              	.LCFI59:
 1971              		.cfi_def_cfa_register 13
 1972              		@ sp needed
 1973 000e 5DF8047B 		ldr	r7, [sp], #4
 1974              	.LCFI60:
 1975              		.cfi_restore 7
 1976              		.cfi_def_cfa_offset 0
 1977 0012 7047     		bx	lr
 1978              		.cfi_endproc
 1979              	.LFE140:
 1981              		.section	.text.HAL_PCD_ResetCallback,"ax",%progbits
 1982              		.align	1
 1983              		.weak	HAL_PCD_ResetCallback
 1984              		.syntax unified
 1985              		.thumb
 1986              		.thumb_func
 1987              		.fpu fpv4-sp-d16
 1989              	HAL_PCD_ResetCallback:
 1990              	.LFB141:
1481:Drivers/STM32F4xx_HAL_Driver/Src/stm32f4xx_hal_pcd.c **** 
1482:Drivers/STM32F4xx_HAL_Driver/Src/stm32f4xx_hal_pcd.c **** /**
1483:Drivers/STM32F4xx_HAL_Driver/Src/stm32f4xx_hal_pcd.c ****   * @brief  USB Reset callback.
1484:Drivers/STM32F4xx_HAL_Driver/Src/stm32f4xx_hal_pcd.c ****   * @param  hpcd PCD handle
1485:Drivers/STM32F4xx_HAL_Driver/Src/stm32f4xx_hal_pcd.c ****   * @retval None
1486:Drivers/STM32F4xx_HAL_Driver/Src/stm32f4xx_hal_pcd.c ****   */
1487:Drivers/STM32F4xx_HAL_Driver/Src/stm32f4xx_hal_pcd.c **** __weak void HAL_PCD_ResetCallback(PCD_HandleTypeDef *hpcd)
1488:Drivers/STM32F4xx_HAL_Driver/Src/stm32f4xx_hal_pcd.c **** {
ARM GAS  /tmp/ccsbOyJb.s 			page 62


 1991              		.loc 1 1488 1
 1992              		.cfi_startproc
 1993              		@ args = 0, pretend = 0, frame = 8
 1994              		@ frame_needed = 1, uses_anonymous_args = 0
 1995              		@ link register save eliminated.
 1996 0000 80B4     		push	{r7}
 1997              	.LCFI61:
 1998              		.cfi_def_cfa_offset 4
 1999              		.cfi_offset 7, -4
 2000 0002 83B0     		sub	sp, sp, #12
 2001              	.LCFI62:
 2002              		.cfi_def_cfa_offset 16
 2003 0004 00AF     		add	r7, sp, #0
 2004              	.LCFI63:
 2005              		.cfi_def_cfa_register 7
 2006 0006 7860     		str	r0, [r7, #4]
1489:Drivers/STM32F4xx_HAL_Driver/Src/stm32f4xx_hal_pcd.c ****   /* Prevent unused argument(s) compilation warning */
1490:Drivers/STM32F4xx_HAL_Driver/Src/stm32f4xx_hal_pcd.c ****   UNUSED(hpcd);
1491:Drivers/STM32F4xx_HAL_Driver/Src/stm32f4xx_hal_pcd.c **** 
1492:Drivers/STM32F4xx_HAL_Driver/Src/stm32f4xx_hal_pcd.c ****   /* NOTE : This function should not be modified, when the callback is needed,
1493:Drivers/STM32F4xx_HAL_Driver/Src/stm32f4xx_hal_pcd.c ****             the HAL_PCD_ResetCallback could be implemented in the user file
1494:Drivers/STM32F4xx_HAL_Driver/Src/stm32f4xx_hal_pcd.c ****    */
1495:Drivers/STM32F4xx_HAL_Driver/Src/stm32f4xx_hal_pcd.c **** }
 2007              		.loc 1 1495 1
 2008 0008 00BF     		nop
 2009 000a 0C37     		adds	r7, r7, #12
 2010              	.LCFI64:
 2011              		.cfi_def_cfa_offset 4
 2012 000c BD46     		mov	sp, r7
 2013              	.LCFI65:
 2014              		.cfi_def_cfa_register 13
 2015              		@ sp needed
 2016 000e 5DF8047B 		ldr	r7, [sp], #4
 2017              	.LCFI66:
 2018              		.cfi_restore 7
 2019              		.cfi_def_cfa_offset 0
 2020 0012 7047     		bx	lr
 2021              		.cfi_endproc
 2022              	.LFE141:
 2024              		.section	.text.HAL_PCD_SuspendCallback,"ax",%progbits
 2025              		.align	1
 2026              		.weak	HAL_PCD_SuspendCallback
 2027              		.syntax unified
 2028              		.thumb
 2029              		.thumb_func
 2030              		.fpu fpv4-sp-d16
 2032              	HAL_PCD_SuspendCallback:
 2033              	.LFB142:
1496:Drivers/STM32F4xx_HAL_Driver/Src/stm32f4xx_hal_pcd.c **** 
1497:Drivers/STM32F4xx_HAL_Driver/Src/stm32f4xx_hal_pcd.c **** /**
1498:Drivers/STM32F4xx_HAL_Driver/Src/stm32f4xx_hal_pcd.c ****   * @brief  Suspend event callback.
1499:Drivers/STM32F4xx_HAL_Driver/Src/stm32f4xx_hal_pcd.c ****   * @param  hpcd PCD handle
1500:Drivers/STM32F4xx_HAL_Driver/Src/stm32f4xx_hal_pcd.c ****   * @retval None
1501:Drivers/STM32F4xx_HAL_Driver/Src/stm32f4xx_hal_pcd.c ****   */
1502:Drivers/STM32F4xx_HAL_Driver/Src/stm32f4xx_hal_pcd.c **** __weak void HAL_PCD_SuspendCallback(PCD_HandleTypeDef *hpcd)
1503:Drivers/STM32F4xx_HAL_Driver/Src/stm32f4xx_hal_pcd.c **** {
 2034              		.loc 1 1503 1
ARM GAS  /tmp/ccsbOyJb.s 			page 63


 2035              		.cfi_startproc
 2036              		@ args = 0, pretend = 0, frame = 8
 2037              		@ frame_needed = 1, uses_anonymous_args = 0
 2038              		@ link register save eliminated.
 2039 0000 80B4     		push	{r7}
 2040              	.LCFI67:
 2041              		.cfi_def_cfa_offset 4
 2042              		.cfi_offset 7, -4
 2043 0002 83B0     		sub	sp, sp, #12
 2044              	.LCFI68:
 2045              		.cfi_def_cfa_offset 16
 2046 0004 00AF     		add	r7, sp, #0
 2047              	.LCFI69:
 2048              		.cfi_def_cfa_register 7
 2049 0006 7860     		str	r0, [r7, #4]
1504:Drivers/STM32F4xx_HAL_Driver/Src/stm32f4xx_hal_pcd.c ****   /* Prevent unused argument(s) compilation warning */
1505:Drivers/STM32F4xx_HAL_Driver/Src/stm32f4xx_hal_pcd.c ****   UNUSED(hpcd);
1506:Drivers/STM32F4xx_HAL_Driver/Src/stm32f4xx_hal_pcd.c **** 
1507:Drivers/STM32F4xx_HAL_Driver/Src/stm32f4xx_hal_pcd.c ****   /* NOTE : This function should not be modified, when the callback is needed,
1508:Drivers/STM32F4xx_HAL_Driver/Src/stm32f4xx_hal_pcd.c ****             the HAL_PCD_SuspendCallback could be implemented in the user file
1509:Drivers/STM32F4xx_HAL_Driver/Src/stm32f4xx_hal_pcd.c ****    */
1510:Drivers/STM32F4xx_HAL_Driver/Src/stm32f4xx_hal_pcd.c **** }
 2050              		.loc 1 1510 1
 2051 0008 00BF     		nop
 2052 000a 0C37     		adds	r7, r7, #12
 2053              	.LCFI70:
 2054              		.cfi_def_cfa_offset 4
 2055 000c BD46     		mov	sp, r7
 2056              	.LCFI71:
 2057              		.cfi_def_cfa_register 13
 2058              		@ sp needed
 2059 000e 5DF8047B 		ldr	r7, [sp], #4
 2060              	.LCFI72:
 2061              		.cfi_restore 7
 2062              		.cfi_def_cfa_offset 0
 2063 0012 7047     		bx	lr
 2064              		.cfi_endproc
 2065              	.LFE142:
 2067              		.section	.text.HAL_PCD_ResumeCallback,"ax",%progbits
 2068              		.align	1
 2069              		.weak	HAL_PCD_ResumeCallback
 2070              		.syntax unified
 2071              		.thumb
 2072              		.thumb_func
 2073              		.fpu fpv4-sp-d16
 2075              	HAL_PCD_ResumeCallback:
 2076              	.LFB143:
1511:Drivers/STM32F4xx_HAL_Driver/Src/stm32f4xx_hal_pcd.c **** 
1512:Drivers/STM32F4xx_HAL_Driver/Src/stm32f4xx_hal_pcd.c **** /**
1513:Drivers/STM32F4xx_HAL_Driver/Src/stm32f4xx_hal_pcd.c ****   * @brief  Resume event callback.
1514:Drivers/STM32F4xx_HAL_Driver/Src/stm32f4xx_hal_pcd.c ****   * @param  hpcd PCD handle
1515:Drivers/STM32F4xx_HAL_Driver/Src/stm32f4xx_hal_pcd.c ****   * @retval None
1516:Drivers/STM32F4xx_HAL_Driver/Src/stm32f4xx_hal_pcd.c ****   */
1517:Drivers/STM32F4xx_HAL_Driver/Src/stm32f4xx_hal_pcd.c **** __weak void HAL_PCD_ResumeCallback(PCD_HandleTypeDef *hpcd)
1518:Drivers/STM32F4xx_HAL_Driver/Src/stm32f4xx_hal_pcd.c **** {
 2077              		.loc 1 1518 1
 2078              		.cfi_startproc
ARM GAS  /tmp/ccsbOyJb.s 			page 64


 2079              		@ args = 0, pretend = 0, frame = 8
 2080              		@ frame_needed = 1, uses_anonymous_args = 0
 2081              		@ link register save eliminated.
 2082 0000 80B4     		push	{r7}
 2083              	.LCFI73:
 2084              		.cfi_def_cfa_offset 4
 2085              		.cfi_offset 7, -4
 2086 0002 83B0     		sub	sp, sp, #12
 2087              	.LCFI74:
 2088              		.cfi_def_cfa_offset 16
 2089 0004 00AF     		add	r7, sp, #0
 2090              	.LCFI75:
 2091              		.cfi_def_cfa_register 7
 2092 0006 7860     		str	r0, [r7, #4]
1519:Drivers/STM32F4xx_HAL_Driver/Src/stm32f4xx_hal_pcd.c ****   /* Prevent unused argument(s) compilation warning */
1520:Drivers/STM32F4xx_HAL_Driver/Src/stm32f4xx_hal_pcd.c ****   UNUSED(hpcd);
1521:Drivers/STM32F4xx_HAL_Driver/Src/stm32f4xx_hal_pcd.c **** 
1522:Drivers/STM32F4xx_HAL_Driver/Src/stm32f4xx_hal_pcd.c ****   /* NOTE : This function should not be modified, when the callback is needed,
1523:Drivers/STM32F4xx_HAL_Driver/Src/stm32f4xx_hal_pcd.c ****             the HAL_PCD_ResumeCallback could be implemented in the user file
1524:Drivers/STM32F4xx_HAL_Driver/Src/stm32f4xx_hal_pcd.c ****    */
1525:Drivers/STM32F4xx_HAL_Driver/Src/stm32f4xx_hal_pcd.c **** }
 2093              		.loc 1 1525 1
 2094 0008 00BF     		nop
 2095 000a 0C37     		adds	r7, r7, #12
 2096              	.LCFI76:
 2097              		.cfi_def_cfa_offset 4
 2098 000c BD46     		mov	sp, r7
 2099              	.LCFI77:
 2100              		.cfi_def_cfa_register 13
 2101              		@ sp needed
 2102 000e 5DF8047B 		ldr	r7, [sp], #4
 2103              	.LCFI78:
 2104              		.cfi_restore 7
 2105              		.cfi_def_cfa_offset 0
 2106 0012 7047     		bx	lr
 2107              		.cfi_endproc
 2108              	.LFE143:
 2110              		.section	.text.HAL_PCD_ISOOUTIncompleteCallback,"ax",%progbits
 2111              		.align	1
 2112              		.weak	HAL_PCD_ISOOUTIncompleteCallback
 2113              		.syntax unified
 2114              		.thumb
 2115              		.thumb_func
 2116              		.fpu fpv4-sp-d16
 2118              	HAL_PCD_ISOOUTIncompleteCallback:
 2119              	.LFB144:
1526:Drivers/STM32F4xx_HAL_Driver/Src/stm32f4xx_hal_pcd.c **** 
1527:Drivers/STM32F4xx_HAL_Driver/Src/stm32f4xx_hal_pcd.c **** /**
1528:Drivers/STM32F4xx_HAL_Driver/Src/stm32f4xx_hal_pcd.c ****   * @brief  Incomplete ISO OUT callback.
1529:Drivers/STM32F4xx_HAL_Driver/Src/stm32f4xx_hal_pcd.c ****   * @param  hpcd PCD handle
1530:Drivers/STM32F4xx_HAL_Driver/Src/stm32f4xx_hal_pcd.c ****   * @param  epnum endpoint number
1531:Drivers/STM32F4xx_HAL_Driver/Src/stm32f4xx_hal_pcd.c ****   * @retval None
1532:Drivers/STM32F4xx_HAL_Driver/Src/stm32f4xx_hal_pcd.c ****   */
1533:Drivers/STM32F4xx_HAL_Driver/Src/stm32f4xx_hal_pcd.c **** __weak void HAL_PCD_ISOOUTIncompleteCallback(PCD_HandleTypeDef *hpcd, uint8_t epnum)
1534:Drivers/STM32F4xx_HAL_Driver/Src/stm32f4xx_hal_pcd.c **** {
 2120              		.loc 1 1534 1
 2121              		.cfi_startproc
ARM GAS  /tmp/ccsbOyJb.s 			page 65


 2122              		@ args = 0, pretend = 0, frame = 8
 2123              		@ frame_needed = 1, uses_anonymous_args = 0
 2124              		@ link register save eliminated.
 2125 0000 80B4     		push	{r7}
 2126              	.LCFI79:
 2127              		.cfi_def_cfa_offset 4
 2128              		.cfi_offset 7, -4
 2129 0002 83B0     		sub	sp, sp, #12
 2130              	.LCFI80:
 2131              		.cfi_def_cfa_offset 16
 2132 0004 00AF     		add	r7, sp, #0
 2133              	.LCFI81:
 2134              		.cfi_def_cfa_register 7
 2135 0006 7860     		str	r0, [r7, #4]
 2136 0008 0B46     		mov	r3, r1
 2137 000a FB70     		strb	r3, [r7, #3]
1535:Drivers/STM32F4xx_HAL_Driver/Src/stm32f4xx_hal_pcd.c ****   /* Prevent unused argument(s) compilation warning */
1536:Drivers/STM32F4xx_HAL_Driver/Src/stm32f4xx_hal_pcd.c ****   UNUSED(hpcd);
1537:Drivers/STM32F4xx_HAL_Driver/Src/stm32f4xx_hal_pcd.c ****   UNUSED(epnum);
1538:Drivers/STM32F4xx_HAL_Driver/Src/stm32f4xx_hal_pcd.c **** 
1539:Drivers/STM32F4xx_HAL_Driver/Src/stm32f4xx_hal_pcd.c ****   /* NOTE : This function should not be modified, when the callback is needed,
1540:Drivers/STM32F4xx_HAL_Driver/Src/stm32f4xx_hal_pcd.c ****             the HAL_PCD_ISOOUTIncompleteCallback could be implemented in the user file
1541:Drivers/STM32F4xx_HAL_Driver/Src/stm32f4xx_hal_pcd.c ****    */
1542:Drivers/STM32F4xx_HAL_Driver/Src/stm32f4xx_hal_pcd.c **** }
 2138              		.loc 1 1542 1
 2139 000c 00BF     		nop
 2140 000e 0C37     		adds	r7, r7, #12
 2141              	.LCFI82:
 2142              		.cfi_def_cfa_offset 4
 2143 0010 BD46     		mov	sp, r7
 2144              	.LCFI83:
 2145              		.cfi_def_cfa_register 13
 2146              		@ sp needed
 2147 0012 5DF8047B 		ldr	r7, [sp], #4
 2148              	.LCFI84:
 2149              		.cfi_restore 7
 2150              		.cfi_def_cfa_offset 0
 2151 0016 7047     		bx	lr
 2152              		.cfi_endproc
 2153              	.LFE144:
 2155              		.section	.text.HAL_PCD_ISOINIncompleteCallback,"ax",%progbits
 2156              		.align	1
 2157              		.weak	HAL_PCD_ISOINIncompleteCallback
 2158              		.syntax unified
 2159              		.thumb
 2160              		.thumb_func
 2161              		.fpu fpv4-sp-d16
 2163              	HAL_PCD_ISOINIncompleteCallback:
 2164              	.LFB145:
1543:Drivers/STM32F4xx_HAL_Driver/Src/stm32f4xx_hal_pcd.c **** 
1544:Drivers/STM32F4xx_HAL_Driver/Src/stm32f4xx_hal_pcd.c **** /**
1545:Drivers/STM32F4xx_HAL_Driver/Src/stm32f4xx_hal_pcd.c ****   * @brief  Incomplete ISO IN callback.
1546:Drivers/STM32F4xx_HAL_Driver/Src/stm32f4xx_hal_pcd.c ****   * @param  hpcd PCD handle
1547:Drivers/STM32F4xx_HAL_Driver/Src/stm32f4xx_hal_pcd.c ****   * @param  epnum endpoint number
1548:Drivers/STM32F4xx_HAL_Driver/Src/stm32f4xx_hal_pcd.c ****   * @retval None
1549:Drivers/STM32F4xx_HAL_Driver/Src/stm32f4xx_hal_pcd.c ****   */
1550:Drivers/STM32F4xx_HAL_Driver/Src/stm32f4xx_hal_pcd.c **** __weak void HAL_PCD_ISOINIncompleteCallback(PCD_HandleTypeDef *hpcd, uint8_t epnum)
ARM GAS  /tmp/ccsbOyJb.s 			page 66


1551:Drivers/STM32F4xx_HAL_Driver/Src/stm32f4xx_hal_pcd.c **** {
 2165              		.loc 1 1551 1
 2166              		.cfi_startproc
 2167              		@ args = 0, pretend = 0, frame = 8
 2168              		@ frame_needed = 1, uses_anonymous_args = 0
 2169              		@ link register save eliminated.
 2170 0000 80B4     		push	{r7}
 2171              	.LCFI85:
 2172              		.cfi_def_cfa_offset 4
 2173              		.cfi_offset 7, -4
 2174 0002 83B0     		sub	sp, sp, #12
 2175              	.LCFI86:
 2176              		.cfi_def_cfa_offset 16
 2177 0004 00AF     		add	r7, sp, #0
 2178              	.LCFI87:
 2179              		.cfi_def_cfa_register 7
 2180 0006 7860     		str	r0, [r7, #4]
 2181 0008 0B46     		mov	r3, r1
 2182 000a FB70     		strb	r3, [r7, #3]
1552:Drivers/STM32F4xx_HAL_Driver/Src/stm32f4xx_hal_pcd.c ****   /* Prevent unused argument(s) compilation warning */
1553:Drivers/STM32F4xx_HAL_Driver/Src/stm32f4xx_hal_pcd.c ****   UNUSED(hpcd);
1554:Drivers/STM32F4xx_HAL_Driver/Src/stm32f4xx_hal_pcd.c ****   UNUSED(epnum);
1555:Drivers/STM32F4xx_HAL_Driver/Src/stm32f4xx_hal_pcd.c **** 
1556:Drivers/STM32F4xx_HAL_Driver/Src/stm32f4xx_hal_pcd.c ****   /* NOTE : This function should not be modified, when the callback is needed,
1557:Drivers/STM32F4xx_HAL_Driver/Src/stm32f4xx_hal_pcd.c ****             the HAL_PCD_ISOINIncompleteCallback could be implemented in the user file
1558:Drivers/STM32F4xx_HAL_Driver/Src/stm32f4xx_hal_pcd.c ****    */
1559:Drivers/STM32F4xx_HAL_Driver/Src/stm32f4xx_hal_pcd.c **** }
 2183              		.loc 1 1559 1
 2184 000c 00BF     		nop
 2185 000e 0C37     		adds	r7, r7, #12
 2186              	.LCFI88:
 2187              		.cfi_def_cfa_offset 4
 2188 0010 BD46     		mov	sp, r7
 2189              	.LCFI89:
 2190              		.cfi_def_cfa_register 13
 2191              		@ sp needed
 2192 0012 5DF8047B 		ldr	r7, [sp], #4
 2193              	.LCFI90:
 2194              		.cfi_restore 7
 2195              		.cfi_def_cfa_offset 0
 2196 0016 7047     		bx	lr
 2197              		.cfi_endproc
 2198              	.LFE145:
 2200              		.section	.text.HAL_PCD_ConnectCallback,"ax",%progbits
 2201              		.align	1
 2202              		.weak	HAL_PCD_ConnectCallback
 2203              		.syntax unified
 2204              		.thumb
 2205              		.thumb_func
 2206              		.fpu fpv4-sp-d16
 2208              	HAL_PCD_ConnectCallback:
 2209              	.LFB146:
1560:Drivers/STM32F4xx_HAL_Driver/Src/stm32f4xx_hal_pcd.c **** 
1561:Drivers/STM32F4xx_HAL_Driver/Src/stm32f4xx_hal_pcd.c **** /**
1562:Drivers/STM32F4xx_HAL_Driver/Src/stm32f4xx_hal_pcd.c ****   * @brief  Connection event callback.
1563:Drivers/STM32F4xx_HAL_Driver/Src/stm32f4xx_hal_pcd.c ****   * @param  hpcd PCD handle
1564:Drivers/STM32F4xx_HAL_Driver/Src/stm32f4xx_hal_pcd.c ****   * @retval None
ARM GAS  /tmp/ccsbOyJb.s 			page 67


1565:Drivers/STM32F4xx_HAL_Driver/Src/stm32f4xx_hal_pcd.c ****   */
1566:Drivers/STM32F4xx_HAL_Driver/Src/stm32f4xx_hal_pcd.c **** __weak void HAL_PCD_ConnectCallback(PCD_HandleTypeDef *hpcd)
1567:Drivers/STM32F4xx_HAL_Driver/Src/stm32f4xx_hal_pcd.c **** {
 2210              		.loc 1 1567 1
 2211              		.cfi_startproc
 2212              		@ args = 0, pretend = 0, frame = 8
 2213              		@ frame_needed = 1, uses_anonymous_args = 0
 2214              		@ link register save eliminated.
 2215 0000 80B4     		push	{r7}
 2216              	.LCFI91:
 2217              		.cfi_def_cfa_offset 4
 2218              		.cfi_offset 7, -4
 2219 0002 83B0     		sub	sp, sp, #12
 2220              	.LCFI92:
 2221              		.cfi_def_cfa_offset 16
 2222 0004 00AF     		add	r7, sp, #0
 2223              	.LCFI93:
 2224              		.cfi_def_cfa_register 7
 2225 0006 7860     		str	r0, [r7, #4]
1568:Drivers/STM32F4xx_HAL_Driver/Src/stm32f4xx_hal_pcd.c ****   /* Prevent unused argument(s) compilation warning */
1569:Drivers/STM32F4xx_HAL_Driver/Src/stm32f4xx_hal_pcd.c ****   UNUSED(hpcd);
1570:Drivers/STM32F4xx_HAL_Driver/Src/stm32f4xx_hal_pcd.c **** 
1571:Drivers/STM32F4xx_HAL_Driver/Src/stm32f4xx_hal_pcd.c ****   /* NOTE : This function should not be modified, when the callback is needed,
1572:Drivers/STM32F4xx_HAL_Driver/Src/stm32f4xx_hal_pcd.c ****             the HAL_PCD_ConnectCallback could be implemented in the user file
1573:Drivers/STM32F4xx_HAL_Driver/Src/stm32f4xx_hal_pcd.c ****    */
1574:Drivers/STM32F4xx_HAL_Driver/Src/stm32f4xx_hal_pcd.c **** }
 2226              		.loc 1 1574 1
 2227 0008 00BF     		nop
 2228 000a 0C37     		adds	r7, r7, #12
 2229              	.LCFI94:
 2230              		.cfi_def_cfa_offset 4
 2231 000c BD46     		mov	sp, r7
 2232              	.LCFI95:
 2233              		.cfi_def_cfa_register 13
 2234              		@ sp needed
 2235 000e 5DF8047B 		ldr	r7, [sp], #4
 2236              	.LCFI96:
 2237              		.cfi_restore 7
 2238              		.cfi_def_cfa_offset 0
 2239 0012 7047     		bx	lr
 2240              		.cfi_endproc
 2241              	.LFE146:
 2243              		.section	.text.HAL_PCD_DisconnectCallback,"ax",%progbits
 2244              		.align	1
 2245              		.weak	HAL_PCD_DisconnectCallback
 2246              		.syntax unified
 2247              		.thumb
 2248              		.thumb_func
 2249              		.fpu fpv4-sp-d16
 2251              	HAL_PCD_DisconnectCallback:
 2252              	.LFB147:
1575:Drivers/STM32F4xx_HAL_Driver/Src/stm32f4xx_hal_pcd.c **** 
1576:Drivers/STM32F4xx_HAL_Driver/Src/stm32f4xx_hal_pcd.c **** /**
1577:Drivers/STM32F4xx_HAL_Driver/Src/stm32f4xx_hal_pcd.c ****   * @brief  Disconnection event callback.
1578:Drivers/STM32F4xx_HAL_Driver/Src/stm32f4xx_hal_pcd.c ****   * @param  hpcd PCD handle
1579:Drivers/STM32F4xx_HAL_Driver/Src/stm32f4xx_hal_pcd.c ****   * @retval None
1580:Drivers/STM32F4xx_HAL_Driver/Src/stm32f4xx_hal_pcd.c ****   */
ARM GAS  /tmp/ccsbOyJb.s 			page 68


1581:Drivers/STM32F4xx_HAL_Driver/Src/stm32f4xx_hal_pcd.c **** __weak void HAL_PCD_DisconnectCallback(PCD_HandleTypeDef *hpcd)
1582:Drivers/STM32F4xx_HAL_Driver/Src/stm32f4xx_hal_pcd.c **** {
 2253              		.loc 1 1582 1
 2254              		.cfi_startproc
 2255              		@ args = 0, pretend = 0, frame = 8
 2256              		@ frame_needed = 1, uses_anonymous_args = 0
 2257              		@ link register save eliminated.
 2258 0000 80B4     		push	{r7}
 2259              	.LCFI97:
 2260              		.cfi_def_cfa_offset 4
 2261              		.cfi_offset 7, -4
 2262 0002 83B0     		sub	sp, sp, #12
 2263              	.LCFI98:
 2264              		.cfi_def_cfa_offset 16
 2265 0004 00AF     		add	r7, sp, #0
 2266              	.LCFI99:
 2267              		.cfi_def_cfa_register 7
 2268 0006 7860     		str	r0, [r7, #4]
1583:Drivers/STM32F4xx_HAL_Driver/Src/stm32f4xx_hal_pcd.c ****   /* Prevent unused argument(s) compilation warning */
1584:Drivers/STM32F4xx_HAL_Driver/Src/stm32f4xx_hal_pcd.c ****   UNUSED(hpcd);
1585:Drivers/STM32F4xx_HAL_Driver/Src/stm32f4xx_hal_pcd.c **** 
1586:Drivers/STM32F4xx_HAL_Driver/Src/stm32f4xx_hal_pcd.c ****   /* NOTE : This function should not be modified, when the callback is needed,
1587:Drivers/STM32F4xx_HAL_Driver/Src/stm32f4xx_hal_pcd.c ****             the HAL_PCD_DisconnectCallback could be implemented in the user file
1588:Drivers/STM32F4xx_HAL_Driver/Src/stm32f4xx_hal_pcd.c ****    */
1589:Drivers/STM32F4xx_HAL_Driver/Src/stm32f4xx_hal_pcd.c **** }
 2269              		.loc 1 1589 1
 2270 0008 00BF     		nop
 2271 000a 0C37     		adds	r7, r7, #12
 2272              	.LCFI100:
 2273              		.cfi_def_cfa_offset 4
 2274 000c BD46     		mov	sp, r7
 2275              	.LCFI101:
 2276              		.cfi_def_cfa_register 13
 2277              		@ sp needed
 2278 000e 5DF8047B 		ldr	r7, [sp], #4
 2279              	.LCFI102:
 2280              		.cfi_restore 7
 2281              		.cfi_def_cfa_offset 0
 2282 0012 7047     		bx	lr
 2283              		.cfi_endproc
 2284              	.LFE147:
 2286              		.section	.text.HAL_PCD_DevConnect,"ax",%progbits
 2287              		.align	1
 2288              		.global	HAL_PCD_DevConnect
 2289              		.syntax unified
 2290              		.thumb
 2291              		.thumb_func
 2292              		.fpu fpv4-sp-d16
 2294              	HAL_PCD_DevConnect:
 2295              	.LFB148:
1590:Drivers/STM32F4xx_HAL_Driver/Src/stm32f4xx_hal_pcd.c **** 
1591:Drivers/STM32F4xx_HAL_Driver/Src/stm32f4xx_hal_pcd.c **** /**
1592:Drivers/STM32F4xx_HAL_Driver/Src/stm32f4xx_hal_pcd.c ****   * @}
1593:Drivers/STM32F4xx_HAL_Driver/Src/stm32f4xx_hal_pcd.c ****   */
1594:Drivers/STM32F4xx_HAL_Driver/Src/stm32f4xx_hal_pcd.c **** 
1595:Drivers/STM32F4xx_HAL_Driver/Src/stm32f4xx_hal_pcd.c **** /** @defgroup PCD_Exported_Functions_Group3 Peripheral Control functions
1596:Drivers/STM32F4xx_HAL_Driver/Src/stm32f4xx_hal_pcd.c ****  *  @brief   management functions
ARM GAS  /tmp/ccsbOyJb.s 			page 69


1597:Drivers/STM32F4xx_HAL_Driver/Src/stm32f4xx_hal_pcd.c ****  *
1598:Drivers/STM32F4xx_HAL_Driver/Src/stm32f4xx_hal_pcd.c **** @verbatim
1599:Drivers/STM32F4xx_HAL_Driver/Src/stm32f4xx_hal_pcd.c ****  ===============================================================================
1600:Drivers/STM32F4xx_HAL_Driver/Src/stm32f4xx_hal_pcd.c ****                       ##### Peripheral Control functions #####
1601:Drivers/STM32F4xx_HAL_Driver/Src/stm32f4xx_hal_pcd.c ****  ===============================================================================
1602:Drivers/STM32F4xx_HAL_Driver/Src/stm32f4xx_hal_pcd.c ****     [..]
1603:Drivers/STM32F4xx_HAL_Driver/Src/stm32f4xx_hal_pcd.c ****     This subsection provides a set of functions allowing to control the PCD data
1604:Drivers/STM32F4xx_HAL_Driver/Src/stm32f4xx_hal_pcd.c ****     transfers.
1605:Drivers/STM32F4xx_HAL_Driver/Src/stm32f4xx_hal_pcd.c **** 
1606:Drivers/STM32F4xx_HAL_Driver/Src/stm32f4xx_hal_pcd.c **** @endverbatim
1607:Drivers/STM32F4xx_HAL_Driver/Src/stm32f4xx_hal_pcd.c ****   * @{
1608:Drivers/STM32F4xx_HAL_Driver/Src/stm32f4xx_hal_pcd.c ****   */
1609:Drivers/STM32F4xx_HAL_Driver/Src/stm32f4xx_hal_pcd.c **** 
1610:Drivers/STM32F4xx_HAL_Driver/Src/stm32f4xx_hal_pcd.c **** /**
1611:Drivers/STM32F4xx_HAL_Driver/Src/stm32f4xx_hal_pcd.c ****   * @brief  Connect the USB device
1612:Drivers/STM32F4xx_HAL_Driver/Src/stm32f4xx_hal_pcd.c ****   * @param  hpcd PCD handle
1613:Drivers/STM32F4xx_HAL_Driver/Src/stm32f4xx_hal_pcd.c ****   * @retval HAL status
1614:Drivers/STM32F4xx_HAL_Driver/Src/stm32f4xx_hal_pcd.c ****   */
1615:Drivers/STM32F4xx_HAL_Driver/Src/stm32f4xx_hal_pcd.c **** HAL_StatusTypeDef HAL_PCD_DevConnect(PCD_HandleTypeDef *hpcd)
1616:Drivers/STM32F4xx_HAL_Driver/Src/stm32f4xx_hal_pcd.c **** {
 2296              		.loc 1 1616 1
 2297              		.cfi_startproc
 2298              		@ args = 0, pretend = 0, frame = 16
 2299              		@ frame_needed = 1, uses_anonymous_args = 0
 2300 0000 80B5     		push	{r7, lr}
 2301              	.LCFI103:
 2302              		.cfi_def_cfa_offset 8
 2303              		.cfi_offset 7, -8
 2304              		.cfi_offset 14, -4
 2305 0002 84B0     		sub	sp, sp, #16
 2306              	.LCFI104:
 2307              		.cfi_def_cfa_offset 24
 2308 0004 00AF     		add	r7, sp, #0
 2309              	.LCFI105:
 2310              		.cfi_def_cfa_register 7
 2311 0006 7860     		str	r0, [r7, #4]
1617:Drivers/STM32F4xx_HAL_Driver/Src/stm32f4xx_hal_pcd.c **** #if defined (USB_OTG_FS) || defined (USB_OTG_HS)
1618:Drivers/STM32F4xx_HAL_Driver/Src/stm32f4xx_hal_pcd.c ****   USB_OTG_GlobalTypeDef *USBx = hpcd->Instance;
 2312              		.loc 1 1618 26
 2313 0008 7B68     		ldr	r3, [r7, #4]
 2314 000a 1B68     		ldr	r3, [r3]
 2315 000c FB60     		str	r3, [r7, #12]
1619:Drivers/STM32F4xx_HAL_Driver/Src/stm32f4xx_hal_pcd.c **** #endif /* defined (USB_OTG_FS) || defined (USB_OTG_HS) */
1620:Drivers/STM32F4xx_HAL_Driver/Src/stm32f4xx_hal_pcd.c **** 
1621:Drivers/STM32F4xx_HAL_Driver/Src/stm32f4xx_hal_pcd.c ****   __HAL_LOCK(hpcd);
 2316              		.loc 1 1621 3
 2317 000e 7B68     		ldr	r3, [r7, #4]
 2318 0010 93F8BC33 		ldrb	r3, [r3, #956]	@ zero_extendqisi2
 2319 0014 012B     		cmp	r3, #1
 2320 0016 01D1     		bne	.L82
 2321              		.loc 1 1621 3 is_stmt 0 discriminator 1
 2322 0018 0223     		movs	r3, #2
 2323 001a 1BE0     		b	.L83
 2324              	.L82:
 2325              		.loc 1 1621 3 discriminator 2
 2326 001c 7B68     		ldr	r3, [r7, #4]
 2327 001e 0122     		movs	r2, #1
ARM GAS  /tmp/ccsbOyJb.s 			page 70


 2328 0020 83F8BC23 		strb	r2, [r3, #956]
1622:Drivers/STM32F4xx_HAL_Driver/Src/stm32f4xx_hal_pcd.c **** #if defined (USB_OTG_FS) || defined (USB_OTG_HS)
1623:Drivers/STM32F4xx_HAL_Driver/Src/stm32f4xx_hal_pcd.c ****   if ((hpcd->Init.battery_charging_enable == 1U) &&
 2329              		.loc 1 1623 18 is_stmt 1 discriminator 2
 2330 0024 7B68     		ldr	r3, [r7, #4]
 2331 0026 9B6A     		ldr	r3, [r3, #40]
 2332              		.loc 1 1623 6 discriminator 2
 2333 0028 012B     		cmp	r3, #1
 2334 002a 09D1     		bne	.L84
1624:Drivers/STM32F4xx_HAL_Driver/Src/stm32f4xx_hal_pcd.c ****       (hpcd->Init.phy_itface != USB_OTG_ULPI_PHY))
 2335              		.loc 1 1624 18 discriminator 1
 2336 002c 7B68     		ldr	r3, [r7, #4]
 2337 002e 9B69     		ldr	r3, [r3, #24]
1623:Drivers/STM32F4xx_HAL_Driver/Src/stm32f4xx_hal_pcd.c ****       (hpcd->Init.phy_itface != USB_OTG_ULPI_PHY))
 2338              		.loc 1 1623 50 discriminator 1
 2339 0030 012B     		cmp	r3, #1
 2340 0032 05D0     		beq	.L84
1625:Drivers/STM32F4xx_HAL_Driver/Src/stm32f4xx_hal_pcd.c ****   {
1626:Drivers/STM32F4xx_HAL_Driver/Src/stm32f4xx_hal_pcd.c ****     /* Enable USB Transceiver */
1627:Drivers/STM32F4xx_HAL_Driver/Src/stm32f4xx_hal_pcd.c ****     USBx->GCCFG |= USB_OTG_GCCFG_PWRDWN;
 2341              		.loc 1 1627 17
 2342 0034 FB68     		ldr	r3, [r7, #12]
 2343 0036 9B6B     		ldr	r3, [r3, #56]
 2344 0038 43F48032 		orr	r2, r3, #65536
 2345 003c FB68     		ldr	r3, [r7, #12]
 2346 003e 9A63     		str	r2, [r3, #56]
 2347              	.L84:
1628:Drivers/STM32F4xx_HAL_Driver/Src/stm32f4xx_hal_pcd.c ****   }
1629:Drivers/STM32F4xx_HAL_Driver/Src/stm32f4xx_hal_pcd.c **** #endif /* defined (USB_OTG_FS) || defined (USB_OTG_HS) */
1630:Drivers/STM32F4xx_HAL_Driver/Src/stm32f4xx_hal_pcd.c ****   (void)USB_DevConnect(hpcd->Instance);
 2348              		.loc 1 1630 28
 2349 0040 7B68     		ldr	r3, [r7, #4]
 2350 0042 1B68     		ldr	r3, [r3]
 2351              		.loc 1 1630 9
 2352 0044 1846     		mov	r0, r3
 2353 0046 FFF7FEFF 		bl	USB_DevConnect
1631:Drivers/STM32F4xx_HAL_Driver/Src/stm32f4xx_hal_pcd.c ****   __HAL_UNLOCK(hpcd);
 2354              		.loc 1 1631 3
 2355 004a 7B68     		ldr	r3, [r7, #4]
 2356 004c 0022     		movs	r2, #0
 2357 004e 83F8BC23 		strb	r2, [r3, #956]
1632:Drivers/STM32F4xx_HAL_Driver/Src/stm32f4xx_hal_pcd.c ****   return HAL_OK;
 2358              		.loc 1 1632 10
 2359 0052 0023     		movs	r3, #0
 2360              	.L83:
1633:Drivers/STM32F4xx_HAL_Driver/Src/stm32f4xx_hal_pcd.c **** }
 2361              		.loc 1 1633 1
 2362 0054 1846     		mov	r0, r3
 2363 0056 1037     		adds	r7, r7, #16
 2364              	.LCFI106:
 2365              		.cfi_def_cfa_offset 8
 2366 0058 BD46     		mov	sp, r7
 2367              	.LCFI107:
 2368              		.cfi_def_cfa_register 13
 2369              		@ sp needed
 2370 005a 80BD     		pop	{r7, pc}
 2371              		.cfi_endproc
ARM GAS  /tmp/ccsbOyJb.s 			page 71


 2372              	.LFE148:
 2374              		.section	.text.HAL_PCD_DevDisconnect,"ax",%progbits
 2375              		.align	1
 2376              		.global	HAL_PCD_DevDisconnect
 2377              		.syntax unified
 2378              		.thumb
 2379              		.thumb_func
 2380              		.fpu fpv4-sp-d16
 2382              	HAL_PCD_DevDisconnect:
 2383              	.LFB149:
1634:Drivers/STM32F4xx_HAL_Driver/Src/stm32f4xx_hal_pcd.c **** 
1635:Drivers/STM32F4xx_HAL_Driver/Src/stm32f4xx_hal_pcd.c **** /**
1636:Drivers/STM32F4xx_HAL_Driver/Src/stm32f4xx_hal_pcd.c ****   * @brief  Disconnect the USB device.
1637:Drivers/STM32F4xx_HAL_Driver/Src/stm32f4xx_hal_pcd.c ****   * @param  hpcd PCD handle
1638:Drivers/STM32F4xx_HAL_Driver/Src/stm32f4xx_hal_pcd.c ****   * @retval HAL status
1639:Drivers/STM32F4xx_HAL_Driver/Src/stm32f4xx_hal_pcd.c ****   */
1640:Drivers/STM32F4xx_HAL_Driver/Src/stm32f4xx_hal_pcd.c **** HAL_StatusTypeDef HAL_PCD_DevDisconnect(PCD_HandleTypeDef *hpcd)
1641:Drivers/STM32F4xx_HAL_Driver/Src/stm32f4xx_hal_pcd.c **** {
 2384              		.loc 1 1641 1
 2385              		.cfi_startproc
 2386              		@ args = 0, pretend = 0, frame = 8
 2387              		@ frame_needed = 1, uses_anonymous_args = 0
 2388 0000 80B5     		push	{r7, lr}
 2389              	.LCFI108:
 2390              		.cfi_def_cfa_offset 8
 2391              		.cfi_offset 7, -8
 2392              		.cfi_offset 14, -4
 2393 0002 82B0     		sub	sp, sp, #8
 2394              	.LCFI109:
 2395              		.cfi_def_cfa_offset 16
 2396 0004 00AF     		add	r7, sp, #0
 2397              	.LCFI110:
 2398              		.cfi_def_cfa_register 7
 2399 0006 7860     		str	r0, [r7, #4]
1642:Drivers/STM32F4xx_HAL_Driver/Src/stm32f4xx_hal_pcd.c ****   __HAL_LOCK(hpcd);
 2400              		.loc 1 1642 3
 2401 0008 7B68     		ldr	r3, [r7, #4]
 2402 000a 93F8BC33 		ldrb	r3, [r3, #956]	@ zero_extendqisi2
 2403 000e 012B     		cmp	r3, #1
 2404 0010 01D1     		bne	.L86
 2405              		.loc 1 1642 3 is_stmt 0 discriminator 1
 2406 0012 0223     		movs	r3, #2
 2407 0014 0DE0     		b	.L87
 2408              	.L86:
 2409              		.loc 1 1642 3 discriminator 2
 2410 0016 7B68     		ldr	r3, [r7, #4]
 2411 0018 0122     		movs	r2, #1
 2412 001a 83F8BC23 		strb	r2, [r3, #956]
1643:Drivers/STM32F4xx_HAL_Driver/Src/stm32f4xx_hal_pcd.c ****   (void)USB_DevDisconnect(hpcd->Instance);
 2413              		.loc 1 1643 31 is_stmt 1 discriminator 2
 2414 001e 7B68     		ldr	r3, [r7, #4]
 2415 0020 1B68     		ldr	r3, [r3]
 2416              		.loc 1 1643 9 discriminator 2
 2417 0022 1846     		mov	r0, r3
 2418 0024 FFF7FEFF 		bl	USB_DevDisconnect
1644:Drivers/STM32F4xx_HAL_Driver/Src/stm32f4xx_hal_pcd.c ****   __HAL_UNLOCK(hpcd);
 2419              		.loc 1 1644 3 discriminator 2
ARM GAS  /tmp/ccsbOyJb.s 			page 72


 2420 0028 7B68     		ldr	r3, [r7, #4]
 2421 002a 0022     		movs	r2, #0
 2422 002c 83F8BC23 		strb	r2, [r3, #956]
1645:Drivers/STM32F4xx_HAL_Driver/Src/stm32f4xx_hal_pcd.c ****   return HAL_OK;
 2423              		.loc 1 1645 10 discriminator 2
 2424 0030 0023     		movs	r3, #0
 2425              	.L87:
1646:Drivers/STM32F4xx_HAL_Driver/Src/stm32f4xx_hal_pcd.c **** }
 2426              		.loc 1 1646 1
 2427 0032 1846     		mov	r0, r3
 2428 0034 0837     		adds	r7, r7, #8
 2429              	.LCFI111:
 2430              		.cfi_def_cfa_offset 8
 2431 0036 BD46     		mov	sp, r7
 2432              	.LCFI112:
 2433              		.cfi_def_cfa_register 13
 2434              		@ sp needed
 2435 0038 80BD     		pop	{r7, pc}
 2436              		.cfi_endproc
 2437              	.LFE149:
 2439              		.section	.text.HAL_PCD_SetAddress,"ax",%progbits
 2440              		.align	1
 2441              		.global	HAL_PCD_SetAddress
 2442              		.syntax unified
 2443              		.thumb
 2444              		.thumb_func
 2445              		.fpu fpv4-sp-d16
 2447              	HAL_PCD_SetAddress:
 2448              	.LFB150:
1647:Drivers/STM32F4xx_HAL_Driver/Src/stm32f4xx_hal_pcd.c **** 
1648:Drivers/STM32F4xx_HAL_Driver/Src/stm32f4xx_hal_pcd.c **** /**
1649:Drivers/STM32F4xx_HAL_Driver/Src/stm32f4xx_hal_pcd.c ****   * @brief  Set the USB Device address.
1650:Drivers/STM32F4xx_HAL_Driver/Src/stm32f4xx_hal_pcd.c ****   * @param  hpcd PCD handle
1651:Drivers/STM32F4xx_HAL_Driver/Src/stm32f4xx_hal_pcd.c ****   * @param  address new device address
1652:Drivers/STM32F4xx_HAL_Driver/Src/stm32f4xx_hal_pcd.c ****   * @retval HAL status
1653:Drivers/STM32F4xx_HAL_Driver/Src/stm32f4xx_hal_pcd.c ****   */
1654:Drivers/STM32F4xx_HAL_Driver/Src/stm32f4xx_hal_pcd.c **** HAL_StatusTypeDef HAL_PCD_SetAddress(PCD_HandleTypeDef *hpcd, uint8_t address)
1655:Drivers/STM32F4xx_HAL_Driver/Src/stm32f4xx_hal_pcd.c **** {
 2449              		.loc 1 1655 1
 2450              		.cfi_startproc
 2451              		@ args = 0, pretend = 0, frame = 8
 2452              		@ frame_needed = 1, uses_anonymous_args = 0
 2453 0000 80B5     		push	{r7, lr}
 2454              	.LCFI113:
 2455              		.cfi_def_cfa_offset 8
 2456              		.cfi_offset 7, -8
 2457              		.cfi_offset 14, -4
 2458 0002 82B0     		sub	sp, sp, #8
 2459              	.LCFI114:
 2460              		.cfi_def_cfa_offset 16
 2461 0004 00AF     		add	r7, sp, #0
 2462              	.LCFI115:
 2463              		.cfi_def_cfa_register 7
 2464 0006 7860     		str	r0, [r7, #4]
 2465 0008 0B46     		mov	r3, r1
 2466 000a FB70     		strb	r3, [r7, #3]
1656:Drivers/STM32F4xx_HAL_Driver/Src/stm32f4xx_hal_pcd.c ****   __HAL_LOCK(hpcd);
ARM GAS  /tmp/ccsbOyJb.s 			page 73


 2467              		.loc 1 1656 3
 2468 000c 7B68     		ldr	r3, [r7, #4]
 2469 000e 93F8BC33 		ldrb	r3, [r3, #956]	@ zero_extendqisi2
 2470 0012 012B     		cmp	r3, #1
 2471 0014 01D1     		bne	.L89
 2472              		.loc 1 1656 3 is_stmt 0 discriminator 1
 2473 0016 0223     		movs	r3, #2
 2474 0018 13E0     		b	.L90
 2475              	.L89:
 2476              		.loc 1 1656 3 discriminator 2
 2477 001a 7B68     		ldr	r3, [r7, #4]
 2478 001c 0122     		movs	r2, #1
 2479 001e 83F8BC23 		strb	r2, [r3, #956]
1657:Drivers/STM32F4xx_HAL_Driver/Src/stm32f4xx_hal_pcd.c ****   hpcd->USB_Address = address;
 2480              		.loc 1 1657 21 is_stmt 1 discriminator 2
 2481 0022 7B68     		ldr	r3, [r7, #4]
 2482 0024 FA78     		ldrb	r2, [r7, #3]
 2483 0026 83F83820 		strb	r2, [r3, #56]
1658:Drivers/STM32F4xx_HAL_Driver/Src/stm32f4xx_hal_pcd.c ****   (void)USB_SetDevAddress(hpcd->Instance, address);
 2484              		.loc 1 1658 31 discriminator 2
 2485 002a 7B68     		ldr	r3, [r7, #4]
 2486 002c 1B68     		ldr	r3, [r3]
 2487              		.loc 1 1658 9 discriminator 2
 2488 002e FA78     		ldrb	r2, [r7, #3]	@ zero_extendqisi2
 2489 0030 1146     		mov	r1, r2
 2490 0032 1846     		mov	r0, r3
 2491 0034 FFF7FEFF 		bl	USB_SetDevAddress
1659:Drivers/STM32F4xx_HAL_Driver/Src/stm32f4xx_hal_pcd.c ****   __HAL_UNLOCK(hpcd);
 2492              		.loc 1 1659 3 discriminator 2
 2493 0038 7B68     		ldr	r3, [r7, #4]
 2494 003a 0022     		movs	r2, #0
 2495 003c 83F8BC23 		strb	r2, [r3, #956]
1660:Drivers/STM32F4xx_HAL_Driver/Src/stm32f4xx_hal_pcd.c ****   return HAL_OK;
 2496              		.loc 1 1660 10 discriminator 2
 2497 0040 0023     		movs	r3, #0
 2498              	.L90:
1661:Drivers/STM32F4xx_HAL_Driver/Src/stm32f4xx_hal_pcd.c **** }
 2499              		.loc 1 1661 1
 2500 0042 1846     		mov	r0, r3
 2501 0044 0837     		adds	r7, r7, #8
 2502              	.LCFI116:
 2503              		.cfi_def_cfa_offset 8
 2504 0046 BD46     		mov	sp, r7
 2505              	.LCFI117:
 2506              		.cfi_def_cfa_register 13
 2507              		@ sp needed
 2508 0048 80BD     		pop	{r7, pc}
 2509              		.cfi_endproc
 2510              	.LFE150:
 2512              		.section	.text.HAL_PCD_EP_Open,"ax",%progbits
 2513              		.align	1
 2514              		.global	HAL_PCD_EP_Open
 2515              		.syntax unified
 2516              		.thumb
 2517              		.thumb_func
 2518              		.fpu fpv4-sp-d16
 2520              	HAL_PCD_EP_Open:
ARM GAS  /tmp/ccsbOyJb.s 			page 74


 2521              	.LFB151:
1662:Drivers/STM32F4xx_HAL_Driver/Src/stm32f4xx_hal_pcd.c **** /**
1663:Drivers/STM32F4xx_HAL_Driver/Src/stm32f4xx_hal_pcd.c ****   * @brief  Open and configure an endpoint.
1664:Drivers/STM32F4xx_HAL_Driver/Src/stm32f4xx_hal_pcd.c ****   * @param  hpcd PCD handle
1665:Drivers/STM32F4xx_HAL_Driver/Src/stm32f4xx_hal_pcd.c ****   * @param  ep_addr endpoint address
1666:Drivers/STM32F4xx_HAL_Driver/Src/stm32f4xx_hal_pcd.c ****   * @param  ep_mps endpoint max packet size
1667:Drivers/STM32F4xx_HAL_Driver/Src/stm32f4xx_hal_pcd.c ****   * @param  ep_type endpoint type
1668:Drivers/STM32F4xx_HAL_Driver/Src/stm32f4xx_hal_pcd.c ****   * @retval HAL status
1669:Drivers/STM32F4xx_HAL_Driver/Src/stm32f4xx_hal_pcd.c ****   */
1670:Drivers/STM32F4xx_HAL_Driver/Src/stm32f4xx_hal_pcd.c **** HAL_StatusTypeDef HAL_PCD_EP_Open(PCD_HandleTypeDef *hpcd, uint8_t ep_addr, uint16_t ep_mps, uint8_
1671:Drivers/STM32F4xx_HAL_Driver/Src/stm32f4xx_hal_pcd.c **** {
 2522              		.loc 1 1671 1
 2523              		.cfi_startproc
 2524              		@ args = 0, pretend = 0, frame = 16
 2525              		@ frame_needed = 1, uses_anonymous_args = 0
 2526 0000 80B5     		push	{r7, lr}
 2527              	.LCFI118:
 2528              		.cfi_def_cfa_offset 8
 2529              		.cfi_offset 7, -8
 2530              		.cfi_offset 14, -4
 2531 0002 84B0     		sub	sp, sp, #16
 2532              	.LCFI119:
 2533              		.cfi_def_cfa_offset 24
 2534 0004 00AF     		add	r7, sp, #0
 2535              	.LCFI120:
 2536              		.cfi_def_cfa_register 7
 2537 0006 7860     		str	r0, [r7, #4]
 2538 0008 0846     		mov	r0, r1
 2539 000a 1146     		mov	r1, r2
 2540 000c 1A46     		mov	r2, r3
 2541 000e 0346     		mov	r3, r0
 2542 0010 FB70     		strb	r3, [r7, #3]
 2543 0012 0B46     		mov	r3, r1	@ movhi
