ARM GAS  /tmp/cc9N7Buw.s 			page 1


   1              		.cpu cortex-m4
   2              		.eabi_attribute 27, 1
   3              		.eabi_attribute 28, 1
   4              		.eabi_attribute 20, 1
   5              		.eabi_attribute 21, 1
   6              		.eabi_attribute 23, 3
   7              		.eabi_attribute 24, 1
   8              		.eabi_attribute 25, 1
   9              		.eabi_attribute 26, 1
  10              		.eabi_attribute 30, 6
  11              		.eabi_attribute 34, 1
  12              		.eabi_attribute 18, 4
  13              		.file	"stm32f4xx_hal_spi.c"
  14              		.text
  15              	.Ltext0:
  16              		.cfi_sections	.debug_frame
  17              		.section	.rodata
  18              		.align	2
  19              	.LC0:
  20 0000 44726976 		.ascii	"Drivers/STM32F4xx_HAL_Driver/Src/stm32f4xx_hal_spi."
  20      6572732F 
  20      53544D33 
  20      32463478 
  20      785F4841 
  21 0033 6300     		.ascii	"c\000"
  22              		.section	.text.HAL_SPI_Init,"ax",%progbits
  23              		.align	1
  24              		.global	HAL_SPI_Init
  25              		.arch armv7e-m
  26              		.syntax unified
  27              		.thumb
  28              		.thumb_func
  29              		.fpu fpv4-sp-d16
  31              	HAL_SPI_Init:
  32              	.LFB130:
  33              		.file 1 "Drivers/STM32F4xx_HAL_Driver/Src/stm32f4xx_hal_spi.c"
   1:Drivers/STM32F4xx_HAL_Driver/Src/stm32f4xx_hal_spi.c **** /**
   2:Drivers/STM32F4xx_HAL_Driver/Src/stm32f4xx_hal_spi.c ****   ******************************************************************************
   3:Drivers/STM32F4xx_HAL_Driver/Src/stm32f4xx_hal_spi.c ****   * @file    stm32f4xx_hal_spi.c
   4:Drivers/STM32F4xx_HAL_Driver/Src/stm32f4xx_hal_spi.c ****   * @author  MCD Application Team
   5:Drivers/STM32F4xx_HAL_Driver/Src/stm32f4xx_hal_spi.c ****   * @brief   SPI HAL module driver.
   6:Drivers/STM32F4xx_HAL_Driver/Src/stm32f4xx_hal_spi.c ****   *          This file provides firmware functions to manage the following
   7:Drivers/STM32F4xx_HAL_Driver/Src/stm32f4xx_hal_spi.c ****   *          functionalities of the Serial Peripheral Interface (SPI) peripheral:
   8:Drivers/STM32F4xx_HAL_Driver/Src/stm32f4xx_hal_spi.c ****   *           + Initialization and de-initialization functions
   9:Drivers/STM32F4xx_HAL_Driver/Src/stm32f4xx_hal_spi.c ****   *           + IO operation functions
  10:Drivers/STM32F4xx_HAL_Driver/Src/stm32f4xx_hal_spi.c ****   *           + Peripheral Control functions
  11:Drivers/STM32F4xx_HAL_Driver/Src/stm32f4xx_hal_spi.c ****   *           + Peripheral State functions
  12:Drivers/STM32F4xx_HAL_Driver/Src/stm32f4xx_hal_spi.c ****   *
  13:Drivers/STM32F4xx_HAL_Driver/Src/stm32f4xx_hal_spi.c ****   @verbatim
  14:Drivers/STM32F4xx_HAL_Driver/Src/stm32f4xx_hal_spi.c ****   ==============================================================================
  15:Drivers/STM32F4xx_HAL_Driver/Src/stm32f4xx_hal_spi.c ****                         ##### How to use this driver #####
  16:Drivers/STM32F4xx_HAL_Driver/Src/stm32f4xx_hal_spi.c ****   ==============================================================================
  17:Drivers/STM32F4xx_HAL_Driver/Src/stm32f4xx_hal_spi.c ****     [..]
  18:Drivers/STM32F4xx_HAL_Driver/Src/stm32f4xx_hal_spi.c ****       The SPI HAL driver can be used as follows:
  19:Drivers/STM32F4xx_HAL_Driver/Src/stm32f4xx_hal_spi.c **** 
  20:Drivers/STM32F4xx_HAL_Driver/Src/stm32f4xx_hal_spi.c ****       (#) Declare a SPI_HandleTypeDef handle structure, for example:
  21:Drivers/STM32F4xx_HAL_Driver/Src/stm32f4xx_hal_spi.c ****           SPI_HandleTypeDef  hspi;
ARM GAS  /tmp/cc9N7Buw.s 			page 2


  22:Drivers/STM32F4xx_HAL_Driver/Src/stm32f4xx_hal_spi.c **** 
  23:Drivers/STM32F4xx_HAL_Driver/Src/stm32f4xx_hal_spi.c ****       (#)Initialize the SPI low level resources by implementing the HAL_SPI_MspInit() API:
  24:Drivers/STM32F4xx_HAL_Driver/Src/stm32f4xx_hal_spi.c ****           (##) Enable the SPIx interface clock
  25:Drivers/STM32F4xx_HAL_Driver/Src/stm32f4xx_hal_spi.c ****           (##) SPI pins configuration
  26:Drivers/STM32F4xx_HAL_Driver/Src/stm32f4xx_hal_spi.c ****               (+++) Enable the clock for the SPI GPIOs
  27:Drivers/STM32F4xx_HAL_Driver/Src/stm32f4xx_hal_spi.c ****               (+++) Configure these SPI pins as alternate function push-pull
  28:Drivers/STM32F4xx_HAL_Driver/Src/stm32f4xx_hal_spi.c ****           (##) NVIC configuration if you need to use interrupt process
  29:Drivers/STM32F4xx_HAL_Driver/Src/stm32f4xx_hal_spi.c ****               (+++) Configure the SPIx interrupt priority
  30:Drivers/STM32F4xx_HAL_Driver/Src/stm32f4xx_hal_spi.c ****               (+++) Enable the NVIC SPI IRQ handle
  31:Drivers/STM32F4xx_HAL_Driver/Src/stm32f4xx_hal_spi.c ****           (##) DMA Configuration if you need to use DMA process
  32:Drivers/STM32F4xx_HAL_Driver/Src/stm32f4xx_hal_spi.c ****               (+++) Declare a DMA_HandleTypeDef handle structure for the transmit or receive Stream
  33:Drivers/STM32F4xx_HAL_Driver/Src/stm32f4xx_hal_spi.c ****               (+++) Enable the DMAx clock
  34:Drivers/STM32F4xx_HAL_Driver/Src/stm32f4xx_hal_spi.c ****               (+++) Configure the DMA handle parameters
  35:Drivers/STM32F4xx_HAL_Driver/Src/stm32f4xx_hal_spi.c ****               (+++) Configure the DMA Tx or Rx Stream/Channel
  36:Drivers/STM32F4xx_HAL_Driver/Src/stm32f4xx_hal_spi.c ****               (+++) Associate the initialized hdma_tx(or _rx)  handle to the hspi DMA Tx or Rx hand
  37:Drivers/STM32F4xx_HAL_Driver/Src/stm32f4xx_hal_spi.c ****               (+++) Configure the priority and enable the NVIC for the transfer complete interrupt 
  38:Drivers/STM32F4xx_HAL_Driver/Src/stm32f4xx_hal_spi.c **** 
  39:Drivers/STM32F4xx_HAL_Driver/Src/stm32f4xx_hal_spi.c ****       (#) Program the Mode, BidirectionalMode , Data size, Baudrate Prescaler, NSS
  40:Drivers/STM32F4xx_HAL_Driver/Src/stm32f4xx_hal_spi.c ****           management, Clock polarity and phase, FirstBit and CRC configuration in the hspi Init str
  41:Drivers/STM32F4xx_HAL_Driver/Src/stm32f4xx_hal_spi.c **** 
  42:Drivers/STM32F4xx_HAL_Driver/Src/stm32f4xx_hal_spi.c ****       (#) Initialize the SPI registers by calling the HAL_SPI_Init() API:
  43:Drivers/STM32F4xx_HAL_Driver/Src/stm32f4xx_hal_spi.c ****           (++) This API configures also the low level Hardware GPIO, CLOCK, CORTEX...etc)
  44:Drivers/STM32F4xx_HAL_Driver/Src/stm32f4xx_hal_spi.c ****               by calling the customized HAL_SPI_MspInit() API.
  45:Drivers/STM32F4xx_HAL_Driver/Src/stm32f4xx_hal_spi.c ****      [..]
  46:Drivers/STM32F4xx_HAL_Driver/Src/stm32f4xx_hal_spi.c ****        Circular mode restriction:
  47:Drivers/STM32F4xx_HAL_Driver/Src/stm32f4xx_hal_spi.c ****       (#) The DMA circular mode cannot be used when the SPI is configured in these modes:
  48:Drivers/STM32F4xx_HAL_Driver/Src/stm32f4xx_hal_spi.c ****           (##) Master 2Lines RxOnly
  49:Drivers/STM32F4xx_HAL_Driver/Src/stm32f4xx_hal_spi.c ****           (##) Master 1Line Rx
  50:Drivers/STM32F4xx_HAL_Driver/Src/stm32f4xx_hal_spi.c ****       (#) The CRC feature is not managed when the DMA circular mode is enabled
  51:Drivers/STM32F4xx_HAL_Driver/Src/stm32f4xx_hal_spi.c ****       (#) When the SPI DMA Pause/Stop features are used, we must use the following APIs
  52:Drivers/STM32F4xx_HAL_Driver/Src/stm32f4xx_hal_spi.c ****           the HAL_SPI_DMAPause()/ HAL_SPI_DMAStop() only under the SPI callbacks
  53:Drivers/STM32F4xx_HAL_Driver/Src/stm32f4xx_hal_spi.c ****      [..]
  54:Drivers/STM32F4xx_HAL_Driver/Src/stm32f4xx_hal_spi.c ****        Master Receive mode restriction:
  55:Drivers/STM32F4xx_HAL_Driver/Src/stm32f4xx_hal_spi.c ****       (#) In Master unidirectional receive-only mode (MSTR =1, BIDIMODE=0, RXONLY=1) or
  56:Drivers/STM32F4xx_HAL_Driver/Src/stm32f4xx_hal_spi.c ****           bidirectional receive mode (MSTR=1, BIDIMODE=1, BIDIOE=0), to ensure that the SPI
  57:Drivers/STM32F4xx_HAL_Driver/Src/stm32f4xx_hal_spi.c ****           does not initiate a new transfer the following procedure has to be respected:
  58:Drivers/STM32F4xx_HAL_Driver/Src/stm32f4xx_hal_spi.c ****           (##) HAL_SPI_DeInit()
  59:Drivers/STM32F4xx_HAL_Driver/Src/stm32f4xx_hal_spi.c ****           (##) HAL_SPI_Init()
  60:Drivers/STM32F4xx_HAL_Driver/Src/stm32f4xx_hal_spi.c ****      [..]
  61:Drivers/STM32F4xx_HAL_Driver/Src/stm32f4xx_hal_spi.c ****        Callback registration:
  62:Drivers/STM32F4xx_HAL_Driver/Src/stm32f4xx_hal_spi.c **** 
  63:Drivers/STM32F4xx_HAL_Driver/Src/stm32f4xx_hal_spi.c ****       (#) The compilation flag USE_HAL_SPI_REGISTER_CALLBACKS when set to 1U
  64:Drivers/STM32F4xx_HAL_Driver/Src/stm32f4xx_hal_spi.c ****           allows the user to configure dynamically the driver callbacks.
  65:Drivers/STM32F4xx_HAL_Driver/Src/stm32f4xx_hal_spi.c ****           Use Functions HAL_SPI_RegisterCallback() to register an interrupt callback.
  66:Drivers/STM32F4xx_HAL_Driver/Src/stm32f4xx_hal_spi.c **** 
  67:Drivers/STM32F4xx_HAL_Driver/Src/stm32f4xx_hal_spi.c ****           Function HAL_SPI_RegisterCallback() allows to register following callbacks:
  68:Drivers/STM32F4xx_HAL_Driver/Src/stm32f4xx_hal_spi.c ****             (++) TxCpltCallback        : SPI Tx Completed callback
  69:Drivers/STM32F4xx_HAL_Driver/Src/stm32f4xx_hal_spi.c ****             (++) RxCpltCallback        : SPI Rx Completed callback
  70:Drivers/STM32F4xx_HAL_Driver/Src/stm32f4xx_hal_spi.c ****             (++) TxRxCpltCallback      : SPI TxRx Completed callback
  71:Drivers/STM32F4xx_HAL_Driver/Src/stm32f4xx_hal_spi.c ****             (++) TxHalfCpltCallback    : SPI Tx Half Completed callback
  72:Drivers/STM32F4xx_HAL_Driver/Src/stm32f4xx_hal_spi.c ****             (++) RxHalfCpltCallback    : SPI Rx Half Completed callback
  73:Drivers/STM32F4xx_HAL_Driver/Src/stm32f4xx_hal_spi.c ****             (++) TxRxHalfCpltCallback  : SPI TxRx Half Completed callback
  74:Drivers/STM32F4xx_HAL_Driver/Src/stm32f4xx_hal_spi.c ****             (++) ErrorCallback         : SPI Error callback
  75:Drivers/STM32F4xx_HAL_Driver/Src/stm32f4xx_hal_spi.c ****             (++) AbortCpltCallback     : SPI Abort callback
  76:Drivers/STM32F4xx_HAL_Driver/Src/stm32f4xx_hal_spi.c ****             (++) MspInitCallback       : SPI Msp Init callback
  77:Drivers/STM32F4xx_HAL_Driver/Src/stm32f4xx_hal_spi.c ****             (++) MspDeInitCallback     : SPI Msp DeInit callback
  78:Drivers/STM32F4xx_HAL_Driver/Src/stm32f4xx_hal_spi.c ****           This function takes as parameters the HAL peripheral handle, the Callback ID
ARM GAS  /tmp/cc9N7Buw.s 			page 3


  79:Drivers/STM32F4xx_HAL_Driver/Src/stm32f4xx_hal_spi.c ****           and a pointer to the user callback function.
  80:Drivers/STM32F4xx_HAL_Driver/Src/stm32f4xx_hal_spi.c **** 
  81:Drivers/STM32F4xx_HAL_Driver/Src/stm32f4xx_hal_spi.c **** 
  82:Drivers/STM32F4xx_HAL_Driver/Src/stm32f4xx_hal_spi.c ****       (#) Use function HAL_SPI_UnRegisterCallback to reset a callback to the default
  83:Drivers/STM32F4xx_HAL_Driver/Src/stm32f4xx_hal_spi.c ****           weak function.
  84:Drivers/STM32F4xx_HAL_Driver/Src/stm32f4xx_hal_spi.c ****           HAL_SPI_UnRegisterCallback takes as parameters the HAL peripheral handle,
  85:Drivers/STM32F4xx_HAL_Driver/Src/stm32f4xx_hal_spi.c ****           and the Callback ID.
  86:Drivers/STM32F4xx_HAL_Driver/Src/stm32f4xx_hal_spi.c ****           This function allows to reset following callbacks:
  87:Drivers/STM32F4xx_HAL_Driver/Src/stm32f4xx_hal_spi.c ****             (++) TxCpltCallback        : SPI Tx Completed callback
  88:Drivers/STM32F4xx_HAL_Driver/Src/stm32f4xx_hal_spi.c ****             (++) RxCpltCallback        : SPI Rx Completed callback
  89:Drivers/STM32F4xx_HAL_Driver/Src/stm32f4xx_hal_spi.c ****             (++) TxRxCpltCallback      : SPI TxRx Completed callback
  90:Drivers/STM32F4xx_HAL_Driver/Src/stm32f4xx_hal_spi.c ****             (++) TxHalfCpltCallback    : SPI Tx Half Completed callback
  91:Drivers/STM32F4xx_HAL_Driver/Src/stm32f4xx_hal_spi.c ****             (++) RxHalfCpltCallback    : SPI Rx Half Completed callback
  92:Drivers/STM32F4xx_HAL_Driver/Src/stm32f4xx_hal_spi.c ****             (++) TxRxHalfCpltCallback  : SPI TxRx Half Completed callback
  93:Drivers/STM32F4xx_HAL_Driver/Src/stm32f4xx_hal_spi.c ****             (++) ErrorCallback         : SPI Error callback
  94:Drivers/STM32F4xx_HAL_Driver/Src/stm32f4xx_hal_spi.c ****             (++) AbortCpltCallback     : SPI Abort callback
  95:Drivers/STM32F4xx_HAL_Driver/Src/stm32f4xx_hal_spi.c ****             (++) MspInitCallback       : SPI Msp Init callback
  96:Drivers/STM32F4xx_HAL_Driver/Src/stm32f4xx_hal_spi.c ****             (++) MspDeInitCallback     : SPI Msp DeInit callback
  97:Drivers/STM32F4xx_HAL_Driver/Src/stm32f4xx_hal_spi.c **** 
  98:Drivers/STM32F4xx_HAL_Driver/Src/stm32f4xx_hal_spi.c ****        [..]
  99:Drivers/STM32F4xx_HAL_Driver/Src/stm32f4xx_hal_spi.c ****        By default, after the HAL_SPI_Init() and when the state is HAL_SPI_STATE_RESET
 100:Drivers/STM32F4xx_HAL_Driver/Src/stm32f4xx_hal_spi.c ****        all callbacks are set to the corresponding weak functions:
 101:Drivers/STM32F4xx_HAL_Driver/Src/stm32f4xx_hal_spi.c ****        examples HAL_SPI_MasterTxCpltCallback(), HAL_SPI_MasterRxCpltCallback().
 102:Drivers/STM32F4xx_HAL_Driver/Src/stm32f4xx_hal_spi.c ****        Exception done for MspInit and MspDeInit functions that are
 103:Drivers/STM32F4xx_HAL_Driver/Src/stm32f4xx_hal_spi.c ****        reset to the legacy weak functions in the HAL_SPI_Init()/ HAL_SPI_DeInit() only when
 104:Drivers/STM32F4xx_HAL_Driver/Src/stm32f4xx_hal_spi.c ****        these callbacks are null (not registered beforehand).
 105:Drivers/STM32F4xx_HAL_Driver/Src/stm32f4xx_hal_spi.c ****        If MspInit or MspDeInit are not null, the HAL_SPI_Init()/ HAL_SPI_DeInit()
 106:Drivers/STM32F4xx_HAL_Driver/Src/stm32f4xx_hal_spi.c ****        keep and use the user MspInit/MspDeInit callbacks (registered beforehand) whatever the state
 107:Drivers/STM32F4xx_HAL_Driver/Src/stm32f4xx_hal_spi.c **** 
 108:Drivers/STM32F4xx_HAL_Driver/Src/stm32f4xx_hal_spi.c ****        [..]
 109:Drivers/STM32F4xx_HAL_Driver/Src/stm32f4xx_hal_spi.c ****        Callbacks can be registered/unregistered in HAL_SPI_STATE_READY state only.
 110:Drivers/STM32F4xx_HAL_Driver/Src/stm32f4xx_hal_spi.c ****        Exception done MspInit/MspDeInit functions that can be registered/unregistered
 111:Drivers/STM32F4xx_HAL_Driver/Src/stm32f4xx_hal_spi.c ****        in HAL_SPI_STATE_READY or HAL_SPI_STATE_RESET state,
 112:Drivers/STM32F4xx_HAL_Driver/Src/stm32f4xx_hal_spi.c ****        thus registered (user) MspInit/DeInit callbacks can be used during the Init/DeInit.
 113:Drivers/STM32F4xx_HAL_Driver/Src/stm32f4xx_hal_spi.c ****        Then, the user first registers the MspInit/MspDeInit user callbacks
 114:Drivers/STM32F4xx_HAL_Driver/Src/stm32f4xx_hal_spi.c ****        using HAL_SPI_RegisterCallback() before calling HAL_SPI_DeInit()
 115:Drivers/STM32F4xx_HAL_Driver/Src/stm32f4xx_hal_spi.c ****        or HAL_SPI_Init() function.
 116:Drivers/STM32F4xx_HAL_Driver/Src/stm32f4xx_hal_spi.c **** 
 117:Drivers/STM32F4xx_HAL_Driver/Src/stm32f4xx_hal_spi.c ****        [..]
 118:Drivers/STM32F4xx_HAL_Driver/Src/stm32f4xx_hal_spi.c ****        When the compilation define USE_HAL_PPP_REGISTER_CALLBACKS is set to 0 or
 119:Drivers/STM32F4xx_HAL_Driver/Src/stm32f4xx_hal_spi.c ****        not defined, the callback registering feature is not available
 120:Drivers/STM32F4xx_HAL_Driver/Src/stm32f4xx_hal_spi.c ****        and weak (surcharged) callbacks are used.
 121:Drivers/STM32F4xx_HAL_Driver/Src/stm32f4xx_hal_spi.c **** 
 122:Drivers/STM32F4xx_HAL_Driver/Src/stm32f4xx_hal_spi.c ****      [..]
 123:Drivers/STM32F4xx_HAL_Driver/Src/stm32f4xx_hal_spi.c ****        Using the HAL it is not possible to reach all supported SPI frequency with the different SPI
 124:Drivers/STM32F4xx_HAL_Driver/Src/stm32f4xx_hal_spi.c ****        the following table resume the max SPI frequency reached with data size 8bits/16bits,
 125:Drivers/STM32F4xx_HAL_Driver/Src/stm32f4xx_hal_spi.c ****          according to frequency of the APBx Peripheral Clock (fPCLK) used by the SPI instance.
 126:Drivers/STM32F4xx_HAL_Driver/Src/stm32f4xx_hal_spi.c **** 
 127:Drivers/STM32F4xx_HAL_Driver/Src/stm32f4xx_hal_spi.c ****   @endverbatim
 128:Drivers/STM32F4xx_HAL_Driver/Src/stm32f4xx_hal_spi.c **** 
 129:Drivers/STM32F4xx_HAL_Driver/Src/stm32f4xx_hal_spi.c ****   Additional table :
 130:Drivers/STM32F4xx_HAL_Driver/Src/stm32f4xx_hal_spi.c **** 
 131:Drivers/STM32F4xx_HAL_Driver/Src/stm32f4xx_hal_spi.c ****        DataSize = SPI_DATASIZE_8BIT:
 132:Drivers/STM32F4xx_HAL_Driver/Src/stm32f4xx_hal_spi.c ****        +-------------------------------------------------------------------------------------------
 133:Drivers/STM32F4xx_HAL_Driver/Src/stm32f4xx_hal_spi.c ****        |         |                | 2Lines Fullduplex   |     2Lines RxOnly    |         1Line     
 134:Drivers/STM32F4xx_HAL_Driver/Src/stm32f4xx_hal_spi.c ****        | Process | Tranfert mode  |---------------------|----------------------|-------------------
 135:Drivers/STM32F4xx_HAL_Driver/Src/stm32f4xx_hal_spi.c ****        |         |                |  Master  |  Slave   |  Master   |  Slave   |  Master   |  Slave
ARM GAS  /tmp/cc9N7Buw.s 			page 4


 136:Drivers/STM32F4xx_HAL_Driver/Src/stm32f4xx_hal_spi.c ****        |===========================================================================================
 137:Drivers/STM32F4xx_HAL_Driver/Src/stm32f4xx_hal_spi.c ****        |    T    |     Polling    | Fpclk/2  | Fpclk/2  |    NA     |    NA    |    NA     |   NA  
 138:Drivers/STM32F4xx_HAL_Driver/Src/stm32f4xx_hal_spi.c ****        |    X    |----------------|----------|----------|-----------|----------|-----------|-------
 139:Drivers/STM32F4xx_HAL_Driver/Src/stm32f4xx_hal_spi.c ****        |    /    |     Interrupt  | Fpclk/4  | Fpclk/8  |    NA     |    NA    |    NA     |   NA  
 140:Drivers/STM32F4xx_HAL_Driver/Src/stm32f4xx_hal_spi.c ****        |    R    |----------------|----------|----------|-----------|----------|-----------|-------
 141:Drivers/STM32F4xx_HAL_Driver/Src/stm32f4xx_hal_spi.c ****        |    X    |       DMA      | Fpclk/2  | Fpclk/2  |    NA     |    NA    |    NA     |   NA  
 142:Drivers/STM32F4xx_HAL_Driver/Src/stm32f4xx_hal_spi.c ****        |=========|================|==========|==========|===========|==========|===========|=======
 143:Drivers/STM32F4xx_HAL_Driver/Src/stm32f4xx_hal_spi.c ****        |         |     Polling    | Fpclk/2  | Fpclk/2  | Fpclk/64  | Fpclk/2  | Fpclk/64  | Fpclk/
 144:Drivers/STM32F4xx_HAL_Driver/Src/stm32f4xx_hal_spi.c ****        |         |----------------|----------|----------|-----------|----------|-----------|-------
 145:Drivers/STM32F4xx_HAL_Driver/Src/stm32f4xx_hal_spi.c ****        |    R    |     Interrupt  | Fpclk/8  | Fpclk/8  | Fpclk/64  | Fpclk/2  | Fpclk/64  | Fpclk/
 146:Drivers/STM32F4xx_HAL_Driver/Src/stm32f4xx_hal_spi.c ****        |    X    |----------------|----------|----------|-----------|----------|-----------|-------
 147:Drivers/STM32F4xx_HAL_Driver/Src/stm32f4xx_hal_spi.c ****        |         |       DMA      | Fpclk/2  | Fpclk/2  | Fpclk/64  | Fpclk/2  | Fpclk/128 | Fpclk/
 148:Drivers/STM32F4xx_HAL_Driver/Src/stm32f4xx_hal_spi.c ****        |=========|================|==========|==========|===========|==========|===========|=======
 149:Drivers/STM32F4xx_HAL_Driver/Src/stm32f4xx_hal_spi.c ****        |         |     Polling    | Fpclk/2  | Fpclk/4  |     NA    |    NA    | Fpclk/2   | Fpclk/
 150:Drivers/STM32F4xx_HAL_Driver/Src/stm32f4xx_hal_spi.c ****        |         |----------------|----------|----------|-----------|----------|-----------|-------
 151:Drivers/STM32F4xx_HAL_Driver/Src/stm32f4xx_hal_spi.c ****        |    T    |     Interrupt  | Fpclk/2  | Fpclk/4  |     NA    |    NA    | Fpclk/2   | Fpclk/
 152:Drivers/STM32F4xx_HAL_Driver/Src/stm32f4xx_hal_spi.c ****        |    X    |----------------|----------|----------|-----------|----------|-----------|-------
 153:Drivers/STM32F4xx_HAL_Driver/Src/stm32f4xx_hal_spi.c ****        |         |       DMA      | Fpclk/2  | Fpclk/2  |     NA    |    NA    | Fpclk/2   | Fpclk/
 154:Drivers/STM32F4xx_HAL_Driver/Src/stm32f4xx_hal_spi.c ****        +-------------------------------------------------------------------------------------------
 155:Drivers/STM32F4xx_HAL_Driver/Src/stm32f4xx_hal_spi.c **** 
 156:Drivers/STM32F4xx_HAL_Driver/Src/stm32f4xx_hal_spi.c ****        DataSize = SPI_DATASIZE_16BIT:
 157:Drivers/STM32F4xx_HAL_Driver/Src/stm32f4xx_hal_spi.c ****        +-------------------------------------------------------------------------------------------
 158:Drivers/STM32F4xx_HAL_Driver/Src/stm32f4xx_hal_spi.c ****        |         |                | 2Lines Fullduplex   |     2Lines RxOnly    |         1Line     
 159:Drivers/STM32F4xx_HAL_Driver/Src/stm32f4xx_hal_spi.c ****        | Process | Tranfert mode  |---------------------|----------------------|-------------------
 160:Drivers/STM32F4xx_HAL_Driver/Src/stm32f4xx_hal_spi.c ****        |         |                |  Master  |  Slave   |  Master   |  Slave   |  Master   |  Slave
 161:Drivers/STM32F4xx_HAL_Driver/Src/stm32f4xx_hal_spi.c ****        |===========================================================================================
 162:Drivers/STM32F4xx_HAL_Driver/Src/stm32f4xx_hal_spi.c ****        |    T    |     Polling    | Fpclk/2  | Fpclk/2  |    NA     |    NA    |    NA     |   NA  
 163:Drivers/STM32F4xx_HAL_Driver/Src/stm32f4xx_hal_spi.c ****        |    X    |----------------|----------|----------|-----------|----------|-----------|-------
 164:Drivers/STM32F4xx_HAL_Driver/Src/stm32f4xx_hal_spi.c ****        |    /    |     Interrupt  | Fpclk/4  | Fpclk/4  |    NA     |    NA    |    NA     |   NA  
 165:Drivers/STM32F4xx_HAL_Driver/Src/stm32f4xx_hal_spi.c ****        |    R    |----------------|----------|----------|-----------|----------|-----------|-------
 166:Drivers/STM32F4xx_HAL_Driver/Src/stm32f4xx_hal_spi.c ****        |    X    |       DMA      | Fpclk/2  | Fpclk/2  |    NA     |    NA    |    NA     |   NA  
 167:Drivers/STM32F4xx_HAL_Driver/Src/stm32f4xx_hal_spi.c ****        |=========|================|==========|==========|===========|==========|===========|=======
 168:Drivers/STM32F4xx_HAL_Driver/Src/stm32f4xx_hal_spi.c ****        |         |     Polling    | Fpclk/2  | Fpclk/2  | Fpclk/64  | Fpclk/2  | Fpclk/32  | Fpclk/
 169:Drivers/STM32F4xx_HAL_Driver/Src/stm32f4xx_hal_spi.c ****        |         |----------------|----------|----------|-----------|----------|-----------|-------
 170:Drivers/STM32F4xx_HAL_Driver/Src/stm32f4xx_hal_spi.c ****        |    R    |     Interrupt  | Fpclk/4  | Fpclk/4  | Fpclk/64  | Fpclk/2  | Fpclk/64  | Fpclk/
 171:Drivers/STM32F4xx_HAL_Driver/Src/stm32f4xx_hal_spi.c ****        |    X    |----------------|----------|----------|-----------|----------|-----------|-------
 172:Drivers/STM32F4xx_HAL_Driver/Src/stm32f4xx_hal_spi.c ****        |         |       DMA      | Fpclk/2  | Fpclk/2  | Fpclk/64  | Fpclk/2  | Fpclk/128 | Fpclk/
 173:Drivers/STM32F4xx_HAL_Driver/Src/stm32f4xx_hal_spi.c ****        |=========|================|==========|==========|===========|==========|===========|=======
 174:Drivers/STM32F4xx_HAL_Driver/Src/stm32f4xx_hal_spi.c ****        |         |     Polling    | Fpclk/2  | Fpclk/2  |     NA    |    NA    | Fpclk/2   | Fpclk/
 175:Drivers/STM32F4xx_HAL_Driver/Src/stm32f4xx_hal_spi.c ****        |         |----------------|----------|----------|-----------|----------|-----------|-------
 176:Drivers/STM32F4xx_HAL_Driver/Src/stm32f4xx_hal_spi.c ****        |    T    |     Interrupt  | Fpclk/2  | Fpclk/2  |     NA    |    NA    | Fpclk/2   | Fpclk/
 177:Drivers/STM32F4xx_HAL_Driver/Src/stm32f4xx_hal_spi.c ****        |    X    |----------------|----------|----------|-----------|----------|-----------|-------
 178:Drivers/STM32F4xx_HAL_Driver/Src/stm32f4xx_hal_spi.c ****        |         |       DMA      | Fpclk/2  | Fpclk/2  |     NA    |    NA    | Fpclk/2   | Fpclk/
 179:Drivers/STM32F4xx_HAL_Driver/Src/stm32f4xx_hal_spi.c ****        +-------------------------------------------------------------------------------------------
 180:Drivers/STM32F4xx_HAL_Driver/Src/stm32f4xx_hal_spi.c ****        @note The max SPI frequency depend on SPI data size (8bits, 16bits),
 181:Drivers/STM32F4xx_HAL_Driver/Src/stm32f4xx_hal_spi.c ****              SPI mode(2 Lines fullduplex, 2 lines RxOnly, 1 line TX/RX) and Process mode (Polling, 
 182:Drivers/STM32F4xx_HAL_Driver/Src/stm32f4xx_hal_spi.c ****        @note
 183:Drivers/STM32F4xx_HAL_Driver/Src/stm32f4xx_hal_spi.c ****             (#) TX/RX processes are HAL_SPI_TransmitReceive(), HAL_SPI_TransmitReceive_IT() and HAL
 184:Drivers/STM32F4xx_HAL_Driver/Src/stm32f4xx_hal_spi.c ****             (#) RX processes are HAL_SPI_Receive(), HAL_SPI_Receive_IT() and HAL_SPI_Receive_DMA()
 185:Drivers/STM32F4xx_HAL_Driver/Src/stm32f4xx_hal_spi.c ****             (#) TX processes are HAL_SPI_Transmit(), HAL_SPI_Transmit_IT() and HAL_SPI_Transmit_DMA
 186:Drivers/STM32F4xx_HAL_Driver/Src/stm32f4xx_hal_spi.c **** 
 187:Drivers/STM32F4xx_HAL_Driver/Src/stm32f4xx_hal_spi.c ****   ******************************************************************************
 188:Drivers/STM32F4xx_HAL_Driver/Src/stm32f4xx_hal_spi.c ****   * @attention
 189:Drivers/STM32F4xx_HAL_Driver/Src/stm32f4xx_hal_spi.c ****   *
 190:Drivers/STM32F4xx_HAL_Driver/Src/stm32f4xx_hal_spi.c ****   * <h2><center>&copy; Copyright (c) 2016 STMicroelectronics.
 191:Drivers/STM32F4xx_HAL_Driver/Src/stm32f4xx_hal_spi.c ****   * All rights reserved.</center></h2>
 192:Drivers/STM32F4xx_HAL_Driver/Src/stm32f4xx_hal_spi.c ****   *
ARM GAS  /tmp/cc9N7Buw.s 			page 5


 193:Drivers/STM32F4xx_HAL_Driver/Src/stm32f4xx_hal_spi.c ****   * This software component is licensed by ST under BSD 3-Clause license,
 194:Drivers/STM32F4xx_HAL_Driver/Src/stm32f4xx_hal_spi.c ****   * the "License"; You may not use this file except in compliance with the
 195:Drivers/STM32F4xx_HAL_Driver/Src/stm32f4xx_hal_spi.c ****   * License. You may obtain a copy of the License at:
 196:Drivers/STM32F4xx_HAL_Driver/Src/stm32f4xx_hal_spi.c ****   *                        opensource.org/licenses/BSD-3-Clause
 197:Drivers/STM32F4xx_HAL_Driver/Src/stm32f4xx_hal_spi.c ****   *
 198:Drivers/STM32F4xx_HAL_Driver/Src/stm32f4xx_hal_spi.c ****   ******************************************************************************
 199:Drivers/STM32F4xx_HAL_Driver/Src/stm32f4xx_hal_spi.c ****   */
 200:Drivers/STM32F4xx_HAL_Driver/Src/stm32f4xx_hal_spi.c **** 
 201:Drivers/STM32F4xx_HAL_Driver/Src/stm32f4xx_hal_spi.c **** /* Includes ------------------------------------------------------------------*/
 202:Drivers/STM32F4xx_HAL_Driver/Src/stm32f4xx_hal_spi.c **** #include "stm32f4xx_hal.h"
 203:Drivers/STM32F4xx_HAL_Driver/Src/stm32f4xx_hal_spi.c **** 
 204:Drivers/STM32F4xx_HAL_Driver/Src/stm32f4xx_hal_spi.c **** /** @addtogroup STM32F4xx_HAL_Driver
 205:Drivers/STM32F4xx_HAL_Driver/Src/stm32f4xx_hal_spi.c ****   * @{
 206:Drivers/STM32F4xx_HAL_Driver/Src/stm32f4xx_hal_spi.c ****   */
 207:Drivers/STM32F4xx_HAL_Driver/Src/stm32f4xx_hal_spi.c **** 
 208:Drivers/STM32F4xx_HAL_Driver/Src/stm32f4xx_hal_spi.c **** /** @defgroup SPI SPI
 209:Drivers/STM32F4xx_HAL_Driver/Src/stm32f4xx_hal_spi.c ****   * @brief SPI HAL module driver
 210:Drivers/STM32F4xx_HAL_Driver/Src/stm32f4xx_hal_spi.c ****   * @{
 211:Drivers/STM32F4xx_HAL_Driver/Src/stm32f4xx_hal_spi.c ****   */
 212:Drivers/STM32F4xx_HAL_Driver/Src/stm32f4xx_hal_spi.c **** #ifdef HAL_SPI_MODULE_ENABLED
 213:Drivers/STM32F4xx_HAL_Driver/Src/stm32f4xx_hal_spi.c **** 
 214:Drivers/STM32F4xx_HAL_Driver/Src/stm32f4xx_hal_spi.c **** /* Private typedef -----------------------------------------------------------*/
 215:Drivers/STM32F4xx_HAL_Driver/Src/stm32f4xx_hal_spi.c **** /* Private defines -----------------------------------------------------------*/
 216:Drivers/STM32F4xx_HAL_Driver/Src/stm32f4xx_hal_spi.c **** /** @defgroup SPI_Private_Constants SPI Private Constants
 217:Drivers/STM32F4xx_HAL_Driver/Src/stm32f4xx_hal_spi.c ****   * @{
 218:Drivers/STM32F4xx_HAL_Driver/Src/stm32f4xx_hal_spi.c ****   */
 219:Drivers/STM32F4xx_HAL_Driver/Src/stm32f4xx_hal_spi.c **** #define SPI_DEFAULT_TIMEOUT 100U
 220:Drivers/STM32F4xx_HAL_Driver/Src/stm32f4xx_hal_spi.c **** #define SPI_BSY_FLAG_WORKAROUND_TIMEOUT 1000U /*!< Timeout 1000 µs             */
 221:Drivers/STM32F4xx_HAL_Driver/Src/stm32f4xx_hal_spi.c **** /**
 222:Drivers/STM32F4xx_HAL_Driver/Src/stm32f4xx_hal_spi.c ****   * @}
 223:Drivers/STM32F4xx_HAL_Driver/Src/stm32f4xx_hal_spi.c ****   */
 224:Drivers/STM32F4xx_HAL_Driver/Src/stm32f4xx_hal_spi.c **** 
 225:Drivers/STM32F4xx_HAL_Driver/Src/stm32f4xx_hal_spi.c **** /* Private macros ------------------------------------------------------------*/
 226:Drivers/STM32F4xx_HAL_Driver/Src/stm32f4xx_hal_spi.c **** /* Private variables ---------------------------------------------------------*/
 227:Drivers/STM32F4xx_HAL_Driver/Src/stm32f4xx_hal_spi.c **** /* Private function prototypes -----------------------------------------------*/
 228:Drivers/STM32F4xx_HAL_Driver/Src/stm32f4xx_hal_spi.c **** /** @defgroup SPI_Private_Functions SPI Private Functions
 229:Drivers/STM32F4xx_HAL_Driver/Src/stm32f4xx_hal_spi.c ****   * @{
 230:Drivers/STM32F4xx_HAL_Driver/Src/stm32f4xx_hal_spi.c ****   */
 231:Drivers/STM32F4xx_HAL_Driver/Src/stm32f4xx_hal_spi.c **** static void SPI_DMATransmitCplt(DMA_HandleTypeDef *hdma);
 232:Drivers/STM32F4xx_HAL_Driver/Src/stm32f4xx_hal_spi.c **** static void SPI_DMAReceiveCplt(DMA_HandleTypeDef *hdma);
 233:Drivers/STM32F4xx_HAL_Driver/Src/stm32f4xx_hal_spi.c **** static void SPI_DMATransmitReceiveCplt(DMA_HandleTypeDef *hdma);
 234:Drivers/STM32F4xx_HAL_Driver/Src/stm32f4xx_hal_spi.c **** static void SPI_DMAHalfTransmitCplt(DMA_HandleTypeDef *hdma);
 235:Drivers/STM32F4xx_HAL_Driver/Src/stm32f4xx_hal_spi.c **** static void SPI_DMAHalfReceiveCplt(DMA_HandleTypeDef *hdma);
 236:Drivers/STM32F4xx_HAL_Driver/Src/stm32f4xx_hal_spi.c **** static void SPI_DMAHalfTransmitReceiveCplt(DMA_HandleTypeDef *hdma);
 237:Drivers/STM32F4xx_HAL_Driver/Src/stm32f4xx_hal_spi.c **** static void SPI_DMAError(DMA_HandleTypeDef *hdma);
 238:Drivers/STM32F4xx_HAL_Driver/Src/stm32f4xx_hal_spi.c **** static void SPI_DMAAbortOnError(DMA_HandleTypeDef *hdma);
 239:Drivers/STM32F4xx_HAL_Driver/Src/stm32f4xx_hal_spi.c **** static void SPI_DMATxAbortCallback(DMA_HandleTypeDef *hdma);
 240:Drivers/STM32F4xx_HAL_Driver/Src/stm32f4xx_hal_spi.c **** static void SPI_DMARxAbortCallback(DMA_HandleTypeDef *hdma);
 241:Drivers/STM32F4xx_HAL_Driver/Src/stm32f4xx_hal_spi.c **** static HAL_StatusTypeDef SPI_WaitFlagStateUntilTimeout(SPI_HandleTypeDef *hspi, uint32_t Flag, Flag
 242:Drivers/STM32F4xx_HAL_Driver/Src/stm32f4xx_hal_spi.c ****                                                        uint32_t Timeout, uint32_t Tickstart);
 243:Drivers/STM32F4xx_HAL_Driver/Src/stm32f4xx_hal_spi.c **** static void SPI_TxISR_8BIT(struct __SPI_HandleTypeDef *hspi);
 244:Drivers/STM32F4xx_HAL_Driver/Src/stm32f4xx_hal_spi.c **** static void SPI_TxISR_16BIT(struct __SPI_HandleTypeDef *hspi);
 245:Drivers/STM32F4xx_HAL_Driver/Src/stm32f4xx_hal_spi.c **** static void SPI_RxISR_8BIT(struct __SPI_HandleTypeDef *hspi);
 246:Drivers/STM32F4xx_HAL_Driver/Src/stm32f4xx_hal_spi.c **** static void SPI_RxISR_16BIT(struct __SPI_HandleTypeDef *hspi);
 247:Drivers/STM32F4xx_HAL_Driver/Src/stm32f4xx_hal_spi.c **** static void SPI_2linesRxISR_8BIT(struct __SPI_HandleTypeDef *hspi);
 248:Drivers/STM32F4xx_HAL_Driver/Src/stm32f4xx_hal_spi.c **** static void SPI_2linesTxISR_8BIT(struct __SPI_HandleTypeDef *hspi);
 249:Drivers/STM32F4xx_HAL_Driver/Src/stm32f4xx_hal_spi.c **** static void SPI_2linesTxISR_16BIT(struct __SPI_HandleTypeDef *hspi);
ARM GAS  /tmp/cc9N7Buw.s 			page 6


 250:Drivers/STM32F4xx_HAL_Driver/Src/stm32f4xx_hal_spi.c **** static void SPI_2linesRxISR_16BIT(struct __SPI_HandleTypeDef *hspi);
 251:Drivers/STM32F4xx_HAL_Driver/Src/stm32f4xx_hal_spi.c **** #if (USE_SPI_CRC != 0U)
 252:Drivers/STM32F4xx_HAL_Driver/Src/stm32f4xx_hal_spi.c **** static void SPI_RxISR_8BITCRC(struct __SPI_HandleTypeDef *hspi);
 253:Drivers/STM32F4xx_HAL_Driver/Src/stm32f4xx_hal_spi.c **** static void SPI_RxISR_16BITCRC(struct __SPI_HandleTypeDef *hspi);
 254:Drivers/STM32F4xx_HAL_Driver/Src/stm32f4xx_hal_spi.c **** static void SPI_2linesRxISR_8BITCRC(struct __SPI_HandleTypeDef *hspi);
 255:Drivers/STM32F4xx_HAL_Driver/Src/stm32f4xx_hal_spi.c **** static void SPI_2linesRxISR_16BITCRC(struct __SPI_HandleTypeDef *hspi);
 256:Drivers/STM32F4xx_HAL_Driver/Src/stm32f4xx_hal_spi.c **** #endif /* USE_SPI_CRC */
 257:Drivers/STM32F4xx_HAL_Driver/Src/stm32f4xx_hal_spi.c **** static void SPI_AbortRx_ISR(SPI_HandleTypeDef *hspi);
 258:Drivers/STM32F4xx_HAL_Driver/Src/stm32f4xx_hal_spi.c **** static void SPI_AbortTx_ISR(SPI_HandleTypeDef *hspi);
 259:Drivers/STM32F4xx_HAL_Driver/Src/stm32f4xx_hal_spi.c **** static void SPI_CloseRxTx_ISR(SPI_HandleTypeDef *hspi);
 260:Drivers/STM32F4xx_HAL_Driver/Src/stm32f4xx_hal_spi.c **** static void SPI_CloseRx_ISR(SPI_HandleTypeDef *hspi);
 261:Drivers/STM32F4xx_HAL_Driver/Src/stm32f4xx_hal_spi.c **** static void SPI_CloseTx_ISR(SPI_HandleTypeDef *hspi);
 262:Drivers/STM32F4xx_HAL_Driver/Src/stm32f4xx_hal_spi.c **** static HAL_StatusTypeDef SPI_EndRxTransaction(SPI_HandleTypeDef *hspi, uint32_t Timeout, uint32_t T
 263:Drivers/STM32F4xx_HAL_Driver/Src/stm32f4xx_hal_spi.c **** static HAL_StatusTypeDef SPI_EndRxTxTransaction(SPI_HandleTypeDef *hspi, uint32_t Timeout, uint32_t
 264:Drivers/STM32F4xx_HAL_Driver/Src/stm32f4xx_hal_spi.c **** /**
 265:Drivers/STM32F4xx_HAL_Driver/Src/stm32f4xx_hal_spi.c ****   * @}
 266:Drivers/STM32F4xx_HAL_Driver/Src/stm32f4xx_hal_spi.c ****   */
 267:Drivers/STM32F4xx_HAL_Driver/Src/stm32f4xx_hal_spi.c **** 
 268:Drivers/STM32F4xx_HAL_Driver/Src/stm32f4xx_hal_spi.c **** /* Exported functions --------------------------------------------------------*/
 269:Drivers/STM32F4xx_HAL_Driver/Src/stm32f4xx_hal_spi.c **** /** @defgroup SPI_Exported_Functions SPI Exported Functions
 270:Drivers/STM32F4xx_HAL_Driver/Src/stm32f4xx_hal_spi.c ****   * @{
 271:Drivers/STM32F4xx_HAL_Driver/Src/stm32f4xx_hal_spi.c ****   */
 272:Drivers/STM32F4xx_HAL_Driver/Src/stm32f4xx_hal_spi.c **** 
 273:Drivers/STM32F4xx_HAL_Driver/Src/stm32f4xx_hal_spi.c **** /** @defgroup SPI_Exported_Functions_Group1 Initialization and de-initialization functions
 274:Drivers/STM32F4xx_HAL_Driver/Src/stm32f4xx_hal_spi.c ****   *  @brief    Initialization and Configuration functions
 275:Drivers/STM32F4xx_HAL_Driver/Src/stm32f4xx_hal_spi.c ****   *
 276:Drivers/STM32F4xx_HAL_Driver/Src/stm32f4xx_hal_spi.c **** @verbatim
 277:Drivers/STM32F4xx_HAL_Driver/Src/stm32f4xx_hal_spi.c ****  ===============================================================================
 278:Drivers/STM32F4xx_HAL_Driver/Src/stm32f4xx_hal_spi.c ****               ##### Initialization and de-initialization functions #####
 279:Drivers/STM32F4xx_HAL_Driver/Src/stm32f4xx_hal_spi.c ****  ===============================================================================
 280:Drivers/STM32F4xx_HAL_Driver/Src/stm32f4xx_hal_spi.c ****     [..]  This subsection provides a set of functions allowing to initialize and
 281:Drivers/STM32F4xx_HAL_Driver/Src/stm32f4xx_hal_spi.c ****           de-initialize the SPIx peripheral:
 282:Drivers/STM32F4xx_HAL_Driver/Src/stm32f4xx_hal_spi.c **** 
 283:Drivers/STM32F4xx_HAL_Driver/Src/stm32f4xx_hal_spi.c ****       (+) User must implement HAL_SPI_MspInit() function in which he configures
 284:Drivers/STM32F4xx_HAL_Driver/Src/stm32f4xx_hal_spi.c ****           all related peripherals resources (CLOCK, GPIO, DMA, IT and NVIC ).
 285:Drivers/STM32F4xx_HAL_Driver/Src/stm32f4xx_hal_spi.c **** 
 286:Drivers/STM32F4xx_HAL_Driver/Src/stm32f4xx_hal_spi.c ****       (+) Call the function HAL_SPI_Init() to configure the selected device with
 287:Drivers/STM32F4xx_HAL_Driver/Src/stm32f4xx_hal_spi.c ****           the selected configuration:
 288:Drivers/STM32F4xx_HAL_Driver/Src/stm32f4xx_hal_spi.c ****         (++) Mode
 289:Drivers/STM32F4xx_HAL_Driver/Src/stm32f4xx_hal_spi.c ****         (++) Direction
 290:Drivers/STM32F4xx_HAL_Driver/Src/stm32f4xx_hal_spi.c ****         (++) Data Size
 291:Drivers/STM32F4xx_HAL_Driver/Src/stm32f4xx_hal_spi.c ****         (++) Clock Polarity and Phase
 292:Drivers/STM32F4xx_HAL_Driver/Src/stm32f4xx_hal_spi.c ****         (++) NSS Management
 293:Drivers/STM32F4xx_HAL_Driver/Src/stm32f4xx_hal_spi.c ****         (++) BaudRate Prescaler
 294:Drivers/STM32F4xx_HAL_Driver/Src/stm32f4xx_hal_spi.c ****         (++) FirstBit
 295:Drivers/STM32F4xx_HAL_Driver/Src/stm32f4xx_hal_spi.c ****         (++) TIMode
 296:Drivers/STM32F4xx_HAL_Driver/Src/stm32f4xx_hal_spi.c ****         (++) CRC Calculation
 297:Drivers/STM32F4xx_HAL_Driver/Src/stm32f4xx_hal_spi.c ****         (++) CRC Polynomial if CRC enabled
 298:Drivers/STM32F4xx_HAL_Driver/Src/stm32f4xx_hal_spi.c **** 
 299:Drivers/STM32F4xx_HAL_Driver/Src/stm32f4xx_hal_spi.c ****       (+) Call the function HAL_SPI_DeInit() to restore the default configuration
 300:Drivers/STM32F4xx_HAL_Driver/Src/stm32f4xx_hal_spi.c ****           of the selected SPIx peripheral.
 301:Drivers/STM32F4xx_HAL_Driver/Src/stm32f4xx_hal_spi.c **** 
 302:Drivers/STM32F4xx_HAL_Driver/Src/stm32f4xx_hal_spi.c **** @endverbatim
 303:Drivers/STM32F4xx_HAL_Driver/Src/stm32f4xx_hal_spi.c ****   * @{
 304:Drivers/STM32F4xx_HAL_Driver/Src/stm32f4xx_hal_spi.c ****   */
 305:Drivers/STM32F4xx_HAL_Driver/Src/stm32f4xx_hal_spi.c **** 
 306:Drivers/STM32F4xx_HAL_Driver/Src/stm32f4xx_hal_spi.c **** /**
ARM GAS  /tmp/cc9N7Buw.s 			page 7


 307:Drivers/STM32F4xx_HAL_Driver/Src/stm32f4xx_hal_spi.c ****   * @brief  Initialize the SPI according to the specified parameters
 308:Drivers/STM32F4xx_HAL_Driver/Src/stm32f4xx_hal_spi.c ****   *         in the SPI_InitTypeDef and initialize the associated handle.
 309:Drivers/STM32F4xx_HAL_Driver/Src/stm32f4xx_hal_spi.c ****   * @param  hspi pointer to a SPI_HandleTypeDef structure that contains
 310:Drivers/STM32F4xx_HAL_Driver/Src/stm32f4xx_hal_spi.c ****   *               the configuration information for SPI module.
 311:Drivers/STM32F4xx_HAL_Driver/Src/stm32f4xx_hal_spi.c ****   * @retval HAL status
 312:Drivers/STM32F4xx_HAL_Driver/Src/stm32f4xx_hal_spi.c ****   */
 313:Drivers/STM32F4xx_HAL_Driver/Src/stm32f4xx_hal_spi.c **** HAL_StatusTypeDef HAL_SPI_Init(SPI_HandleTypeDef *hspi)
 314:Drivers/STM32F4xx_HAL_Driver/Src/stm32f4xx_hal_spi.c **** {
  34              		.loc 1 314 1
  35              		.cfi_startproc
  36              		@ args = 0, pretend = 0, frame = 8
  37              		@ frame_needed = 1, uses_anonymous_args = 0
  38 0000 80B5     		push	{r7, lr}
  39              	.LCFI0:
  40              		.cfi_def_cfa_offset 8
  41              		.cfi_offset 7, -8
  42              		.cfi_offset 14, -4
  43 0002 82B0     		sub	sp, sp, #8
  44              	.LCFI1:
  45              		.cfi_def_cfa_offset 16
  46 0004 00AF     		add	r7, sp, #0
  47              	.LCFI2:
  48              		.cfi_def_cfa_register 7
  49 0006 7860     		str	r0, [r7, #4]
 315:Drivers/STM32F4xx_HAL_Driver/Src/stm32f4xx_hal_spi.c ****   /* Check the SPI handle allocation */
 316:Drivers/STM32F4xx_HAL_Driver/Src/stm32f4xx_hal_spi.c ****   if (hspi == NULL)
  50              		.loc 1 316 6
  51 0008 7B68     		ldr	r3, [r7, #4]
  52 000a 002B     		cmp	r3, #0
  53 000c 01D1     		bne	.L2
 317:Drivers/STM32F4xx_HAL_Driver/Src/stm32f4xx_hal_spi.c ****   {
 318:Drivers/STM32F4xx_HAL_Driver/Src/stm32f4xx_hal_spi.c ****     return HAL_ERROR;
  54              		.loc 1 318 12
  55 000e 0123     		movs	r3, #1
  56 0010 09E1     		b	.L3
  57              	.L2:
 319:Drivers/STM32F4xx_HAL_Driver/Src/stm32f4xx_hal_spi.c ****   }
 320:Drivers/STM32F4xx_HAL_Driver/Src/stm32f4xx_hal_spi.c **** 
 321:Drivers/STM32F4xx_HAL_Driver/Src/stm32f4xx_hal_spi.c ****   /* Check the parameters */
 322:Drivers/STM32F4xx_HAL_Driver/Src/stm32f4xx_hal_spi.c ****   assert_param(IS_SPI_ALL_INSTANCE(hspi->Instance));
  58              		.loc 1 322 3
  59 0012 7B68     		ldr	r3, [r7, #4]
  60 0014 1B68     		ldr	r3, [r3]
  61 0016 864A     		ldr	r2, .L15
  62 0018 9342     		cmp	r3, r2
  63 001a 0ED0     		beq	.L4
  64              		.loc 1 322 3 is_stmt 0 discriminator 1
  65 001c 7B68     		ldr	r3, [r7, #4]
  66 001e 1B68     		ldr	r3, [r3]
  67 0020 844A     		ldr	r2, .L15+4
  68 0022 9342     		cmp	r3, r2
  69 0024 09D0     		beq	.L4
  70              		.loc 1 322 3 discriminator 2
  71 0026 7B68     		ldr	r3, [r7, #4]
  72 0028 1B68     		ldr	r3, [r3]
  73 002a 834A     		ldr	r2, .L15+8
  74 002c 9342     		cmp	r3, r2
ARM GAS  /tmp/cc9N7Buw.s 			page 8


  75 002e 04D0     		beq	.L4
  76              		.loc 1 322 3 discriminator 3
  77 0030 4FF4A171 		mov	r1, #322
  78 0034 8148     		ldr	r0, .L15+12
  79 0036 FFF7FEFF 		bl	assert_failed
  80              	.L4:
 323:Drivers/STM32F4xx_HAL_Driver/Src/stm32f4xx_hal_spi.c ****   assert_param(IS_SPI_MODE(hspi->Init.Mode));
  81              		.loc 1 323 3 is_stmt 1
  82 003a 7B68     		ldr	r3, [r7, #4]
  83 003c 5B68     		ldr	r3, [r3, #4]
  84 003e 002B     		cmp	r3, #0
  85 0040 09D0     		beq	.L5
  86              		.loc 1 323 3 is_stmt 0 discriminator 1
  87 0042 7B68     		ldr	r3, [r7, #4]
  88 0044 5B68     		ldr	r3, [r3, #4]
  89 0046 B3F5827F 		cmp	r3, #260
  90 004a 04D0     		beq	.L5
  91              		.loc 1 323 3 discriminator 2
  92 004c 40F24311 		movw	r1, #323
  93 0050 7A48     		ldr	r0, .L15+12
  94 0052 FFF7FEFF 		bl	assert_failed
  95              	.L5:
 324:Drivers/STM32F4xx_HAL_Driver/Src/stm32f4xx_hal_spi.c ****   assert_param(IS_SPI_DIRECTION(hspi->Init.Direction));
  96              		.loc 1 324 3 is_stmt 1
  97 0056 7B68     		ldr	r3, [r7, #4]
  98 0058 9B68     		ldr	r3, [r3, #8]
  99 005a 002B     		cmp	r3, #0
 100 005c 0ED0     		beq	.L6
 101              		.loc 1 324 3 is_stmt 0 discriminator 1
 102 005e 7B68     		ldr	r3, [r7, #4]
 103 0060 9B68     		ldr	r3, [r3, #8]
 104 0062 B3F5806F 		cmp	r3, #1024
 105 0066 09D0     		beq	.L6
 106              		.loc 1 324 3 discriminator 2
 107 0068 7B68     		ldr	r3, [r7, #4]
 108 006a 9B68     		ldr	r3, [r3, #8]
 109 006c B3F5004F 		cmp	r3, #32768
 110 0070 04D0     		beq	.L6
 111              		.loc 1 324 3 discriminator 3
 112 0072 4FF4A271 		mov	r1, #324
 113 0076 7148     		ldr	r0, .L15+12
 114 0078 FFF7FEFF 		bl	assert_failed
 115              	.L6:
 325:Drivers/STM32F4xx_HAL_Driver/Src/stm32f4xx_hal_spi.c ****   assert_param(IS_SPI_DATASIZE(hspi->Init.DataSize));
 116              		.loc 1 325 3 is_stmt 1
 117 007c 7B68     		ldr	r3, [r7, #4]
 118 007e DB68     		ldr	r3, [r3, #12]
 119 0080 B3F5006F 		cmp	r3, #2048
 120 0084 08D0     		beq	.L7
 121              		.loc 1 325 3 is_stmt 0 discriminator 1
 122 0086 7B68     		ldr	r3, [r7, #4]
 123 0088 DB68     		ldr	r3, [r3, #12]
 124 008a 002B     		cmp	r3, #0
 125 008c 04D0     		beq	.L7
 126              		.loc 1 325 3 discriminator 2
 127 008e 40F24511 		movw	r1, #325
 128 0092 6A48     		ldr	r0, .L15+12
ARM GAS  /tmp/cc9N7Buw.s 			page 9


 129 0094 FFF7FEFF 		bl	assert_failed
 130              	.L7:
 326:Drivers/STM32F4xx_HAL_Driver/Src/stm32f4xx_hal_spi.c ****   assert_param(IS_SPI_NSS(hspi->Init.NSS));
 131              		.loc 1 326 3 is_stmt 1
 132 0098 7B68     		ldr	r3, [r7, #4]
 133 009a 9B69     		ldr	r3, [r3, #24]
 134 009c B3F5007F 		cmp	r3, #512
 135 00a0 0DD0     		beq	.L8
 136              		.loc 1 326 3 is_stmt 0 discriminator 1
 137 00a2 7B68     		ldr	r3, [r7, #4]
 138 00a4 9B69     		ldr	r3, [r3, #24]
 139 00a6 002B     		cmp	r3, #0
 140 00a8 09D0     		beq	.L8
 141              		.loc 1 326 3 discriminator 2
 142 00aa 7B68     		ldr	r3, [r7, #4]
 143 00ac 9B69     		ldr	r3, [r3, #24]
 144 00ae B3F5802F 		cmp	r3, #262144
 145 00b2 04D0     		beq	.L8
 146              		.loc 1 326 3 discriminator 3
 147 00b4 4FF4A371 		mov	r1, #326
 148 00b8 6048     		ldr	r0, .L15+12
 149 00ba FFF7FEFF 		bl	assert_failed
 150              	.L8:
 327:Drivers/STM32F4xx_HAL_Driver/Src/stm32f4xx_hal_spi.c ****   assert_param(IS_SPI_BAUDRATE_PRESCALER(hspi->Init.BaudRatePrescaler));
 151              		.loc 1 327 3 is_stmt 1
 152 00be 7B68     		ldr	r3, [r7, #4]
 153 00c0 DB69     		ldr	r3, [r3, #28]
 154 00c2 002B     		cmp	r3, #0
 155 00c4 20D0     		beq	.L9
 156              		.loc 1 327 3 is_stmt 0 discriminator 1
 157 00c6 7B68     		ldr	r3, [r7, #4]
 158 00c8 DB69     		ldr	r3, [r3, #28]
 159 00ca 082B     		cmp	r3, #8
 160 00cc 1CD0     		beq	.L9
 161              		.loc 1 327 3 discriminator 2
 162 00ce 7B68     		ldr	r3, [r7, #4]
 163 00d0 DB69     		ldr	r3, [r3, #28]
 164 00d2 102B     		cmp	r3, #16
 165 00d4 18D0     		beq	.L9
 166              		.loc 1 327 3 discriminator 3
 167 00d6 7B68     		ldr	r3, [r7, #4]
 168 00d8 DB69     		ldr	r3, [r3, #28]
 169 00da 182B     		cmp	r3, #24
 170 00dc 14D0     		beq	.L9
 171              		.loc 1 327 3 discriminator 4
 172 00de 7B68     		ldr	r3, [r7, #4]
 173 00e0 DB69     		ldr	r3, [r3, #28]
 174 00e2 202B     		cmp	r3, #32
 175 00e4 10D0     		beq	.L9
 176              		.loc 1 327 3 discriminator 5
 177 00e6 7B68     		ldr	r3, [r7, #4]
 178 00e8 DB69     		ldr	r3, [r3, #28]
 179 00ea 282B     		cmp	r3, #40
 180 00ec 0CD0     		beq	.L9
 181              		.loc 1 327 3 discriminator 6
 182 00ee 7B68     		ldr	r3, [r7, #4]
 183 00f0 DB69     		ldr	r3, [r3, #28]
ARM GAS  /tmp/cc9N7Buw.s 			page 10


 184 00f2 302B     		cmp	r3, #48
 185 00f4 08D0     		beq	.L9
 186              		.loc 1 327 3 discriminator 7
 187 00f6 7B68     		ldr	r3, [r7, #4]
 188 00f8 DB69     		ldr	r3, [r3, #28]
 189 00fa 382B     		cmp	r3, #56
 190 00fc 04D0     		beq	.L9
 191              		.loc 1 327 3 discriminator 8
 192 00fe 40F24711 		movw	r1, #327
 193 0102 4E48     		ldr	r0, .L15+12
 194 0104 FFF7FEFF 		bl	assert_failed
 195              	.L9:
 328:Drivers/STM32F4xx_HAL_Driver/Src/stm32f4xx_hal_spi.c ****   assert_param(IS_SPI_FIRST_BIT(hspi->Init.FirstBit));
 196              		.loc 1 328 3 is_stmt 1
 197 0108 7B68     		ldr	r3, [r7, #4]
 198 010a 1B6A     		ldr	r3, [r3, #32]
 199 010c 002B     		cmp	r3, #0
 200 010e 08D0     		beq	.L10
 201              		.loc 1 328 3 is_stmt 0 discriminator 1
 202 0110 7B68     		ldr	r3, [r7, #4]
 203 0112 1B6A     		ldr	r3, [r3, #32]
 204 0114 802B     		cmp	r3, #128
 205 0116 04D0     		beq	.L10
 206              		.loc 1 328 3 discriminator 2
 207 0118 4FF4A471 		mov	r1, #328
 208 011c 4748     		ldr	r0, .L15+12
 209 011e FFF7FEFF 		bl	assert_failed
 210              	.L10:
 329:Drivers/STM32F4xx_HAL_Driver/Src/stm32f4xx_hal_spi.c ****   assert_param(IS_SPI_TIMODE(hspi->Init.TIMode));
 211              		.loc 1 329 3 is_stmt 1
 212 0122 7B68     		ldr	r3, [r7, #4]
 213 0124 5B6A     		ldr	r3, [r3, #36]
 214 0126 002B     		cmp	r3, #0
 215 0128 08D0     		beq	.L11
 216              		.loc 1 329 3 is_stmt 0 discriminator 1
 217 012a 7B68     		ldr	r3, [r7, #4]
 218 012c 5B6A     		ldr	r3, [r3, #36]
 219 012e 102B     		cmp	r3, #16
 220 0130 04D0     		beq	.L11
 221              		.loc 1 329 3 discriminator 2
 222 0132 40F24911 		movw	r1, #329
 223 0136 4148     		ldr	r0, .L15+12
 224 0138 FFF7FEFF 		bl	assert_failed
 225              	.L11:
 330:Drivers/STM32F4xx_HAL_Driver/Src/stm32f4xx_hal_spi.c ****   if (hspi->Init.TIMode == SPI_TIMODE_DISABLE)
 226              		.loc 1 330 17 is_stmt 1
 227 013c 7B68     		ldr	r3, [r7, #4]
 228 013e 5B6A     		ldr	r3, [r3, #36]
 229              		.loc 1 330 6
 230 0140 002B     		cmp	r3, #0
 231 0142 19D1     		bne	.L12
 331:Drivers/STM32F4xx_HAL_Driver/Src/stm32f4xx_hal_spi.c ****   {
 332:Drivers/STM32F4xx_HAL_Driver/Src/stm32f4xx_hal_spi.c ****     assert_param(IS_SPI_CPOL(hspi->Init.CLKPolarity));
 232              		.loc 1 332 5
 233 0144 7B68     		ldr	r3, [r7, #4]
 234 0146 1B69     		ldr	r3, [r3, #16]
 235 0148 002B     		cmp	r3, #0
ARM GAS  /tmp/cc9N7Buw.s 			page 11


 236 014a 08D0     		beq	.L13
 237              		.loc 1 332 5 is_stmt 0 discriminator 1
 238 014c 7B68     		ldr	r3, [r7, #4]
 239 014e 1B69     		ldr	r3, [r3, #16]
 240 0150 022B     		cmp	r3, #2
 241 0152 04D0     		beq	.L13
 242              		.loc 1 332 5 discriminator 2
 243 0154 4FF4A671 		mov	r1, #332
 244 0158 3848     		ldr	r0, .L15+12
 245 015a FFF7FEFF 		bl	assert_failed
 246              	.L13:
 333:Drivers/STM32F4xx_HAL_Driver/Src/stm32f4xx_hal_spi.c ****     assert_param(IS_SPI_CPHA(hspi->Init.CLKPhase));
 247              		.loc 1 333 5 is_stmt 1
 248 015e 7B68     		ldr	r3, [r7, #4]
 249 0160 5B69     		ldr	r3, [r3, #20]
 250 0162 002B     		cmp	r3, #0
 251 0164 08D0     		beq	.L12
 252              		.loc 1 333 5 is_stmt 0 discriminator 1
 253 0166 7B68     		ldr	r3, [r7, #4]
 254 0168 5B69     		ldr	r3, [r3, #20]
 255 016a 012B     		cmp	r3, #1
 256 016c 04D0     		beq	.L12
 257              		.loc 1 333 5 discriminator 2
 258 016e 40F24D11 		movw	r1, #333
 259 0172 3248     		ldr	r0, .L15+12
 260 0174 FFF7FEFF 		bl	assert_failed
 261              	.L12:
 334:Drivers/STM32F4xx_HAL_Driver/Src/stm32f4xx_hal_spi.c ****   }
 335:Drivers/STM32F4xx_HAL_Driver/Src/stm32f4xx_hal_spi.c **** #if (USE_SPI_CRC != 0U)
 336:Drivers/STM32F4xx_HAL_Driver/Src/stm32f4xx_hal_spi.c ****   assert_param(IS_SPI_CRC_CALCULATION(hspi->Init.CRCCalculation));
 337:Drivers/STM32F4xx_HAL_Driver/Src/stm32f4xx_hal_spi.c ****   if (hspi->Init.CRCCalculation == SPI_CRCCALCULATION_ENABLE)
 338:Drivers/STM32F4xx_HAL_Driver/Src/stm32f4xx_hal_spi.c ****   {
 339:Drivers/STM32F4xx_HAL_Driver/Src/stm32f4xx_hal_spi.c ****     assert_param(IS_SPI_CRC_POLYNOMIAL(hspi->Init.CRCPolynomial));
 340:Drivers/STM32F4xx_HAL_Driver/Src/stm32f4xx_hal_spi.c ****   }
 341:Drivers/STM32F4xx_HAL_Driver/Src/stm32f4xx_hal_spi.c **** #else
 342:Drivers/STM32F4xx_HAL_Driver/Src/stm32f4xx_hal_spi.c ****   hspi->Init.CRCCalculation = SPI_CRCCALCULATION_DISABLE;
 262              		.loc 1 342 29 is_stmt 1
 263 0178 7B68     		ldr	r3, [r7, #4]
 264 017a 0022     		movs	r2, #0
 265 017c 9A62     		str	r2, [r3, #40]
 343:Drivers/STM32F4xx_HAL_Driver/Src/stm32f4xx_hal_spi.c **** #endif /* USE_SPI_CRC */
 344:Drivers/STM32F4xx_HAL_Driver/Src/stm32f4xx_hal_spi.c **** 
 345:Drivers/STM32F4xx_HAL_Driver/Src/stm32f4xx_hal_spi.c ****   if (hspi->State == HAL_SPI_STATE_RESET)
 266              		.loc 1 345 11
 267 017e 7B68     		ldr	r3, [r7, #4]
 268 0180 93F85130 		ldrb	r3, [r3, #81]
 269 0184 DBB2     		uxtb	r3, r3
 270              		.loc 1 345 6
 271 0186 002B     		cmp	r3, #0
 272 0188 06D1     		bne	.L14
 346:Drivers/STM32F4xx_HAL_Driver/Src/stm32f4xx_hal_spi.c ****   {
 347:Drivers/STM32F4xx_HAL_Driver/Src/stm32f4xx_hal_spi.c ****     /* Allocate lock resource and initialize it */
 348:Drivers/STM32F4xx_HAL_Driver/Src/stm32f4xx_hal_spi.c ****     hspi->Lock = HAL_UNLOCKED;
 273              		.loc 1 348 16
 274 018a 7B68     		ldr	r3, [r7, #4]
 275 018c 0022     		movs	r2, #0
 276 018e 83F85020 		strb	r2, [r3, #80]
ARM GAS  /tmp/cc9N7Buw.s 			page 12


 349:Drivers/STM32F4xx_HAL_Driver/Src/stm32f4xx_hal_spi.c **** 
 350:Drivers/STM32F4xx_HAL_Driver/Src/stm32f4xx_hal_spi.c **** #if (USE_HAL_SPI_REGISTER_CALLBACKS == 1U)
 351:Drivers/STM32F4xx_HAL_Driver/Src/stm32f4xx_hal_spi.c ****     /* Init the SPI Callback settings */
 352:Drivers/STM32F4xx_HAL_Driver/Src/stm32f4xx_hal_spi.c ****     hspi->TxCpltCallback       = HAL_SPI_TxCpltCallback;       /* Legacy weak TxCpltCallback       
 353:Drivers/STM32F4xx_HAL_Driver/Src/stm32f4xx_hal_spi.c ****     hspi->RxCpltCallback       = HAL_SPI_RxCpltCallback;       /* Legacy weak RxCpltCallback       
 354:Drivers/STM32F4xx_HAL_Driver/Src/stm32f4xx_hal_spi.c ****     hspi->TxRxCpltCallback     = HAL_SPI_TxRxCpltCallback;     /* Legacy weak TxRxCpltCallback     
 355:Drivers/STM32F4xx_HAL_Driver/Src/stm32f4xx_hal_spi.c ****     hspi->TxHalfCpltCallback   = HAL_SPI_TxHalfCpltCallback;   /* Legacy weak TxHalfCpltCallback   
 356:Drivers/STM32F4xx_HAL_Driver/Src/stm32f4xx_hal_spi.c ****     hspi->RxHalfCpltCallback   = HAL_SPI_RxHalfCpltCallback;   /* Legacy weak RxHalfCpltCallback   
 357:Drivers/STM32F4xx_HAL_Driver/Src/stm32f4xx_hal_spi.c ****     hspi->TxRxHalfCpltCallback = HAL_SPI_TxRxHalfCpltCallback; /* Legacy weak TxRxHalfCpltCallback 
 358:Drivers/STM32F4xx_HAL_Driver/Src/stm32f4xx_hal_spi.c ****     hspi->ErrorCallback        = HAL_SPI_ErrorCallback;        /* Legacy weak ErrorCallback        
 359:Drivers/STM32F4xx_HAL_Driver/Src/stm32f4xx_hal_spi.c ****     hspi->AbortCpltCallback    = HAL_SPI_AbortCpltCallback;    /* Legacy weak AbortCpltCallback    
 360:Drivers/STM32F4xx_HAL_Driver/Src/stm32f4xx_hal_spi.c **** 
 361:Drivers/STM32F4xx_HAL_Driver/Src/stm32f4xx_hal_spi.c ****     if (hspi->MspInitCallback == NULL)
 362:Drivers/STM32F4xx_HAL_Driver/Src/stm32f4xx_hal_spi.c ****     {
 363:Drivers/STM32F4xx_HAL_Driver/Src/stm32f4xx_hal_spi.c ****       hspi->MspInitCallback = HAL_SPI_MspInit; /* Legacy weak MspInit  */
 364:Drivers/STM32F4xx_HAL_Driver/Src/stm32f4xx_hal_spi.c ****     }
 365:Drivers/STM32F4xx_HAL_Driver/Src/stm32f4xx_hal_spi.c **** 
 366:Drivers/STM32F4xx_HAL_Driver/Src/stm32f4xx_hal_spi.c ****     /* Init the low level hardware : GPIO, CLOCK, NVIC... */
 367:Drivers/STM32F4xx_HAL_Driver/Src/stm32f4xx_hal_spi.c ****     hspi->MspInitCallback(hspi);
 368:Drivers/STM32F4xx_HAL_Driver/Src/stm32f4xx_hal_spi.c **** #else
 369:Drivers/STM32F4xx_HAL_Driver/Src/stm32f4xx_hal_spi.c ****     /* Init the low level hardware : GPIO, CLOCK, NVIC... */
 370:Drivers/STM32F4xx_HAL_Driver/Src/stm32f4xx_hal_spi.c ****     HAL_SPI_MspInit(hspi);
 277              		.loc 1 370 5
 278 0192 7868     		ldr	r0, [r7, #4]
 279 0194 FFF7FEFF 		bl	HAL_SPI_MspInit
 280              	.L14:
 371:Drivers/STM32F4xx_HAL_Driver/Src/stm32f4xx_hal_spi.c **** #endif /* USE_HAL_SPI_REGISTER_CALLBACKS */
 372:Drivers/STM32F4xx_HAL_Driver/Src/stm32f4xx_hal_spi.c ****   }
 373:Drivers/STM32F4xx_HAL_Driver/Src/stm32f4xx_hal_spi.c **** 
 374:Drivers/STM32F4xx_HAL_Driver/Src/stm32f4xx_hal_spi.c ****   hspi->State = HAL_SPI_STATE_BUSY;
 281              		.loc 1 374 15
 282 0198 7B68     		ldr	r3, [r7, #4]
 283 019a 0222     		movs	r2, #2
 284 019c 83F85120 		strb	r2, [r3, #81]
 375:Drivers/STM32F4xx_HAL_Driver/Src/stm32f4xx_hal_spi.c **** 
 376:Drivers/STM32F4xx_HAL_Driver/Src/stm32f4xx_hal_spi.c ****   /* Disable the selected SPI peripheral */
 377:Drivers/STM32F4xx_HAL_Driver/Src/stm32f4xx_hal_spi.c ****   __HAL_SPI_DISABLE(hspi);
 285              		.loc 1 377 3
 286 01a0 7B68     		ldr	r3, [r7, #4]
 287 01a2 1B68     		ldr	r3, [r3]
 288 01a4 1A68     		ldr	r2, [r3]
 289 01a6 7B68     		ldr	r3, [r7, #4]
 290 01a8 1B68     		ldr	r3, [r3]
 291 01aa 22F04002 		bic	r2, r2, #64
 292 01ae 1A60     		str	r2, [r3]
 378:Drivers/STM32F4xx_HAL_Driver/Src/stm32f4xx_hal_spi.c **** 
 379:Drivers/STM32F4xx_HAL_Driver/Src/stm32f4xx_hal_spi.c ****   /*----------------------- SPIx CR1 & CR2 Configuration ---------------------*/
 380:Drivers/STM32F4xx_HAL_Driver/Src/stm32f4xx_hal_spi.c ****   /* Configure : SPI Mode, Communication Mode, Data size, Clock polarity and phase, NSS management,
 381:Drivers/STM32F4xx_HAL_Driver/Src/stm32f4xx_hal_spi.c ****   Communication speed, First bit and CRC calculation state */
 382:Drivers/STM32F4xx_HAL_Driver/Src/stm32f4xx_hal_spi.c ****   WRITE_REG(hspi->Instance->CR1, (hspi->Init.Mode | hspi->Init.Direction | hspi->Init.DataSize |
 293              		.loc 1 382 3
 294 01b0 7B68     		ldr	r3, [r7, #4]
 295 01b2 5A68     		ldr	r2, [r3, #4]
 296 01b4 7B68     		ldr	r3, [r7, #4]
 297 01b6 9B68     		ldr	r3, [r3, #8]
 298 01b8 1A43     		orrs	r2, r2, r3
 299 01ba 7B68     		ldr	r3, [r7, #4]
ARM GAS  /tmp/cc9N7Buw.s 			page 13


 300 01bc DB68     		ldr	r3, [r3, #12]
 301 01be 1A43     		orrs	r2, r2, r3
 302 01c0 7B68     		ldr	r3, [r7, #4]
 303 01c2 1B69     		ldr	r3, [r3, #16]
 304 01c4 1A43     		orrs	r2, r2, r3
 305 01c6 7B68     		ldr	r3, [r7, #4]
 306 01c8 5B69     		ldr	r3, [r3, #20]
 307 01ca 1A43     		orrs	r2, r2, r3
 308 01cc 7B68     		ldr	r3, [r7, #4]
 309 01ce 9B69     		ldr	r3, [r3, #24]
 310 01d0 03F40073 		and	r3, r3, #512
 311 01d4 1A43     		orrs	r2, r2, r3
 312 01d6 7B68     		ldr	r3, [r7, #4]
 313 01d8 DB69     		ldr	r3, [r3, #28]
 314 01da 1A43     		orrs	r2, r2, r3
 315 01dc 7B68     		ldr	r3, [r7, #4]
 316 01de 1B6A     		ldr	r3, [r3, #32]
 317 01e0 42EA0301 		orr	r1, r2, r3
 318 01e4 7B68     		ldr	r3, [r7, #4]
 319 01e6 9A6A     		ldr	r2, [r3, #40]
 320 01e8 7B68     		ldr	r3, [r7, #4]
 321 01ea 1B68     		ldr	r3, [r3]
 322 01ec 0A43     		orrs	r2, r2, r1
 323 01ee 1A60     		str	r2, [r3]
 383:Drivers/STM32F4xx_HAL_Driver/Src/stm32f4xx_hal_spi.c ****                                   hspi->Init.CLKPolarity | hspi->Init.CLKPhase | (hspi->Init.NSS & 
 384:Drivers/STM32F4xx_HAL_Driver/Src/stm32f4xx_hal_spi.c ****                                   hspi->Init.BaudRatePrescaler | hspi->Init.FirstBit  | hspi->Init.
 385:Drivers/STM32F4xx_HAL_Driver/Src/stm32f4xx_hal_spi.c **** 
 386:Drivers/STM32F4xx_HAL_Driver/Src/stm32f4xx_hal_spi.c ****   /* Configure : NSS management, TI Mode */
 387:Drivers/STM32F4xx_HAL_Driver/Src/stm32f4xx_hal_spi.c ****   WRITE_REG(hspi->Instance->CR2, (((hspi->Init.NSS >> 16U) & SPI_CR2_SSOE) | hspi->Init.TIMode));
 324              		.loc 1 387 3
 325 01f0 7B68     		ldr	r3, [r7, #4]
 326 01f2 9B69     		ldr	r3, [r3, #24]
 327 01f4 1B0C     		lsrs	r3, r3, #16
 328 01f6 03F00401 		and	r1, r3, #4
 329 01fa 7B68     		ldr	r3, [r7, #4]
 330 01fc 5A6A     		ldr	r2, [r3, #36]
 331 01fe 7B68     		ldr	r3, [r7, #4]
 332 0200 1B68     		ldr	r3, [r3]
 333 0202 0A43     		orrs	r2, r2, r1
 334 0204 5A60     		str	r2, [r3, #4]
 388:Drivers/STM32F4xx_HAL_Driver/Src/stm32f4xx_hal_spi.c **** 
 389:Drivers/STM32F4xx_HAL_Driver/Src/stm32f4xx_hal_spi.c **** #if (USE_SPI_CRC != 0U)
 390:Drivers/STM32F4xx_HAL_Driver/Src/stm32f4xx_hal_spi.c ****   /*---------------------------- SPIx CRCPOLY Configuration ------------------*/
 391:Drivers/STM32F4xx_HAL_Driver/Src/stm32f4xx_hal_spi.c ****   /* Configure : CRC Polynomial */
 392:Drivers/STM32F4xx_HAL_Driver/Src/stm32f4xx_hal_spi.c ****   if (hspi->Init.CRCCalculation == SPI_CRCCALCULATION_ENABLE)
 393:Drivers/STM32F4xx_HAL_Driver/Src/stm32f4xx_hal_spi.c ****   {
 394:Drivers/STM32F4xx_HAL_Driver/Src/stm32f4xx_hal_spi.c ****     WRITE_REG(hspi->Instance->CRCPR, hspi->Init.CRCPolynomial);
 395:Drivers/STM32F4xx_HAL_Driver/Src/stm32f4xx_hal_spi.c ****   }
 396:Drivers/STM32F4xx_HAL_Driver/Src/stm32f4xx_hal_spi.c **** #endif /* USE_SPI_CRC */
 397:Drivers/STM32F4xx_HAL_Driver/Src/stm32f4xx_hal_spi.c **** 
 398:Drivers/STM32F4xx_HAL_Driver/Src/stm32f4xx_hal_spi.c **** #if defined(SPI_I2SCFGR_I2SMOD)
 399:Drivers/STM32F4xx_HAL_Driver/Src/stm32f4xx_hal_spi.c ****   /* Activate the SPI mode (Make sure that I2SMOD bit in I2SCFGR register is reset) */
 400:Drivers/STM32F4xx_HAL_Driver/Src/stm32f4xx_hal_spi.c ****   CLEAR_BIT(hspi->Instance->I2SCFGR, SPI_I2SCFGR_I2SMOD);
 335              		.loc 1 400 3
 336 0206 7B68     		ldr	r3, [r7, #4]
 337 0208 1B68     		ldr	r3, [r3]
 338 020a DA69     		ldr	r2, [r3, #28]
ARM GAS  /tmp/cc9N7Buw.s 			page 14


 339 020c 7B68     		ldr	r3, [r7, #4]
 340 020e 1B68     		ldr	r3, [r3]
 341 0210 22F40062 		bic	r2, r2, #2048
 342 0214 DA61     		str	r2, [r3, #28]
 401:Drivers/STM32F4xx_HAL_Driver/Src/stm32f4xx_hal_spi.c **** #endif /* SPI_I2SCFGR_I2SMOD */
 402:Drivers/STM32F4xx_HAL_Driver/Src/stm32f4xx_hal_spi.c **** 
 403:Drivers/STM32F4xx_HAL_Driver/Src/stm32f4xx_hal_spi.c ****   hspi->ErrorCode = HAL_SPI_ERROR_NONE;
 343              		.loc 1 403 19
 344 0216 7B68     		ldr	r3, [r7, #4]
 345 0218 0022     		movs	r2, #0
 346 021a 5A65     		str	r2, [r3, #84]
 404:Drivers/STM32F4xx_HAL_Driver/Src/stm32f4xx_hal_spi.c ****   hspi->State     = HAL_SPI_STATE_READY;
 347              		.loc 1 404 19
 348 021c 7B68     		ldr	r3, [r7, #4]
 349 021e 0122     		movs	r2, #1
 350 0220 83F85120 		strb	r2, [r3, #81]
 405:Drivers/STM32F4xx_HAL_Driver/Src/stm32f4xx_hal_spi.c **** 
 406:Drivers/STM32F4xx_HAL_Driver/Src/stm32f4xx_hal_spi.c ****   return HAL_OK;
 351              		.loc 1 406 10
 352 0224 0023     		movs	r3, #0
 353              	.L3:
 407:Drivers/STM32F4xx_HAL_Driver/Src/stm32f4xx_hal_spi.c **** }
 354              		.loc 1 407 1
 355 0226 1846     		mov	r0, r3
 356 0228 0837     		adds	r7, r7, #8
 357              	.LCFI3:
 358              		.cfi_def_cfa_offset 8
 359 022a BD46     		mov	sp, r7
 360              	.LCFI4:
 361              		.cfi_def_cfa_register 13
 362              		@ sp needed
 363 022c 80BD     		pop	{r7, pc}
 364              	.L16:
 365 022e 00BF     		.align	2
 366              	.L15:
 367 0230 00300140 		.word	1073819648
 368 0234 00380040 		.word	1073756160
 369 0238 003C0040 		.word	1073757184
 370 023c 00000000 		.word	.LC0
 371              		.cfi_endproc
 372              	.LFE130:
 374              		.section	.text.HAL_SPI_DeInit,"ax",%progbits
 375              		.align	1
 376              		.global	HAL_SPI_DeInit
 377              		.syntax unified
 378              		.thumb
 379              		.thumb_func
 380              		.fpu fpv4-sp-d16
 382              	HAL_SPI_DeInit:
 383              	.LFB131:
 408:Drivers/STM32F4xx_HAL_Driver/Src/stm32f4xx_hal_spi.c **** 
 409:Drivers/STM32F4xx_HAL_Driver/Src/stm32f4xx_hal_spi.c **** /**
 410:Drivers/STM32F4xx_HAL_Driver/Src/stm32f4xx_hal_spi.c ****   * @brief  De-Initialize the SPI peripheral.
 411:Drivers/STM32F4xx_HAL_Driver/Src/stm32f4xx_hal_spi.c ****   * @param  hspi pointer to a SPI_HandleTypeDef structure that contains
 412:Drivers/STM32F4xx_HAL_Driver/Src/stm32f4xx_hal_spi.c ****   *               the configuration information for SPI module.
 413:Drivers/STM32F4xx_HAL_Driver/Src/stm32f4xx_hal_spi.c ****   * @retval HAL status
 414:Drivers/STM32F4xx_HAL_Driver/Src/stm32f4xx_hal_spi.c ****   */
ARM GAS  /tmp/cc9N7Buw.s 			page 15


 415:Drivers/STM32F4xx_HAL_Driver/Src/stm32f4xx_hal_spi.c **** HAL_StatusTypeDef HAL_SPI_DeInit(SPI_HandleTypeDef *hspi)
 416:Drivers/STM32F4xx_HAL_Driver/Src/stm32f4xx_hal_spi.c **** {
 384              		.loc 1 416 1
 385              		.cfi_startproc
 386              		@ args = 0, pretend = 0, frame = 8
 387              		@ frame_needed = 1, uses_anonymous_args = 0
 388 0000 80B5     		push	{r7, lr}
 389              	.LCFI5:
 390              		.cfi_def_cfa_offset 8
 391              		.cfi_offset 7, -8
 392              		.cfi_offset 14, -4
 393 0002 82B0     		sub	sp, sp, #8
 394              	.LCFI6:
 395              		.cfi_def_cfa_offset 16
 396 0004 00AF     		add	r7, sp, #0
 397              	.LCFI7:
 398              		.cfi_def_cfa_register 7
 399 0006 7860     		str	r0, [r7, #4]
 417:Drivers/STM32F4xx_HAL_Driver/Src/stm32f4xx_hal_spi.c ****   /* Check the SPI handle allocation */
 418:Drivers/STM32F4xx_HAL_Driver/Src/stm32f4xx_hal_spi.c ****   if (hspi == NULL)
 400              		.loc 1 418 6
 401 0008 7B68     		ldr	r3, [r7, #4]
 402 000a 002B     		cmp	r3, #0
 403 000c 01D1     		bne	.L18
 419:Drivers/STM32F4xx_HAL_Driver/Src/stm32f4xx_hal_spi.c ****   {
 420:Drivers/STM32F4xx_HAL_Driver/Src/stm32f4xx_hal_spi.c ****     return HAL_ERROR;
 404              		.loc 1 420 12
 405 000e 0123     		movs	r3, #1
 406 0010 2EE0     		b	.L19
 407              	.L18:
 421:Drivers/STM32F4xx_HAL_Driver/Src/stm32f4xx_hal_spi.c ****   }
 422:Drivers/STM32F4xx_HAL_Driver/Src/stm32f4xx_hal_spi.c **** 
 423:Drivers/STM32F4xx_HAL_Driver/Src/stm32f4xx_hal_spi.c ****   /* Check SPI Instance parameter */
 424:Drivers/STM32F4xx_HAL_Driver/Src/stm32f4xx_hal_spi.c ****   assert_param(IS_SPI_ALL_INSTANCE(hspi->Instance));
 408              		.loc 1 424 3
 409 0012 7B68     		ldr	r3, [r7, #4]
 410 0014 1B68     		ldr	r3, [r3]
 411 0016 184A     		ldr	r2, .L21
 412 0018 9342     		cmp	r3, r2
 413 001a 0ED0     		beq	.L20
 414              		.loc 1 424 3 is_stmt 0 discriminator 1
 415 001c 7B68     		ldr	r3, [r7, #4]
 416 001e 1B68     		ldr	r3, [r3]
 417 0020 164A     		ldr	r2, .L21+4
 418 0022 9342     		cmp	r3, r2
 419 0024 09D0     		beq	.L20
 420              		.loc 1 424 3 discriminator 2
 421 0026 7B68     		ldr	r3, [r7, #4]
 422 0028 1B68     		ldr	r3, [r3]
 423 002a 154A     		ldr	r2, .L21+8
 424 002c 9342     		cmp	r3, r2
 425 002e 04D0     		beq	.L20
 426              		.loc 1 424 3 discriminator 3
 427 0030 4FF4D471 		mov	r1, #424
 428 0034 1348     		ldr	r0, .L21+12
 429 0036 FFF7FEFF 		bl	assert_failed
 430              	.L20:
ARM GAS  /tmp/cc9N7Buw.s 			page 16


 425:Drivers/STM32F4xx_HAL_Driver/Src/stm32f4xx_hal_spi.c **** 
 426:Drivers/STM32F4xx_HAL_Driver/Src/stm32f4xx_hal_spi.c ****   hspi->State = HAL_SPI_STATE_BUSY;
 431              		.loc 1 426 15 is_stmt 1
 432 003a 7B68     		ldr	r3, [r7, #4]
 433 003c 0222     		movs	r2, #2
 434 003e 83F85120 		strb	r2, [r3, #81]
 427:Drivers/STM32F4xx_HAL_Driver/Src/stm32f4xx_hal_spi.c **** 
 428:Drivers/STM32F4xx_HAL_Driver/Src/stm32f4xx_hal_spi.c ****   /* Disable the SPI Peripheral Clock */
 429:Drivers/STM32F4xx_HAL_Driver/Src/stm32f4xx_hal_spi.c ****   __HAL_SPI_DISABLE(hspi);
 435              		.loc 1 429 3
 436 0042 7B68     		ldr	r3, [r7, #4]
 437 0044 1B68     		ldr	r3, [r3]
 438 0046 1A68     		ldr	r2, [r3]
 439 0048 7B68     		ldr	r3, [r7, #4]
 440 004a 1B68     		ldr	r3, [r3]
 441 004c 22F04002 		bic	r2, r2, #64
 442 0050 1A60     		str	r2, [r3]
 430:Drivers/STM32F4xx_HAL_Driver/Src/stm32f4xx_hal_spi.c **** 
 431:Drivers/STM32F4xx_HAL_Driver/Src/stm32f4xx_hal_spi.c **** #if (USE_HAL_SPI_REGISTER_CALLBACKS == 1U)
 432:Drivers/STM32F4xx_HAL_Driver/Src/stm32f4xx_hal_spi.c ****   if (hspi->MspDeInitCallback == NULL)
 433:Drivers/STM32F4xx_HAL_Driver/Src/stm32f4xx_hal_spi.c ****   {
 434:Drivers/STM32F4xx_HAL_Driver/Src/stm32f4xx_hal_spi.c ****     hspi->MspDeInitCallback = HAL_SPI_MspDeInit; /* Legacy weak MspDeInit  */
 435:Drivers/STM32F4xx_HAL_Driver/Src/stm32f4xx_hal_spi.c ****   }
 436:Drivers/STM32F4xx_HAL_Driver/Src/stm32f4xx_hal_spi.c **** 
 437:Drivers/STM32F4xx_HAL_Driver/Src/stm32f4xx_hal_spi.c ****   /* DeInit the low level hardware: GPIO, CLOCK, NVIC... */
 438:Drivers/STM32F4xx_HAL_Driver/Src/stm32f4xx_hal_spi.c ****   hspi->MspDeInitCallback(hspi);
 439:Drivers/STM32F4xx_HAL_Driver/Src/stm32f4xx_hal_spi.c **** #else
 440:Drivers/STM32F4xx_HAL_Driver/Src/stm32f4xx_hal_spi.c ****   /* DeInit the low level hardware: GPIO, CLOCK, NVIC... */
 441:Drivers/STM32F4xx_HAL_Driver/Src/stm32f4xx_hal_spi.c ****   HAL_SPI_MspDeInit(hspi);
 443              		.loc 1 441 3
 444 0052 7868     		ldr	r0, [r7, #4]
 445 0054 FFF7FEFF 		bl	HAL_SPI_MspDeInit
 442:Drivers/STM32F4xx_HAL_Driver/Src/stm32f4xx_hal_spi.c **** #endif /* USE_HAL_SPI_REGISTER_CALLBACKS */
 443:Drivers/STM32F4xx_HAL_Driver/Src/stm32f4xx_hal_spi.c **** 
 444:Drivers/STM32F4xx_HAL_Driver/Src/stm32f4xx_hal_spi.c ****   hspi->ErrorCode = HAL_SPI_ERROR_NONE;
 446              		.loc 1 444 19
 447 0058 7B68     		ldr	r3, [r7, #4]
 448 005a 0022     		movs	r2, #0
 449 005c 5A65     		str	r2, [r3, #84]
 445:Drivers/STM32F4xx_HAL_Driver/Src/stm32f4xx_hal_spi.c ****   hspi->State = HAL_SPI_STATE_RESET;
 450              		.loc 1 445 15
 451 005e 7B68     		ldr	r3, [r7, #4]
 452 0060 0022     		movs	r2, #0
 453 0062 83F85120 		strb	r2, [r3, #81]
 446:Drivers/STM32F4xx_HAL_Driver/Src/stm32f4xx_hal_spi.c **** 
 447:Drivers/STM32F4xx_HAL_Driver/Src/stm32f4xx_hal_spi.c ****   /* Release Lock */
 448:Drivers/STM32F4xx_HAL_Driver/Src/stm32f4xx_hal_spi.c ****   __HAL_UNLOCK(hspi);
 454              		.loc 1 448 3
 455 0066 7B68     		ldr	r3, [r7, #4]
 456 0068 0022     		movs	r2, #0
 457 006a 83F85020 		strb	r2, [r3, #80]
 449:Drivers/STM32F4xx_HAL_Driver/Src/stm32f4xx_hal_spi.c **** 
 450:Drivers/STM32F4xx_HAL_Driver/Src/stm32f4xx_hal_spi.c ****   return HAL_OK;
 458              		.loc 1 450 10
 459 006e 0023     		movs	r3, #0
 460              	.L19:
 451:Drivers/STM32F4xx_HAL_Driver/Src/stm32f4xx_hal_spi.c **** }
ARM GAS  /tmp/cc9N7Buw.s 			page 17


 461              		.loc 1 451 1
 462 0070 1846     		mov	r0, r3
 463 0072 0837     		adds	r7, r7, #8
 464              	.LCFI8:
 465              		.cfi_def_cfa_offset 8
 466 0074 BD46     		mov	sp, r7
 467              	.LCFI9:
 468              		.cfi_def_cfa_register 13
 469              		@ sp needed
 470 0076 80BD     		pop	{r7, pc}
 471              	.L22:
 472              		.align	2
 473              	.L21:
 474 0078 00300140 		.word	1073819648
 475 007c 00380040 		.word	1073756160
 476 0080 003C0040 		.word	1073757184
 477 0084 00000000 		.word	.LC0
 478              		.cfi_endproc
 479              	.LFE131:
 481              		.section	.text.HAL_SPI_MspInit,"ax",%progbits
 482              		.align	1
 483              		.weak	HAL_SPI_MspInit
 484              		.syntax unified
 485              		.thumb
 486              		.thumb_func
 487              		.fpu fpv4-sp-d16
 489              	HAL_SPI_MspInit:
 490              	.LFB132:
 452:Drivers/STM32F4xx_HAL_Driver/Src/stm32f4xx_hal_spi.c **** 
 453:Drivers/STM32F4xx_HAL_Driver/Src/stm32f4xx_hal_spi.c **** /**
 454:Drivers/STM32F4xx_HAL_Driver/Src/stm32f4xx_hal_spi.c ****   * @brief  Initialize the SPI MSP.
 455:Drivers/STM32F4xx_HAL_Driver/Src/stm32f4xx_hal_spi.c ****   * @param  hspi pointer to a SPI_HandleTypeDef structure that contains
 456:Drivers/STM32F4xx_HAL_Driver/Src/stm32f4xx_hal_spi.c ****   *               the configuration information for SPI module.
 457:Drivers/STM32F4xx_HAL_Driver/Src/stm32f4xx_hal_spi.c ****   * @retval None
 458:Drivers/STM32F4xx_HAL_Driver/Src/stm32f4xx_hal_spi.c ****   */
 459:Drivers/STM32F4xx_HAL_Driver/Src/stm32f4xx_hal_spi.c **** __weak void HAL_SPI_MspInit(SPI_HandleTypeDef *hspi)
 460:Drivers/STM32F4xx_HAL_Driver/Src/stm32f4xx_hal_spi.c **** {
 491              		.loc 1 460 1
 492              		.cfi_startproc
 493              		@ args = 0, pretend = 0, frame = 8
 494              		@ frame_needed = 1, uses_anonymous_args = 0
 495              		@ link register save eliminated.
 496 0000 80B4     		push	{r7}
 497              	.LCFI10:
 498              		.cfi_def_cfa_offset 4
 499              		.cfi_offset 7, -4
 500 0002 83B0     		sub	sp, sp, #12
 501              	.LCFI11:
 502              		.cfi_def_cfa_offset 16
 503 0004 00AF     		add	r7, sp, #0
 504              	.LCFI12:
 505              		.cfi_def_cfa_register 7
 506 0006 7860     		str	r0, [r7, #4]
 461:Drivers/STM32F4xx_HAL_Driver/Src/stm32f4xx_hal_spi.c ****   /* Prevent unused argument(s) compilation warning */
 462:Drivers/STM32F4xx_HAL_Driver/Src/stm32f4xx_hal_spi.c ****   UNUSED(hspi);
 463:Drivers/STM32F4xx_HAL_Driver/Src/stm32f4xx_hal_spi.c **** 
 464:Drivers/STM32F4xx_HAL_Driver/Src/stm32f4xx_hal_spi.c ****   /* NOTE : This function should not be modified, when the callback is needed,
ARM GAS  /tmp/cc9N7Buw.s 			page 18


 465:Drivers/STM32F4xx_HAL_Driver/Src/stm32f4xx_hal_spi.c ****             the HAL_SPI_MspInit should be implemented in the user file
 466:Drivers/STM32F4xx_HAL_Driver/Src/stm32f4xx_hal_spi.c ****    */
 467:Drivers/STM32F4xx_HAL_Driver/Src/stm32f4xx_hal_spi.c **** }
 507              		.loc 1 467 1
 508 0008 00BF     		nop
 509 000a 0C37     		adds	r7, r7, #12
 510              	.LCFI13:
 511              		.cfi_def_cfa_offset 4
 512 000c BD46     		mov	sp, r7
 513              	.LCFI14:
 514              		.cfi_def_cfa_register 13
 515              		@ sp needed
 516 000e 5DF8047B 		ldr	r7, [sp], #4
 517              	.LCFI15:
 518              		.cfi_restore 7
 519              		.cfi_def_cfa_offset 0
 520 0012 7047     		bx	lr
 521              		.cfi_endproc
 522              	.LFE132:
 524              		.section	.text.HAL_SPI_MspDeInit,"ax",%progbits
 525              		.align	1
 526              		.weak	HAL_SPI_MspDeInit
 527              		.syntax unified
 528              		.thumb
 529              		.thumb_func
 530              		.fpu fpv4-sp-d16
 532              	HAL_SPI_MspDeInit:
 533              	.LFB133:
 468:Drivers/STM32F4xx_HAL_Driver/Src/stm32f4xx_hal_spi.c **** 
 469:Drivers/STM32F4xx_HAL_Driver/Src/stm32f4xx_hal_spi.c **** /**
 470:Drivers/STM32F4xx_HAL_Driver/Src/stm32f4xx_hal_spi.c ****   * @brief  De-Initialize the SPI MSP.
 471:Drivers/STM32F4xx_HAL_Driver/Src/stm32f4xx_hal_spi.c ****   * @param  hspi pointer to a SPI_HandleTypeDef structure that contains
 472:Drivers/STM32F4xx_HAL_Driver/Src/stm32f4xx_hal_spi.c ****   *               the configuration information for SPI module.
 473:Drivers/STM32F4xx_HAL_Driver/Src/stm32f4xx_hal_spi.c ****   * @retval None
 474:Drivers/STM32F4xx_HAL_Driver/Src/stm32f4xx_hal_spi.c ****   */
 475:Drivers/STM32F4xx_HAL_Driver/Src/stm32f4xx_hal_spi.c **** __weak void HAL_SPI_MspDeInit(SPI_HandleTypeDef *hspi)
 476:Drivers/STM32F4xx_HAL_Driver/Src/stm32f4xx_hal_spi.c **** {
 534              		.loc 1 476 1
 535              		.cfi_startproc
 536              		@ args = 0, pretend = 0, frame = 8
 537              		@ frame_needed = 1, uses_anonymous_args = 0
 538              		@ link register save eliminated.
 539 0000 80B4     		push	{r7}
 540              	.LCFI16:
 541              		.cfi_def_cfa_offset 4
 542              		.cfi_offset 7, -4
 543 0002 83B0     		sub	sp, sp, #12
 544              	.LCFI17:
 545              		.cfi_def_cfa_offset 16
 546 0004 00AF     		add	r7, sp, #0
 547              	.LCFI18:
 548              		.cfi_def_cfa_register 7
 549 0006 7860     		str	r0, [r7, #4]
 477:Drivers/STM32F4xx_HAL_Driver/Src/stm32f4xx_hal_spi.c ****   /* Prevent unused argument(s) compilation warning */
 478:Drivers/STM32F4xx_HAL_Driver/Src/stm32f4xx_hal_spi.c ****   UNUSED(hspi);
 479:Drivers/STM32F4xx_HAL_Driver/Src/stm32f4xx_hal_spi.c **** 
 480:Drivers/STM32F4xx_HAL_Driver/Src/stm32f4xx_hal_spi.c ****   /* NOTE : This function should not be modified, when the callback is needed,
ARM GAS  /tmp/cc9N7Buw.s 			page 19


 481:Drivers/STM32F4xx_HAL_Driver/Src/stm32f4xx_hal_spi.c ****             the HAL_SPI_MspDeInit should be implemented in the user file
 482:Drivers/STM32F4xx_HAL_Driver/Src/stm32f4xx_hal_spi.c ****    */
 483:Drivers/STM32F4xx_HAL_Driver/Src/stm32f4xx_hal_spi.c **** }
 550              		.loc 1 483 1
 551 0008 00BF     		nop
 552 000a 0C37     		adds	r7, r7, #12
 553              	.LCFI19:
 554              		.cfi_def_cfa_offset 4
 555 000c BD46     		mov	sp, r7
 556              	.LCFI20:
 557              		.cfi_def_cfa_register 13
 558              		@ sp needed
 559 000e 5DF8047B 		ldr	r7, [sp], #4
 560              	.LCFI21:
 561              		.cfi_restore 7
 562              		.cfi_def_cfa_offset 0
 563 0012 7047     		bx	lr
 564              		.cfi_endproc
 565              	.LFE133:
 567              		.section	.text.HAL_SPI_Transmit,"ax",%progbits
 568              		.align	1
 569              		.global	HAL_SPI_Transmit
 570              		.syntax unified
 571              		.thumb
 572              		.thumb_func
 573              		.fpu fpv4-sp-d16
 575              	HAL_SPI_Transmit:
 576              	.LFB134:
 484:Drivers/STM32F4xx_HAL_Driver/Src/stm32f4xx_hal_spi.c **** 
 485:Drivers/STM32F4xx_HAL_Driver/Src/stm32f4xx_hal_spi.c **** #if (USE_HAL_SPI_REGISTER_CALLBACKS == 1U)
 486:Drivers/STM32F4xx_HAL_Driver/Src/stm32f4xx_hal_spi.c **** /**
 487:Drivers/STM32F4xx_HAL_Driver/Src/stm32f4xx_hal_spi.c ****   * @brief  Register a User SPI Callback
 488:Drivers/STM32F4xx_HAL_Driver/Src/stm32f4xx_hal_spi.c ****   *         To be used instead of the weak predefined callback
 489:Drivers/STM32F4xx_HAL_Driver/Src/stm32f4xx_hal_spi.c ****   * @param  hspi Pointer to a SPI_HandleTypeDef structure that contains
 490:Drivers/STM32F4xx_HAL_Driver/Src/stm32f4xx_hal_spi.c ****   *                the configuration information for the specified SPI.
 491:Drivers/STM32F4xx_HAL_Driver/Src/stm32f4xx_hal_spi.c ****   * @param  CallbackID ID of the callback to be registered
 492:Drivers/STM32F4xx_HAL_Driver/Src/stm32f4xx_hal_spi.c ****   * @param  pCallback pointer to the Callback function
 493:Drivers/STM32F4xx_HAL_Driver/Src/stm32f4xx_hal_spi.c ****   * @retval HAL status
 494:Drivers/STM32F4xx_HAL_Driver/Src/stm32f4xx_hal_spi.c ****   */
 495:Drivers/STM32F4xx_HAL_Driver/Src/stm32f4xx_hal_spi.c **** HAL_StatusTypeDef HAL_SPI_RegisterCallback(SPI_HandleTypeDef *hspi, HAL_SPI_CallbackIDTypeDef Callb
 496:Drivers/STM32F4xx_HAL_Driver/Src/stm32f4xx_hal_spi.c ****                                            pSPI_CallbackTypeDef pCallback)
 497:Drivers/STM32F4xx_HAL_Driver/Src/stm32f4xx_hal_spi.c **** {
 498:Drivers/STM32F4xx_HAL_Driver/Src/stm32f4xx_hal_spi.c ****   HAL_StatusTypeDef status = HAL_OK;
 499:Drivers/STM32F4xx_HAL_Driver/Src/stm32f4xx_hal_spi.c **** 
 500:Drivers/STM32F4xx_HAL_Driver/Src/stm32f4xx_hal_spi.c ****   if (pCallback == NULL)
 501:Drivers/STM32F4xx_HAL_Driver/Src/stm32f4xx_hal_spi.c ****   {
 502:Drivers/STM32F4xx_HAL_Driver/Src/stm32f4xx_hal_spi.c ****     /* Update the error code */
 503:Drivers/STM32F4xx_HAL_Driver/Src/stm32f4xx_hal_spi.c ****     hspi->ErrorCode |= HAL_SPI_ERROR_INVALID_CALLBACK;
 504:Drivers/STM32F4xx_HAL_Driver/Src/stm32f4xx_hal_spi.c **** 
 505:Drivers/STM32F4xx_HAL_Driver/Src/stm32f4xx_hal_spi.c ****     return HAL_ERROR;
 506:Drivers/STM32F4xx_HAL_Driver/Src/stm32f4xx_hal_spi.c ****   }
 507:Drivers/STM32F4xx_HAL_Driver/Src/stm32f4xx_hal_spi.c ****   /* Process locked */
 508:Drivers/STM32F4xx_HAL_Driver/Src/stm32f4xx_hal_spi.c ****   __HAL_LOCK(hspi);
 509:Drivers/STM32F4xx_HAL_Driver/Src/stm32f4xx_hal_spi.c **** 
 510:Drivers/STM32F4xx_HAL_Driver/Src/stm32f4xx_hal_spi.c ****   if (HAL_SPI_STATE_READY == hspi->State)
 511:Drivers/STM32F4xx_HAL_Driver/Src/stm32f4xx_hal_spi.c ****   {
 512:Drivers/STM32F4xx_HAL_Driver/Src/stm32f4xx_hal_spi.c ****     switch (CallbackID)
ARM GAS  /tmp/cc9N7Buw.s 			page 20


 513:Drivers/STM32F4xx_HAL_Driver/Src/stm32f4xx_hal_spi.c ****     {
 514:Drivers/STM32F4xx_HAL_Driver/Src/stm32f4xx_hal_spi.c ****       case HAL_SPI_TX_COMPLETE_CB_ID :
 515:Drivers/STM32F4xx_HAL_Driver/Src/stm32f4xx_hal_spi.c ****         hspi->TxCpltCallback = pCallback;
 516:Drivers/STM32F4xx_HAL_Driver/Src/stm32f4xx_hal_spi.c ****         break;
 517:Drivers/STM32F4xx_HAL_Driver/Src/stm32f4xx_hal_spi.c **** 
 518:Drivers/STM32F4xx_HAL_Driver/Src/stm32f4xx_hal_spi.c ****       case HAL_SPI_RX_COMPLETE_CB_ID :
 519:Drivers/STM32F4xx_HAL_Driver/Src/stm32f4xx_hal_spi.c ****         hspi->RxCpltCallback = pCallback;
 520:Drivers/STM32F4xx_HAL_Driver/Src/stm32f4xx_hal_spi.c ****         break;
 521:Drivers/STM32F4xx_HAL_Driver/Src/stm32f4xx_hal_spi.c **** 
 522:Drivers/STM32F4xx_HAL_Driver/Src/stm32f4xx_hal_spi.c ****       case HAL_SPI_TX_RX_COMPLETE_CB_ID :
 523:Drivers/STM32F4xx_HAL_Driver/Src/stm32f4xx_hal_spi.c ****         hspi->TxRxCpltCallback = pCallback;
 524:Drivers/STM32F4xx_HAL_Driver/Src/stm32f4xx_hal_spi.c ****         break;
 525:Drivers/STM32F4xx_HAL_Driver/Src/stm32f4xx_hal_spi.c **** 
 526:Drivers/STM32F4xx_HAL_Driver/Src/stm32f4xx_hal_spi.c ****       case HAL_SPI_TX_HALF_COMPLETE_CB_ID :
 527:Drivers/STM32F4xx_HAL_Driver/Src/stm32f4xx_hal_spi.c ****         hspi->TxHalfCpltCallback = pCallback;
 528:Drivers/STM32F4xx_HAL_Driver/Src/stm32f4xx_hal_spi.c ****         break;
 529:Drivers/STM32F4xx_HAL_Driver/Src/stm32f4xx_hal_spi.c **** 
 530:Drivers/STM32F4xx_HAL_Driver/Src/stm32f4xx_hal_spi.c ****       case HAL_SPI_RX_HALF_COMPLETE_CB_ID :
 531:Drivers/STM32F4xx_HAL_Driver/Src/stm32f4xx_hal_spi.c ****         hspi->RxHalfCpltCallback = pCallback;
 532:Drivers/STM32F4xx_HAL_Driver/Src/stm32f4xx_hal_spi.c ****         break;
 533:Drivers/STM32F4xx_HAL_Driver/Src/stm32f4xx_hal_spi.c **** 
 534:Drivers/STM32F4xx_HAL_Driver/Src/stm32f4xx_hal_spi.c ****       case HAL_SPI_TX_RX_HALF_COMPLETE_CB_ID :
 535:Drivers/STM32F4xx_HAL_Driver/Src/stm32f4xx_hal_spi.c ****         hspi->TxRxHalfCpltCallback = pCallback;
 536:Drivers/STM32F4xx_HAL_Driver/Src/stm32f4xx_hal_spi.c ****         break;
 537:Drivers/STM32F4xx_HAL_Driver/Src/stm32f4xx_hal_spi.c **** 
 538:Drivers/STM32F4xx_HAL_Driver/Src/stm32f4xx_hal_spi.c ****       case HAL_SPI_ERROR_CB_ID :
 539:Drivers/STM32F4xx_HAL_Driver/Src/stm32f4xx_hal_spi.c ****         hspi->ErrorCallback = pCallback;
 540:Drivers/STM32F4xx_HAL_Driver/Src/stm32f4xx_hal_spi.c ****         break;
 541:Drivers/STM32F4xx_HAL_Driver/Src/stm32f4xx_hal_spi.c **** 
 542:Drivers/STM32F4xx_HAL_Driver/Src/stm32f4xx_hal_spi.c ****       case HAL_SPI_ABORT_CB_ID :
 543:Drivers/STM32F4xx_HAL_Driver/Src/stm32f4xx_hal_spi.c ****         hspi->AbortCpltCallback = pCallback;
 544:Drivers/STM32F4xx_HAL_Driver/Src/stm32f4xx_hal_spi.c ****         break;
 545:Drivers/STM32F4xx_HAL_Driver/Src/stm32f4xx_hal_spi.c **** 
 546:Drivers/STM32F4xx_HAL_Driver/Src/stm32f4xx_hal_spi.c ****       case HAL_SPI_MSPINIT_CB_ID :
 547:Drivers/STM32F4xx_HAL_Driver/Src/stm32f4xx_hal_spi.c ****         hspi->MspInitCallback = pCallback;
 548:Drivers/STM32F4xx_HAL_Driver/Src/stm32f4xx_hal_spi.c ****         break;
 549:Drivers/STM32F4xx_HAL_Driver/Src/stm32f4xx_hal_spi.c **** 
 550:Drivers/STM32F4xx_HAL_Driver/Src/stm32f4xx_hal_spi.c ****       case HAL_SPI_MSPDEINIT_CB_ID :
 551:Drivers/STM32F4xx_HAL_Driver/Src/stm32f4xx_hal_spi.c ****         hspi->MspDeInitCallback = pCallback;
 552:Drivers/STM32F4xx_HAL_Driver/Src/stm32f4xx_hal_spi.c ****         break;
 553:Drivers/STM32F4xx_HAL_Driver/Src/stm32f4xx_hal_spi.c **** 
 554:Drivers/STM32F4xx_HAL_Driver/Src/stm32f4xx_hal_spi.c ****       default :
 555:Drivers/STM32F4xx_HAL_Driver/Src/stm32f4xx_hal_spi.c ****         /* Update the error code */
 556:Drivers/STM32F4xx_HAL_Driver/Src/stm32f4xx_hal_spi.c ****         SET_BIT(hspi->ErrorCode, HAL_SPI_ERROR_INVALID_CALLBACK);
 557:Drivers/STM32F4xx_HAL_Driver/Src/stm32f4xx_hal_spi.c **** 
 558:Drivers/STM32F4xx_HAL_Driver/Src/stm32f4xx_hal_spi.c ****         /* Return error status */
 559:Drivers/STM32F4xx_HAL_Driver/Src/stm32f4xx_hal_spi.c ****         status =  HAL_ERROR;
 560:Drivers/STM32F4xx_HAL_Driver/Src/stm32f4xx_hal_spi.c ****         break;
 561:Drivers/STM32F4xx_HAL_Driver/Src/stm32f4xx_hal_spi.c ****     }
 562:Drivers/STM32F4xx_HAL_Driver/Src/stm32f4xx_hal_spi.c ****   }
 563:Drivers/STM32F4xx_HAL_Driver/Src/stm32f4xx_hal_spi.c ****   else if (HAL_SPI_STATE_RESET == hspi->State)
 564:Drivers/STM32F4xx_HAL_Driver/Src/stm32f4xx_hal_spi.c ****   {
 565:Drivers/STM32F4xx_HAL_Driver/Src/stm32f4xx_hal_spi.c ****     switch (CallbackID)
 566:Drivers/STM32F4xx_HAL_Driver/Src/stm32f4xx_hal_spi.c ****     {
 567:Drivers/STM32F4xx_HAL_Driver/Src/stm32f4xx_hal_spi.c ****       case HAL_SPI_MSPINIT_CB_ID :
 568:Drivers/STM32F4xx_HAL_Driver/Src/stm32f4xx_hal_spi.c ****         hspi->MspInitCallback = pCallback;
 569:Drivers/STM32F4xx_HAL_Driver/Src/stm32f4xx_hal_spi.c ****         break;
ARM GAS  /tmp/cc9N7Buw.s 			page 21


 570:Drivers/STM32F4xx_HAL_Driver/Src/stm32f4xx_hal_spi.c **** 
 571:Drivers/STM32F4xx_HAL_Driver/Src/stm32f4xx_hal_spi.c ****       case HAL_SPI_MSPDEINIT_CB_ID :
 572:Drivers/STM32F4xx_HAL_Driver/Src/stm32f4xx_hal_spi.c ****         hspi->MspDeInitCallback = pCallback;
 573:Drivers/STM32F4xx_HAL_Driver/Src/stm32f4xx_hal_spi.c ****         break;
 574:Drivers/STM32F4xx_HAL_Driver/Src/stm32f4xx_hal_spi.c **** 
 575:Drivers/STM32F4xx_HAL_Driver/Src/stm32f4xx_hal_spi.c ****       default :
 576:Drivers/STM32F4xx_HAL_Driver/Src/stm32f4xx_hal_spi.c ****         /* Update the error code */
 577:Drivers/STM32F4xx_HAL_Driver/Src/stm32f4xx_hal_spi.c ****         SET_BIT(hspi->ErrorCode, HAL_SPI_ERROR_INVALID_CALLBACK);
 578:Drivers/STM32F4xx_HAL_Driver/Src/stm32f4xx_hal_spi.c **** 
 579:Drivers/STM32F4xx_HAL_Driver/Src/stm32f4xx_hal_spi.c ****         /* Return error status */
 580:Drivers/STM32F4xx_HAL_Driver/Src/stm32f4xx_hal_spi.c ****         status =  HAL_ERROR;
 581:Drivers/STM32F4xx_HAL_Driver/Src/stm32f4xx_hal_spi.c ****         break;
 582:Drivers/STM32F4xx_HAL_Driver/Src/stm32f4xx_hal_spi.c ****     }
 583:Drivers/STM32F4xx_HAL_Driver/Src/stm32f4xx_hal_spi.c ****   }
 584:Drivers/STM32F4xx_HAL_Driver/Src/stm32f4xx_hal_spi.c ****   else
 585:Drivers/STM32F4xx_HAL_Driver/Src/stm32f4xx_hal_spi.c ****   {
 586:Drivers/STM32F4xx_HAL_Driver/Src/stm32f4xx_hal_spi.c ****     /* Update the error code */
 587:Drivers/STM32F4xx_HAL_Driver/Src/stm32f4xx_hal_spi.c ****     SET_BIT(hspi->ErrorCode, HAL_SPI_ERROR_INVALID_CALLBACK);
 588:Drivers/STM32F4xx_HAL_Driver/Src/stm32f4xx_hal_spi.c **** 
 589:Drivers/STM32F4xx_HAL_Driver/Src/stm32f4xx_hal_spi.c ****     /* Return error status */
 590:Drivers/STM32F4xx_HAL_Driver/Src/stm32f4xx_hal_spi.c ****     status =  HAL_ERROR;
 591:Drivers/STM32F4xx_HAL_Driver/Src/stm32f4xx_hal_spi.c ****   }
 592:Drivers/STM32F4xx_HAL_Driver/Src/stm32f4xx_hal_spi.c **** 
 593:Drivers/STM32F4xx_HAL_Driver/Src/stm32f4xx_hal_spi.c ****   /* Release Lock */
 594:Drivers/STM32F4xx_HAL_Driver/Src/stm32f4xx_hal_spi.c ****   __HAL_UNLOCK(hspi);
 595:Drivers/STM32F4xx_HAL_Driver/Src/stm32f4xx_hal_spi.c ****   return status;
 596:Drivers/STM32F4xx_HAL_Driver/Src/stm32f4xx_hal_spi.c **** }
 597:Drivers/STM32F4xx_HAL_Driver/Src/stm32f4xx_hal_spi.c **** 
 598:Drivers/STM32F4xx_HAL_Driver/Src/stm32f4xx_hal_spi.c **** /**
 599:Drivers/STM32F4xx_HAL_Driver/Src/stm32f4xx_hal_spi.c ****   * @brief  Unregister an SPI Callback
 600:Drivers/STM32F4xx_HAL_Driver/Src/stm32f4xx_hal_spi.c ****   *         SPI callback is redirected to the weak predefined callback
 601:Drivers/STM32F4xx_HAL_Driver/Src/stm32f4xx_hal_spi.c ****   * @param  hspi Pointer to a SPI_HandleTypeDef structure that contains
 602:Drivers/STM32F4xx_HAL_Driver/Src/stm32f4xx_hal_spi.c ****   *                the configuration information for the specified SPI.
 603:Drivers/STM32F4xx_HAL_Driver/Src/stm32f4xx_hal_spi.c ****   * @param  CallbackID ID of the callback to be unregistered
 604:Drivers/STM32F4xx_HAL_Driver/Src/stm32f4xx_hal_spi.c ****   * @retval HAL status
 605:Drivers/STM32F4xx_HAL_Driver/Src/stm32f4xx_hal_spi.c ****   */
 606:Drivers/STM32F4xx_HAL_Driver/Src/stm32f4xx_hal_spi.c **** HAL_StatusTypeDef HAL_SPI_UnRegisterCallback(SPI_HandleTypeDef *hspi, HAL_SPI_CallbackIDTypeDef Cal
 607:Drivers/STM32F4xx_HAL_Driver/Src/stm32f4xx_hal_spi.c **** {
 608:Drivers/STM32F4xx_HAL_Driver/Src/stm32f4xx_hal_spi.c ****   HAL_StatusTypeDef status = HAL_OK;
 609:Drivers/STM32F4xx_HAL_Driver/Src/stm32f4xx_hal_spi.c **** 
 610:Drivers/STM32F4xx_HAL_Driver/Src/stm32f4xx_hal_spi.c ****   /* Process locked */
 611:Drivers/STM32F4xx_HAL_Driver/Src/stm32f4xx_hal_spi.c ****   __HAL_LOCK(hspi);
 612:Drivers/STM32F4xx_HAL_Driver/Src/stm32f4xx_hal_spi.c **** 
 613:Drivers/STM32F4xx_HAL_Driver/Src/stm32f4xx_hal_spi.c ****   if (HAL_SPI_STATE_READY == hspi->State)
 614:Drivers/STM32F4xx_HAL_Driver/Src/stm32f4xx_hal_spi.c ****   {
 615:Drivers/STM32F4xx_HAL_Driver/Src/stm32f4xx_hal_spi.c ****     switch (CallbackID)
 616:Drivers/STM32F4xx_HAL_Driver/Src/stm32f4xx_hal_spi.c ****     {
 617:Drivers/STM32F4xx_HAL_Driver/Src/stm32f4xx_hal_spi.c ****       case HAL_SPI_TX_COMPLETE_CB_ID :
 618:Drivers/STM32F4xx_HAL_Driver/Src/stm32f4xx_hal_spi.c ****         hspi->TxCpltCallback = HAL_SPI_TxCpltCallback;             /* Legacy weak TxCpltCallback   
 619:Drivers/STM32F4xx_HAL_Driver/Src/stm32f4xx_hal_spi.c ****         break;
 620:Drivers/STM32F4xx_HAL_Driver/Src/stm32f4xx_hal_spi.c **** 
 621:Drivers/STM32F4xx_HAL_Driver/Src/stm32f4xx_hal_spi.c ****       case HAL_SPI_RX_COMPLETE_CB_ID :
 622:Drivers/STM32F4xx_HAL_Driver/Src/stm32f4xx_hal_spi.c ****         hspi->RxCpltCallback = HAL_SPI_RxCpltCallback;             /* Legacy weak RxCpltCallback   
 623:Drivers/STM32F4xx_HAL_Driver/Src/stm32f4xx_hal_spi.c ****         break;
 624:Drivers/STM32F4xx_HAL_Driver/Src/stm32f4xx_hal_spi.c **** 
 625:Drivers/STM32F4xx_HAL_Driver/Src/stm32f4xx_hal_spi.c ****       case HAL_SPI_TX_RX_COMPLETE_CB_ID :
 626:Drivers/STM32F4xx_HAL_Driver/Src/stm32f4xx_hal_spi.c ****         hspi->TxRxCpltCallback = HAL_SPI_TxRxCpltCallback;         /* Legacy weak TxRxCpltCallback 
ARM GAS  /tmp/cc9N7Buw.s 			page 22


 627:Drivers/STM32F4xx_HAL_Driver/Src/stm32f4xx_hal_spi.c ****         break;
 628:Drivers/STM32F4xx_HAL_Driver/Src/stm32f4xx_hal_spi.c **** 
 629:Drivers/STM32F4xx_HAL_Driver/Src/stm32f4xx_hal_spi.c ****       case HAL_SPI_TX_HALF_COMPLETE_CB_ID :
 630:Drivers/STM32F4xx_HAL_Driver/Src/stm32f4xx_hal_spi.c ****         hspi->TxHalfCpltCallback = HAL_SPI_TxHalfCpltCallback;     /* Legacy weak TxHalfCpltCallbac
 631:Drivers/STM32F4xx_HAL_Driver/Src/stm32f4xx_hal_spi.c ****         break;
 632:Drivers/STM32F4xx_HAL_Driver/Src/stm32f4xx_hal_spi.c **** 
 633:Drivers/STM32F4xx_HAL_Driver/Src/stm32f4xx_hal_spi.c ****       case HAL_SPI_RX_HALF_COMPLETE_CB_ID :
 634:Drivers/STM32F4xx_HAL_Driver/Src/stm32f4xx_hal_spi.c ****         hspi->RxHalfCpltCallback = HAL_SPI_RxHalfCpltCallback;     /* Legacy weak RxHalfCpltCallbac
 635:Drivers/STM32F4xx_HAL_Driver/Src/stm32f4xx_hal_spi.c ****         break;
 636:Drivers/STM32F4xx_HAL_Driver/Src/stm32f4xx_hal_spi.c **** 
 637:Drivers/STM32F4xx_HAL_Driver/Src/stm32f4xx_hal_spi.c ****       case HAL_SPI_TX_RX_HALF_COMPLETE_CB_ID :
 638:Drivers/STM32F4xx_HAL_Driver/Src/stm32f4xx_hal_spi.c ****         hspi->TxRxHalfCpltCallback = HAL_SPI_TxRxHalfCpltCallback; /* Legacy weak TxRxHalfCpltCallb
 639:Drivers/STM32F4xx_HAL_Driver/Src/stm32f4xx_hal_spi.c ****         break;
 640:Drivers/STM32F4xx_HAL_Driver/Src/stm32f4xx_hal_spi.c **** 
 641:Drivers/STM32F4xx_HAL_Driver/Src/stm32f4xx_hal_spi.c ****       case HAL_SPI_ERROR_CB_ID :
 642:Drivers/STM32F4xx_HAL_Driver/Src/stm32f4xx_hal_spi.c ****         hspi->ErrorCallback = HAL_SPI_ErrorCallback;               /* Legacy weak ErrorCallback    
 643:Drivers/STM32F4xx_HAL_Driver/Src/stm32f4xx_hal_spi.c ****         break;
 644:Drivers/STM32F4xx_HAL_Driver/Src/stm32f4xx_hal_spi.c **** 
 645:Drivers/STM32F4xx_HAL_Driver/Src/stm32f4xx_hal_spi.c ****       case HAL_SPI_ABORT_CB_ID :
 646:Drivers/STM32F4xx_HAL_Driver/Src/stm32f4xx_hal_spi.c ****         hspi->AbortCpltCallback = HAL_SPI_AbortCpltCallback;       /* Legacy weak AbortCpltCallback
 647:Drivers/STM32F4xx_HAL_Driver/Src/stm32f4xx_hal_spi.c ****         break;
 648:Drivers/STM32F4xx_HAL_Driver/Src/stm32f4xx_hal_spi.c **** 
 649:Drivers/STM32F4xx_HAL_Driver/Src/stm32f4xx_hal_spi.c ****       case HAL_SPI_MSPINIT_CB_ID :
 650:Drivers/STM32F4xx_HAL_Driver/Src/stm32f4xx_hal_spi.c ****         hspi->MspInitCallback = HAL_SPI_MspInit;                   /* Legacy weak MspInit          
 651:Drivers/STM32F4xx_HAL_Driver/Src/stm32f4xx_hal_spi.c ****         break;
 652:Drivers/STM32F4xx_HAL_Driver/Src/stm32f4xx_hal_spi.c **** 
 653:Drivers/STM32F4xx_HAL_Driver/Src/stm32f4xx_hal_spi.c ****       case HAL_SPI_MSPDEINIT_CB_ID :
 654:Drivers/STM32F4xx_HAL_Driver/Src/stm32f4xx_hal_spi.c ****         hspi->MspDeInitCallback = HAL_SPI_MspDeInit;               /* Legacy weak MspDeInit        
 655:Drivers/STM32F4xx_HAL_Driver/Src/stm32f4xx_hal_spi.c ****         break;
 656:Drivers/STM32F4xx_HAL_Driver/Src/stm32f4xx_hal_spi.c **** 
 657:Drivers/STM32F4xx_HAL_Driver/Src/stm32f4xx_hal_spi.c ****       default :
 658:Drivers/STM32F4xx_HAL_Driver/Src/stm32f4xx_hal_spi.c ****         /* Update the error code */
 659:Drivers/STM32F4xx_HAL_Driver/Src/stm32f4xx_hal_spi.c ****         SET_BIT(hspi->ErrorCode, HAL_SPI_ERROR_INVALID_CALLBACK);
 660:Drivers/STM32F4xx_HAL_Driver/Src/stm32f4xx_hal_spi.c **** 
 661:Drivers/STM32F4xx_HAL_Driver/Src/stm32f4xx_hal_spi.c ****         /* Return error status */
 662:Drivers/STM32F4xx_HAL_Driver/Src/stm32f4xx_hal_spi.c ****         status =  HAL_ERROR;
 663:Drivers/STM32F4xx_HAL_Driver/Src/stm32f4xx_hal_spi.c ****         break;
 664:Drivers/STM32F4xx_HAL_Driver/Src/stm32f4xx_hal_spi.c ****     }
 665:Drivers/STM32F4xx_HAL_Driver/Src/stm32f4xx_hal_spi.c ****   }
 666:Drivers/STM32F4xx_HAL_Driver/Src/stm32f4xx_hal_spi.c ****   else if (HAL_SPI_STATE_RESET == hspi->State)
 667:Drivers/STM32F4xx_HAL_Driver/Src/stm32f4xx_hal_spi.c ****   {
 668:Drivers/STM32F4xx_HAL_Driver/Src/stm32f4xx_hal_spi.c ****     switch (CallbackID)
 669:Drivers/STM32F4xx_HAL_Driver/Src/stm32f4xx_hal_spi.c ****     {
 670:Drivers/STM32F4xx_HAL_Driver/Src/stm32f4xx_hal_spi.c ****       case HAL_SPI_MSPINIT_CB_ID :
 671:Drivers/STM32F4xx_HAL_Driver/Src/stm32f4xx_hal_spi.c ****         hspi->MspInitCallback = HAL_SPI_MspInit;                   /* Legacy weak MspInit          
 672:Drivers/STM32F4xx_HAL_Driver/Src/stm32f4xx_hal_spi.c ****         break;
 673:Drivers/STM32F4xx_HAL_Driver/Src/stm32f4xx_hal_spi.c **** 
 674:Drivers/STM32F4xx_HAL_Driver/Src/stm32f4xx_hal_spi.c ****       case HAL_SPI_MSPDEINIT_CB_ID :
 675:Drivers/STM32F4xx_HAL_Driver/Src/stm32f4xx_hal_spi.c ****         hspi->MspDeInitCallback = HAL_SPI_MspDeInit;               /* Legacy weak MspDeInit        
 676:Drivers/STM32F4xx_HAL_Driver/Src/stm32f4xx_hal_spi.c ****         break;
 677:Drivers/STM32F4xx_HAL_Driver/Src/stm32f4xx_hal_spi.c **** 
 678:Drivers/STM32F4xx_HAL_Driver/Src/stm32f4xx_hal_spi.c ****       default :
 679:Drivers/STM32F4xx_HAL_Driver/Src/stm32f4xx_hal_spi.c ****         /* Update the error code */
 680:Drivers/STM32F4xx_HAL_Driver/Src/stm32f4xx_hal_spi.c ****         SET_BIT(hspi->ErrorCode, HAL_SPI_ERROR_INVALID_CALLBACK);
 681:Drivers/STM32F4xx_HAL_Driver/Src/stm32f4xx_hal_spi.c **** 
 682:Drivers/STM32F4xx_HAL_Driver/Src/stm32f4xx_hal_spi.c ****         /* Return error status */
 683:Drivers/STM32F4xx_HAL_Driver/Src/stm32f4xx_hal_spi.c ****         status =  HAL_ERROR;
ARM GAS  /tmp/cc9N7Buw.s 			page 23


 684:Drivers/STM32F4xx_HAL_Driver/Src/stm32f4xx_hal_spi.c ****         break;
 685:Drivers/STM32F4xx_HAL_Driver/Src/stm32f4xx_hal_spi.c ****     }
 686:Drivers/STM32F4xx_HAL_Driver/Src/stm32f4xx_hal_spi.c ****   }
 687:Drivers/STM32F4xx_HAL_Driver/Src/stm32f4xx_hal_spi.c ****   else
 688:Drivers/STM32F4xx_HAL_Driver/Src/stm32f4xx_hal_spi.c ****   {
 689:Drivers/STM32F4xx_HAL_Driver/Src/stm32f4xx_hal_spi.c ****     /* Update the error code */
 690:Drivers/STM32F4xx_HAL_Driver/Src/stm32f4xx_hal_spi.c ****     SET_BIT(hspi->ErrorCode, HAL_SPI_ERROR_INVALID_CALLBACK);
 691:Drivers/STM32F4xx_HAL_Driver/Src/stm32f4xx_hal_spi.c **** 
 692:Drivers/STM32F4xx_HAL_Driver/Src/stm32f4xx_hal_spi.c ****     /* Return error status */
 693:Drivers/STM32F4xx_HAL_Driver/Src/stm32f4xx_hal_spi.c ****     status =  HAL_ERROR;
 694:Drivers/STM32F4xx_HAL_Driver/Src/stm32f4xx_hal_spi.c ****   }
 695:Drivers/STM32F4xx_HAL_Driver/Src/stm32f4xx_hal_spi.c **** 
 696:Drivers/STM32F4xx_HAL_Driver/Src/stm32f4xx_hal_spi.c ****   /* Release Lock */
 697:Drivers/STM32F4xx_HAL_Driver/Src/stm32f4xx_hal_spi.c ****   __HAL_UNLOCK(hspi);
 698:Drivers/STM32F4xx_HAL_Driver/Src/stm32f4xx_hal_spi.c ****   return status;
 699:Drivers/STM32F4xx_HAL_Driver/Src/stm32f4xx_hal_spi.c **** }
 700:Drivers/STM32F4xx_HAL_Driver/Src/stm32f4xx_hal_spi.c **** #endif /* USE_HAL_SPI_REGISTER_CALLBACKS */
 701:Drivers/STM32F4xx_HAL_Driver/Src/stm32f4xx_hal_spi.c **** /**
 702:Drivers/STM32F4xx_HAL_Driver/Src/stm32f4xx_hal_spi.c ****   * @}
 703:Drivers/STM32F4xx_HAL_Driver/Src/stm32f4xx_hal_spi.c ****   */
 704:Drivers/STM32F4xx_HAL_Driver/Src/stm32f4xx_hal_spi.c **** 
 705:Drivers/STM32F4xx_HAL_Driver/Src/stm32f4xx_hal_spi.c **** /** @defgroup SPI_Exported_Functions_Group2 IO operation functions
 706:Drivers/STM32F4xx_HAL_Driver/Src/stm32f4xx_hal_spi.c ****   *  @brief   Data transfers functions
 707:Drivers/STM32F4xx_HAL_Driver/Src/stm32f4xx_hal_spi.c ****   *
 708:Drivers/STM32F4xx_HAL_Driver/Src/stm32f4xx_hal_spi.c **** @verbatim
 709:Drivers/STM32F4xx_HAL_Driver/Src/stm32f4xx_hal_spi.c ****   ==============================================================================
 710:Drivers/STM32F4xx_HAL_Driver/Src/stm32f4xx_hal_spi.c ****                       ##### IO operation functions #####
 711:Drivers/STM32F4xx_HAL_Driver/Src/stm32f4xx_hal_spi.c ****  ===============================================================================
 712:Drivers/STM32F4xx_HAL_Driver/Src/stm32f4xx_hal_spi.c ****  [..]
 713:Drivers/STM32F4xx_HAL_Driver/Src/stm32f4xx_hal_spi.c ****     This subsection provides a set of functions allowing to manage the SPI
 714:Drivers/STM32F4xx_HAL_Driver/Src/stm32f4xx_hal_spi.c ****     data transfers.
 715:Drivers/STM32F4xx_HAL_Driver/Src/stm32f4xx_hal_spi.c **** 
 716:Drivers/STM32F4xx_HAL_Driver/Src/stm32f4xx_hal_spi.c ****     [..] The SPI supports master and slave mode :
 717:Drivers/STM32F4xx_HAL_Driver/Src/stm32f4xx_hal_spi.c **** 
 718:Drivers/STM32F4xx_HAL_Driver/Src/stm32f4xx_hal_spi.c ****     (#) There are two modes of transfer:
 719:Drivers/STM32F4xx_HAL_Driver/Src/stm32f4xx_hal_spi.c ****        (++) Blocking mode: The communication is performed in polling mode.
 720:Drivers/STM32F4xx_HAL_Driver/Src/stm32f4xx_hal_spi.c ****             The HAL status of all data processing is returned by the same function
 721:Drivers/STM32F4xx_HAL_Driver/Src/stm32f4xx_hal_spi.c ****             after finishing transfer.
 722:Drivers/STM32F4xx_HAL_Driver/Src/stm32f4xx_hal_spi.c ****        (++) No-Blocking mode: The communication is performed using Interrupts
 723:Drivers/STM32F4xx_HAL_Driver/Src/stm32f4xx_hal_spi.c ****             or DMA, These APIs return the HAL status.
 724:Drivers/STM32F4xx_HAL_Driver/Src/stm32f4xx_hal_spi.c ****             The end of the data processing will be indicated through the
 725:Drivers/STM32F4xx_HAL_Driver/Src/stm32f4xx_hal_spi.c ****             dedicated SPI IRQ when using Interrupt mode or the DMA IRQ when
 726:Drivers/STM32F4xx_HAL_Driver/Src/stm32f4xx_hal_spi.c ****             using DMA mode.
 727:Drivers/STM32F4xx_HAL_Driver/Src/stm32f4xx_hal_spi.c ****             The HAL_SPI_TxCpltCallback(), HAL_SPI_RxCpltCallback() and HAL_SPI_TxRxCpltCallback() u
 728:Drivers/STM32F4xx_HAL_Driver/Src/stm32f4xx_hal_spi.c ****             will be executed respectively at the end of the transmit or Receive process
 729:Drivers/STM32F4xx_HAL_Driver/Src/stm32f4xx_hal_spi.c ****             The HAL_SPI_ErrorCallback()user callback will be executed when a communication error is
 730:Drivers/STM32F4xx_HAL_Driver/Src/stm32f4xx_hal_spi.c **** 
 731:Drivers/STM32F4xx_HAL_Driver/Src/stm32f4xx_hal_spi.c ****     (#) APIs provided for these 2 transfer modes (Blocking mode or Non blocking mode using either I
 732:Drivers/STM32F4xx_HAL_Driver/Src/stm32f4xx_hal_spi.c ****         exist for 1Line (simplex) and 2Lines (full duplex) modes.
 733:Drivers/STM32F4xx_HAL_Driver/Src/stm32f4xx_hal_spi.c **** 
 734:Drivers/STM32F4xx_HAL_Driver/Src/stm32f4xx_hal_spi.c **** @endverbatim
 735:Drivers/STM32F4xx_HAL_Driver/Src/stm32f4xx_hal_spi.c ****   * @{
 736:Drivers/STM32F4xx_HAL_Driver/Src/stm32f4xx_hal_spi.c ****   */
 737:Drivers/STM32F4xx_HAL_Driver/Src/stm32f4xx_hal_spi.c **** 
 738:Drivers/STM32F4xx_HAL_Driver/Src/stm32f4xx_hal_spi.c **** /**
 739:Drivers/STM32F4xx_HAL_Driver/Src/stm32f4xx_hal_spi.c ****   * @brief  Transmit an amount of data in blocking mode.
 740:Drivers/STM32F4xx_HAL_Driver/Src/stm32f4xx_hal_spi.c ****   * @param  hspi pointer to a SPI_HandleTypeDef structure that contains
ARM GAS  /tmp/cc9N7Buw.s 			page 24


 741:Drivers/STM32F4xx_HAL_Driver/Src/stm32f4xx_hal_spi.c ****   *               the configuration information for SPI module.
 742:Drivers/STM32F4xx_HAL_Driver/Src/stm32f4xx_hal_spi.c ****   * @param  pData pointer to data buffer
 743:Drivers/STM32F4xx_HAL_Driver/Src/stm32f4xx_hal_spi.c ****   * @param  Size amount of data to be sent
 744:Drivers/STM32F4xx_HAL_Driver/Src/stm32f4xx_hal_spi.c ****   * @param  Timeout Timeout duration
 745:Drivers/STM32F4xx_HAL_Driver/Src/stm32f4xx_hal_spi.c ****   * @retval HAL status
 746:Drivers/STM32F4xx_HAL_Driver/Src/stm32f4xx_hal_spi.c ****   */
 747:Drivers/STM32F4xx_HAL_Driver/Src/stm32f4xx_hal_spi.c **** HAL_StatusTypeDef HAL_SPI_Transmit(SPI_HandleTypeDef *hspi, uint8_t *pData, uint16_t Size, uint32_t
 748:Drivers/STM32F4xx_HAL_Driver/Src/stm32f4xx_hal_spi.c **** {
 577              		.loc 1 748 1
 578              		.cfi_startproc
 579              		@ args = 0, pretend = 0, frame = 32
 580              		@ frame_needed = 1, uses_anonymous_args = 0
 581 0000 80B5     		push	{r7, lr}
 582              	.LCFI22:
 583              		.cfi_def_cfa_offset 8
 584              		.cfi_offset 7, -8
 585              		.cfi_offset 14, -4
 586 0002 88B0     		sub	sp, sp, #32
 587              	.LCFI23:
 588              		.cfi_def_cfa_offset 40
 589 0004 00AF     		add	r7, sp, #0
 590              	.LCFI24:
 591              		.cfi_def_cfa_register 7
 592 0006 F860     		str	r0, [r7, #12]
 593 0008 B960     		str	r1, [r7, #8]
 594 000a 3B60     		str	r3, [r7]
 595 000c 1346     		mov	r3, r2	@ movhi
 596 000e FB80     		strh	r3, [r7, #6]	@ movhi
 749:Drivers/STM32F4xx_HAL_Driver/Src/stm32f4xx_hal_spi.c ****   uint32_t tickstart;
 750:Drivers/STM32F4xx_HAL_Driver/Src/stm32f4xx_hal_spi.c ****   HAL_StatusTypeDef errorcode = HAL_OK;
 597              		.loc 1 750 21
 598 0010 0023     		movs	r3, #0
 599 0012 FB77     		strb	r3, [r7, #31]
 751:Drivers/STM32F4xx_HAL_Driver/Src/stm32f4xx_hal_spi.c ****   uint16_t initial_TxXferCount;
 752:Drivers/STM32F4xx_HAL_Driver/Src/stm32f4xx_hal_spi.c **** 
 753:Drivers/STM32F4xx_HAL_Driver/Src/stm32f4xx_hal_spi.c ****   /* Check Direction parameter */
 754:Drivers/STM32F4xx_HAL_Driver/Src/stm32f4xx_hal_spi.c ****   assert_param(IS_SPI_DIRECTION_2LINES_OR_1LINE(hspi->Init.Direction));
 600              		.loc 1 754 3
 601 0014 FB68     		ldr	r3, [r7, #12]
 602 0016 9B68     		ldr	r3, [r3, #8]
 603 0018 002B     		cmp	r3, #0
 604 001a 09D0     		beq	.L26
 605              		.loc 1 754 3 is_stmt 0 discriminator 1
 606 001c FB68     		ldr	r3, [r7, #12]
 607 001e 9B68     		ldr	r3, [r3, #8]
 608 0020 B3F5004F 		cmp	r3, #32768
 609 0024 04D0     		beq	.L26
 610              		.loc 1 754 3 discriminator 2
 611 0026 40F2F221 		movw	r1, #754
 612 002a 9648     		ldr	r0, .L54
 613 002c FFF7FEFF 		bl	assert_failed
 614              	.L26:
 755:Drivers/STM32F4xx_HAL_Driver/Src/stm32f4xx_hal_spi.c **** 
 756:Drivers/STM32F4xx_HAL_Driver/Src/stm32f4xx_hal_spi.c ****   /* Process Locked */
 757:Drivers/STM32F4xx_HAL_Driver/Src/stm32f4xx_hal_spi.c ****   __HAL_LOCK(hspi);
 615              		.loc 1 757 3 is_stmt 1
 616 0030 FB68     		ldr	r3, [r7, #12]
ARM GAS  /tmp/cc9N7Buw.s 			page 25


 617 0032 93F85030 		ldrb	r3, [r3, #80]	@ zero_extendqisi2
 618 0036 012B     		cmp	r3, #1
 619 0038 01D1     		bne	.L27
 620              		.loc 1 757 3 is_stmt 0 discriminator 1
 621 003a 0223     		movs	r3, #2
 622 003c 1EE1     		b	.L28
 623              	.L27:
 624              		.loc 1 757 3 discriminator 2
 625 003e FB68     		ldr	r3, [r7, #12]
 626 0040 0122     		movs	r2, #1
 627 0042 83F85020 		strb	r2, [r3, #80]
 758:Drivers/STM32F4xx_HAL_Driver/Src/stm32f4xx_hal_spi.c **** 
 759:Drivers/STM32F4xx_HAL_Driver/Src/stm32f4xx_hal_spi.c ****   /* Init tickstart for timeout management*/
 760:Drivers/STM32F4xx_HAL_Driver/Src/stm32f4xx_hal_spi.c ****   tickstart = HAL_GetTick();
 628              		.loc 1 760 15 is_stmt 1 discriminator 2
 629 0046 FFF7FEFF 		bl	HAL_GetTick
 630 004a B861     		str	r0, [r7, #24]
 761:Drivers/STM32F4xx_HAL_Driver/Src/stm32f4xx_hal_spi.c ****   initial_TxXferCount = Size;
 631              		.loc 1 761 23 discriminator 2
 632 004c FB88     		ldrh	r3, [r7, #6]	@ movhi
 633 004e FB82     		strh	r3, [r7, #22]	@ movhi
 762:Drivers/STM32F4xx_HAL_Driver/Src/stm32f4xx_hal_spi.c **** 
 763:Drivers/STM32F4xx_HAL_Driver/Src/stm32f4xx_hal_spi.c ****   if (hspi->State != HAL_SPI_STATE_READY)
 634              		.loc 1 763 11 discriminator 2
 635 0050 FB68     		ldr	r3, [r7, #12]
 636 0052 93F85130 		ldrb	r3, [r3, #81]
 637 0056 DBB2     		uxtb	r3, r3
 638              		.loc 1 763 6 discriminator 2
 639 0058 012B     		cmp	r3, #1
 640 005a 02D0     		beq	.L29
 764:Drivers/STM32F4xx_HAL_Driver/Src/stm32f4xx_hal_spi.c ****   {
 765:Drivers/STM32F4xx_HAL_Driver/Src/stm32f4xx_hal_spi.c ****     errorcode = HAL_BUSY;
 641              		.loc 1 765 15
 642 005c 0223     		movs	r3, #2
 643 005e FB77     		strb	r3, [r7, #31]
 766:Drivers/STM32F4xx_HAL_Driver/Src/stm32f4xx_hal_spi.c ****     goto error;
 644              		.loc 1 766 5
 645 0060 03E1     		b	.L30
 646              	.L29:
 767:Drivers/STM32F4xx_HAL_Driver/Src/stm32f4xx_hal_spi.c ****   }
 768:Drivers/STM32F4xx_HAL_Driver/Src/stm32f4xx_hal_spi.c **** 
 769:Drivers/STM32F4xx_HAL_Driver/Src/stm32f4xx_hal_spi.c ****   if ((pData == NULL) || (Size == 0U))
 647              		.loc 1 769 6
 648 0062 BB68     		ldr	r3, [r7, #8]
 649 0064 002B     		cmp	r3, #0
 650 0066 02D0     		beq	.L31
 651              		.loc 1 769 23 discriminator 1
 652 0068 FB88     		ldrh	r3, [r7, #6]
 653 006a 002B     		cmp	r3, #0
 654 006c 02D1     		bne	.L32
 655              	.L31:
 770:Drivers/STM32F4xx_HAL_Driver/Src/stm32f4xx_hal_spi.c ****   {
 771:Drivers/STM32F4xx_HAL_Driver/Src/stm32f4xx_hal_spi.c ****     errorcode = HAL_ERROR;
 656              		.loc 1 771 15
 657 006e 0123     		movs	r3, #1
 658 0070 FB77     		strb	r3, [r7, #31]
 772:Drivers/STM32F4xx_HAL_Driver/Src/stm32f4xx_hal_spi.c ****     goto error;
ARM GAS  /tmp/cc9N7Buw.s 			page 26


 659              		.loc 1 772 5
 660 0072 FAE0     		b	.L30
 661              	.L32:
 773:Drivers/STM32F4xx_HAL_Driver/Src/stm32f4xx_hal_spi.c ****   }
 774:Drivers/STM32F4xx_HAL_Driver/Src/stm32f4xx_hal_spi.c **** 
 775:Drivers/STM32F4xx_HAL_Driver/Src/stm32f4xx_hal_spi.c ****   /* Set the transaction information */
 776:Drivers/STM32F4xx_HAL_Driver/Src/stm32f4xx_hal_spi.c ****   hspi->State       = HAL_SPI_STATE_BUSY_TX;
 662              		.loc 1 776 21
 663 0074 FB68     		ldr	r3, [r7, #12]
 664 0076 0322     		movs	r2, #3
 665 0078 83F85120 		strb	r2, [r3, #81]
 777:Drivers/STM32F4xx_HAL_Driver/Src/stm32f4xx_hal_spi.c ****   hspi->ErrorCode   = HAL_SPI_ERROR_NONE;
 666              		.loc 1 777 21
 667 007c FB68     		ldr	r3, [r7, #12]
 668 007e 0022     		movs	r2, #0
 669 0080 5A65     		str	r2, [r3, #84]
 778:Drivers/STM32F4xx_HAL_Driver/Src/stm32f4xx_hal_spi.c ****   hspi->pTxBuffPtr  = (uint8_t *)pData;
 670              		.loc 1 778 21
 671 0082 FB68     		ldr	r3, [r7, #12]
 672 0084 BA68     		ldr	r2, [r7, #8]
 673 0086 1A63     		str	r2, [r3, #48]
 779:Drivers/STM32F4xx_HAL_Driver/Src/stm32f4xx_hal_spi.c ****   hspi->TxXferSize  = Size;
 674              		.loc 1 779 21
 675 0088 FB68     		ldr	r3, [r7, #12]
 676 008a FA88     		ldrh	r2, [r7, #6]	@ movhi
 677 008c 9A86     		strh	r2, [r3, #52]	@ movhi
 780:Drivers/STM32F4xx_HAL_Driver/Src/stm32f4xx_hal_spi.c ****   hspi->TxXferCount = Size;
 678              		.loc 1 780 21
 679 008e FB68     		ldr	r3, [r7, #12]
 680 0090 FA88     		ldrh	r2, [r7, #6]	@ movhi
 681 0092 DA86     		strh	r2, [r3, #54]	@ movhi
 781:Drivers/STM32F4xx_HAL_Driver/Src/stm32f4xx_hal_spi.c **** 
 782:Drivers/STM32F4xx_HAL_Driver/Src/stm32f4xx_hal_spi.c ****   /*Init field not used in handle to zero */
 783:Drivers/STM32F4xx_HAL_Driver/Src/stm32f4xx_hal_spi.c ****   hspi->pRxBuffPtr  = (uint8_t *)NULL;
 682              		.loc 1 783 21
 683 0094 FB68     		ldr	r3, [r7, #12]
 684 0096 0022     		movs	r2, #0
 685 0098 9A63     		str	r2, [r3, #56]
 784:Drivers/STM32F4xx_HAL_Driver/Src/stm32f4xx_hal_spi.c ****   hspi->RxXferSize  = 0U;
 686              		.loc 1 784 21
 687 009a FB68     		ldr	r3, [r7, #12]
 688 009c 0022     		movs	r2, #0
 689 009e 9A87     		strh	r2, [r3, #60]	@ movhi
 785:Drivers/STM32F4xx_HAL_Driver/Src/stm32f4xx_hal_spi.c ****   hspi->RxXferCount = 0U;
 690              		.loc 1 785 21
 691 00a0 FB68     		ldr	r3, [r7, #12]
 692 00a2 0022     		movs	r2, #0
 693 00a4 DA87     		strh	r2, [r3, #62]	@ movhi
 786:Drivers/STM32F4xx_HAL_Driver/Src/stm32f4xx_hal_spi.c ****   hspi->TxISR       = NULL;
 694              		.loc 1 786 21
 695 00a6 FB68     		ldr	r3, [r7, #12]
 696 00a8 0022     		movs	r2, #0
 697 00aa 5A64     		str	r2, [r3, #68]
 787:Drivers/STM32F4xx_HAL_Driver/Src/stm32f4xx_hal_spi.c ****   hspi->RxISR       = NULL;
 698              		.loc 1 787 21
 699 00ac FB68     		ldr	r3, [r7, #12]
 700 00ae 0022     		movs	r2, #0
ARM GAS  /tmp/cc9N7Buw.s 			page 27


 701 00b0 1A64     		str	r2, [r3, #64]
 788:Drivers/STM32F4xx_HAL_Driver/Src/stm32f4xx_hal_spi.c **** 
 789:Drivers/STM32F4xx_HAL_Driver/Src/stm32f4xx_hal_spi.c ****   /* Configure communication direction : 1Line */
 790:Drivers/STM32F4xx_HAL_Driver/Src/stm32f4xx_hal_spi.c ****   if (hspi->Init.Direction == SPI_DIRECTION_1LINE)
 702              		.loc 1 790 17
 703 00b2 FB68     		ldr	r3, [r7, #12]
 704 00b4 9B68     		ldr	r3, [r3, #8]
 705              		.loc 1 790 6
 706 00b6 B3F5004F 		cmp	r3, #32768
 707 00ba 07D1     		bne	.L33
 791:Drivers/STM32F4xx_HAL_Driver/Src/stm32f4xx_hal_spi.c ****   {
 792:Drivers/STM32F4xx_HAL_Driver/Src/stm32f4xx_hal_spi.c ****     SPI_1LINE_TX(hspi);
 708              		.loc 1 792 5
 709 00bc FB68     		ldr	r3, [r7, #12]
 710 00be 1B68     		ldr	r3, [r3]
 711 00c0 1A68     		ldr	r2, [r3]
 712 00c2 FB68     		ldr	r3, [r7, #12]
 713 00c4 1B68     		ldr	r3, [r3]
 714 00c6 42F48042 		orr	r2, r2, #16384
 715 00ca 1A60     		str	r2, [r3]
 716              	.L33:
 793:Drivers/STM32F4xx_HAL_Driver/Src/stm32f4xx_hal_spi.c ****   }
 794:Drivers/STM32F4xx_HAL_Driver/Src/stm32f4xx_hal_spi.c **** 
 795:Drivers/STM32F4xx_HAL_Driver/Src/stm32f4xx_hal_spi.c **** #if (USE_SPI_CRC != 0U)
 796:Drivers/STM32F4xx_HAL_Driver/Src/stm32f4xx_hal_spi.c ****   /* Reset CRC Calculation */
 797:Drivers/STM32F4xx_HAL_Driver/Src/stm32f4xx_hal_spi.c ****   if (hspi->Init.CRCCalculation == SPI_CRCCALCULATION_ENABLE)
 798:Drivers/STM32F4xx_HAL_Driver/Src/stm32f4xx_hal_spi.c ****   {
 799:Drivers/STM32F4xx_HAL_Driver/Src/stm32f4xx_hal_spi.c ****     SPI_RESET_CRC(hspi);
 800:Drivers/STM32F4xx_HAL_Driver/Src/stm32f4xx_hal_spi.c ****   }
 801:Drivers/STM32F4xx_HAL_Driver/Src/stm32f4xx_hal_spi.c **** #endif /* USE_SPI_CRC */
 802:Drivers/STM32F4xx_HAL_Driver/Src/stm32f4xx_hal_spi.c **** 
 803:Drivers/STM32F4xx_HAL_Driver/Src/stm32f4xx_hal_spi.c ****   /* Check if the SPI is already enabled */
 804:Drivers/STM32F4xx_HAL_Driver/Src/stm32f4xx_hal_spi.c ****   if ((hspi->Instance->CR1 & SPI_CR1_SPE) != SPI_CR1_SPE)
 717              		.loc 1 804 12
 718 00cc FB68     		ldr	r3, [r7, #12]
 719 00ce 1B68     		ldr	r3, [r3]
 720              		.loc 1 804 22
 721 00d0 1B68     		ldr	r3, [r3]
 722              		.loc 1 804 28
 723 00d2 03F04003 		and	r3, r3, #64
 724              		.loc 1 804 6
 725 00d6 402B     		cmp	r3, #64
 726 00d8 07D0     		beq	.L34
 805:Drivers/STM32F4xx_HAL_Driver/Src/stm32f4xx_hal_spi.c ****   {
 806:Drivers/STM32F4xx_HAL_Driver/Src/stm32f4xx_hal_spi.c ****     /* Enable SPI peripheral */
 807:Drivers/STM32F4xx_HAL_Driver/Src/stm32f4xx_hal_spi.c ****     __HAL_SPI_ENABLE(hspi);
 727              		.loc 1 807 5
 728 00da FB68     		ldr	r3, [r7, #12]
 729 00dc 1B68     		ldr	r3, [r3]
 730 00de 1A68     		ldr	r2, [r3]
 731 00e0 FB68     		ldr	r3, [r7, #12]
 732 00e2 1B68     		ldr	r3, [r3]
 733 00e4 42F04002 		orr	r2, r2, #64
 734 00e8 1A60     		str	r2, [r3]
 735              	.L34:
 808:Drivers/STM32F4xx_HAL_Driver/Src/stm32f4xx_hal_spi.c ****   }
 809:Drivers/STM32F4xx_HAL_Driver/Src/stm32f4xx_hal_spi.c **** 
ARM GAS  /tmp/cc9N7Buw.s 			page 28


 810:Drivers/STM32F4xx_HAL_Driver/Src/stm32f4xx_hal_spi.c ****   /* Transmit data in 16 Bit mode */
 811:Drivers/STM32F4xx_HAL_Driver/Src/stm32f4xx_hal_spi.c ****   if (hspi->Init.DataSize == SPI_DATASIZE_16BIT)
 736              		.loc 1 811 17
 737 00ea FB68     		ldr	r3, [r7, #12]
 738 00ec DB68     		ldr	r3, [r3, #12]
 739              		.loc 1 811 6
 740 00ee B3F5006F 		cmp	r3, #2048
 741 00f2 4BD1     		bne	.L35
 812:Drivers/STM32F4xx_HAL_Driver/Src/stm32f4xx_hal_spi.c ****   {
 813:Drivers/STM32F4xx_HAL_Driver/Src/stm32f4xx_hal_spi.c ****     if ((hspi->Init.Mode == SPI_MODE_SLAVE) || (initial_TxXferCount == 0x01U))
 742              		.loc 1 813 20
 743 00f4 FB68     		ldr	r3, [r7, #12]
 744 00f6 5B68     		ldr	r3, [r3, #4]
 745              		.loc 1 813 8
 746 00f8 002B     		cmp	r3, #0
 747 00fa 02D0     		beq	.L36
 748              		.loc 1 813 45 discriminator 1
 749 00fc FB8A     		ldrh	r3, [r7, #22]
 750 00fe 012B     		cmp	r3, #1
 751 0100 3ED1     		bne	.L38
 752              	.L36:
 814:Drivers/STM32F4xx_HAL_Driver/Src/stm32f4xx_hal_spi.c ****     {
 815:Drivers/STM32F4xx_HAL_Driver/Src/stm32f4xx_hal_spi.c ****       hspi->Instance->DR = *((uint16_t *)hspi->pTxBuffPtr);
 753              		.loc 1 815 46
 754 0102 FB68     		ldr	r3, [r7, #12]
 755 0104 1B6B     		ldr	r3, [r3, #48]
 756              		.loc 1 815 28
 757 0106 1A88     		ldrh	r2, [r3]
 758              		.loc 1 815 11
 759 0108 FB68     		ldr	r3, [r7, #12]
 760 010a 1B68     		ldr	r3, [r3]
 761              		.loc 1 815 26
 762 010c DA60     		str	r2, [r3, #12]
 816:Drivers/STM32F4xx_HAL_Driver/Src/stm32f4xx_hal_spi.c ****       hspi->pTxBuffPtr += sizeof(uint16_t);
 763              		.loc 1 816 24
 764 010e FB68     		ldr	r3, [r7, #12]
 765 0110 1B6B     		ldr	r3, [r3, #48]
 766 0112 9A1C     		adds	r2, r3, #2
 767 0114 FB68     		ldr	r3, [r7, #12]
 768 0116 1A63     		str	r2, [r3, #48]
 817:Drivers/STM32F4xx_HAL_Driver/Src/stm32f4xx_hal_spi.c ****       hspi->TxXferCount--;
 769              		.loc 1 817 11
 770 0118 FB68     		ldr	r3, [r7, #12]
 771 011a DB8E     		ldrh	r3, [r3, #54]	@ movhi
 772 011c 9BB2     		uxth	r3, r3
 773              		.loc 1 817 24
 774 011e 013B     		subs	r3, r3, #1
 775 0120 9AB2     		uxth	r2, r3
 776 0122 FB68     		ldr	r3, [r7, #12]
 777 0124 DA86     		strh	r2, [r3, #54]	@ movhi
 818:Drivers/STM32F4xx_HAL_Driver/Src/stm32f4xx_hal_spi.c ****     }
 819:Drivers/STM32F4xx_HAL_Driver/Src/stm32f4xx_hal_spi.c ****     /* Transmit data in 16 Bit mode */
 820:Drivers/STM32F4xx_HAL_Driver/Src/stm32f4xx_hal_spi.c ****     while (hspi->TxXferCount > 0U)
 778              		.loc 1 820 11
 779 0126 2BE0     		b	.L38
 780              	.L42:
 821:Drivers/STM32F4xx_HAL_Driver/Src/stm32f4xx_hal_spi.c ****     {
ARM GAS  /tmp/cc9N7Buw.s 			page 29


 822:Drivers/STM32F4xx_HAL_Driver/Src/stm32f4xx_hal_spi.c ****       /* Wait until TXE flag is set to send data */
 823:Drivers/STM32F4xx_HAL_Driver/Src/stm32f4xx_hal_spi.c ****       if (__HAL_SPI_GET_FLAG(hspi, SPI_FLAG_TXE))
 781              		.loc 1 823 11
 782 0128 FB68     		ldr	r3, [r7, #12]
 783 012a 1B68     		ldr	r3, [r3]
 784 012c 9B68     		ldr	r3, [r3, #8]
 785 012e 03F00203 		and	r3, r3, #2
 786              		.loc 1 823 10
 787 0132 022B     		cmp	r3, #2
 788 0134 12D1     		bne	.L39
 824:Drivers/STM32F4xx_HAL_Driver/Src/stm32f4xx_hal_spi.c ****       {
 825:Drivers/STM32F4xx_HAL_Driver/Src/stm32f4xx_hal_spi.c ****         hspi->Instance->DR = *((uint16_t *)hspi->pTxBuffPtr);
 789              		.loc 1 825 48
 790 0136 FB68     		ldr	r3, [r7, #12]
 791 0138 1B6B     		ldr	r3, [r3, #48]
 792              		.loc 1 825 30
 793 013a 1A88     		ldrh	r2, [r3]
 794              		.loc 1 825 13
 795 013c FB68     		ldr	r3, [r7, #12]
 796 013e 1B68     		ldr	r3, [r3]
 797              		.loc 1 825 28
 798 0140 DA60     		str	r2, [r3, #12]
 826:Drivers/STM32F4xx_HAL_Driver/Src/stm32f4xx_hal_spi.c ****         hspi->pTxBuffPtr += sizeof(uint16_t);
 799              		.loc 1 826 26
 800 0142 FB68     		ldr	r3, [r7, #12]
 801 0144 1B6B     		ldr	r3, [r3, #48]
 802 0146 9A1C     		adds	r2, r3, #2
 803 0148 FB68     		ldr	r3, [r7, #12]
 804 014a 1A63     		str	r2, [r3, #48]
 827:Drivers/STM32F4xx_HAL_Driver/Src/stm32f4xx_hal_spi.c ****         hspi->TxXferCount--;
 805              		.loc 1 827 13
 806 014c FB68     		ldr	r3, [r7, #12]
 807 014e DB8E     		ldrh	r3, [r3, #54]	@ movhi
 808 0150 9BB2     		uxth	r3, r3
 809              		.loc 1 827 26
 810 0152 013B     		subs	r3, r3, #1
 811 0154 9AB2     		uxth	r2, r3
 812 0156 FB68     		ldr	r3, [r7, #12]
 813 0158 DA86     		strh	r2, [r3, #54]	@ movhi
 814 015a 11E0     		b	.L38
 815              	.L39:
 828:Drivers/STM32F4xx_HAL_Driver/Src/stm32f4xx_hal_spi.c ****       }
 829:Drivers/STM32F4xx_HAL_Driver/Src/stm32f4xx_hal_spi.c ****       else
 830:Drivers/STM32F4xx_HAL_Driver/Src/stm32f4xx_hal_spi.c ****       {
 831:Drivers/STM32F4xx_HAL_Driver/Src/stm32f4xx_hal_spi.c ****         /* Timeout management */
 832:Drivers/STM32F4xx_HAL_Driver/Src/stm32f4xx_hal_spi.c ****         if ((((HAL_GetTick() - tickstart) >=  Timeout) && (Timeout != HAL_MAX_DELAY)) || (Timeout =
 816              		.loc 1 832 16
 817 015c FFF7FEFF 		bl	HAL_GetTick
 818 0160 0246     		mov	r2, r0
 819              		.loc 1 832 30
 820 0162 BB69     		ldr	r3, [r7, #24]
 821 0164 D31A     		subs	r3, r2, r3
 822              		.loc 1 832 12
 823 0166 3A68     		ldr	r2, [r7]
 824 0168 9A42     		cmp	r2, r3
 825 016a 03D8     		bhi	.L40
 826              		.loc 1 832 56 discriminator 1
ARM GAS  /tmp/cc9N7Buw.s 			page 30


 827 016c 3B68     		ldr	r3, [r7]
 828 016e B3F1FF3F 		cmp	r3, #-1
 829 0172 02D1     		bne	.L41
 830              	.L40:
 831              		.loc 1 832 87 discriminator 3
 832 0174 3B68     		ldr	r3, [r7]
 833 0176 002B     		cmp	r3, #0
 834 0178 02D1     		bne	.L38
 835              	.L41:
 833:Drivers/STM32F4xx_HAL_Driver/Src/stm32f4xx_hal_spi.c ****         {
 834:Drivers/STM32F4xx_HAL_Driver/Src/stm32f4xx_hal_spi.c ****           errorcode = HAL_TIMEOUT;
 836              		.loc 1 834 21
 837 017a 0323     		movs	r3, #3
 838 017c FB77     		strb	r3, [r7, #31]
 835:Drivers/STM32F4xx_HAL_Driver/Src/stm32f4xx_hal_spi.c ****           goto error;
 839              		.loc 1 835 11
 840 017e 74E0     		b	.L30
 841              	.L38:
 820:Drivers/STM32F4xx_HAL_Driver/Src/stm32f4xx_hal_spi.c ****     {
 842              		.loc 1 820 16
 843 0180 FB68     		ldr	r3, [r7, #12]
 844 0182 DB8E     		ldrh	r3, [r3, #54]	@ movhi
 845 0184 9BB2     		uxth	r3, r3
 820:Drivers/STM32F4xx_HAL_Driver/Src/stm32f4xx_hal_spi.c ****     {
 846              		.loc 1 820 11
 847 0186 002B     		cmp	r3, #0
 848 0188 CED1     		bne	.L42
 849 018a 4CE0     		b	.L43
 850              	.L35:
 836:Drivers/STM32F4xx_HAL_Driver/Src/stm32f4xx_hal_spi.c ****         }
 837:Drivers/STM32F4xx_HAL_Driver/Src/stm32f4xx_hal_spi.c ****       }
 838:Drivers/STM32F4xx_HAL_Driver/Src/stm32f4xx_hal_spi.c ****     }
 839:Drivers/STM32F4xx_HAL_Driver/Src/stm32f4xx_hal_spi.c ****   }
 840:Drivers/STM32F4xx_HAL_Driver/Src/stm32f4xx_hal_spi.c ****   /* Transmit data in 8 Bit mode */
 841:Drivers/STM32F4xx_HAL_Driver/Src/stm32f4xx_hal_spi.c ****   else
 842:Drivers/STM32F4xx_HAL_Driver/Src/stm32f4xx_hal_spi.c ****   {
 843:Drivers/STM32F4xx_HAL_Driver/Src/stm32f4xx_hal_spi.c ****     if ((hspi->Init.Mode == SPI_MODE_SLAVE) || (initial_TxXferCount == 0x01U))
 851              		.loc 1 843 20
 852 018c FB68     		ldr	r3, [r7, #12]
 853 018e 5B68     		ldr	r3, [r3, #4]
 854              		.loc 1 843 8
 855 0190 002B     		cmp	r3, #0
 856 0192 02D0     		beq	.L44
 857              		.loc 1 843 45 discriminator 1
 858 0194 FB8A     		ldrh	r3, [r7, #22]
 859 0196 012B     		cmp	r3, #1
 860 0198 40D1     		bne	.L46
 861              	.L44:
 844:Drivers/STM32F4xx_HAL_Driver/Src/stm32f4xx_hal_spi.c ****     {
 845:Drivers/STM32F4xx_HAL_Driver/Src/stm32f4xx_hal_spi.c ****       *((__IO uint8_t *)&hspi->Instance->DR) = (*hspi->pTxBuffPtr);
 862              		.loc 1 845 54
 863 019a FB68     		ldr	r3, [r7, #12]
 864 019c 1A6B     		ldr	r2, [r3, #48]
 865              		.loc 1 845 30
 866 019e FB68     		ldr	r3, [r7, #12]
 867 01a0 1B68     		ldr	r3, [r3]
 868              		.loc 1 845 25
ARM GAS  /tmp/cc9N7Buw.s 			page 31


 869 01a2 0C33     		adds	r3, r3, #12
 870              		.loc 1 845 49
 871 01a4 1278     		ldrb	r2, [r2]	@ zero_extendqisi2
 872              		.loc 1 845 46
 873 01a6 1A70     		strb	r2, [r3]
 846:Drivers/STM32F4xx_HAL_Driver/Src/stm32f4xx_hal_spi.c ****       hspi->pTxBuffPtr += sizeof(uint8_t);
 874              		.loc 1 846 24
 875 01a8 FB68     		ldr	r3, [r7, #12]
 876 01aa 1B6B     		ldr	r3, [r3, #48]
 877 01ac 5A1C     		adds	r2, r3, #1
 878 01ae FB68     		ldr	r3, [r7, #12]
 879 01b0 1A63     		str	r2, [r3, #48]
 847:Drivers/STM32F4xx_HAL_Driver/Src/stm32f4xx_hal_spi.c ****       hspi->TxXferCount--;
 880              		.loc 1 847 11
 881 01b2 FB68     		ldr	r3, [r7, #12]
 882 01b4 DB8E     		ldrh	r3, [r3, #54]	@ movhi
 883 01b6 9BB2     		uxth	r3, r3
 884              		.loc 1 847 24
 885 01b8 013B     		subs	r3, r3, #1
 886 01ba 9AB2     		uxth	r2, r3
 887 01bc FB68     		ldr	r3, [r7, #12]
 888 01be DA86     		strh	r2, [r3, #54]	@ movhi
 848:Drivers/STM32F4xx_HAL_Driver/Src/stm32f4xx_hal_spi.c ****     }
 849:Drivers/STM32F4xx_HAL_Driver/Src/stm32f4xx_hal_spi.c ****     while (hspi->TxXferCount > 0U)
 889              		.loc 1 849 11
 890 01c0 2CE0     		b	.L46
 891              	.L50:
 850:Drivers/STM32F4xx_HAL_Driver/Src/stm32f4xx_hal_spi.c ****     {
 851:Drivers/STM32F4xx_HAL_Driver/Src/stm32f4xx_hal_spi.c ****       /* Wait until TXE flag is set to send data */
 852:Drivers/STM32F4xx_HAL_Driver/Src/stm32f4xx_hal_spi.c ****       if (__HAL_SPI_GET_FLAG(hspi, SPI_FLAG_TXE))
 892              		.loc 1 852 11
 893 01c2 FB68     		ldr	r3, [r7, #12]
 894 01c4 1B68     		ldr	r3, [r3]
 895 01c6 9B68     		ldr	r3, [r3, #8]
 896 01c8 03F00203 		and	r3, r3, #2
 897              		.loc 1 852 10
 898 01cc 022B     		cmp	r3, #2
 899 01ce 13D1     		bne	.L47
 853:Drivers/STM32F4xx_HAL_Driver/Src/stm32f4xx_hal_spi.c ****       {
 854:Drivers/STM32F4xx_HAL_Driver/Src/stm32f4xx_hal_spi.c ****         *((__IO uint8_t *)&hspi->Instance->DR) = (*hspi->pTxBuffPtr);
 900              		.loc 1 854 56
 901 01d0 FB68     		ldr	r3, [r7, #12]
 902 01d2 1A6B     		ldr	r2, [r3, #48]
 903              		.loc 1 854 32
 904 01d4 FB68     		ldr	r3, [r7, #12]
 905 01d6 1B68     		ldr	r3, [r3]
 906              		.loc 1 854 27
 907 01d8 0C33     		adds	r3, r3, #12
 908              		.loc 1 854 51
 909 01da 1278     		ldrb	r2, [r2]	@ zero_extendqisi2
 910              		.loc 1 854 48
 911 01dc 1A70     		strb	r2, [r3]
 855:Drivers/STM32F4xx_HAL_Driver/Src/stm32f4xx_hal_spi.c ****         hspi->pTxBuffPtr += sizeof(uint8_t);
 912              		.loc 1 855 26
 913 01de FB68     		ldr	r3, [r7, #12]
 914 01e0 1B6B     		ldr	r3, [r3, #48]
 915 01e2 5A1C     		adds	r2, r3, #1
ARM GAS  /tmp/cc9N7Buw.s 			page 32


 916 01e4 FB68     		ldr	r3, [r7, #12]
 917 01e6 1A63     		str	r2, [r3, #48]
 856:Drivers/STM32F4xx_HAL_Driver/Src/stm32f4xx_hal_spi.c ****         hspi->TxXferCount--;
 918              		.loc 1 856 13
 919 01e8 FB68     		ldr	r3, [r7, #12]
 920 01ea DB8E     		ldrh	r3, [r3, #54]	@ movhi
 921 01ec 9BB2     		uxth	r3, r3
 922              		.loc 1 856 26
 923 01ee 013B     		subs	r3, r3, #1
 924 01f0 9AB2     		uxth	r2, r3
 925 01f2 FB68     		ldr	r3, [r7, #12]
 926 01f4 DA86     		strh	r2, [r3, #54]	@ movhi
 927 01f6 11E0     		b	.L46
 928              	.L47:
 857:Drivers/STM32F4xx_HAL_Driver/Src/stm32f4xx_hal_spi.c ****       }
 858:Drivers/STM32F4xx_HAL_Driver/Src/stm32f4xx_hal_spi.c ****       else
 859:Drivers/STM32F4xx_HAL_Driver/Src/stm32f4xx_hal_spi.c ****       {
 860:Drivers/STM32F4xx_HAL_Driver/Src/stm32f4xx_hal_spi.c ****         /* Timeout management */
 861:Drivers/STM32F4xx_HAL_Driver/Src/stm32f4xx_hal_spi.c ****         if ((((HAL_GetTick() - tickstart) >=  Timeout) && (Timeout != HAL_MAX_DELAY)) || (Timeout =
 929              		.loc 1 861 16
 930 01f8 FFF7FEFF 		bl	HAL_GetTick
 931 01fc 0246     		mov	r2, r0
 932              		.loc 1 861 30
 933 01fe BB69     		ldr	r3, [r7, #24]
 934 0200 D31A     		subs	r3, r2, r3
 935              		.loc 1 861 12
 936 0202 3A68     		ldr	r2, [r7]
 937 0204 9A42     		cmp	r2, r3
 938 0206 03D8     		bhi	.L48
 939              		.loc 1 861 56 discriminator 1
 940 0208 3B68     		ldr	r3, [r7]
 941 020a B3F1FF3F 		cmp	r3, #-1
 942 020e 02D1     		bne	.L49
 943              	.L48:
 944              		.loc 1 861 87 discriminator 3
 945 0210 3B68     		ldr	r3, [r7]
 946 0212 002B     		cmp	r3, #0
 947 0214 02D1     		bne	.L46
 948              	.L49:
 862:Drivers/STM32F4xx_HAL_Driver/Src/stm32f4xx_hal_spi.c ****         {
 863:Drivers/STM32F4xx_HAL_Driver/Src/stm32f4xx_hal_spi.c ****           errorcode = HAL_TIMEOUT;
 949              		.loc 1 863 21
 950 0216 0323     		movs	r3, #3
 951 0218 FB77     		strb	r3, [r7, #31]
 864:Drivers/STM32F4xx_HAL_Driver/Src/stm32f4xx_hal_spi.c ****           goto error;
 952              		.loc 1 864 11
 953 021a 26E0     		b	.L30
 954              	.L46:
 849:Drivers/STM32F4xx_HAL_Driver/Src/stm32f4xx_hal_spi.c ****     {
 955              		.loc 1 849 16
 956 021c FB68     		ldr	r3, [r7, #12]
 957 021e DB8E     		ldrh	r3, [r3, #54]	@ movhi
 958 0220 9BB2     		uxth	r3, r3
 849:Drivers/STM32F4xx_HAL_Driver/Src/stm32f4xx_hal_spi.c ****     {
 959              		.loc 1 849 11
 960 0222 002B     		cmp	r3, #0
 961 0224 CDD1     		bne	.L50
ARM GAS  /tmp/cc9N7Buw.s 			page 33


 962              	.L43:
 865:Drivers/STM32F4xx_HAL_Driver/Src/stm32f4xx_hal_spi.c ****         }
 866:Drivers/STM32F4xx_HAL_Driver/Src/stm32f4xx_hal_spi.c ****       }
 867:Drivers/STM32F4xx_HAL_Driver/Src/stm32f4xx_hal_spi.c ****     }
 868:Drivers/STM32F4xx_HAL_Driver/Src/stm32f4xx_hal_spi.c ****   }
 869:Drivers/STM32F4xx_HAL_Driver/Src/stm32f4xx_hal_spi.c **** #if (USE_SPI_CRC != 0U)
 870:Drivers/STM32F4xx_HAL_Driver/Src/stm32f4xx_hal_spi.c ****   /* Enable CRC Transmission */
 871:Drivers/STM32F4xx_HAL_Driver/Src/stm32f4xx_hal_spi.c ****   if (hspi->Init.CRCCalculation == SPI_CRCCALCULATION_ENABLE)
 872:Drivers/STM32F4xx_HAL_Driver/Src/stm32f4xx_hal_spi.c ****   {
 873:Drivers/STM32F4xx_HAL_Driver/Src/stm32f4xx_hal_spi.c ****     SET_BIT(hspi->Instance->CR1, SPI_CR1_CRCNEXT);
 874:Drivers/STM32F4xx_HAL_Driver/Src/stm32f4xx_hal_spi.c ****   }
 875:Drivers/STM32F4xx_HAL_Driver/Src/stm32f4xx_hal_spi.c **** #endif /* USE_SPI_CRC */
 876:Drivers/STM32F4xx_HAL_Driver/Src/stm32f4xx_hal_spi.c **** 
 877:Drivers/STM32F4xx_HAL_Driver/Src/stm32f4xx_hal_spi.c ****   /* Check the end of the transaction */
 878:Drivers/STM32F4xx_HAL_Driver/Src/stm32f4xx_hal_spi.c ****   if (SPI_EndRxTxTransaction(hspi, Timeout, tickstart) != HAL_OK)
 963              		.loc 1 878 7
 964 0226 BA69     		ldr	r2, [r7, #24]
 965 0228 3968     		ldr	r1, [r7]
 966 022a F868     		ldr	r0, [r7, #12]
 967 022c FFF7FEFF 		bl	SPI_EndRxTxTransaction
 968 0230 0346     		mov	r3, r0
 969              		.loc 1 878 6
 970 0232 002B     		cmp	r3, #0
 971 0234 02D0     		beq	.L51
 879:Drivers/STM32F4xx_HAL_Driver/Src/stm32f4xx_hal_spi.c ****   {
 880:Drivers/STM32F4xx_HAL_Driver/Src/stm32f4xx_hal_spi.c ****     hspi->ErrorCode = HAL_SPI_ERROR_FLAG;
 972              		.loc 1 880 21
 973 0236 FB68     		ldr	r3, [r7, #12]
 974 0238 2022     		movs	r2, #32
 975 023a 5A65     		str	r2, [r3, #84]
 976              	.L51:
 881:Drivers/STM32F4xx_HAL_Driver/Src/stm32f4xx_hal_spi.c ****   }
 882:Drivers/STM32F4xx_HAL_Driver/Src/stm32f4xx_hal_spi.c **** 
 883:Drivers/STM32F4xx_HAL_Driver/Src/stm32f4xx_hal_spi.c ****   /* Clear overrun flag in 2 Lines communication mode because received is not read */
 884:Drivers/STM32F4xx_HAL_Driver/Src/stm32f4xx_hal_spi.c ****   if (hspi->Init.Direction == SPI_DIRECTION_2LINES)
 977              		.loc 1 884 17
 978 023c FB68     		ldr	r3, [r7, #12]
 979 023e 9B68     		ldr	r3, [r3, #8]
 980              		.loc 1 884 6
 981 0240 002B     		cmp	r3, #0
 982 0242 0AD1     		bne	.L52
 983              	.LBB2:
 885:Drivers/STM32F4xx_HAL_Driver/Src/stm32f4xx_hal_spi.c ****   {
 886:Drivers/STM32F4xx_HAL_Driver/Src/stm32f4xx_hal_spi.c ****     __HAL_SPI_CLEAR_OVRFLAG(hspi);
 984              		.loc 1 886 5
 985 0244 0023     		movs	r3, #0
 986 0246 3B61     		str	r3, [r7, #16]
 987 0248 FB68     		ldr	r3, [r7, #12]
 988 024a 1B68     		ldr	r3, [r3]
 989 024c DB68     		ldr	r3, [r3, #12]
 990 024e 3B61     		str	r3, [r7, #16]
 991 0250 FB68     		ldr	r3, [r7, #12]
 992 0252 1B68     		ldr	r3, [r3]
 993 0254 9B68     		ldr	r3, [r3, #8]
 994 0256 3B61     		str	r3, [r7, #16]
 995 0258 3B69     		ldr	r3, [r7, #16]
 996              	.L52:
ARM GAS  /tmp/cc9N7Buw.s 			page 34


 997              	.LBE2:
 887:Drivers/STM32F4xx_HAL_Driver/Src/stm32f4xx_hal_spi.c ****   }
 888:Drivers/STM32F4xx_HAL_Driver/Src/stm32f4xx_hal_spi.c **** 
 889:Drivers/STM32F4xx_HAL_Driver/Src/stm32f4xx_hal_spi.c ****   if (hspi->ErrorCode != HAL_SPI_ERROR_NONE)
 998              		.loc 1 889 11
 999 025a FB68     		ldr	r3, [r7, #12]
 1000 025c 5B6D     		ldr	r3, [r3, #84]
 1001              		.loc 1 889 6
 1002 025e 002B     		cmp	r3, #0
 1003 0260 02D0     		beq	.L53
 890:Drivers/STM32F4xx_HAL_Driver/Src/stm32f4xx_hal_spi.c ****   {
 891:Drivers/STM32F4xx_HAL_Driver/Src/stm32f4xx_hal_spi.c ****     errorcode = HAL_ERROR;
 1004              		.loc 1 891 15
 1005 0262 0123     		movs	r3, #1
 1006 0264 FB77     		strb	r3, [r7, #31]
 1007 0266 00E0     		b	.L30
 1008              	.L53:
 892:Drivers/STM32F4xx_HAL_Driver/Src/stm32f4xx_hal_spi.c ****   }
 893:Drivers/STM32F4xx_HAL_Driver/Src/stm32f4xx_hal_spi.c **** 
 894:Drivers/STM32F4xx_HAL_Driver/Src/stm32f4xx_hal_spi.c **** error:
 1009              		.loc 1 894 1
 1010 0268 00BF     		nop
 1011              	.L30:
 895:Drivers/STM32F4xx_HAL_Driver/Src/stm32f4xx_hal_spi.c ****   hspi->State = HAL_SPI_STATE_READY;
 1012              		.loc 1 895 15
 1013 026a FB68     		ldr	r3, [r7, #12]
 1014 026c 0122     		movs	r2, #1
 1015 026e 83F85120 		strb	r2, [r3, #81]
 896:Drivers/STM32F4xx_HAL_Driver/Src/stm32f4xx_hal_spi.c ****   /* Process Unlocked */
 897:Drivers/STM32F4xx_HAL_Driver/Src/stm32f4xx_hal_spi.c ****   __HAL_UNLOCK(hspi);
 1016              		.loc 1 897 3
 1017 0272 FB68     		ldr	r3, [r7, #12]
 1018 0274 0022     		movs	r2, #0
 1019 0276 83F85020 		strb	r2, [r3, #80]
 898:Drivers/STM32F4xx_HAL_Driver/Src/stm32f4xx_hal_spi.c ****   return errorcode;
 1020              		.loc 1 898 10
 1021 027a FB7F     		ldrb	r3, [r7, #31]	@ zero_extendqisi2
 1022              	.L28:
 899:Drivers/STM32F4xx_HAL_Driver/Src/stm32f4xx_hal_spi.c **** }
 1023              		.loc 1 899 1
 1024 027c 1846     		mov	r0, r3
 1025 027e 2037     		adds	r7, r7, #32
 1026              	.LCFI25:
 1027              		.cfi_def_cfa_offset 8
 1028 0280 BD46     		mov	sp, r7
 1029              	.LCFI26:
 1030              		.cfi_def_cfa_register 13
 1031              		@ sp needed
 1032 0282 80BD     		pop	{r7, pc}
 1033              	.L55:
 1034              		.align	2
 1035              	.L54:
 1036 0284 00000000 		.word	.LC0
 1037              		.cfi_endproc
 1038              	.LFE134:
 1040              		.section	.text.HAL_SPI_Receive,"ax",%progbits
 1041              		.align	1
ARM GAS  /tmp/cc9N7Buw.s 			page 35


 1042              		.global	HAL_SPI_Receive
 1043              		.syntax unified
 1044              		.thumb
 1045              		.thumb_func
 1046              		.fpu fpv4-sp-d16
 1048              	HAL_SPI_Receive:
 1049              	.LFB135:
 900:Drivers/STM32F4xx_HAL_Driver/Src/stm32f4xx_hal_spi.c **** 
 901:Drivers/STM32F4xx_HAL_Driver/Src/stm32f4xx_hal_spi.c **** /**
 902:Drivers/STM32F4xx_HAL_Driver/Src/stm32f4xx_hal_spi.c ****   * @brief  Receive an amount of data in blocking mode.
 903:Drivers/STM32F4xx_HAL_Driver/Src/stm32f4xx_hal_spi.c ****   * @param  hspi pointer to a SPI_HandleTypeDef structure that contains
 904:Drivers/STM32F4xx_HAL_Driver/Src/stm32f4xx_hal_spi.c ****   *               the configuration information for SPI module.
 905:Drivers/STM32F4xx_HAL_Driver/Src/stm32f4xx_hal_spi.c ****   * @param  pData pointer to data buffer
 906:Drivers/STM32F4xx_HAL_Driver/Src/stm32f4xx_hal_spi.c ****   * @param  Size amount of data to be received
 907:Drivers/STM32F4xx_HAL_Driver/Src/stm32f4xx_hal_spi.c ****   * @param  Timeout Timeout duration
 908:Drivers/STM32F4xx_HAL_Driver/Src/stm32f4xx_hal_spi.c ****   * @retval HAL status
 909:Drivers/STM32F4xx_HAL_Driver/Src/stm32f4xx_hal_spi.c ****   */
 910:Drivers/STM32F4xx_HAL_Driver/Src/stm32f4xx_hal_spi.c **** HAL_StatusTypeDef HAL_SPI_Receive(SPI_HandleTypeDef *hspi, uint8_t *pData, uint16_t Size, uint32_t 
 911:Drivers/STM32F4xx_HAL_Driver/Src/stm32f4xx_hal_spi.c **** {
 1050              		.loc 1 911 1
 1051              		.cfi_startproc
 1052              		@ args = 0, pretend = 0, frame = 24
 1053              		@ frame_needed = 1, uses_anonymous_args = 0
 1054 0000 80B5     		push	{r7, lr}
 1055              	.LCFI27:
 1056              		.cfi_def_cfa_offset 8
 1057              		.cfi_offset 7, -8
 1058              		.cfi_offset 14, -4
 1059 0002 88B0     		sub	sp, sp, #32
 1060              	.LCFI28:
 1061              		.cfi_def_cfa_offset 40
 1062 0004 02AF     		add	r7, sp, #8
 1063              	.LCFI29:
 1064              		.cfi_def_cfa 7, 32
 1065 0006 F860     		str	r0, [r7, #12]
 1066 0008 B960     		str	r1, [r7, #8]
 1067 000a 3B60     		str	r3, [r7]
 1068 000c 1346     		mov	r3, r2	@ movhi
 1069 000e FB80     		strh	r3, [r7, #6]	@ movhi
 912:Drivers/STM32F4xx_HAL_Driver/Src/stm32f4xx_hal_spi.c ****   uint32_t tickstart;
 913:Drivers/STM32F4xx_HAL_Driver/Src/stm32f4xx_hal_spi.c ****   HAL_StatusTypeDef errorcode = HAL_OK;
 1070              		.loc 1 913 21
 1071 0010 0023     		movs	r3, #0
 1072 0012 FB75     		strb	r3, [r7, #23]
 914:Drivers/STM32F4xx_HAL_Driver/Src/stm32f4xx_hal_spi.c **** 
 915:Drivers/STM32F4xx_HAL_Driver/Src/stm32f4xx_hal_spi.c ****   if ((hspi->Init.Mode == SPI_MODE_MASTER) && (hspi->Init.Direction == SPI_DIRECTION_2LINES))
 1073              		.loc 1 915 18
 1074 0014 FB68     		ldr	r3, [r7, #12]
 1075 0016 5B68     		ldr	r3, [r3, #4]
 1076              		.loc 1 915 6
 1077 0018 B3F5827F 		cmp	r3, #260
 1078 001c 12D1     		bne	.L57
 1079              		.loc 1 915 58 discriminator 1
 1080 001e FB68     		ldr	r3, [r7, #12]
 1081 0020 9B68     		ldr	r3, [r3, #8]
 1082              		.loc 1 915 44 discriminator 1
 1083 0022 002B     		cmp	r3, #0
ARM GAS  /tmp/cc9N7Buw.s 			page 36


 1084 0024 0ED1     		bne	.L57
 916:Drivers/STM32F4xx_HAL_Driver/Src/stm32f4xx_hal_spi.c ****   {
 917:Drivers/STM32F4xx_HAL_Driver/Src/stm32f4xx_hal_spi.c ****     hspi->State = HAL_SPI_STATE_BUSY_RX;
 1085              		.loc 1 917 17
 1086 0026 FB68     		ldr	r3, [r7, #12]
 1087 0028 0422     		movs	r2, #4
 1088 002a 83F85120 		strb	r2, [r3, #81]
 918:Drivers/STM32F4xx_HAL_Driver/Src/stm32f4xx_hal_spi.c ****     /* Call transmit-receive function to send Dummy data on Tx line and generate clock on CLK line 
 919:Drivers/STM32F4xx_HAL_Driver/Src/stm32f4xx_hal_spi.c ****     return HAL_SPI_TransmitReceive(hspi, pData, pData, Size, Timeout);
 1089              		.loc 1 919 12
 1090 002e FA88     		ldrh	r2, [r7, #6]
 1091 0030 3B68     		ldr	r3, [r7]
 1092 0032 0093     		str	r3, [sp]
 1093 0034 1346     		mov	r3, r2
 1094 0036 BA68     		ldr	r2, [r7, #8]
 1095 0038 B968     		ldr	r1, [r7, #8]
 1096 003a F868     		ldr	r0, [r7, #12]
 1097 003c FFF7FEFF 		bl	HAL_SPI_TransmitReceive
 1098 0040 0346     		mov	r3, r0
 1099 0042 E2E0     		b	.L58
 1100              	.L57:
 920:Drivers/STM32F4xx_HAL_Driver/Src/stm32f4xx_hal_spi.c ****   }
 921:Drivers/STM32F4xx_HAL_Driver/Src/stm32f4xx_hal_spi.c **** 
 922:Drivers/STM32F4xx_HAL_Driver/Src/stm32f4xx_hal_spi.c ****   /* Process Locked */
 923:Drivers/STM32F4xx_HAL_Driver/Src/stm32f4xx_hal_spi.c ****   __HAL_LOCK(hspi);
 1101              		.loc 1 923 3
 1102 0044 FB68     		ldr	r3, [r7, #12]
 1103 0046 93F85030 		ldrb	r3, [r3, #80]	@ zero_extendqisi2
 1104 004a 012B     		cmp	r3, #1
 1105 004c 01D1     		bne	.L59
 1106              		.loc 1 923 3 is_stmt 0 discriminator 1
 1107 004e 0223     		movs	r3, #2
 1108 0050 DBE0     		b	.L58
 1109              	.L59:
 1110              		.loc 1 923 3 discriminator 2
 1111 0052 FB68     		ldr	r3, [r7, #12]
 1112 0054 0122     		movs	r2, #1
 1113 0056 83F85020 		strb	r2, [r3, #80]
 924:Drivers/STM32F4xx_HAL_Driver/Src/stm32f4xx_hal_spi.c **** 
 925:Drivers/STM32F4xx_HAL_Driver/Src/stm32f4xx_hal_spi.c ****   /* Init tickstart for timeout management*/
 926:Drivers/STM32F4xx_HAL_Driver/Src/stm32f4xx_hal_spi.c ****   tickstart = HAL_GetTick();
 1114              		.loc 1 926 15 is_stmt 1 discriminator 2
 1115 005a FFF7FEFF 		bl	HAL_GetTick
 1116 005e 3861     		str	r0, [r7, #16]
 927:Drivers/STM32F4xx_HAL_Driver/Src/stm32f4xx_hal_spi.c **** 
 928:Drivers/STM32F4xx_HAL_Driver/Src/stm32f4xx_hal_spi.c ****   if (hspi->State != HAL_SPI_STATE_READY)
 1117              		.loc 1 928 11 discriminator 2
 1118 0060 FB68     		ldr	r3, [r7, #12]
 1119 0062 93F85130 		ldrb	r3, [r3, #81]
 1120 0066 DBB2     		uxtb	r3, r3
 1121              		.loc 1 928 6 discriminator 2
 1122 0068 012B     		cmp	r3, #1
 1123 006a 02D0     		beq	.L60
 929:Drivers/STM32F4xx_HAL_Driver/Src/stm32f4xx_hal_spi.c ****   {
 930:Drivers/STM32F4xx_HAL_Driver/Src/stm32f4xx_hal_spi.c ****     errorcode = HAL_BUSY;
 1124              		.loc 1 930 15
 1125 006c 0223     		movs	r3, #2
ARM GAS  /tmp/cc9N7Buw.s 			page 37


 1126 006e FB75     		strb	r3, [r7, #23]
 931:Drivers/STM32F4xx_HAL_Driver/Src/stm32f4xx_hal_spi.c ****     goto error;
 1127              		.loc 1 931 5
 1128 0070 C2E0     		b	.L61
 1129              	.L60:
 932:Drivers/STM32F4xx_HAL_Driver/Src/stm32f4xx_hal_spi.c ****   }
 933:Drivers/STM32F4xx_HAL_Driver/Src/stm32f4xx_hal_spi.c **** 
 934:Drivers/STM32F4xx_HAL_Driver/Src/stm32f4xx_hal_spi.c ****   if ((pData == NULL) || (Size == 0U))
 1130              		.loc 1 934 6
 1131 0072 BB68     		ldr	r3, [r7, #8]
 1132 0074 002B     		cmp	r3, #0
 1133 0076 02D0     		beq	.L62
 1134              		.loc 1 934 23 discriminator 1
 1135 0078 FB88     		ldrh	r3, [r7, #6]
 1136 007a 002B     		cmp	r3, #0
 1137 007c 02D1     		bne	.L63
 1138              	.L62:
 935:Drivers/STM32F4xx_HAL_Driver/Src/stm32f4xx_hal_spi.c ****   {
 936:Drivers/STM32F4xx_HAL_Driver/Src/stm32f4xx_hal_spi.c ****     errorcode = HAL_ERROR;
 1139              		.loc 1 936 15
 1140 007e 0123     		movs	r3, #1
 1141 0080 FB75     		strb	r3, [r7, #23]
 937:Drivers/STM32F4xx_HAL_Driver/Src/stm32f4xx_hal_spi.c ****     goto error;
 1142              		.loc 1 937 5
 1143 0082 B9E0     		b	.L61
 1144              	.L63:
 938:Drivers/STM32F4xx_HAL_Driver/Src/stm32f4xx_hal_spi.c ****   }
 939:Drivers/STM32F4xx_HAL_Driver/Src/stm32f4xx_hal_spi.c **** 
 940:Drivers/STM32F4xx_HAL_Driver/Src/stm32f4xx_hal_spi.c ****   /* Set the transaction information */
 941:Drivers/STM32F4xx_HAL_Driver/Src/stm32f4xx_hal_spi.c ****   hspi->State       = HAL_SPI_STATE_BUSY_RX;
 1145              		.loc 1 941 21
 1146 0084 FB68     		ldr	r3, [r7, #12]
 1147 0086 0422     		movs	r2, #4
 1148 0088 83F85120 		strb	r2, [r3, #81]
 942:Drivers/STM32F4xx_HAL_Driver/Src/stm32f4xx_hal_spi.c ****   hspi->ErrorCode   = HAL_SPI_ERROR_NONE;
 1149              		.loc 1 942 21
 1150 008c FB68     		ldr	r3, [r7, #12]
 1151 008e 0022     		movs	r2, #0
 1152 0090 5A65     		str	r2, [r3, #84]
 943:Drivers/STM32F4xx_HAL_Driver/Src/stm32f4xx_hal_spi.c ****   hspi->pRxBuffPtr  = (uint8_t *)pData;
 1153              		.loc 1 943 21
 1154 0092 FB68     		ldr	r3, [r7, #12]
 1155 0094 BA68     		ldr	r2, [r7, #8]
 1156 0096 9A63     		str	r2, [r3, #56]
 944:Drivers/STM32F4xx_HAL_Driver/Src/stm32f4xx_hal_spi.c ****   hspi->RxXferSize  = Size;
 1157              		.loc 1 944 21
 1158 0098 FB68     		ldr	r3, [r7, #12]
 1159 009a FA88     		ldrh	r2, [r7, #6]	@ movhi
 1160 009c 9A87     		strh	r2, [r3, #60]	@ movhi
 945:Drivers/STM32F4xx_HAL_Driver/Src/stm32f4xx_hal_spi.c ****   hspi->RxXferCount = Size;
 1161              		.loc 1 945 21
 1162 009e FB68     		ldr	r3, [r7, #12]
 1163 00a0 FA88     		ldrh	r2, [r7, #6]	@ movhi
 1164 00a2 DA87     		strh	r2, [r3, #62]	@ movhi
 946:Drivers/STM32F4xx_HAL_Driver/Src/stm32f4xx_hal_spi.c **** 
 947:Drivers/STM32F4xx_HAL_Driver/Src/stm32f4xx_hal_spi.c ****   /*Init field not used in handle to zero */
 948:Drivers/STM32F4xx_HAL_Driver/Src/stm32f4xx_hal_spi.c ****   hspi->pTxBuffPtr  = (uint8_t *)NULL;
ARM GAS  /tmp/cc9N7Buw.s 			page 38


 1165              		.loc 1 948 21
 1166 00a4 FB68     		ldr	r3, [r7, #12]
 1167 00a6 0022     		movs	r2, #0
 1168 00a8 1A63     		str	r2, [r3, #48]
 949:Drivers/STM32F4xx_HAL_Driver/Src/stm32f4xx_hal_spi.c ****   hspi->TxXferSize  = 0U;
 1169              		.loc 1 949 21
 1170 00aa FB68     		ldr	r3, [r7, #12]
 1171 00ac 0022     		movs	r2, #0
 1172 00ae 9A86     		strh	r2, [r3, #52]	@ movhi
 950:Drivers/STM32F4xx_HAL_Driver/Src/stm32f4xx_hal_spi.c ****   hspi->TxXferCount = 0U;
 1173              		.loc 1 950 21
 1174 00b0 FB68     		ldr	r3, [r7, #12]
 1175 00b2 0022     		movs	r2, #0
 1176 00b4 DA86     		strh	r2, [r3, #54]	@ movhi
 951:Drivers/STM32F4xx_HAL_Driver/Src/stm32f4xx_hal_spi.c ****   hspi->RxISR       = NULL;
 1177              		.loc 1 951 21
 1178 00b6 FB68     		ldr	r3, [r7, #12]
 1179 00b8 0022     		movs	r2, #0
 1180 00ba 1A64     		str	r2, [r3, #64]
 952:Drivers/STM32F4xx_HAL_Driver/Src/stm32f4xx_hal_spi.c ****   hspi->TxISR       = NULL;
 1181              		.loc 1 952 21
 1182 00bc FB68     		ldr	r3, [r7, #12]
 1183 00be 0022     		movs	r2, #0
 1184 00c0 5A64     		str	r2, [r3, #68]
 953:Drivers/STM32F4xx_HAL_Driver/Src/stm32f4xx_hal_spi.c **** 
 954:Drivers/STM32F4xx_HAL_Driver/Src/stm32f4xx_hal_spi.c **** #if (USE_SPI_CRC != 0U)
 955:Drivers/STM32F4xx_HAL_Driver/Src/stm32f4xx_hal_spi.c ****   /* Reset CRC Calculation */
 956:Drivers/STM32F4xx_HAL_Driver/Src/stm32f4xx_hal_spi.c ****   if (hspi->Init.CRCCalculation == SPI_CRCCALCULATION_ENABLE)
 957:Drivers/STM32F4xx_HAL_Driver/Src/stm32f4xx_hal_spi.c ****   {
 958:Drivers/STM32F4xx_HAL_Driver/Src/stm32f4xx_hal_spi.c ****     SPI_RESET_CRC(hspi);
 959:Drivers/STM32F4xx_HAL_Driver/Src/stm32f4xx_hal_spi.c ****     /* this is done to handle the CRCNEXT before the latest data */
 960:Drivers/STM32F4xx_HAL_Driver/Src/stm32f4xx_hal_spi.c ****     hspi->RxXferCount--;
 961:Drivers/STM32F4xx_HAL_Driver/Src/stm32f4xx_hal_spi.c ****   }
 962:Drivers/STM32F4xx_HAL_Driver/Src/stm32f4xx_hal_spi.c **** #endif /* USE_SPI_CRC */
 963:Drivers/STM32F4xx_HAL_Driver/Src/stm32f4xx_hal_spi.c **** 
 964:Drivers/STM32F4xx_HAL_Driver/Src/stm32f4xx_hal_spi.c ****   /* Configure communication direction: 1Line */
 965:Drivers/STM32F4xx_HAL_Driver/Src/stm32f4xx_hal_spi.c ****   if (hspi->Init.Direction == SPI_DIRECTION_1LINE)
 1185              		.loc 1 965 17
 1186 00c2 FB68     		ldr	r3, [r7, #12]
 1187 00c4 9B68     		ldr	r3, [r3, #8]
 1188              		.loc 1 965 6
 1189 00c6 B3F5004F 		cmp	r3, #32768
 1190 00ca 07D1     		bne	.L64
 966:Drivers/STM32F4xx_HAL_Driver/Src/stm32f4xx_hal_spi.c ****   {
 967:Drivers/STM32F4xx_HAL_Driver/Src/stm32f4xx_hal_spi.c ****     SPI_1LINE_RX(hspi);
 1191              		.loc 1 967 5
 1192 00cc FB68     		ldr	r3, [r7, #12]
 1193 00ce 1B68     		ldr	r3, [r3]
 1194 00d0 1A68     		ldr	r2, [r3]
 1195 00d2 FB68     		ldr	r3, [r7, #12]
 1196 00d4 1B68     		ldr	r3, [r3]
 1197 00d6 22F48042 		bic	r2, r2, #16384
 1198 00da 1A60     		str	r2, [r3]
 1199              	.L64:
 968:Drivers/STM32F4xx_HAL_Driver/Src/stm32f4xx_hal_spi.c ****   }
 969:Drivers/STM32F4xx_HAL_Driver/Src/stm32f4xx_hal_spi.c **** 
 970:Drivers/STM32F4xx_HAL_Driver/Src/stm32f4xx_hal_spi.c ****   /* Check if the SPI is already enabled */
ARM GAS  /tmp/cc9N7Buw.s 			page 39


 971:Drivers/STM32F4xx_HAL_Driver/Src/stm32f4xx_hal_spi.c ****   if ((hspi->Instance->CR1 & SPI_CR1_SPE) != SPI_CR1_SPE)
 1200              		.loc 1 971 12
 1201 00dc FB68     		ldr	r3, [r7, #12]
 1202 00de 1B68     		ldr	r3, [r3]
 1203              		.loc 1 971 22
 1204 00e0 1B68     		ldr	r3, [r3]
 1205              		.loc 1 971 28
 1206 00e2 03F04003 		and	r3, r3, #64
 1207              		.loc 1 971 6
 1208 00e6 402B     		cmp	r3, #64
 1209 00e8 07D0     		beq	.L65
 972:Drivers/STM32F4xx_HAL_Driver/Src/stm32f4xx_hal_spi.c ****   {
 973:Drivers/STM32F4xx_HAL_Driver/Src/stm32f4xx_hal_spi.c ****     /* Enable SPI peripheral */
 974:Drivers/STM32F4xx_HAL_Driver/Src/stm32f4xx_hal_spi.c ****     __HAL_SPI_ENABLE(hspi);
 1210              		.loc 1 974 5
 1211 00ea FB68     		ldr	r3, [r7, #12]
 1212 00ec 1B68     		ldr	r3, [r3]
 1213 00ee 1A68     		ldr	r2, [r3]
 1214 00f0 FB68     		ldr	r3, [r7, #12]
 1215 00f2 1B68     		ldr	r3, [r3]
 1216 00f4 42F04002 		orr	r2, r2, #64
 1217 00f8 1A60     		str	r2, [r3]
 1218              	.L65:
 975:Drivers/STM32F4xx_HAL_Driver/Src/stm32f4xx_hal_spi.c ****   }
 976:Drivers/STM32F4xx_HAL_Driver/Src/stm32f4xx_hal_spi.c **** 
 977:Drivers/STM32F4xx_HAL_Driver/Src/stm32f4xx_hal_spi.c ****   /* Receive data in 8 Bit mode */
 978:Drivers/STM32F4xx_HAL_Driver/Src/stm32f4xx_hal_spi.c ****   if (hspi->Init.DataSize == SPI_DATASIZE_8BIT)
 1219              		.loc 1 978 17
 1220 00fa FB68     		ldr	r3, [r7, #12]
 1221 00fc DB68     		ldr	r3, [r3, #12]
 1222              		.loc 1 978 6
 1223 00fe 002B     		cmp	r3, #0
 1224 0100 62D1     		bne	.L73
 979:Drivers/STM32F4xx_HAL_Driver/Src/stm32f4xx_hal_spi.c ****   {
 980:Drivers/STM32F4xx_HAL_Driver/Src/stm32f4xx_hal_spi.c ****     /* Transfer loop */
 981:Drivers/STM32F4xx_HAL_Driver/Src/stm32f4xx_hal_spi.c ****     while (hspi->RxXferCount > 0U)
 1225              		.loc 1 981 11
 1226 0102 2EE0     		b	.L67
 1227              	.L71:
 982:Drivers/STM32F4xx_HAL_Driver/Src/stm32f4xx_hal_spi.c ****     {
 983:Drivers/STM32F4xx_HAL_Driver/Src/stm32f4xx_hal_spi.c ****       /* Check the RXNE flag */
 984:Drivers/STM32F4xx_HAL_Driver/Src/stm32f4xx_hal_spi.c ****       if (__HAL_SPI_GET_FLAG(hspi, SPI_FLAG_RXNE))
 1228              		.loc 1 984 11
 1229 0104 FB68     		ldr	r3, [r7, #12]
 1230 0106 1B68     		ldr	r3, [r3]
 1231 0108 9B68     		ldr	r3, [r3, #8]
 1232 010a 03F00103 		and	r3, r3, #1
 1233              		.loc 1 984 10
 1234 010e 012B     		cmp	r3, #1
 1235 0110 15D1     		bne	.L68
 985:Drivers/STM32F4xx_HAL_Driver/Src/stm32f4xx_hal_spi.c ****       {
 986:Drivers/STM32F4xx_HAL_Driver/Src/stm32f4xx_hal_spi.c ****         /* read the received data */
 987:Drivers/STM32F4xx_HAL_Driver/Src/stm32f4xx_hal_spi.c ****         (* (uint8_t *)hspi->pRxBuffPtr) = *(__IO uint8_t *)&hspi->Instance->DR;
 1236              		.loc 1 987 65
 1237 0112 FB68     		ldr	r3, [r7, #12]
 1238 0114 1B68     		ldr	r3, [r3]
 1239              		.loc 1 987 60
ARM GAS  /tmp/cc9N7Buw.s 			page 40


 1240 0116 03F10C02 		add	r2, r3, #12
 1241              		.loc 1 987 27
 1242 011a FB68     		ldr	r3, [r7, #12]
 1243 011c 9B6B     		ldr	r3, [r3, #56]
 1244              		.loc 1 987 43
 1245 011e 1278     		ldrb	r2, [r2]
 1246 0120 D2B2     		uxtb	r2, r2
 1247              		.loc 1 987 41
 1248 0122 1A70     		strb	r2, [r3]
 988:Drivers/STM32F4xx_HAL_Driver/Src/stm32f4xx_hal_spi.c ****         hspi->pRxBuffPtr += sizeof(uint8_t);
 1249              		.loc 1 988 26
 1250 0124 FB68     		ldr	r3, [r7, #12]
 1251 0126 9B6B     		ldr	r3, [r3, #56]
 1252 0128 5A1C     		adds	r2, r3, #1
 1253 012a FB68     		ldr	r3, [r7, #12]
 1254 012c 9A63     		str	r2, [r3, #56]
 989:Drivers/STM32F4xx_HAL_Driver/Src/stm32f4xx_hal_spi.c ****         hspi->RxXferCount--;
 1255              		.loc 1 989 13
 1256 012e FB68     		ldr	r3, [r7, #12]
 1257 0130 DB8F     		ldrh	r3, [r3, #62]	@ movhi
 1258 0132 9BB2     		uxth	r3, r3
 1259              		.loc 1 989 26
 1260 0134 013B     		subs	r3, r3, #1
 1261 0136 9AB2     		uxth	r2, r3
 1262 0138 FB68     		ldr	r3, [r7, #12]
 1263 013a DA87     		strh	r2, [r3, #62]	@ movhi
 1264 013c 11E0     		b	.L67
 1265              	.L68:
 990:Drivers/STM32F4xx_HAL_Driver/Src/stm32f4xx_hal_spi.c ****       }
 991:Drivers/STM32F4xx_HAL_Driver/Src/stm32f4xx_hal_spi.c ****       else
 992:Drivers/STM32F4xx_HAL_Driver/Src/stm32f4xx_hal_spi.c ****       {
 993:Drivers/STM32F4xx_HAL_Driver/Src/stm32f4xx_hal_spi.c ****         /* Timeout management */
 994:Drivers/STM32F4xx_HAL_Driver/Src/stm32f4xx_hal_spi.c ****         if ((((HAL_GetTick() - tickstart) >=  Timeout) && (Timeout != HAL_MAX_DELAY)) || (Timeout =
 1266              		.loc 1 994 16
 1267 013e FFF7FEFF 		bl	HAL_GetTick
 1268 0142 0246     		mov	r2, r0
 1269              		.loc 1 994 30
 1270 0144 3B69     		ldr	r3, [r7, #16]
 1271 0146 D31A     		subs	r3, r2, r3
 1272              		.loc 1 994 12
 1273 0148 3A68     		ldr	r2, [r7]
 1274 014a 9A42     		cmp	r2, r3
 1275 014c 03D8     		bhi	.L69
 1276              		.loc 1 994 56 discriminator 1
 1277 014e 3B68     		ldr	r3, [r7]
 1278 0150 B3F1FF3F 		cmp	r3, #-1
 1279 0154 02D1     		bne	.L70
 1280              	.L69:
 1281              		.loc 1 994 87 discriminator 3
 1282 0156 3B68     		ldr	r3, [r7]
 1283 0158 002B     		cmp	r3, #0
 1284 015a 02D1     		bne	.L67
 1285              	.L70:
 995:Drivers/STM32F4xx_HAL_Driver/Src/stm32f4xx_hal_spi.c ****         {
 996:Drivers/STM32F4xx_HAL_Driver/Src/stm32f4xx_hal_spi.c ****           errorcode = HAL_TIMEOUT;
 1286              		.loc 1 996 21
 1287 015c 0323     		movs	r3, #3
ARM GAS  /tmp/cc9N7Buw.s 			page 41


 1288 015e FB75     		strb	r3, [r7, #23]
 997:Drivers/STM32F4xx_HAL_Driver/Src/stm32f4xx_hal_spi.c ****           goto error;
 1289              		.loc 1 997 11
 1290 0160 4AE0     		b	.L61
 1291              	.L67:
 981:Drivers/STM32F4xx_HAL_Driver/Src/stm32f4xx_hal_spi.c ****     {
 1292              		.loc 1 981 16
 1293 0162 FB68     		ldr	r3, [r7, #12]
 1294 0164 DB8F     		ldrh	r3, [r3, #62]	@ movhi
 1295 0166 9BB2     		uxth	r3, r3
 981:Drivers/STM32F4xx_HAL_Driver/Src/stm32f4xx_hal_spi.c ****     {
 1296              		.loc 1 981 11
 1297 0168 002B     		cmp	r3, #0
 1298 016a CBD1     		bne	.L71
 1299 016c 31E0     		b	.L72
 1300              	.L77:
 998:Drivers/STM32F4xx_HAL_Driver/Src/stm32f4xx_hal_spi.c ****         }
 999:Drivers/STM32F4xx_HAL_Driver/Src/stm32f4xx_hal_spi.c ****       }
1000:Drivers/STM32F4xx_HAL_Driver/Src/stm32f4xx_hal_spi.c ****     }
1001:Drivers/STM32F4xx_HAL_Driver/Src/stm32f4xx_hal_spi.c ****   }
1002:Drivers/STM32F4xx_HAL_Driver/Src/stm32f4xx_hal_spi.c ****   else
1003:Drivers/STM32F4xx_HAL_Driver/Src/stm32f4xx_hal_spi.c ****   {
1004:Drivers/STM32F4xx_HAL_Driver/Src/stm32f4xx_hal_spi.c ****     /* Transfer loop */
1005:Drivers/STM32F4xx_HAL_Driver/Src/stm32f4xx_hal_spi.c ****     while (hspi->RxXferCount > 0U)
1006:Drivers/STM32F4xx_HAL_Driver/Src/stm32f4xx_hal_spi.c ****     {
1007:Drivers/STM32F4xx_HAL_Driver/Src/stm32f4xx_hal_spi.c ****       /* Check the RXNE flag */
1008:Drivers/STM32F4xx_HAL_Driver/Src/stm32f4xx_hal_spi.c ****       if (__HAL_SPI_GET_FLAG(hspi, SPI_FLAG_RXNE))
 1301              		.loc 1 1008 11
 1302 016e FB68     		ldr	r3, [r7, #12]
 1303 0170 1B68     		ldr	r3, [r3]
 1304 0172 9B68     		ldr	r3, [r3, #8]
 1305 0174 03F00103 		and	r3, r3, #1
 1306              		.loc 1 1008 10
 1307 0178 012B     		cmp	r3, #1
 1308 017a 13D1     		bne	.L74
1009:Drivers/STM32F4xx_HAL_Driver/Src/stm32f4xx_hal_spi.c ****       {
1010:Drivers/STM32F4xx_HAL_Driver/Src/stm32f4xx_hal_spi.c ****         *((uint16_t *)hspi->pRxBuffPtr) = (uint16_t)hspi->Instance->DR;
 1309              		.loc 1 1010 57
 1310 017c FB68     		ldr	r3, [r7, #12]
 1311 017e 1B68     		ldr	r3, [r3]
 1312              		.loc 1 1010 67
 1313 0180 DA68     		ldr	r2, [r3, #12]
 1314              		.loc 1 1010 27
 1315 0182 FB68     		ldr	r3, [r7, #12]
 1316 0184 9B6B     		ldr	r3, [r3, #56]
 1317              		.loc 1 1010 43
 1318 0186 92B2     		uxth	r2, r2
 1319              		.loc 1 1010 41
 1320 0188 1A80     		strh	r2, [r3]	@ movhi
1011:Drivers/STM32F4xx_HAL_Driver/Src/stm32f4xx_hal_spi.c ****         hspi->pRxBuffPtr += sizeof(uint16_t);
 1321              		.loc 1 1011 26
 1322 018a FB68     		ldr	r3, [r7, #12]
 1323 018c 9B6B     		ldr	r3, [r3, #56]
 1324 018e 9A1C     		adds	r2, r3, #2
 1325 0190 FB68     		ldr	r3, [r7, #12]
 1326 0192 9A63     		str	r2, [r3, #56]
1012:Drivers/STM32F4xx_HAL_Driver/Src/stm32f4xx_hal_spi.c ****         hspi->RxXferCount--;
ARM GAS  /tmp/cc9N7Buw.s 			page 42


 1327              		.loc 1 1012 13
 1328 0194 FB68     		ldr	r3, [r7, #12]
 1329 0196 DB8F     		ldrh	r3, [r3, #62]	@ movhi
 1330 0198 9BB2     		uxth	r3, r3
 1331              		.loc 1 1012 26
 1332 019a 013B     		subs	r3, r3, #1
 1333 019c 9AB2     		uxth	r2, r3
 1334 019e FB68     		ldr	r3, [r7, #12]
 1335 01a0 DA87     		strh	r2, [r3, #62]	@ movhi
 1336 01a2 11E0     		b	.L73
 1337              	.L74:
1013:Drivers/STM32F4xx_HAL_Driver/Src/stm32f4xx_hal_spi.c ****       }
1014:Drivers/STM32F4xx_HAL_Driver/Src/stm32f4xx_hal_spi.c ****       else
1015:Drivers/STM32F4xx_HAL_Driver/Src/stm32f4xx_hal_spi.c ****       {
1016:Drivers/STM32F4xx_HAL_Driver/Src/stm32f4xx_hal_spi.c ****         /* Timeout management */
1017:Drivers/STM32F4xx_HAL_Driver/Src/stm32f4xx_hal_spi.c ****         if ((((HAL_GetTick() - tickstart) >=  Timeout) && (Timeout != HAL_MAX_DELAY)) || (Timeout =
 1338              		.loc 1 1017 16
 1339 01a4 FFF7FEFF 		bl	HAL_GetTick
 1340 01a8 0246     		mov	r2, r0
 1341              		.loc 1 1017 30
 1342 01aa 3B69     		ldr	r3, [r7, #16]
 1343 01ac D31A     		subs	r3, r2, r3
 1344              		.loc 1 1017 12
 1345 01ae 3A68     		ldr	r2, [r7]
 1346 01b0 9A42     		cmp	r2, r3
 1347 01b2 03D8     		bhi	.L75
 1348              		.loc 1 1017 56 discriminator 1
 1349 01b4 3B68     		ldr	r3, [r7]
 1350 01b6 B3F1FF3F 		cmp	r3, #-1
 1351 01ba 02D1     		bne	.L76
 1352              	.L75:
 1353              		.loc 1 1017 87 discriminator 3
 1354 01bc 3B68     		ldr	r3, [r7]
 1355 01be 002B     		cmp	r3, #0
 1356 01c0 02D1     		bne	.L73
 1357              	.L76:
1018:Drivers/STM32F4xx_HAL_Driver/Src/stm32f4xx_hal_spi.c ****         {
1019:Drivers/STM32F4xx_HAL_Driver/Src/stm32f4xx_hal_spi.c ****           errorcode = HAL_TIMEOUT;
 1358              		.loc 1 1019 21
 1359 01c2 0323     		movs	r3, #3
 1360 01c4 FB75     		strb	r3, [r7, #23]
1020:Drivers/STM32F4xx_HAL_Driver/Src/stm32f4xx_hal_spi.c ****           goto error;
 1361              		.loc 1 1020 11
 1362 01c6 17E0     		b	.L61
 1363              	.L73:
1005:Drivers/STM32F4xx_HAL_Driver/Src/stm32f4xx_hal_spi.c ****     {
 1364              		.loc 1 1005 16
 1365 01c8 FB68     		ldr	r3, [r7, #12]
 1366 01ca DB8F     		ldrh	r3, [r3, #62]	@ movhi
 1367 01cc 9BB2     		uxth	r3, r3
1005:Drivers/STM32F4xx_HAL_Driver/Src/stm32f4xx_hal_spi.c ****     {
 1368              		.loc 1 1005 11
 1369 01ce 002B     		cmp	r3, #0
 1370 01d0 CDD1     		bne	.L77
 1371              	.L72:
1021:Drivers/STM32F4xx_HAL_Driver/Src/stm32f4xx_hal_spi.c ****         }
1022:Drivers/STM32F4xx_HAL_Driver/Src/stm32f4xx_hal_spi.c ****       }
ARM GAS  /tmp/cc9N7Buw.s 			page 43


1023:Drivers/STM32F4xx_HAL_Driver/Src/stm32f4xx_hal_spi.c ****     }
1024:Drivers/STM32F4xx_HAL_Driver/Src/stm32f4xx_hal_spi.c ****   }
1025:Drivers/STM32F4xx_HAL_Driver/Src/stm32f4xx_hal_spi.c **** 
1026:Drivers/STM32F4xx_HAL_Driver/Src/stm32f4xx_hal_spi.c **** #if (USE_SPI_CRC != 0U)
1027:Drivers/STM32F4xx_HAL_Driver/Src/stm32f4xx_hal_spi.c ****   /* Handle the CRC Transmission */
1028:Drivers/STM32F4xx_HAL_Driver/Src/stm32f4xx_hal_spi.c ****   if (hspi->Init.CRCCalculation == SPI_CRCCALCULATION_ENABLE)
1029:Drivers/STM32F4xx_HAL_Driver/Src/stm32f4xx_hal_spi.c ****   {
1030:Drivers/STM32F4xx_HAL_Driver/Src/stm32f4xx_hal_spi.c ****     /* freeze the CRC before the latest data */
1031:Drivers/STM32F4xx_HAL_Driver/Src/stm32f4xx_hal_spi.c ****     SET_BIT(hspi->Instance->CR1, SPI_CR1_CRCNEXT);
1032:Drivers/STM32F4xx_HAL_Driver/Src/stm32f4xx_hal_spi.c **** 
1033:Drivers/STM32F4xx_HAL_Driver/Src/stm32f4xx_hal_spi.c ****     /* Read the latest data */
1034:Drivers/STM32F4xx_HAL_Driver/Src/stm32f4xx_hal_spi.c ****     if (SPI_WaitFlagStateUntilTimeout(hspi, SPI_FLAG_RXNE, SET, Timeout, tickstart) != HAL_OK)
1035:Drivers/STM32F4xx_HAL_Driver/Src/stm32f4xx_hal_spi.c ****     {
1036:Drivers/STM32F4xx_HAL_Driver/Src/stm32f4xx_hal_spi.c ****       /* the latest data has not been received */
1037:Drivers/STM32F4xx_HAL_Driver/Src/stm32f4xx_hal_spi.c ****       errorcode = HAL_TIMEOUT;
1038:Drivers/STM32F4xx_HAL_Driver/Src/stm32f4xx_hal_spi.c ****       goto error;
1039:Drivers/STM32F4xx_HAL_Driver/Src/stm32f4xx_hal_spi.c ****     }
1040:Drivers/STM32F4xx_HAL_Driver/Src/stm32f4xx_hal_spi.c **** 
1041:Drivers/STM32F4xx_HAL_Driver/Src/stm32f4xx_hal_spi.c ****     /* Receive last data in 16 Bit mode */
1042:Drivers/STM32F4xx_HAL_Driver/Src/stm32f4xx_hal_spi.c ****     if (hspi->Init.DataSize == SPI_DATASIZE_16BIT)
1043:Drivers/STM32F4xx_HAL_Driver/Src/stm32f4xx_hal_spi.c ****     {
1044:Drivers/STM32F4xx_HAL_Driver/Src/stm32f4xx_hal_spi.c ****       *((uint16_t *)hspi->pRxBuffPtr) = (uint16_t)hspi->Instance->DR;
1045:Drivers/STM32F4xx_HAL_Driver/Src/stm32f4xx_hal_spi.c ****     }
1046:Drivers/STM32F4xx_HAL_Driver/Src/stm32f4xx_hal_spi.c ****     /* Receive last data in 8 Bit mode */
1047:Drivers/STM32F4xx_HAL_Driver/Src/stm32f4xx_hal_spi.c ****     else
1048:Drivers/STM32F4xx_HAL_Driver/Src/stm32f4xx_hal_spi.c ****     {
1049:Drivers/STM32F4xx_HAL_Driver/Src/stm32f4xx_hal_spi.c ****       (*(uint8_t *)hspi->pRxBuffPtr) = *(__IO uint8_t *)&hspi->Instance->DR;
1050:Drivers/STM32F4xx_HAL_Driver/Src/stm32f4xx_hal_spi.c ****     }
1051:Drivers/STM32F4xx_HAL_Driver/Src/stm32f4xx_hal_spi.c **** 
1052:Drivers/STM32F4xx_HAL_Driver/Src/stm32f4xx_hal_spi.c ****     /* Wait the CRC data */
1053:Drivers/STM32F4xx_HAL_Driver/Src/stm32f4xx_hal_spi.c ****     if (SPI_WaitFlagStateUntilTimeout(hspi, SPI_FLAG_RXNE, SET, Timeout, tickstart) != HAL_OK)
1054:Drivers/STM32F4xx_HAL_Driver/Src/stm32f4xx_hal_spi.c ****     {
1055:Drivers/STM32F4xx_HAL_Driver/Src/stm32f4xx_hal_spi.c ****       SET_BIT(hspi->ErrorCode, HAL_SPI_ERROR_CRC);
1056:Drivers/STM32F4xx_HAL_Driver/Src/stm32f4xx_hal_spi.c ****       errorcode = HAL_TIMEOUT;
1057:Drivers/STM32F4xx_HAL_Driver/Src/stm32f4xx_hal_spi.c ****       goto error;
1058:Drivers/STM32F4xx_HAL_Driver/Src/stm32f4xx_hal_spi.c ****     }
1059:Drivers/STM32F4xx_HAL_Driver/Src/stm32f4xx_hal_spi.c **** 
1060:Drivers/STM32F4xx_HAL_Driver/Src/stm32f4xx_hal_spi.c ****     /* Read CRC to Flush DR and RXNE flag */
1061:Drivers/STM32F4xx_HAL_Driver/Src/stm32f4xx_hal_spi.c ****     READ_REG(hspi->Instance->DR);
1062:Drivers/STM32F4xx_HAL_Driver/Src/stm32f4xx_hal_spi.c ****   }
1063:Drivers/STM32F4xx_HAL_Driver/Src/stm32f4xx_hal_spi.c **** #endif /* USE_SPI_CRC */
1064:Drivers/STM32F4xx_HAL_Driver/Src/stm32f4xx_hal_spi.c **** 
1065:Drivers/STM32F4xx_HAL_Driver/Src/stm32f4xx_hal_spi.c ****   /* Check the end of the transaction */
1066:Drivers/STM32F4xx_HAL_Driver/Src/stm32f4xx_hal_spi.c ****   if (SPI_EndRxTransaction(hspi, Timeout, tickstart) != HAL_OK)
 1372              		.loc 1 1066 7
 1373 01d2 3A69     		ldr	r2, [r7, #16]
 1374 01d4 3968     		ldr	r1, [r7]
 1375 01d6 F868     		ldr	r0, [r7, #12]
 1376 01d8 FFF7FEFF 		bl	SPI_EndRxTransaction
 1377 01dc 0346     		mov	r3, r0
 1378              		.loc 1 1066 6
 1379 01de 002B     		cmp	r3, #0
 1380 01e0 02D0     		beq	.L78
1067:Drivers/STM32F4xx_HAL_Driver/Src/stm32f4xx_hal_spi.c ****   {
1068:Drivers/STM32F4xx_HAL_Driver/Src/stm32f4xx_hal_spi.c ****     hspi->ErrorCode = HAL_SPI_ERROR_FLAG;
 1381              		.loc 1 1068 21
 1382 01e2 FB68     		ldr	r3, [r7, #12]
ARM GAS  /tmp/cc9N7Buw.s 			page 44


 1383 01e4 2022     		movs	r2, #32
 1384 01e6 5A65     		str	r2, [r3, #84]
 1385              	.L78:
1069:Drivers/STM32F4xx_HAL_Driver/Src/stm32f4xx_hal_spi.c ****   }
1070:Drivers/STM32F4xx_HAL_Driver/Src/stm32f4xx_hal_spi.c **** 
1071:Drivers/STM32F4xx_HAL_Driver/Src/stm32f4xx_hal_spi.c **** #if (USE_SPI_CRC != 0U)
1072:Drivers/STM32F4xx_HAL_Driver/Src/stm32f4xx_hal_spi.c ****   /* Check if CRC error occurred */
1073:Drivers/STM32F4xx_HAL_Driver/Src/stm32f4xx_hal_spi.c ****   if (__HAL_SPI_GET_FLAG(hspi, SPI_FLAG_CRCERR))
1074:Drivers/STM32F4xx_HAL_Driver/Src/stm32f4xx_hal_spi.c ****   {
1075:Drivers/STM32F4xx_HAL_Driver/Src/stm32f4xx_hal_spi.c ****     SET_BIT(hspi->ErrorCode, HAL_SPI_ERROR_CRC);
1076:Drivers/STM32F4xx_HAL_Driver/Src/stm32f4xx_hal_spi.c ****     __HAL_SPI_CLEAR_CRCERRFLAG(hspi);
1077:Drivers/STM32F4xx_HAL_Driver/Src/stm32f4xx_hal_spi.c ****   }
1078:Drivers/STM32F4xx_HAL_Driver/Src/stm32f4xx_hal_spi.c **** #endif /* USE_SPI_CRC */
1079:Drivers/STM32F4xx_HAL_Driver/Src/stm32f4xx_hal_spi.c **** 
1080:Drivers/STM32F4xx_HAL_Driver/Src/stm32f4xx_hal_spi.c ****   if (hspi->ErrorCode != HAL_SPI_ERROR_NONE)
 1386              		.loc 1 1080 11
 1387 01e8 FB68     		ldr	r3, [r7, #12]
 1388 01ea 5B6D     		ldr	r3, [r3, #84]
 1389              		.loc 1 1080 6
 1390 01ec 002B     		cmp	r3, #0
 1391 01ee 02D0     		beq	.L79
1081:Drivers/STM32F4xx_HAL_Driver/Src/stm32f4xx_hal_spi.c ****   {
1082:Drivers/STM32F4xx_HAL_Driver/Src/stm32f4xx_hal_spi.c ****     errorcode = HAL_ERROR;
 1392              		.loc 1 1082 15
 1393 01f0 0123     		movs	r3, #1
 1394 01f2 FB75     		strb	r3, [r7, #23]
 1395 01f4 00E0     		b	.L61
 1396              	.L79:
1083:Drivers/STM32F4xx_HAL_Driver/Src/stm32f4xx_hal_spi.c ****   }
1084:Drivers/STM32F4xx_HAL_Driver/Src/stm32f4xx_hal_spi.c **** 
1085:Drivers/STM32F4xx_HAL_Driver/Src/stm32f4xx_hal_spi.c **** error :
 1397              		.loc 1 1085 1
 1398 01f6 00BF     		nop
 1399              	.L61:
1086:Drivers/STM32F4xx_HAL_Driver/Src/stm32f4xx_hal_spi.c ****   hspi->State = HAL_SPI_STATE_READY;
 1400              		.loc 1 1086 15
 1401 01f8 FB68     		ldr	r3, [r7, #12]
 1402 01fa 0122     		movs	r2, #1
 1403 01fc 83F85120 		strb	r2, [r3, #81]
1087:Drivers/STM32F4xx_HAL_Driver/Src/stm32f4xx_hal_spi.c ****   __HAL_UNLOCK(hspi);
 1404              		.loc 1 1087 3
 1405 0200 FB68     		ldr	r3, [r7, #12]
 1406 0202 0022     		movs	r2, #0
 1407 0204 83F85020 		strb	r2, [r3, #80]
1088:Drivers/STM32F4xx_HAL_Driver/Src/stm32f4xx_hal_spi.c ****   return errorcode;
 1408              		.loc 1 1088 10
 1409 0208 FB7D     		ldrb	r3, [r7, #23]	@ zero_extendqisi2
 1410              	.L58:
1089:Drivers/STM32F4xx_HAL_Driver/Src/stm32f4xx_hal_spi.c **** }
 1411              		.loc 1 1089 1
 1412 020a 1846     		mov	r0, r3
 1413 020c 1837     		adds	r7, r7, #24
 1414              	.LCFI30:
 1415              		.cfi_def_cfa_offset 8
 1416 020e BD46     		mov	sp, r7
 1417              	.LCFI31:
 1418              		.cfi_def_cfa_register 13
ARM GAS  /tmp/cc9N7Buw.s 			page 45


 1419              		@ sp needed
 1420 0210 80BD     		pop	{r7, pc}
 1421              		.cfi_endproc
 1422              	.LFE135:
 1424              		.section	.text.HAL_SPI_TransmitReceive,"ax",%progbits
 1425              		.align	1
 1426              		.global	HAL_SPI_TransmitReceive
 1427              		.syntax unified
 1428              		.thumb
 1429              		.thumb_func
 1430              		.fpu fpv4-sp-d16
 1432              	HAL_SPI_TransmitReceive:
 1433              	.LFB136:
1090:Drivers/STM32F4xx_HAL_Driver/Src/stm32f4xx_hal_spi.c **** 
1091:Drivers/STM32F4xx_HAL_Driver/Src/stm32f4xx_hal_spi.c **** /**
1092:Drivers/STM32F4xx_HAL_Driver/Src/stm32f4xx_hal_spi.c ****   * @brief  Transmit and Receive an amount of data in blocking mode.
1093:Drivers/STM32F4xx_HAL_Driver/Src/stm32f4xx_hal_spi.c ****   * @param  hspi pointer to a SPI_HandleTypeDef structure that contains
1094:Drivers/STM32F4xx_HAL_Driver/Src/stm32f4xx_hal_spi.c ****   *               the configuration information for SPI module.
1095:Drivers/STM32F4xx_HAL_Driver/Src/stm32f4xx_hal_spi.c ****   * @param  pTxData pointer to transmission data buffer
1096:Drivers/STM32F4xx_HAL_Driver/Src/stm32f4xx_hal_spi.c ****   * @param  pRxData pointer to reception data buffer
1097:Drivers/STM32F4xx_HAL_Driver/Src/stm32f4xx_hal_spi.c ****   * @param  Size amount of data to be sent and received
1098:Drivers/STM32F4xx_HAL_Driver/Src/stm32f4xx_hal_spi.c ****   * @param  Timeout Timeout duration
1099:Drivers/STM32F4xx_HAL_Driver/Src/stm32f4xx_hal_spi.c ****   * @retval HAL status
1100:Drivers/STM32F4xx_HAL_Driver/Src/stm32f4xx_hal_spi.c ****   */
1101:Drivers/STM32F4xx_HAL_Driver/Src/stm32f4xx_hal_spi.c **** HAL_StatusTypeDef HAL_SPI_TransmitReceive(SPI_HandleTypeDef *hspi, uint8_t *pTxData, uint8_t *pRxDa
1102:Drivers/STM32F4xx_HAL_Driver/Src/stm32f4xx_hal_spi.c ****                                           uint32_t Timeout)
1103:Drivers/STM32F4xx_HAL_Driver/Src/stm32f4xx_hal_spi.c **** {
 1434              		.loc 1 1103 1
 1435              		.cfi_startproc
 1436              		@ args = 4, pretend = 0, frame = 48
 1437              		@ frame_needed = 1, uses_anonymous_args = 0
 1438 0000 80B5     		push	{r7, lr}
 1439              	.LCFI32:
 1440              		.cfi_def_cfa_offset 8
 1441              		.cfi_offset 7, -8
 1442              		.cfi_offset 14, -4
 1443 0002 8CB0     		sub	sp, sp, #48
 1444              	.LCFI33:
 1445              		.cfi_def_cfa_offset 56
 1446 0004 00AF     		add	r7, sp, #0
 1447              	.LCFI34:
 1448              		.cfi_def_cfa_register 7
 1449 0006 F860     		str	r0, [r7, #12]
 1450 0008 B960     		str	r1, [r7, #8]
 1451 000a 7A60     		str	r2, [r7, #4]
 1452 000c 7B80     		strh	r3, [r7, #2]	@ movhi
1104:Drivers/STM32F4xx_HAL_Driver/Src/stm32f4xx_hal_spi.c ****   uint16_t             initial_TxXferCount;
1105:Drivers/STM32F4xx_HAL_Driver/Src/stm32f4xx_hal_spi.c ****   uint32_t             tmp_mode;
1106:Drivers/STM32F4xx_HAL_Driver/Src/stm32f4xx_hal_spi.c ****   HAL_SPI_StateTypeDef tmp_state;
1107:Drivers/STM32F4xx_HAL_Driver/Src/stm32f4xx_hal_spi.c ****   uint32_t             tickstart;
1108:Drivers/STM32F4xx_HAL_Driver/Src/stm32f4xx_hal_spi.c **** 
1109:Drivers/STM32F4xx_HAL_Driver/Src/stm32f4xx_hal_spi.c ****   /* Variable used to alternate Rx and Tx during transfer */
1110:Drivers/STM32F4xx_HAL_Driver/Src/stm32f4xx_hal_spi.c ****   uint32_t             txallowed = 1U;
 1453              		.loc 1 1110 24
 1454 000e 0123     		movs	r3, #1
 1455 0010 FB62     		str	r3, [r7, #44]
1111:Drivers/STM32F4xx_HAL_Driver/Src/stm32f4xx_hal_spi.c ****   HAL_StatusTypeDef    errorcode = HAL_OK;
ARM GAS  /tmp/cc9N7Buw.s 			page 46


 1456              		.loc 1 1111 24
 1457 0012 0023     		movs	r3, #0
 1458 0014 87F82B30 		strb	r3, [r7, #43]
1112:Drivers/STM32F4xx_HAL_Driver/Src/stm32f4xx_hal_spi.c **** 
1113:Drivers/STM32F4xx_HAL_Driver/Src/stm32f4xx_hal_spi.c ****   /* Check Direction parameter */
1114:Drivers/STM32F4xx_HAL_Driver/Src/stm32f4xx_hal_spi.c ****   assert_param(IS_SPI_DIRECTION_2LINES(hspi->Init.Direction));
 1459              		.loc 1 1114 3
 1460 0018 FB68     		ldr	r3, [r7, #12]
 1461 001a 9B68     		ldr	r3, [r3, #8]
 1462 001c 002B     		cmp	r3, #0
 1463 001e 04D0     		beq	.L81
 1464              		.loc 1 1114 3 is_stmt 0 discriminator 1
 1465 0020 40F25A41 		movw	r1, #1114
 1466 0024 8448     		ldr	r0, .L109
 1467 0026 FFF7FEFF 		bl	assert_failed
 1468              	.L81:
1115:Drivers/STM32F4xx_HAL_Driver/Src/stm32f4xx_hal_spi.c **** 
1116:Drivers/STM32F4xx_HAL_Driver/Src/stm32f4xx_hal_spi.c ****   /* Process Locked */
1117:Drivers/STM32F4xx_HAL_Driver/Src/stm32f4xx_hal_spi.c ****   __HAL_LOCK(hspi);
 1469              		.loc 1 1117 3 is_stmt 1
 1470 002a FB68     		ldr	r3, [r7, #12]
 1471 002c 93F85030 		ldrb	r3, [r3, #80]	@ zero_extendqisi2
 1472 0030 012B     		cmp	r3, #1
 1473 0032 01D1     		bne	.L82
 1474              		.loc 1 1117 3 is_stmt 0 discriminator 1
 1475 0034 0223     		movs	r3, #2
 1476 0036 8DE1     		b	.L83
 1477              	.L82:
 1478              		.loc 1 1117 3 discriminator 2
 1479 0038 FB68     		ldr	r3, [r7, #12]
 1480 003a 0122     		movs	r2, #1
 1481 003c 83F85020 		strb	r2, [r3, #80]
1118:Drivers/STM32F4xx_HAL_Driver/Src/stm32f4xx_hal_spi.c **** 
1119:Drivers/STM32F4xx_HAL_Driver/Src/stm32f4xx_hal_spi.c ****   /* Init tickstart for timeout management*/
1120:Drivers/STM32F4xx_HAL_Driver/Src/stm32f4xx_hal_spi.c ****   tickstart = HAL_GetTick();
 1482              		.loc 1 1120 15 is_stmt 1 discriminator 2
 1483 0040 FFF7FEFF 		bl	HAL_GetTick
 1484 0044 7862     		str	r0, [r7, #36]
1121:Drivers/STM32F4xx_HAL_Driver/Src/stm32f4xx_hal_spi.c **** 
1122:Drivers/STM32F4xx_HAL_Driver/Src/stm32f4xx_hal_spi.c ****   /* Init temporary variables */
1123:Drivers/STM32F4xx_HAL_Driver/Src/stm32f4xx_hal_spi.c ****   tmp_state           = hspi->State;
 1485              		.loc 1 1123 23 discriminator 2
 1486 0046 FB68     		ldr	r3, [r7, #12]
 1487 0048 93F85130 		ldrb	r3, [r3, #81]
 1488 004c 87F82330 		strb	r3, [r7, #35]
1124:Drivers/STM32F4xx_HAL_Driver/Src/stm32f4xx_hal_spi.c ****   tmp_mode            = hspi->Init.Mode;
 1489              		.loc 1 1124 23 discriminator 2
 1490 0050 FB68     		ldr	r3, [r7, #12]
 1491 0052 5B68     		ldr	r3, [r3, #4]
 1492 0054 FB61     		str	r3, [r7, #28]
1125:Drivers/STM32F4xx_HAL_Driver/Src/stm32f4xx_hal_spi.c ****   initial_TxXferCount = Size;
 1493              		.loc 1 1125 23 discriminator 2
 1494 0056 7B88     		ldrh	r3, [r7, #2]	@ movhi
 1495 0058 7B83     		strh	r3, [r7, #26]	@ movhi
1126:Drivers/STM32F4xx_HAL_Driver/Src/stm32f4xx_hal_spi.c **** 
1127:Drivers/STM32F4xx_HAL_Driver/Src/stm32f4xx_hal_spi.c ****   if (!((tmp_state == HAL_SPI_STATE_READY) || \
 1496              		.loc 1 1127 6 discriminator 2
ARM GAS  /tmp/cc9N7Buw.s 			page 47


 1497 005a 97F82330 		ldrb	r3, [r7, #35]	@ zero_extendqisi2
 1498 005e 012B     		cmp	r3, #1
 1499 0060 0FD0     		beq	.L84
 1500              		.loc 1 1127 7 discriminator 1
 1501 0062 FB69     		ldr	r3, [r7, #28]
 1502 0064 B3F5827F 		cmp	r3, #260
 1503 0068 07D1     		bne	.L85
1128:Drivers/STM32F4xx_HAL_Driver/Src/stm32f4xx_hal_spi.c ****         ((tmp_mode == SPI_MODE_MASTER) && (hspi->Init.Direction == SPI_DIRECTION_2LINES) && (tmp_st
 1504              		.loc 1 1128 54
 1505 006a FB68     		ldr	r3, [r7, #12]
 1506 006c 9B68     		ldr	r3, [r3, #8]
 1507              		.loc 1 1128 40
 1508 006e 002B     		cmp	r3, #0
 1509 0070 03D1     		bne	.L85
 1510              		.loc 1 1128 90 discriminator 1
 1511 0072 97F82330 		ldrb	r3, [r7, #35]	@ zero_extendqisi2
 1512 0076 042B     		cmp	r3, #4
 1513 0078 03D0     		beq	.L84
 1514              	.L85:
1129:Drivers/STM32F4xx_HAL_Driver/Src/stm32f4xx_hal_spi.c ****   {
1130:Drivers/STM32F4xx_HAL_Driver/Src/stm32f4xx_hal_spi.c ****     errorcode = HAL_BUSY;
 1515              		.loc 1 1130 15
 1516 007a 0223     		movs	r3, #2
 1517 007c 87F82B30 		strb	r3, [r7, #43]
1131:Drivers/STM32F4xx_HAL_Driver/Src/stm32f4xx_hal_spi.c ****     goto error;
 1518              		.loc 1 1131 5
 1519 0080 5EE1     		b	.L86
 1520              	.L84:
1132:Drivers/STM32F4xx_HAL_Driver/Src/stm32f4xx_hal_spi.c ****   }
1133:Drivers/STM32F4xx_HAL_Driver/Src/stm32f4xx_hal_spi.c **** 
1134:Drivers/STM32F4xx_HAL_Driver/Src/stm32f4xx_hal_spi.c ****   if ((pTxData == NULL) || (pRxData == NULL) || (Size == 0U))
 1521              		.loc 1 1134 6
 1522 0082 BB68     		ldr	r3, [r7, #8]
 1523 0084 002B     		cmp	r3, #0
 1524 0086 05D0     		beq	.L87
 1525              		.loc 1 1134 25 discriminator 1
 1526 0088 7B68     		ldr	r3, [r7, #4]
 1527 008a 002B     		cmp	r3, #0
 1528 008c 02D0     		beq	.L87
 1529              		.loc 1 1134 46 discriminator 2
 1530 008e 7B88     		ldrh	r3, [r7, #2]
 1531 0090 002B     		cmp	r3, #0
 1532 0092 03D1     		bne	.L88
 1533              	.L87:
1135:Drivers/STM32F4xx_HAL_Driver/Src/stm32f4xx_hal_spi.c ****   {
1136:Drivers/STM32F4xx_HAL_Driver/Src/stm32f4xx_hal_spi.c ****     errorcode = HAL_ERROR;
 1534              		.loc 1 1136 15
 1535 0094 0123     		movs	r3, #1
 1536 0096 87F82B30 		strb	r3, [r7, #43]
1137:Drivers/STM32F4xx_HAL_Driver/Src/stm32f4xx_hal_spi.c ****     goto error;
 1537              		.loc 1 1137 5
 1538 009a 51E1     		b	.L86
 1539              	.L88:
1138:Drivers/STM32F4xx_HAL_Driver/Src/stm32f4xx_hal_spi.c ****   }
1139:Drivers/STM32F4xx_HAL_Driver/Src/stm32f4xx_hal_spi.c **** 
1140:Drivers/STM32F4xx_HAL_Driver/Src/stm32f4xx_hal_spi.c ****   /* Don't overwrite in case of HAL_SPI_STATE_BUSY_RX */
1141:Drivers/STM32F4xx_HAL_Driver/Src/stm32f4xx_hal_spi.c ****   if (hspi->State != HAL_SPI_STATE_BUSY_RX)
ARM GAS  /tmp/cc9N7Buw.s 			page 48


 1540              		.loc 1 1141 11
 1541 009c FB68     		ldr	r3, [r7, #12]
 1542 009e 93F85130 		ldrb	r3, [r3, #81]
 1543 00a2 DBB2     		uxtb	r3, r3
 1544              		.loc 1 1141 6
 1545 00a4 042B     		cmp	r3, #4
 1546 00a6 03D0     		beq	.L89
1142:Drivers/STM32F4xx_HAL_Driver/Src/stm32f4xx_hal_spi.c ****   {
1143:Drivers/STM32F4xx_HAL_Driver/Src/stm32f4xx_hal_spi.c ****     hspi->State = HAL_SPI_STATE_BUSY_TX_RX;
 1547              		.loc 1 1143 17
 1548 00a8 FB68     		ldr	r3, [r7, #12]
 1549 00aa 0522     		movs	r2, #5
 1550 00ac 83F85120 		strb	r2, [r3, #81]
 1551              	.L89:
1144:Drivers/STM32F4xx_HAL_Driver/Src/stm32f4xx_hal_spi.c ****   }
1145:Drivers/STM32F4xx_HAL_Driver/Src/stm32f4xx_hal_spi.c **** 
1146:Drivers/STM32F4xx_HAL_Driver/Src/stm32f4xx_hal_spi.c ****   /* Set the transaction information */
1147:Drivers/STM32F4xx_HAL_Driver/Src/stm32f4xx_hal_spi.c ****   hspi->ErrorCode   = HAL_SPI_ERROR_NONE;
 1552              		.loc 1 1147 21
 1553 00b0 FB68     		ldr	r3, [r7, #12]
 1554 00b2 0022     		movs	r2, #0
 1555 00b4 5A65     		str	r2, [r3, #84]
1148:Drivers/STM32F4xx_HAL_Driver/Src/stm32f4xx_hal_spi.c ****   hspi->pRxBuffPtr  = (uint8_t *)pRxData;
 1556              		.loc 1 1148 21
 1557 00b6 FB68     		ldr	r3, [r7, #12]
 1558 00b8 7A68     		ldr	r2, [r7, #4]
 1559 00ba 9A63     		str	r2, [r3, #56]
1149:Drivers/STM32F4xx_HAL_Driver/Src/stm32f4xx_hal_spi.c ****   hspi->RxXferCount = Size;
 1560              		.loc 1 1149 21
 1561 00bc FB68     		ldr	r3, [r7, #12]
 1562 00be 7A88     		ldrh	r2, [r7, #2]	@ movhi
 1563 00c0 DA87     		strh	r2, [r3, #62]	@ movhi
1150:Drivers/STM32F4xx_HAL_Driver/Src/stm32f4xx_hal_spi.c ****   hspi->RxXferSize  = Size;
 1564              		.loc 1 1150 21
 1565 00c2 FB68     		ldr	r3, [r7, #12]
 1566 00c4 7A88     		ldrh	r2, [r7, #2]	@ movhi
 1567 00c6 9A87     		strh	r2, [r3, #60]	@ movhi
1151:Drivers/STM32F4xx_HAL_Driver/Src/stm32f4xx_hal_spi.c ****   hspi->pTxBuffPtr  = (uint8_t *)pTxData;
 1568              		.loc 1 1151 21
 1569 00c8 FB68     		ldr	r3, [r7, #12]
 1570 00ca BA68     		ldr	r2, [r7, #8]
 1571 00cc 1A63     		str	r2, [r3, #48]
1152:Drivers/STM32F4xx_HAL_Driver/Src/stm32f4xx_hal_spi.c ****   hspi->TxXferCount = Size;
 1572              		.loc 1 1152 21
 1573 00ce FB68     		ldr	r3, [r7, #12]
 1574 00d0 7A88     		ldrh	r2, [r7, #2]	@ movhi
 1575 00d2 DA86     		strh	r2, [r3, #54]	@ movhi
1153:Drivers/STM32F4xx_HAL_Driver/Src/stm32f4xx_hal_spi.c ****   hspi->TxXferSize  = Size;
 1576              		.loc 1 1153 21
 1577 00d4 FB68     		ldr	r3, [r7, #12]
 1578 00d6 7A88     		ldrh	r2, [r7, #2]	@ movhi
 1579 00d8 9A86     		strh	r2, [r3, #52]	@ movhi
1154:Drivers/STM32F4xx_HAL_Driver/Src/stm32f4xx_hal_spi.c **** 
1155:Drivers/STM32F4xx_HAL_Driver/Src/stm32f4xx_hal_spi.c ****   /*Init field not used in handle to zero */
1156:Drivers/STM32F4xx_HAL_Driver/Src/stm32f4xx_hal_spi.c ****   hspi->RxISR       = NULL;
 1580              		.loc 1 1156 21
 1581 00da FB68     		ldr	r3, [r7, #12]
ARM GAS  /tmp/cc9N7Buw.s 			page 49


 1582 00dc 0022     		movs	r2, #0
 1583 00de 1A64     		str	r2, [r3, #64]
1157:Drivers/STM32F4xx_HAL_Driver/Src/stm32f4xx_hal_spi.c ****   hspi->TxISR       = NULL;
 1584              		.loc 1 1157 21
 1585 00e0 FB68     		ldr	r3, [r7, #12]
 1586 00e2 0022     		movs	r2, #0
 1587 00e4 5A64     		str	r2, [r3, #68]
1158:Drivers/STM32F4xx_HAL_Driver/Src/stm32f4xx_hal_spi.c **** 
1159:Drivers/STM32F4xx_HAL_Driver/Src/stm32f4xx_hal_spi.c **** #if (USE_SPI_CRC != 0U)
1160:Drivers/STM32F4xx_HAL_Driver/Src/stm32f4xx_hal_spi.c ****   /* Reset CRC Calculation */
1161:Drivers/STM32F4xx_HAL_Driver/Src/stm32f4xx_hal_spi.c ****   if (hspi->Init.CRCCalculation == SPI_CRCCALCULATION_ENABLE)
1162:Drivers/STM32F4xx_HAL_Driver/Src/stm32f4xx_hal_spi.c ****   {
1163:Drivers/STM32F4xx_HAL_Driver/Src/stm32f4xx_hal_spi.c ****     SPI_RESET_CRC(hspi);
1164:Drivers/STM32F4xx_HAL_Driver/Src/stm32f4xx_hal_spi.c ****   }
1165:Drivers/STM32F4xx_HAL_Driver/Src/stm32f4xx_hal_spi.c **** #endif /* USE_SPI_CRC */
1166:Drivers/STM32F4xx_HAL_Driver/Src/stm32f4xx_hal_spi.c **** 
1167:Drivers/STM32F4xx_HAL_Driver/Src/stm32f4xx_hal_spi.c ****   /* Check if the SPI is already enabled */
1168:Drivers/STM32F4xx_HAL_Driver/Src/stm32f4xx_hal_spi.c ****   if ((hspi->Instance->CR1 & SPI_CR1_SPE) != SPI_CR1_SPE)
 1588              		.loc 1 1168 12
 1589 00e6 FB68     		ldr	r3, [r7, #12]
 1590 00e8 1B68     		ldr	r3, [r3]
 1591              		.loc 1 1168 22
 1592 00ea 1B68     		ldr	r3, [r3]
 1593              		.loc 1 1168 28
 1594 00ec 03F04003 		and	r3, r3, #64
 1595              		.loc 1 1168 6
 1596 00f0 402B     		cmp	r3, #64
 1597 00f2 07D0     		beq	.L90
1169:Drivers/STM32F4xx_HAL_Driver/Src/stm32f4xx_hal_spi.c ****   {
1170:Drivers/STM32F4xx_HAL_Driver/Src/stm32f4xx_hal_spi.c ****     /* Enable SPI peripheral */
1171:Drivers/STM32F4xx_HAL_Driver/Src/stm32f4xx_hal_spi.c ****     __HAL_SPI_ENABLE(hspi);
 1598              		.loc 1 1171 5
 1599 00f4 FB68     		ldr	r3, [r7, #12]
 1600 00f6 1B68     		ldr	r3, [r3]
 1601 00f8 1A68     		ldr	r2, [r3]
 1602 00fa FB68     		ldr	r3, [r7, #12]
 1603 00fc 1B68     		ldr	r3, [r3]
 1604 00fe 42F04002 		orr	r2, r2, #64
 1605 0102 1A60     		str	r2, [r3]
 1606              	.L90:
1172:Drivers/STM32F4xx_HAL_Driver/Src/stm32f4xx_hal_spi.c ****   }
1173:Drivers/STM32F4xx_HAL_Driver/Src/stm32f4xx_hal_spi.c **** 
1174:Drivers/STM32F4xx_HAL_Driver/Src/stm32f4xx_hal_spi.c ****   /* Transmit and Receive data in 16 Bit mode */
1175:Drivers/STM32F4xx_HAL_Driver/Src/stm32f4xx_hal_spi.c ****   if (hspi->Init.DataSize == SPI_DATASIZE_16BIT)
 1607              		.loc 1 1175 17
 1608 0104 FB68     		ldr	r3, [r7, #12]
 1609 0106 DB68     		ldr	r3, [r3, #12]
 1610              		.loc 1 1175 6
 1611 0108 B3F5006F 		cmp	r3, #2048
 1612 010c 78D1     		bne	.L91
1176:Drivers/STM32F4xx_HAL_Driver/Src/stm32f4xx_hal_spi.c ****   {
1177:Drivers/STM32F4xx_HAL_Driver/Src/stm32f4xx_hal_spi.c ****     if ((hspi->Init.Mode == SPI_MODE_SLAVE) || (initial_TxXferCount == 0x01U))
 1613              		.loc 1 1177 20
 1614 010e FB68     		ldr	r3, [r7, #12]
 1615 0110 5B68     		ldr	r3, [r3, #4]
 1616              		.loc 1 1177 8
 1617 0112 002B     		cmp	r3, #0
ARM GAS  /tmp/cc9N7Buw.s 			page 50


 1618 0114 02D0     		beq	.L92
 1619              		.loc 1 1177 45 discriminator 1
 1620 0116 7B8B     		ldrh	r3, [r7, #26]
 1621 0118 012B     		cmp	r3, #1
 1622 011a 66D1     		bne	.L94
 1623              	.L92:
1178:Drivers/STM32F4xx_HAL_Driver/Src/stm32f4xx_hal_spi.c ****     {
1179:Drivers/STM32F4xx_HAL_Driver/Src/stm32f4xx_hal_spi.c ****       hspi->Instance->DR = *((uint16_t *)hspi->pTxBuffPtr);
 1624              		.loc 1 1179 46
 1625 011c FB68     		ldr	r3, [r7, #12]
 1626 011e 1B6B     		ldr	r3, [r3, #48]
 1627              		.loc 1 1179 28
 1628 0120 1A88     		ldrh	r2, [r3]
 1629              		.loc 1 1179 11
 1630 0122 FB68     		ldr	r3, [r7, #12]
 1631 0124 1B68     		ldr	r3, [r3]
 1632              		.loc 1 1179 26
 1633 0126 DA60     		str	r2, [r3, #12]
1180:Drivers/STM32F4xx_HAL_Driver/Src/stm32f4xx_hal_spi.c ****       hspi->pTxBuffPtr += sizeof(uint16_t);
 1634              		.loc 1 1180 24
 1635 0128 FB68     		ldr	r3, [r7, #12]
 1636 012a 1B6B     		ldr	r3, [r3, #48]
 1637 012c 9A1C     		adds	r2, r3, #2
 1638 012e FB68     		ldr	r3, [r7, #12]
 1639 0130 1A63     		str	r2, [r3, #48]
1181:Drivers/STM32F4xx_HAL_Driver/Src/stm32f4xx_hal_spi.c ****       hspi->TxXferCount--;
 1640              		.loc 1 1181 11
 1641 0132 FB68     		ldr	r3, [r7, #12]
 1642 0134 DB8E     		ldrh	r3, [r3, #54]	@ movhi
 1643 0136 9BB2     		uxth	r3, r3
 1644              		.loc 1 1181 24
 1645 0138 013B     		subs	r3, r3, #1
 1646 013a 9AB2     		uxth	r2, r3
 1647 013c FB68     		ldr	r3, [r7, #12]
 1648 013e DA86     		strh	r2, [r3, #54]	@ movhi
1182:Drivers/STM32F4xx_HAL_Driver/Src/stm32f4xx_hal_spi.c ****     }
1183:Drivers/STM32F4xx_HAL_Driver/Src/stm32f4xx_hal_spi.c ****     while ((hspi->TxXferCount > 0U) || (hspi->RxXferCount > 0U))
 1649              		.loc 1 1183 11
 1650 0140 53E0     		b	.L94
 1651              	.L97:
1184:Drivers/STM32F4xx_HAL_Driver/Src/stm32f4xx_hal_spi.c ****     {
1185:Drivers/STM32F4xx_HAL_Driver/Src/stm32f4xx_hal_spi.c ****       /* Check TXE flag */
1186:Drivers/STM32F4xx_HAL_Driver/Src/stm32f4xx_hal_spi.c ****       if ((__HAL_SPI_GET_FLAG(hspi, SPI_FLAG_TXE)) && (hspi->TxXferCount > 0U) && (txallowed == 1U)
 1652              		.loc 1 1186 12
 1653 0142 FB68     		ldr	r3, [r7, #12]
 1654 0144 1B68     		ldr	r3, [r3]
 1655 0146 9B68     		ldr	r3, [r3, #8]
 1656 0148 03F00203 		and	r3, r3, #2
 1657              		.loc 1 1186 10
 1658 014c 022B     		cmp	r3, #2
 1659 014e 1BD1     		bne	.L95
 1660              		.loc 1 1186 60 discriminator 1
 1661 0150 FB68     		ldr	r3, [r7, #12]
 1662 0152 DB8E     		ldrh	r3, [r3, #54]	@ movhi
 1663 0154 9BB2     		uxth	r3, r3
 1664              		.loc 1 1186 52 discriminator 1
 1665 0156 002B     		cmp	r3, #0
ARM GAS  /tmp/cc9N7Buw.s 			page 51


 1666 0158 16D0     		beq	.L95
 1667              		.loc 1 1186 80 discriminator 2
 1668 015a FB6A     		ldr	r3, [r7, #44]
 1669 015c 012B     		cmp	r3, #1
 1670 015e 13D1     		bne	.L95
1187:Drivers/STM32F4xx_HAL_Driver/Src/stm32f4xx_hal_spi.c ****       {
1188:Drivers/STM32F4xx_HAL_Driver/Src/stm32f4xx_hal_spi.c ****         hspi->Instance->DR = *((uint16_t *)hspi->pTxBuffPtr);
 1671              		.loc 1 1188 48
 1672 0160 FB68     		ldr	r3, [r7, #12]
 1673 0162 1B6B     		ldr	r3, [r3, #48]
 1674              		.loc 1 1188 30
 1675 0164 1A88     		ldrh	r2, [r3]
 1676              		.loc 1 1188 13
 1677 0166 FB68     		ldr	r3, [r7, #12]
 1678 0168 1B68     		ldr	r3, [r3]
 1679              		.loc 1 1188 28
 1680 016a DA60     		str	r2, [r3, #12]
1189:Drivers/STM32F4xx_HAL_Driver/Src/stm32f4xx_hal_spi.c ****         hspi->pTxBuffPtr += sizeof(uint16_t);
 1681              		.loc 1 1189 26
 1682 016c FB68     		ldr	r3, [r7, #12]
 1683 016e 1B6B     		ldr	r3, [r3, #48]
 1684 0170 9A1C     		adds	r2, r3, #2
 1685 0172 FB68     		ldr	r3, [r7, #12]
 1686 0174 1A63     		str	r2, [r3, #48]
1190:Drivers/STM32F4xx_HAL_Driver/Src/stm32f4xx_hal_spi.c ****         hspi->TxXferCount--;
 1687              		.loc 1 1190 13
 1688 0176 FB68     		ldr	r3, [r7, #12]
 1689 0178 DB8E     		ldrh	r3, [r3, #54]	@ movhi
 1690 017a 9BB2     		uxth	r3, r3
 1691              		.loc 1 1190 26
 1692 017c 013B     		subs	r3, r3, #1
 1693 017e 9AB2     		uxth	r2, r3
 1694 0180 FB68     		ldr	r3, [r7, #12]
 1695 0182 DA86     		strh	r2, [r3, #54]	@ movhi
1191:Drivers/STM32F4xx_HAL_Driver/Src/stm32f4xx_hal_spi.c ****         /* Next Data is a reception (Rx). Tx not allowed */
1192:Drivers/STM32F4xx_HAL_Driver/Src/stm32f4xx_hal_spi.c ****         txallowed = 0U;
 1696              		.loc 1 1192 19
 1697 0184 0023     		movs	r3, #0
 1698 0186 FB62     		str	r3, [r7, #44]
 1699              	.L95:
1193:Drivers/STM32F4xx_HAL_Driver/Src/stm32f4xx_hal_spi.c **** 
1194:Drivers/STM32F4xx_HAL_Driver/Src/stm32f4xx_hal_spi.c **** #if (USE_SPI_CRC != 0U)
1195:Drivers/STM32F4xx_HAL_Driver/Src/stm32f4xx_hal_spi.c ****         /* Enable CRC Transmission */
1196:Drivers/STM32F4xx_HAL_Driver/Src/stm32f4xx_hal_spi.c ****         if ((hspi->TxXferCount == 0U) && (hspi->Init.CRCCalculation == SPI_CRCCALCULATION_ENABLE))
1197:Drivers/STM32F4xx_HAL_Driver/Src/stm32f4xx_hal_spi.c ****         {
1198:Drivers/STM32F4xx_HAL_Driver/Src/stm32f4xx_hal_spi.c ****           SET_BIT(hspi->Instance->CR1, SPI_CR1_CRCNEXT);
1199:Drivers/STM32F4xx_HAL_Driver/Src/stm32f4xx_hal_spi.c ****         }
1200:Drivers/STM32F4xx_HAL_Driver/Src/stm32f4xx_hal_spi.c **** #endif /* USE_SPI_CRC */
1201:Drivers/STM32F4xx_HAL_Driver/Src/stm32f4xx_hal_spi.c ****       }
1202:Drivers/STM32F4xx_HAL_Driver/Src/stm32f4xx_hal_spi.c **** 
1203:Drivers/STM32F4xx_HAL_Driver/Src/stm32f4xx_hal_spi.c ****       /* Check RXNE flag */
1204:Drivers/STM32F4xx_HAL_Driver/Src/stm32f4xx_hal_spi.c ****       if ((__HAL_SPI_GET_FLAG(hspi, SPI_FLAG_RXNE)) && (hspi->RxXferCount > 0U))
 1700              		.loc 1 1204 12
 1701 0188 FB68     		ldr	r3, [r7, #12]
 1702 018a 1B68     		ldr	r3, [r3]
 1703 018c 9B68     		ldr	r3, [r3, #8]
 1704 018e 03F00103 		and	r3, r3, #1
ARM GAS  /tmp/cc9N7Buw.s 			page 52


 1705              		.loc 1 1204 10
 1706 0192 012B     		cmp	r3, #1
 1707 0194 19D1     		bne	.L96
 1708              		.loc 1 1204 61 discriminator 1
 1709 0196 FB68     		ldr	r3, [r7, #12]
 1710 0198 DB8F     		ldrh	r3, [r3, #62]	@ movhi
 1711 019a 9BB2     		uxth	r3, r3
 1712              		.loc 1 1204 53 discriminator 1
 1713 019c 002B     		cmp	r3, #0
 1714 019e 14D0     		beq	.L96
1205:Drivers/STM32F4xx_HAL_Driver/Src/stm32f4xx_hal_spi.c ****       {
1206:Drivers/STM32F4xx_HAL_Driver/Src/stm32f4xx_hal_spi.c ****         *((uint16_t *)hspi->pRxBuffPtr) = (uint16_t)hspi->Instance->DR;
 1715              		.loc 1 1206 57
 1716 01a0 FB68     		ldr	r3, [r7, #12]
 1717 01a2 1B68     		ldr	r3, [r3]
 1718              		.loc 1 1206 67
 1719 01a4 DA68     		ldr	r2, [r3, #12]
 1720              		.loc 1 1206 27
 1721 01a6 FB68     		ldr	r3, [r7, #12]
 1722 01a8 9B6B     		ldr	r3, [r3, #56]
 1723              		.loc 1 1206 43
 1724 01aa 92B2     		uxth	r2, r2
 1725              		.loc 1 1206 41
 1726 01ac 1A80     		strh	r2, [r3]	@ movhi
1207:Drivers/STM32F4xx_HAL_Driver/Src/stm32f4xx_hal_spi.c ****         hspi->pRxBuffPtr += sizeof(uint16_t);
 1727              		.loc 1 1207 26
 1728 01ae FB68     		ldr	r3, [r7, #12]
 1729 01b0 9B6B     		ldr	r3, [r3, #56]
 1730 01b2 9A1C     		adds	r2, r3, #2
 1731 01b4 FB68     		ldr	r3, [r7, #12]
 1732 01b6 9A63     		str	r2, [r3, #56]
1208:Drivers/STM32F4xx_HAL_Driver/Src/stm32f4xx_hal_spi.c ****         hspi->RxXferCount--;
 1733              		.loc 1 1208 13
 1734 01b8 FB68     		ldr	r3, [r7, #12]
 1735 01ba DB8F     		ldrh	r3, [r3, #62]	@ movhi
 1736 01bc 9BB2     		uxth	r3, r3
 1737              		.loc 1 1208 26
 1738 01be 013B     		subs	r3, r3, #1
 1739 01c0 9AB2     		uxth	r2, r3
 1740 01c2 FB68     		ldr	r3, [r7, #12]
 1741 01c4 DA87     		strh	r2, [r3, #62]	@ movhi
1209:Drivers/STM32F4xx_HAL_Driver/Src/stm32f4xx_hal_spi.c ****         /* Next Data is a Transmission (Tx). Tx is allowed */
1210:Drivers/STM32F4xx_HAL_Driver/Src/stm32f4xx_hal_spi.c ****         txallowed = 1U;
 1742              		.loc 1 1210 19
 1743 01c6 0123     		movs	r3, #1
 1744 01c8 FB62     		str	r3, [r7, #44]
 1745              	.L96:
1211:Drivers/STM32F4xx_HAL_Driver/Src/stm32f4xx_hal_spi.c ****       }
1212:Drivers/STM32F4xx_HAL_Driver/Src/stm32f4xx_hal_spi.c ****       if (((HAL_GetTick() - tickstart) >=  Timeout) && (Timeout != HAL_MAX_DELAY))
 1746              		.loc 1 1212 13
 1747 01ca FFF7FEFF 		bl	HAL_GetTick
 1748 01ce 0246     		mov	r2, r0
 1749              		.loc 1 1212 27
 1750 01d0 7B6A     		ldr	r3, [r7, #36]
 1751 01d2 D31A     		subs	r3, r2, r3
 1752              		.loc 1 1212 10
 1753 01d4 BA6B     		ldr	r2, [r7, #56]
ARM GAS  /tmp/cc9N7Buw.s 			page 53


 1754 01d6 9A42     		cmp	r2, r3
 1755 01d8 07D8     		bhi	.L94
 1756              		.loc 1 1212 53 discriminator 1
 1757 01da BB6B     		ldr	r3, [r7, #56]
 1758 01dc B3F1FF3F 		cmp	r3, #-1
 1759 01e0 03D0     		beq	.L94
1213:Drivers/STM32F4xx_HAL_Driver/Src/stm32f4xx_hal_spi.c ****       {
1214:Drivers/STM32F4xx_HAL_Driver/Src/stm32f4xx_hal_spi.c ****         errorcode = HAL_TIMEOUT;
 1760              		.loc 1 1214 19
 1761 01e2 0323     		movs	r3, #3
 1762 01e4 87F82B30 		strb	r3, [r7, #43]
1215:Drivers/STM32F4xx_HAL_Driver/Src/stm32f4xx_hal_spi.c ****         goto error;
 1763              		.loc 1 1215 9
 1764 01e8 AAE0     		b	.L86
 1765              	.L94:
1183:Drivers/STM32F4xx_HAL_Driver/Src/stm32f4xx_hal_spi.c ****     {
 1766              		.loc 1 1183 17
 1767 01ea FB68     		ldr	r3, [r7, #12]
 1768 01ec DB8E     		ldrh	r3, [r3, #54]	@ movhi
 1769 01ee 9BB2     		uxth	r3, r3
1183:Drivers/STM32F4xx_HAL_Driver/Src/stm32f4xx_hal_spi.c ****     {
 1770              		.loc 1 1183 11
 1771 01f0 002B     		cmp	r3, #0
 1772 01f2 A6D1     		bne	.L97
1183:Drivers/STM32F4xx_HAL_Driver/Src/stm32f4xx_hal_spi.c ****     {
 1773              		.loc 1 1183 45 discriminator 1
 1774 01f4 FB68     		ldr	r3, [r7, #12]
 1775 01f6 DB8F     		ldrh	r3, [r3, #62]	@ movhi
 1776 01f8 9BB2     		uxth	r3, r3
1183:Drivers/STM32F4xx_HAL_Driver/Src/stm32f4xx_hal_spi.c ****     {
 1777              		.loc 1 1183 37 discriminator 1
 1778 01fa 002B     		cmp	r3, #0
 1779 01fc A1D1     		bne	.L97
 1780 01fe 7FE0     		b	.L98
 1781              	.L91:
1216:Drivers/STM32F4xx_HAL_Driver/Src/stm32f4xx_hal_spi.c ****       }
1217:Drivers/STM32F4xx_HAL_Driver/Src/stm32f4xx_hal_spi.c ****     }
1218:Drivers/STM32F4xx_HAL_Driver/Src/stm32f4xx_hal_spi.c ****   }
1219:Drivers/STM32F4xx_HAL_Driver/Src/stm32f4xx_hal_spi.c ****   /* Transmit and Receive data in 8 Bit mode */
1220:Drivers/STM32F4xx_HAL_Driver/Src/stm32f4xx_hal_spi.c ****   else
1221:Drivers/STM32F4xx_HAL_Driver/Src/stm32f4xx_hal_spi.c ****   {
1222:Drivers/STM32F4xx_HAL_Driver/Src/stm32f4xx_hal_spi.c ****     if ((hspi->Init.Mode == SPI_MODE_SLAVE) || (initial_TxXferCount == 0x01U))
 1782              		.loc 1 1222 20
 1783 0200 FB68     		ldr	r3, [r7, #12]
 1784 0202 5B68     		ldr	r3, [r3, #4]
 1785              		.loc 1 1222 8
 1786 0204 002B     		cmp	r3, #0
 1787 0206 02D0     		beq	.L99
 1788              		.loc 1 1222 45 discriminator 1
 1789 0208 7B8B     		ldrh	r3, [r7, #26]
 1790 020a 012B     		cmp	r3, #1
 1791 020c 6ED1     		bne	.L101
 1792              	.L99:
1223:Drivers/STM32F4xx_HAL_Driver/Src/stm32f4xx_hal_spi.c ****     {
1224:Drivers/STM32F4xx_HAL_Driver/Src/stm32f4xx_hal_spi.c ****       *((__IO uint8_t *)&hspi->Instance->DR) = (*hspi->pTxBuffPtr);
 1793              		.loc 1 1224 54
 1794 020e FB68     		ldr	r3, [r7, #12]
ARM GAS  /tmp/cc9N7Buw.s 			page 54


 1795 0210 1A6B     		ldr	r2, [r3, #48]
 1796              		.loc 1 1224 30
 1797 0212 FB68     		ldr	r3, [r7, #12]
 1798 0214 1B68     		ldr	r3, [r3]
 1799              		.loc 1 1224 25
 1800 0216 0C33     		adds	r3, r3, #12
 1801              		.loc 1 1224 49
 1802 0218 1278     		ldrb	r2, [r2]	@ zero_extendqisi2
 1803              		.loc 1 1224 46
 1804 021a 1A70     		strb	r2, [r3]
1225:Drivers/STM32F4xx_HAL_Driver/Src/stm32f4xx_hal_spi.c ****       hspi->pTxBuffPtr += sizeof(uint8_t);
 1805              		.loc 1 1225 24
 1806 021c FB68     		ldr	r3, [r7, #12]
 1807 021e 1B6B     		ldr	r3, [r3, #48]
 1808 0220 5A1C     		adds	r2, r3, #1
 1809 0222 FB68     		ldr	r3, [r7, #12]
 1810 0224 1A63     		str	r2, [r3, #48]
1226:Drivers/STM32F4xx_HAL_Driver/Src/stm32f4xx_hal_spi.c ****       hspi->TxXferCount--;
 1811              		.loc 1 1226 11
 1812 0226 FB68     		ldr	r3, [r7, #12]
 1813 0228 DB8E     		ldrh	r3, [r3, #54]	@ movhi
 1814 022a 9BB2     		uxth	r3, r3
 1815              		.loc 1 1226 24
 1816 022c 013B     		subs	r3, r3, #1
 1817 022e 9AB2     		uxth	r2, r3
 1818 0230 FB68     		ldr	r3, [r7, #12]
 1819 0232 DA86     		strh	r2, [r3, #54]	@ movhi
1227:Drivers/STM32F4xx_HAL_Driver/Src/stm32f4xx_hal_spi.c ****     }
1228:Drivers/STM32F4xx_HAL_Driver/Src/stm32f4xx_hal_spi.c ****     while ((hspi->TxXferCount > 0U) || (hspi->RxXferCount > 0U))
 1820              		.loc 1 1228 11
 1821 0234 5AE0     		b	.L101
 1822              	.L110:
 1823 0236 00BF     		.align	2
 1824              	.L109:
 1825 0238 00000000 		.word	.LC0
 1826              	.L106:
1229:Drivers/STM32F4xx_HAL_Driver/Src/stm32f4xx_hal_spi.c ****     {
1230:Drivers/STM32F4xx_HAL_Driver/Src/stm32f4xx_hal_spi.c ****       /* Check TXE flag */
1231:Drivers/STM32F4xx_HAL_Driver/Src/stm32f4xx_hal_spi.c ****       if ((__HAL_SPI_GET_FLAG(hspi, SPI_FLAG_TXE)) && (hspi->TxXferCount > 0U) && (txallowed == 1U)
 1827              		.loc 1 1231 12
 1828 023c FB68     		ldr	r3, [r7, #12]
 1829 023e 1B68     		ldr	r3, [r3]
 1830 0240 9B68     		ldr	r3, [r3, #8]
 1831 0242 03F00203 		and	r3, r3, #2
 1832              		.loc 1 1231 10
 1833 0246 022B     		cmp	r3, #2
 1834 0248 1CD1     		bne	.L102
 1835              		.loc 1 1231 60 discriminator 1
 1836 024a FB68     		ldr	r3, [r7, #12]
 1837 024c DB8E     		ldrh	r3, [r3, #54]	@ movhi
 1838 024e 9BB2     		uxth	r3, r3
 1839              		.loc 1 1231 52 discriminator 1
 1840 0250 002B     		cmp	r3, #0
 1841 0252 17D0     		beq	.L102
 1842              		.loc 1 1231 80 discriminator 2
 1843 0254 FB6A     		ldr	r3, [r7, #44]
 1844 0256 012B     		cmp	r3, #1
ARM GAS  /tmp/cc9N7Buw.s 			page 55


 1845 0258 14D1     		bne	.L102
1232:Drivers/STM32F4xx_HAL_Driver/Src/stm32f4xx_hal_spi.c ****       {
1233:Drivers/STM32F4xx_HAL_Driver/Src/stm32f4xx_hal_spi.c ****         *(__IO uint8_t *)&hspi->Instance->DR = (*hspi->pTxBuffPtr);
 1846              		.loc 1 1233 54
 1847 025a FB68     		ldr	r3, [r7, #12]
 1848 025c 1A6B     		ldr	r2, [r3, #48]
 1849              		.loc 1 1233 31
 1850 025e FB68     		ldr	r3, [r7, #12]
 1851 0260 1B68     		ldr	r3, [r3]
 1852              		.loc 1 1233 26
 1853 0262 0C33     		adds	r3, r3, #12
 1854              		.loc 1 1233 49
 1855 0264 1278     		ldrb	r2, [r2]	@ zero_extendqisi2
 1856              		.loc 1 1233 46
 1857 0266 1A70     		strb	r2, [r3]
1234:Drivers/STM32F4xx_HAL_Driver/Src/stm32f4xx_hal_spi.c ****         hspi->pTxBuffPtr++;
 1858              		.loc 1 1234 13
 1859 0268 FB68     		ldr	r3, [r7, #12]
 1860 026a 1B6B     		ldr	r3, [r3, #48]
 1861              		.loc 1 1234 25
 1862 026c 5A1C     		adds	r2, r3, #1
 1863 026e FB68     		ldr	r3, [r7, #12]
 1864 0270 1A63     		str	r2, [r3, #48]
1235:Drivers/STM32F4xx_HAL_Driver/Src/stm32f4xx_hal_spi.c ****         hspi->TxXferCount--;
 1865              		.loc 1 1235 13
 1866 0272 FB68     		ldr	r3, [r7, #12]
 1867 0274 DB8E     		ldrh	r3, [r3, #54]	@ movhi
 1868 0276 9BB2     		uxth	r3, r3
 1869              		.loc 1 1235 26
 1870 0278 013B     		subs	r3, r3, #1
 1871 027a 9AB2     		uxth	r2, r3
 1872 027c FB68     		ldr	r3, [r7, #12]
 1873 027e DA86     		strh	r2, [r3, #54]	@ movhi
1236:Drivers/STM32F4xx_HAL_Driver/Src/stm32f4xx_hal_spi.c ****         /* Next Data is a reception (Rx). Tx not allowed */
1237:Drivers/STM32F4xx_HAL_Driver/Src/stm32f4xx_hal_spi.c ****         txallowed = 0U;
 1874              		.loc 1 1237 19
 1875 0280 0023     		movs	r3, #0
 1876 0282 FB62     		str	r3, [r7, #44]
 1877              	.L102:
1238:Drivers/STM32F4xx_HAL_Driver/Src/stm32f4xx_hal_spi.c **** 
1239:Drivers/STM32F4xx_HAL_Driver/Src/stm32f4xx_hal_spi.c **** #if (USE_SPI_CRC != 0U)
1240:Drivers/STM32F4xx_HAL_Driver/Src/stm32f4xx_hal_spi.c ****         /* Enable CRC Transmission */
1241:Drivers/STM32F4xx_HAL_Driver/Src/stm32f4xx_hal_spi.c ****         if ((hspi->TxXferCount == 0U) && (hspi->Init.CRCCalculation == SPI_CRCCALCULATION_ENABLE))
1242:Drivers/STM32F4xx_HAL_Driver/Src/stm32f4xx_hal_spi.c ****         {
1243:Drivers/STM32F4xx_HAL_Driver/Src/stm32f4xx_hal_spi.c ****           SET_BIT(hspi->Instance->CR1, SPI_CR1_CRCNEXT);
1244:Drivers/STM32F4xx_HAL_Driver/Src/stm32f4xx_hal_spi.c ****         }
1245:Drivers/STM32F4xx_HAL_Driver/Src/stm32f4xx_hal_spi.c **** #endif /* USE_SPI_CRC */
1246:Drivers/STM32F4xx_HAL_Driver/Src/stm32f4xx_hal_spi.c ****       }
1247:Drivers/STM32F4xx_HAL_Driver/Src/stm32f4xx_hal_spi.c **** 
1248:Drivers/STM32F4xx_HAL_Driver/Src/stm32f4xx_hal_spi.c ****       /* Wait until RXNE flag is reset */
1249:Drivers/STM32F4xx_HAL_Driver/Src/stm32f4xx_hal_spi.c ****       if ((__HAL_SPI_GET_FLAG(hspi, SPI_FLAG_RXNE)) && (hspi->RxXferCount > 0U))
 1878              		.loc 1 1249 12
 1879 0284 FB68     		ldr	r3, [r7, #12]
 1880 0286 1B68     		ldr	r3, [r3]
 1881 0288 9B68     		ldr	r3, [r3, #8]
 1882 028a 03F00103 		and	r3, r3, #1
 1883              		.loc 1 1249 10
ARM GAS  /tmp/cc9N7Buw.s 			page 56


 1884 028e 012B     		cmp	r3, #1
 1885 0290 19D1     		bne	.L103
 1886              		.loc 1 1249 61 discriminator 1
 1887 0292 FB68     		ldr	r3, [r7, #12]
 1888 0294 DB8F     		ldrh	r3, [r3, #62]	@ movhi
 1889 0296 9BB2     		uxth	r3, r3
 1890              		.loc 1 1249 53 discriminator 1
 1891 0298 002B     		cmp	r3, #0
 1892 029a 14D0     		beq	.L103
1250:Drivers/STM32F4xx_HAL_Driver/Src/stm32f4xx_hal_spi.c ****       {
1251:Drivers/STM32F4xx_HAL_Driver/Src/stm32f4xx_hal_spi.c ****         (*(uint8_t *)hspi->pRxBuffPtr) = hspi->Instance->DR;
 1893              		.loc 1 1251 46
 1894 029c FB68     		ldr	r3, [r7, #12]
 1895 029e 1B68     		ldr	r3, [r3]
 1896              		.loc 1 1251 56
 1897 02a0 DA68     		ldr	r2, [r3, #12]
 1898              		.loc 1 1251 26
 1899 02a2 FB68     		ldr	r3, [r7, #12]
 1900 02a4 9B6B     		ldr	r3, [r3, #56]
 1901              		.loc 1 1251 40
 1902 02a6 D2B2     		uxtb	r2, r2
 1903 02a8 1A70     		strb	r2, [r3]
1252:Drivers/STM32F4xx_HAL_Driver/Src/stm32f4xx_hal_spi.c ****         hspi->pRxBuffPtr++;
 1904              		.loc 1 1252 13
 1905 02aa FB68     		ldr	r3, [r7, #12]
 1906 02ac 9B6B     		ldr	r3, [r3, #56]
 1907              		.loc 1 1252 25
 1908 02ae 5A1C     		adds	r2, r3, #1
 1909 02b0 FB68     		ldr	r3, [r7, #12]
 1910 02b2 9A63     		str	r2, [r3, #56]
1253:Drivers/STM32F4xx_HAL_Driver/Src/stm32f4xx_hal_spi.c ****         hspi->RxXferCount--;
 1911              		.loc 1 1253 13
 1912 02b4 FB68     		ldr	r3, [r7, #12]
 1913 02b6 DB8F     		ldrh	r3, [r3, #62]	@ movhi
 1914 02b8 9BB2     		uxth	r3, r3
 1915              		.loc 1 1253 26
 1916 02ba 013B     		subs	r3, r3, #1
 1917 02bc 9AB2     		uxth	r2, r3
 1918 02be FB68     		ldr	r3, [r7, #12]
 1919 02c0 DA87     		strh	r2, [r3, #62]	@ movhi
1254:Drivers/STM32F4xx_HAL_Driver/Src/stm32f4xx_hal_spi.c ****         /* Next Data is a Transmission (Tx). Tx is allowed */
1255:Drivers/STM32F4xx_HAL_Driver/Src/stm32f4xx_hal_spi.c ****         txallowed = 1U;
 1920              		.loc 1 1255 19
 1921 02c2 0123     		movs	r3, #1
 1922 02c4 FB62     		str	r3, [r7, #44]
 1923              	.L103:
1256:Drivers/STM32F4xx_HAL_Driver/Src/stm32f4xx_hal_spi.c ****       }
1257:Drivers/STM32F4xx_HAL_Driver/Src/stm32f4xx_hal_spi.c ****       if ((((HAL_GetTick() - tickstart) >=  Timeout) && ((Timeout != HAL_MAX_DELAY))) || (Timeout =
 1924              		.loc 1 1257 14
 1925 02c6 FFF7FEFF 		bl	HAL_GetTick
 1926 02ca 0246     		mov	r2, r0
 1927              		.loc 1 1257 28
 1928 02cc 7B6A     		ldr	r3, [r7, #36]
 1929 02ce D31A     		subs	r3, r2, r3
 1930              		.loc 1 1257 10
 1931 02d0 BA6B     		ldr	r2, [r7, #56]
 1932 02d2 9A42     		cmp	r2, r3
ARM GAS  /tmp/cc9N7Buw.s 			page 57


 1933 02d4 03D8     		bhi	.L104
 1934              		.loc 1 1257 54 discriminator 1
 1935 02d6 BB6B     		ldr	r3, [r7, #56]
 1936 02d8 B3F1FF3F 		cmp	r3, #-1
 1937 02dc 02D1     		bne	.L105
 1938              	.L104:
 1939              		.loc 1 1257 87 discriminator 3
 1940 02de BB6B     		ldr	r3, [r7, #56]
 1941 02e0 002B     		cmp	r3, #0
 1942 02e2 03D1     		bne	.L101
 1943              	.L105:
1258:Drivers/STM32F4xx_HAL_Driver/Src/stm32f4xx_hal_spi.c ****       {
1259:Drivers/STM32F4xx_HAL_Driver/Src/stm32f4xx_hal_spi.c ****         errorcode = HAL_TIMEOUT;
 1944              		.loc 1 1259 19
 1945 02e4 0323     		movs	r3, #3
 1946 02e6 87F82B30 		strb	r3, [r7, #43]
1260:Drivers/STM32F4xx_HAL_Driver/Src/stm32f4xx_hal_spi.c ****         goto error;
 1947              		.loc 1 1260 9
 1948 02ea 29E0     		b	.L86
 1949              	.L101:
1228:Drivers/STM32F4xx_HAL_Driver/Src/stm32f4xx_hal_spi.c ****     {
 1950              		.loc 1 1228 17
 1951 02ec FB68     		ldr	r3, [r7, #12]
 1952 02ee DB8E     		ldrh	r3, [r3, #54]	@ movhi
 1953 02f0 9BB2     		uxth	r3, r3
1228:Drivers/STM32F4xx_HAL_Driver/Src/stm32f4xx_hal_spi.c ****     {
 1954              		.loc 1 1228 11
 1955 02f2 002B     		cmp	r3, #0
 1956 02f4 A2D1     		bne	.L106
1228:Drivers/STM32F4xx_HAL_Driver/Src/stm32f4xx_hal_spi.c ****     {
 1957              		.loc 1 1228 45 discriminator 1
 1958 02f6 FB68     		ldr	r3, [r7, #12]
 1959 02f8 DB8F     		ldrh	r3, [r3, #62]	@ movhi
 1960 02fa 9BB2     		uxth	r3, r3
1228:Drivers/STM32F4xx_HAL_Driver/Src/stm32f4xx_hal_spi.c ****     {
 1961              		.loc 1 1228 37 discriminator 1
 1962 02fc 002B     		cmp	r3, #0
 1963 02fe 9DD1     		bne	.L106
 1964              	.L98:
1261:Drivers/STM32F4xx_HAL_Driver/Src/stm32f4xx_hal_spi.c ****       }
1262:Drivers/STM32F4xx_HAL_Driver/Src/stm32f4xx_hal_spi.c ****     }
1263:Drivers/STM32F4xx_HAL_Driver/Src/stm32f4xx_hal_spi.c ****   }
1264:Drivers/STM32F4xx_HAL_Driver/Src/stm32f4xx_hal_spi.c **** 
1265:Drivers/STM32F4xx_HAL_Driver/Src/stm32f4xx_hal_spi.c **** #if (USE_SPI_CRC != 0U)
1266:Drivers/STM32F4xx_HAL_Driver/Src/stm32f4xx_hal_spi.c ****   /* Read CRC from DR to close CRC calculation process */
1267:Drivers/STM32F4xx_HAL_Driver/Src/stm32f4xx_hal_spi.c ****   if (hspi->Init.CRCCalculation == SPI_CRCCALCULATION_ENABLE)
1268:Drivers/STM32F4xx_HAL_Driver/Src/stm32f4xx_hal_spi.c ****   {
1269:Drivers/STM32F4xx_HAL_Driver/Src/stm32f4xx_hal_spi.c ****     /* Wait until TXE flag */
1270:Drivers/STM32F4xx_HAL_Driver/Src/stm32f4xx_hal_spi.c ****     if (SPI_WaitFlagStateUntilTimeout(hspi, SPI_FLAG_RXNE, SET, Timeout, tickstart) != HAL_OK)
1271:Drivers/STM32F4xx_HAL_Driver/Src/stm32f4xx_hal_spi.c ****     {
1272:Drivers/STM32F4xx_HAL_Driver/Src/stm32f4xx_hal_spi.c ****       /* Error on the CRC reception */
1273:Drivers/STM32F4xx_HAL_Driver/Src/stm32f4xx_hal_spi.c ****       SET_BIT(hspi->ErrorCode, HAL_SPI_ERROR_CRC);
1274:Drivers/STM32F4xx_HAL_Driver/Src/stm32f4xx_hal_spi.c ****       errorcode = HAL_TIMEOUT;
1275:Drivers/STM32F4xx_HAL_Driver/Src/stm32f4xx_hal_spi.c ****       goto error;
1276:Drivers/STM32F4xx_HAL_Driver/Src/stm32f4xx_hal_spi.c ****     }
1277:Drivers/STM32F4xx_HAL_Driver/Src/stm32f4xx_hal_spi.c ****     /* Read CRC */
1278:Drivers/STM32F4xx_HAL_Driver/Src/stm32f4xx_hal_spi.c ****     READ_REG(hspi->Instance->DR);
ARM GAS  /tmp/cc9N7Buw.s 			page 58


1279:Drivers/STM32F4xx_HAL_Driver/Src/stm32f4xx_hal_spi.c ****   }
1280:Drivers/STM32F4xx_HAL_Driver/Src/stm32f4xx_hal_spi.c **** 
1281:Drivers/STM32F4xx_HAL_Driver/Src/stm32f4xx_hal_spi.c ****   /* Check if CRC error occurred */
1282:Drivers/STM32F4xx_HAL_Driver/Src/stm32f4xx_hal_spi.c ****   if (__HAL_SPI_GET_FLAG(hspi, SPI_FLAG_CRCERR))
1283:Drivers/STM32F4xx_HAL_Driver/Src/stm32f4xx_hal_spi.c ****   {
1284:Drivers/STM32F4xx_HAL_Driver/Src/stm32f4xx_hal_spi.c ****     SET_BIT(hspi->ErrorCode, HAL_SPI_ERROR_CRC);
1285:Drivers/STM32F4xx_HAL_Driver/Src/stm32f4xx_hal_spi.c ****     /* Clear CRC Flag */
1286:Drivers/STM32F4xx_HAL_Driver/Src/stm32f4xx_hal_spi.c ****     __HAL_SPI_CLEAR_CRCERRFLAG(hspi);
1287:Drivers/STM32F4xx_HAL_Driver/Src/stm32f4xx_hal_spi.c **** 
1288:Drivers/STM32F4xx_HAL_Driver/Src/stm32f4xx_hal_spi.c ****     errorcode = HAL_ERROR;
1289:Drivers/STM32F4xx_HAL_Driver/Src/stm32f4xx_hal_spi.c ****   }
1290:Drivers/STM32F4xx_HAL_Driver/Src/stm32f4xx_hal_spi.c **** #endif /* USE_SPI_CRC */
1291:Drivers/STM32F4xx_HAL_Driver/Src/stm32f4xx_hal_spi.c **** 
1292:Drivers/STM32F4xx_HAL_Driver/Src/stm32f4xx_hal_spi.c ****   /* Check the end of the transaction */
1293:Drivers/STM32F4xx_HAL_Driver/Src/stm32f4xx_hal_spi.c ****   if (SPI_EndRxTxTransaction(hspi, Timeout, tickstart) != HAL_OK)
 1965              		.loc 1 1293 7
 1966 0300 7A6A     		ldr	r2, [r7, #36]
 1967 0302 B96B     		ldr	r1, [r7, #56]
 1968 0304 F868     		ldr	r0, [r7, #12]
 1969 0306 FFF7FEFF 		bl	SPI_EndRxTxTransaction
 1970 030a 0346     		mov	r3, r0
 1971              		.loc 1 1293 6
 1972 030c 002B     		cmp	r3, #0
 1973 030e 06D0     		beq	.L107
1294:Drivers/STM32F4xx_HAL_Driver/Src/stm32f4xx_hal_spi.c ****   {
1295:Drivers/STM32F4xx_HAL_Driver/Src/stm32f4xx_hal_spi.c ****     errorcode = HAL_ERROR;
 1974              		.loc 1 1295 15
 1975 0310 0123     		movs	r3, #1
 1976 0312 87F82B30 		strb	r3, [r7, #43]
1296:Drivers/STM32F4xx_HAL_Driver/Src/stm32f4xx_hal_spi.c ****     hspi->ErrorCode = HAL_SPI_ERROR_FLAG;
 1977              		.loc 1 1296 21
 1978 0316 FB68     		ldr	r3, [r7, #12]
 1979 0318 2022     		movs	r2, #32
 1980 031a 5A65     		str	r2, [r3, #84]
1297:Drivers/STM32F4xx_HAL_Driver/Src/stm32f4xx_hal_spi.c ****     goto error;
 1981              		.loc 1 1297 5
 1982 031c 10E0     		b	.L86
 1983              	.L107:
1298:Drivers/STM32F4xx_HAL_Driver/Src/stm32f4xx_hal_spi.c ****   }
1299:Drivers/STM32F4xx_HAL_Driver/Src/stm32f4xx_hal_spi.c **** 
1300:Drivers/STM32F4xx_HAL_Driver/Src/stm32f4xx_hal_spi.c ****   /* Clear overrun flag in 2 Lines communication mode because received is not read */
1301:Drivers/STM32F4xx_HAL_Driver/Src/stm32f4xx_hal_spi.c ****   if (hspi->Init.Direction == SPI_DIRECTION_2LINES)
 1984              		.loc 1 1301 17
 1985 031e FB68     		ldr	r3, [r7, #12]
 1986 0320 9B68     		ldr	r3, [r3, #8]
 1987              		.loc 1 1301 6
 1988 0322 002B     		cmp	r3, #0
 1989 0324 0BD1     		bne	.L108
 1990              	.LBB3:
1302:Drivers/STM32F4xx_HAL_Driver/Src/stm32f4xx_hal_spi.c ****   {
1303:Drivers/STM32F4xx_HAL_Driver/Src/stm32f4xx_hal_spi.c ****     __HAL_SPI_CLEAR_OVRFLAG(hspi);
 1991              		.loc 1 1303 5
 1992 0326 0023     		movs	r3, #0
 1993 0328 7B61     		str	r3, [r7, #20]
 1994 032a FB68     		ldr	r3, [r7, #12]
 1995 032c 1B68     		ldr	r3, [r3]
 1996 032e DB68     		ldr	r3, [r3, #12]
ARM GAS  /tmp/cc9N7Buw.s 			page 59


 1997 0330 7B61     		str	r3, [r7, #20]
 1998 0332 FB68     		ldr	r3, [r7, #12]
 1999 0334 1B68     		ldr	r3, [r3]
 2000 0336 9B68     		ldr	r3, [r3, #8]
 2001 0338 7B61     		str	r3, [r7, #20]
 2002 033a 7B69     		ldr	r3, [r7, #20]
 2003 033c 00E0     		b	.L86
 2004              	.L108:
 2005              	.LBE3:
1304:Drivers/STM32F4xx_HAL_Driver/Src/stm32f4xx_hal_spi.c ****   }
1305:Drivers/STM32F4xx_HAL_Driver/Src/stm32f4xx_hal_spi.c **** 
1306:Drivers/STM32F4xx_HAL_Driver/Src/stm32f4xx_hal_spi.c **** error :
 2006              		.loc 1 1306 1
 2007 033e 00BF     		nop
 2008              	.L86:
1307:Drivers/STM32F4xx_HAL_Driver/Src/stm32f4xx_hal_spi.c ****   hspi->State = HAL_SPI_STATE_READY;
 2009              		.loc 1 1307 15
 2010 0340 FB68     		ldr	r3, [r7, #12]
 2011 0342 0122     		movs	r2, #1
 2012 0344 83F85120 		strb	r2, [r3, #81]
1308:Drivers/STM32F4xx_HAL_Driver/Src/stm32f4xx_hal_spi.c ****   __HAL_UNLOCK(hspi);
 2013              		.loc 1 1308 3
 2014 0348 FB68     		ldr	r3, [r7, #12]
 2015 034a 0022     		movs	r2, #0
 2016 034c 83F85020 		strb	r2, [r3, #80]
1309:Drivers/STM32F4xx_HAL_Driver/Src/stm32f4xx_hal_spi.c ****   return errorcode;
 2017              		.loc 1 1309 10
 2018 0350 97F82B30 		ldrb	r3, [r7, #43]	@ zero_extendqisi2
 2019              	.L83:
1310:Drivers/STM32F4xx_HAL_Driver/Src/stm32f4xx_hal_spi.c **** }
 2020              		.loc 1 1310 1
 2021 0354 1846     		mov	r0, r3
 2022 0356 3037     		adds	r7, r7, #48
 2023              	.LCFI35:
 2024              		.cfi_def_cfa_offset 8
 2025 0358 BD46     		mov	sp, r7
 2026              	.LCFI36:
 2027              		.cfi_def_cfa_register 13
 2028              		@ sp needed
 2029 035a 80BD     		pop	{r7, pc}
 2030              		.cfi_endproc
 2031              	.LFE136:
 2033              		.section	.text.HAL_SPI_Transmit_IT,"ax",%progbits
 2034              		.align	1
 2035              		.global	HAL_SPI_Transmit_IT
 2036              		.syntax unified
 2037              		.thumb
 2038              		.thumb_func
 2039              		.fpu fpv4-sp-d16
 2041              	HAL_SPI_Transmit_IT:
 2042              	.LFB137:
1311:Drivers/STM32F4xx_HAL_Driver/Src/stm32f4xx_hal_spi.c **** 
1312:Drivers/STM32F4xx_HAL_Driver/Src/stm32f4xx_hal_spi.c **** /**
1313:Drivers/STM32F4xx_HAL_Driver/Src/stm32f4xx_hal_spi.c ****   * @brief  Transmit an amount of data in non-blocking mode with Interrupt.
1314:Drivers/STM32F4xx_HAL_Driver/Src/stm32f4xx_hal_spi.c ****   * @param  hspi pointer to a SPI_HandleTypeDef structure that contains
1315:Drivers/STM32F4xx_HAL_Driver/Src/stm32f4xx_hal_spi.c ****   *               the configuration information for SPI module.
1316:Drivers/STM32F4xx_HAL_Driver/Src/stm32f4xx_hal_spi.c ****   * @param  pData pointer to data buffer
ARM GAS  /tmp/cc9N7Buw.s 			page 60


1317:Drivers/STM32F4xx_HAL_Driver/Src/stm32f4xx_hal_spi.c ****   * @param  Size amount of data to be sent
1318:Drivers/STM32F4xx_HAL_Driver/Src/stm32f4xx_hal_spi.c ****   * @retval HAL status
1319:Drivers/STM32F4xx_HAL_Driver/Src/stm32f4xx_hal_spi.c ****   */
1320:Drivers/STM32F4xx_HAL_Driver/Src/stm32f4xx_hal_spi.c **** HAL_StatusTypeDef HAL_SPI_Transmit_IT(SPI_HandleTypeDef *hspi, uint8_t *pData, uint16_t Size)
1321:Drivers/STM32F4xx_HAL_Driver/Src/stm32f4xx_hal_spi.c **** {
 2043              		.loc 1 1321 1
 2044              		.cfi_startproc
 2045              		@ args = 0, pretend = 0, frame = 24
 2046              		@ frame_needed = 1, uses_anonymous_args = 0
 2047 0000 80B5     		push	{r7, lr}
 2048              	.LCFI37:
 2049              		.cfi_def_cfa_offset 8
 2050              		.cfi_offset 7, -8
 2051              		.cfi_offset 14, -4
 2052 0002 86B0     		sub	sp, sp, #24
 2053              	.LCFI38:
 2054              		.cfi_def_cfa_offset 32
 2055 0004 00AF     		add	r7, sp, #0
 2056              	.LCFI39:
 2057              		.cfi_def_cfa_register 7
 2058 0006 F860     		str	r0, [r7, #12]
 2059 0008 B960     		str	r1, [r7, #8]
 2060 000a 1346     		mov	r3, r2
 2061 000c FB80     		strh	r3, [r7, #6]	@ movhi
1322:Drivers/STM32F4xx_HAL_Driver/Src/stm32f4xx_hal_spi.c ****   HAL_StatusTypeDef errorcode = HAL_OK;
 2062              		.loc 1 1322 21
 2063 000e 0023     		movs	r3, #0
 2064 0010 FB75     		strb	r3, [r7, #23]
1323:Drivers/STM32F4xx_HAL_Driver/Src/stm32f4xx_hal_spi.c **** 
1324:Drivers/STM32F4xx_HAL_Driver/Src/stm32f4xx_hal_spi.c ****   /* Check Direction parameter */
1325:Drivers/STM32F4xx_HAL_Driver/Src/stm32f4xx_hal_spi.c ****   assert_param(IS_SPI_DIRECTION_2LINES_OR_1LINE(hspi->Init.Direction));
 2065              		.loc 1 1325 3
 2066 0012 FB68     		ldr	r3, [r7, #12]
 2067 0014 9B68     		ldr	r3, [r3, #8]
 2068 0016 002B     		cmp	r3, #0
 2069 0018 09D0     		beq	.L112
 2070              		.loc 1 1325 3 is_stmt 0 discriminator 1
 2071 001a FB68     		ldr	r3, [r7, #12]
 2072 001c 9B68     		ldr	r3, [r3, #8]
 2073 001e B3F5004F 		cmp	r3, #32768
 2074 0022 04D0     		beq	.L112
 2075              		.loc 1 1325 3 discriminator 2
 2076 0024 40F22D51 		movw	r1, #1325
 2077 0028 3A48     		ldr	r0, .L123
 2078 002a FFF7FEFF 		bl	assert_failed
 2079              	.L112:
1326:Drivers/STM32F4xx_HAL_Driver/Src/stm32f4xx_hal_spi.c **** 
1327:Drivers/STM32F4xx_HAL_Driver/Src/stm32f4xx_hal_spi.c ****   /* Process Locked */
1328:Drivers/STM32F4xx_HAL_Driver/Src/stm32f4xx_hal_spi.c ****   __HAL_LOCK(hspi);
 2080              		.loc 1 1328 3 is_stmt 1
 2081 002e FB68     		ldr	r3, [r7, #12]
 2082 0030 93F85030 		ldrb	r3, [r3, #80]	@ zero_extendqisi2
 2083 0034 012B     		cmp	r3, #1
 2084 0036 01D1     		bne	.L113
 2085              		.loc 1 1328 3 is_stmt 0 discriminator 1
 2086 0038 0223     		movs	r3, #2
 2087 003a 67E0     		b	.L114
ARM GAS  /tmp/cc9N7Buw.s 			page 61


 2088              	.L113:
 2089              		.loc 1 1328 3 discriminator 2
 2090 003c FB68     		ldr	r3, [r7, #12]
 2091 003e 0122     		movs	r2, #1
 2092 0040 83F85020 		strb	r2, [r3, #80]
1329:Drivers/STM32F4xx_HAL_Driver/Src/stm32f4xx_hal_spi.c **** 
1330:Drivers/STM32F4xx_HAL_Driver/Src/stm32f4xx_hal_spi.c ****   if ((pData == NULL) || (Size == 0U))
 2093              		.loc 1 1330 6 is_stmt 1 discriminator 2
 2094 0044 BB68     		ldr	r3, [r7, #8]
 2095 0046 002B     		cmp	r3, #0
 2096 0048 02D0     		beq	.L115
 2097              		.loc 1 1330 23 discriminator 1
 2098 004a FB88     		ldrh	r3, [r7, #6]
 2099 004c 002B     		cmp	r3, #0
 2100 004e 02D1     		bne	.L116
 2101              	.L115:
1331:Drivers/STM32F4xx_HAL_Driver/Src/stm32f4xx_hal_spi.c ****   {
1332:Drivers/STM32F4xx_HAL_Driver/Src/stm32f4xx_hal_spi.c ****     errorcode = HAL_ERROR;
 2102              		.loc 1 1332 15
 2103 0050 0123     		movs	r3, #1
 2104 0052 FB75     		strb	r3, [r7, #23]
1333:Drivers/STM32F4xx_HAL_Driver/Src/stm32f4xx_hal_spi.c ****     goto error;
 2105              		.loc 1 1333 5
 2106 0054 55E0     		b	.L117
 2107              	.L116:
1334:Drivers/STM32F4xx_HAL_Driver/Src/stm32f4xx_hal_spi.c ****   }
1335:Drivers/STM32F4xx_HAL_Driver/Src/stm32f4xx_hal_spi.c **** 
1336:Drivers/STM32F4xx_HAL_Driver/Src/stm32f4xx_hal_spi.c ****   if (hspi->State != HAL_SPI_STATE_READY)
 2108              		.loc 1 1336 11
 2109 0056 FB68     		ldr	r3, [r7, #12]
 2110 0058 93F85130 		ldrb	r3, [r3, #81]
 2111 005c DBB2     		uxtb	r3, r3
 2112              		.loc 1 1336 6
 2113 005e 012B     		cmp	r3, #1
 2114 0060 02D0     		beq	.L118
1337:Drivers/STM32F4xx_HAL_Driver/Src/stm32f4xx_hal_spi.c ****   {
1338:Drivers/STM32F4xx_HAL_Driver/Src/stm32f4xx_hal_spi.c ****     errorcode = HAL_BUSY;
 2115              		.loc 1 1338 15
 2116 0062 0223     		movs	r3, #2
 2117 0064 FB75     		strb	r3, [r7, #23]
1339:Drivers/STM32F4xx_HAL_Driver/Src/stm32f4xx_hal_spi.c ****     goto error;
 2118              		.loc 1 1339 5
 2119 0066 4CE0     		b	.L117
 2120              	.L118:
1340:Drivers/STM32F4xx_HAL_Driver/Src/stm32f4xx_hal_spi.c ****   }
1341:Drivers/STM32F4xx_HAL_Driver/Src/stm32f4xx_hal_spi.c **** 
1342:Drivers/STM32F4xx_HAL_Driver/Src/stm32f4xx_hal_spi.c ****   /* Set the transaction information */
1343:Drivers/STM32F4xx_HAL_Driver/Src/stm32f4xx_hal_spi.c ****   hspi->State       = HAL_SPI_STATE_BUSY_TX;
 2121              		.loc 1 1343 21
 2122 0068 FB68     		ldr	r3, [r7, #12]
 2123 006a 0322     		movs	r2, #3
 2124 006c 83F85120 		strb	r2, [r3, #81]
1344:Drivers/STM32F4xx_HAL_Driver/Src/stm32f4xx_hal_spi.c ****   hspi->ErrorCode   = HAL_SPI_ERROR_NONE;
 2125              		.loc 1 1344 21
 2126 0070 FB68     		ldr	r3, [r7, #12]
 2127 0072 0022     		movs	r2, #0
 2128 0074 5A65     		str	r2, [r3, #84]
ARM GAS  /tmp/cc9N7Buw.s 			page 62


1345:Drivers/STM32F4xx_HAL_Driver/Src/stm32f4xx_hal_spi.c ****   hspi->pTxBuffPtr  = (uint8_t *)pData;
 2129              		.loc 1 1345 21
 2130 0076 FB68     		ldr	r3, [r7, #12]
 2131 0078 BA68     		ldr	r2, [r7, #8]
 2132 007a 1A63     		str	r2, [r3, #48]
1346:Drivers/STM32F4xx_HAL_Driver/Src/stm32f4xx_hal_spi.c ****   hspi->TxXferSize  = Size;
 2133              		.loc 1 1346 21
 2134 007c FB68     		ldr	r3, [r7, #12]
 2135 007e FA88     		ldrh	r2, [r7, #6]	@ movhi
 2136 0080 9A86     		strh	r2, [r3, #52]	@ movhi
1347:Drivers/STM32F4xx_HAL_Driver/Src/stm32f4xx_hal_spi.c ****   hspi->TxXferCount = Size;
 2137              		.loc 1 1347 21
 2138 0082 FB68     		ldr	r3, [r7, #12]
 2139 0084 FA88     		ldrh	r2, [r7, #6]	@ movhi
 2140 0086 DA86     		strh	r2, [r3, #54]	@ movhi
1348:Drivers/STM32F4xx_HAL_Driver/Src/stm32f4xx_hal_spi.c **** 
1349:Drivers/STM32F4xx_HAL_Driver/Src/stm32f4xx_hal_spi.c ****   /* Init field not used in handle to zero */
1350:Drivers/STM32F4xx_HAL_Driver/Src/stm32f4xx_hal_spi.c ****   hspi->pRxBuffPtr  = (uint8_t *)NULL;
 2141              		.loc 1 1350 21
 2142 0088 FB68     		ldr	r3, [r7, #12]
 2143 008a 0022     		movs	r2, #0
 2144 008c 9A63     		str	r2, [r3, #56]
1351:Drivers/STM32F4xx_HAL_Driver/Src/stm32f4xx_hal_spi.c ****   hspi->RxXferSize  = 0U;
 2145              		.loc 1 1351 21
 2146 008e FB68     		ldr	r3, [r7, #12]
 2147 0090 0022     		movs	r2, #0
 2148 0092 9A87     		strh	r2, [r3, #60]	@ movhi
1352:Drivers/STM32F4xx_HAL_Driver/Src/stm32f4xx_hal_spi.c ****   hspi->RxXferCount = 0U;
 2149              		.loc 1 1352 21
 2150 0094 FB68     		ldr	r3, [r7, #12]
 2151 0096 0022     		movs	r2, #0
 2152 0098 DA87     		strh	r2, [r3, #62]	@ movhi
1353:Drivers/STM32F4xx_HAL_Driver/Src/stm32f4xx_hal_spi.c ****   hspi->RxISR       = NULL;
 2153              		.loc 1 1353 21
 2154 009a FB68     		ldr	r3, [r7, #12]
 2155 009c 0022     		movs	r2, #0
 2156 009e 1A64     		str	r2, [r3, #64]
1354:Drivers/STM32F4xx_HAL_Driver/Src/stm32f4xx_hal_spi.c **** 
1355:Drivers/STM32F4xx_HAL_Driver/Src/stm32f4xx_hal_spi.c ****   /* Set the function for IT treatment */
1356:Drivers/STM32F4xx_HAL_Driver/Src/stm32f4xx_hal_spi.c ****   if (hspi->Init.DataSize > SPI_DATASIZE_8BIT)
 2157              		.loc 1 1356 17
 2158 00a0 FB68     		ldr	r3, [r7, #12]
 2159 00a2 DB68     		ldr	r3, [r3, #12]
 2160              		.loc 1 1356 6
 2161 00a4 002B     		cmp	r3, #0
 2162 00a6 03D0     		beq	.L119
1357:Drivers/STM32F4xx_HAL_Driver/Src/stm32f4xx_hal_spi.c ****   {
1358:Drivers/STM32F4xx_HAL_Driver/Src/stm32f4xx_hal_spi.c ****     hspi->TxISR = SPI_TxISR_16BIT;
 2163              		.loc 1 1358 17
 2164 00a8 FB68     		ldr	r3, [r7, #12]
 2165 00aa 1B4A     		ldr	r2, .L123+4
 2166 00ac 5A64     		str	r2, [r3, #68]
 2167 00ae 02E0     		b	.L120
 2168              	.L119:
1359:Drivers/STM32F4xx_HAL_Driver/Src/stm32f4xx_hal_spi.c ****   }
1360:Drivers/STM32F4xx_HAL_Driver/Src/stm32f4xx_hal_spi.c ****   else
1361:Drivers/STM32F4xx_HAL_Driver/Src/stm32f4xx_hal_spi.c ****   {
ARM GAS  /tmp/cc9N7Buw.s 			page 63


1362:Drivers/STM32F4xx_HAL_Driver/Src/stm32f4xx_hal_spi.c ****     hspi->TxISR = SPI_TxISR_8BIT;
 2169              		.loc 1 1362 17
 2170 00b0 FB68     		ldr	r3, [r7, #12]
 2171 00b2 1A4A     		ldr	r2, .L123+8
 2172 00b4 5A64     		str	r2, [r3, #68]
 2173              	.L120:
1363:Drivers/STM32F4xx_HAL_Driver/Src/stm32f4xx_hal_spi.c ****   }
1364:Drivers/STM32F4xx_HAL_Driver/Src/stm32f4xx_hal_spi.c **** 
1365:Drivers/STM32F4xx_HAL_Driver/Src/stm32f4xx_hal_spi.c ****   /* Configure communication direction : 1Line */
1366:Drivers/STM32F4xx_HAL_Driver/Src/stm32f4xx_hal_spi.c ****   if (hspi->Init.Direction == SPI_DIRECTION_1LINE)
 2174              		.loc 1 1366 17
 2175 00b6 FB68     		ldr	r3, [r7, #12]
 2176 00b8 9B68     		ldr	r3, [r3, #8]
 2177              		.loc 1 1366 6
 2178 00ba B3F5004F 		cmp	r3, #32768
 2179 00be 07D1     		bne	.L121
1367:Drivers/STM32F4xx_HAL_Driver/Src/stm32f4xx_hal_spi.c ****   {
1368:Drivers/STM32F4xx_HAL_Driver/Src/stm32f4xx_hal_spi.c ****     SPI_1LINE_TX(hspi);
 2180              		.loc 1 1368 5
 2181 00c0 FB68     		ldr	r3, [r7, #12]
 2182 00c2 1B68     		ldr	r3, [r3]
 2183 00c4 1A68     		ldr	r2, [r3]
 2184 00c6 FB68     		ldr	r3, [r7, #12]
 2185 00c8 1B68     		ldr	r3, [r3]
 2186 00ca 42F48042 		orr	r2, r2, #16384
 2187 00ce 1A60     		str	r2, [r3]
 2188              	.L121:
1369:Drivers/STM32F4xx_HAL_Driver/Src/stm32f4xx_hal_spi.c ****   }
1370:Drivers/STM32F4xx_HAL_Driver/Src/stm32f4xx_hal_spi.c **** 
1371:Drivers/STM32F4xx_HAL_Driver/Src/stm32f4xx_hal_spi.c **** #if (USE_SPI_CRC != 0U)
1372:Drivers/STM32F4xx_HAL_Driver/Src/stm32f4xx_hal_spi.c ****   /* Reset CRC Calculation */
1373:Drivers/STM32F4xx_HAL_Driver/Src/stm32f4xx_hal_spi.c ****   if (hspi->Init.CRCCalculation == SPI_CRCCALCULATION_ENABLE)
1374:Drivers/STM32F4xx_HAL_Driver/Src/stm32f4xx_hal_spi.c ****   {
1375:Drivers/STM32F4xx_HAL_Driver/Src/stm32f4xx_hal_spi.c ****     SPI_RESET_CRC(hspi);
1376:Drivers/STM32F4xx_HAL_Driver/Src/stm32f4xx_hal_spi.c ****   }
1377:Drivers/STM32F4xx_HAL_Driver/Src/stm32f4xx_hal_spi.c **** #endif /* USE_SPI_CRC */
1378:Drivers/STM32F4xx_HAL_Driver/Src/stm32f4xx_hal_spi.c **** 
1379:Drivers/STM32F4xx_HAL_Driver/Src/stm32f4xx_hal_spi.c ****   /* Enable TXE and ERR interrupt */
1380:Drivers/STM32F4xx_HAL_Driver/Src/stm32f4xx_hal_spi.c ****   __HAL_SPI_ENABLE_IT(hspi, (SPI_IT_TXE | SPI_IT_ERR));
 2189              		.loc 1 1380 3
 2190 00d0 FB68     		ldr	r3, [r7, #12]
 2191 00d2 1B68     		ldr	r3, [r3]
 2192 00d4 5A68     		ldr	r2, [r3, #4]
 2193 00d6 FB68     		ldr	r3, [r7, #12]
 2194 00d8 1B68     		ldr	r3, [r3]
 2195 00da 42F0A002 		orr	r2, r2, #160
 2196 00de 5A60     		str	r2, [r3, #4]
1381:Drivers/STM32F4xx_HAL_Driver/Src/stm32f4xx_hal_spi.c **** 
1382:Drivers/STM32F4xx_HAL_Driver/Src/stm32f4xx_hal_spi.c **** 
1383:Drivers/STM32F4xx_HAL_Driver/Src/stm32f4xx_hal_spi.c ****   /* Check if the SPI is already enabled */
1384:Drivers/STM32F4xx_HAL_Driver/Src/stm32f4xx_hal_spi.c ****   if ((hspi->Instance->CR1 & SPI_CR1_SPE) != SPI_CR1_SPE)
 2197              		.loc 1 1384 12
 2198 00e0 FB68     		ldr	r3, [r7, #12]
 2199 00e2 1B68     		ldr	r3, [r3]
 2200              		.loc 1 1384 22
 2201 00e4 1B68     		ldr	r3, [r3]
 2202              		.loc 1 1384 28
ARM GAS  /tmp/cc9N7Buw.s 			page 64


 2203 00e6 03F04003 		and	r3, r3, #64
 2204              		.loc 1 1384 6
 2205 00ea 402B     		cmp	r3, #64
 2206 00ec 08D0     		beq	.L122
1385:Drivers/STM32F4xx_HAL_Driver/Src/stm32f4xx_hal_spi.c ****   {
1386:Drivers/STM32F4xx_HAL_Driver/Src/stm32f4xx_hal_spi.c ****     /* Enable SPI peripheral */
1387:Drivers/STM32F4xx_HAL_Driver/Src/stm32f4xx_hal_spi.c ****     __HAL_SPI_ENABLE(hspi);
 2207              		.loc 1 1387 5
 2208 00ee FB68     		ldr	r3, [r7, #12]
 2209 00f0 1B68     		ldr	r3, [r3]
 2210 00f2 1A68     		ldr	r2, [r3]
 2211 00f4 FB68     		ldr	r3, [r7, #12]
 2212 00f6 1B68     		ldr	r3, [r3]
 2213 00f8 42F04002 		orr	r2, r2, #64
 2214 00fc 1A60     		str	r2, [r3]
 2215 00fe 00E0     		b	.L117
 2216              	.L122:
1388:Drivers/STM32F4xx_HAL_Driver/Src/stm32f4xx_hal_spi.c ****   }
1389:Drivers/STM32F4xx_HAL_Driver/Src/stm32f4xx_hal_spi.c **** 
1390:Drivers/STM32F4xx_HAL_Driver/Src/stm32f4xx_hal_spi.c **** error :
 2217              		.loc 1 1390 1
 2218 0100 00BF     		nop
 2219              	.L117:
1391:Drivers/STM32F4xx_HAL_Driver/Src/stm32f4xx_hal_spi.c ****   __HAL_UNLOCK(hspi);
 2220              		.loc 1 1391 3
 2221 0102 FB68     		ldr	r3, [r7, #12]
 2222 0104 0022     		movs	r2, #0
 2223 0106 83F85020 		strb	r2, [r3, #80]
1392:Drivers/STM32F4xx_HAL_Driver/Src/stm32f4xx_hal_spi.c ****   return errorcode;
 2224              		.loc 1 1392 10
 2225 010a FB7D     		ldrb	r3, [r7, #23]	@ zero_extendqisi2
 2226              	.L114:
1393:Drivers/STM32F4xx_HAL_Driver/Src/stm32f4xx_hal_spi.c **** }
 2227              		.loc 1 1393 1
 2228 010c 1846     		mov	r0, r3
 2229 010e 1837     		adds	r7, r7, #24
 2230              	.LCFI40:
 2231              		.cfi_def_cfa_offset 8
 2232 0110 BD46     		mov	sp, r7
 2233              	.LCFI41:
 2234              		.cfi_def_cfa_register 13
 2235              		@ sp needed
 2236 0112 80BD     		pop	{r7, pc}
 2237              	.L124:
 2238              		.align	2
 2239              	.L123:
 2240 0114 00000000 		.word	.LC0
 2241 0118 00000000 		.word	SPI_TxISR_16BIT
 2242 011c 00000000 		.word	SPI_TxISR_8BIT
 2243              		.cfi_endproc
 2244              	.LFE137:
 2246              		.section	.text.HAL_SPI_Receive_IT,"ax",%progbits
 2247              		.align	1
 2248              		.global	HAL_SPI_Receive_IT
 2249              		.syntax unified
 2250              		.thumb
 2251              		.thumb_func
ARM GAS  /tmp/cc9N7Buw.s 			page 65


 2252              		.fpu fpv4-sp-d16
 2254              	HAL_SPI_Receive_IT:
 2255              	.LFB138:
1394:Drivers/STM32F4xx_HAL_Driver/Src/stm32f4xx_hal_spi.c **** 
1395:Drivers/STM32F4xx_HAL_Driver/Src/stm32f4xx_hal_spi.c **** /**
1396:Drivers/STM32F4xx_HAL_Driver/Src/stm32f4xx_hal_spi.c ****   * @brief  Receive an amount of data in non-blocking mode with Interrupt.
1397:Drivers/STM32F4xx_HAL_Driver/Src/stm32f4xx_hal_spi.c ****   * @param  hspi pointer to a SPI_HandleTypeDef structure that contains
1398:Drivers/STM32F4xx_HAL_Driver/Src/stm32f4xx_hal_spi.c ****   *               the configuration information for SPI module.
1399:Drivers/STM32F4xx_HAL_Driver/Src/stm32f4xx_hal_spi.c ****   * @param  pData pointer to data buffer
1400:Drivers/STM32F4xx_HAL_Driver/Src/stm32f4xx_hal_spi.c ****   * @param  Size amount of data to be sent
1401:Drivers/STM32F4xx_HAL_Driver/Src/stm32f4xx_hal_spi.c ****   * @retval HAL status
1402:Drivers/STM32F4xx_HAL_Driver/Src/stm32f4xx_hal_spi.c ****   */
1403:Drivers/STM32F4xx_HAL_Driver/Src/stm32f4xx_hal_spi.c **** HAL_StatusTypeDef HAL_SPI_Receive_IT(SPI_HandleTypeDef *hspi, uint8_t *pData, uint16_t Size)
1404:Drivers/STM32F4xx_HAL_Driver/Src/stm32f4xx_hal_spi.c **** {
 2256              		.loc 1 1404 1
 2257              		.cfi_startproc
 2258              		@ args = 0, pretend = 0, frame = 24
 2259              		@ frame_needed = 1, uses_anonymous_args = 0
 2260 0000 80B5     		push	{r7, lr}
 2261              	.LCFI42:
 2262              		.cfi_def_cfa_offset 8
 2263              		.cfi_offset 7, -8
 2264              		.cfi_offset 14, -4
 2265 0002 86B0     		sub	sp, sp, #24
 2266              	.LCFI43:
 2267              		.cfi_def_cfa_offset 32
 2268 0004 00AF     		add	r7, sp, #0
 2269              	.LCFI44:
 2270              		.cfi_def_cfa_register 7
 2271 0006 F860     		str	r0, [r7, #12]
 2272 0008 B960     		str	r1, [r7, #8]
 2273 000a 1346     		mov	r3, r2
 2274 000c FB80     		strh	r3, [r7, #6]	@ movhi
1405:Drivers/STM32F4xx_HAL_Driver/Src/stm32f4xx_hal_spi.c ****   HAL_StatusTypeDef errorcode = HAL_OK;
 2275              		.loc 1 1405 21
 2276 000e 0023     		movs	r3, #0
 2277 0010 FB75     		strb	r3, [r7, #23]
1406:Drivers/STM32F4xx_HAL_Driver/Src/stm32f4xx_hal_spi.c **** 
1407:Drivers/STM32F4xx_HAL_Driver/Src/stm32f4xx_hal_spi.c ****   if ((hspi->Init.Direction == SPI_DIRECTION_2LINES) && (hspi->Init.Mode == SPI_MODE_MASTER))
 2278              		.loc 1 1407 18
 2279 0012 FB68     		ldr	r3, [r7, #12]
 2280 0014 9B68     		ldr	r3, [r3, #8]
 2281              		.loc 1 1407 6
 2282 0016 002B     		cmp	r3, #0
 2283 0018 10D1     		bne	.L126
 2284              		.loc 1 1407 68 discriminator 1
 2285 001a FB68     		ldr	r3, [r7, #12]
 2286 001c 5B68     		ldr	r3, [r3, #4]
 2287              		.loc 1 1407 54 discriminator 1
 2288 001e B3F5827F 		cmp	r3, #260
 2289 0022 0BD1     		bne	.L126
1408:Drivers/STM32F4xx_HAL_Driver/Src/stm32f4xx_hal_spi.c ****   {
1409:Drivers/STM32F4xx_HAL_Driver/Src/stm32f4xx_hal_spi.c ****     hspi->State = HAL_SPI_STATE_BUSY_RX;
 2290              		.loc 1 1409 17
 2291 0024 FB68     		ldr	r3, [r7, #12]
 2292 0026 0422     		movs	r2, #4
 2293 0028 83F85120 		strb	r2, [r3, #81]
ARM GAS  /tmp/cc9N7Buw.s 			page 66


1410:Drivers/STM32F4xx_HAL_Driver/Src/stm32f4xx_hal_spi.c ****     /* Call transmit-receive function to send Dummy data on Tx line and generate clock on CLK line 
1411:Drivers/STM32F4xx_HAL_Driver/Src/stm32f4xx_hal_spi.c ****     return HAL_SPI_TransmitReceive_IT(hspi, pData, pData, Size);
 2294              		.loc 1 1411 12
 2295 002c FB88     		ldrh	r3, [r7, #6]
 2296 002e BA68     		ldr	r2, [r7, #8]
 2297 0030 B968     		ldr	r1, [r7, #8]
 2298 0032 F868     		ldr	r0, [r7, #12]
 2299 0034 FFF7FEFF 		bl	HAL_SPI_TransmitReceive_IT
 2300 0038 0346     		mov	r3, r0
 2301 003a 6EE0     		b	.L127
 2302              	.L126:
1412:Drivers/STM32F4xx_HAL_Driver/Src/stm32f4xx_hal_spi.c ****   }
1413:Drivers/STM32F4xx_HAL_Driver/Src/stm32f4xx_hal_spi.c **** 
1414:Drivers/STM32F4xx_HAL_Driver/Src/stm32f4xx_hal_spi.c ****   /* Process Locked */
1415:Drivers/STM32F4xx_HAL_Driver/Src/stm32f4xx_hal_spi.c ****   __HAL_LOCK(hspi);
 2303              		.loc 1 1415 3
 2304 003c FB68     		ldr	r3, [r7, #12]
 2305 003e 93F85030 		ldrb	r3, [r3, #80]	@ zero_extendqisi2
 2306 0042 012B     		cmp	r3, #1
 2307 0044 01D1     		bne	.L128
 2308              		.loc 1 1415 3 is_stmt 0 discriminator 1
 2309 0046 0223     		movs	r3, #2
 2310 0048 67E0     		b	.L127
 2311              	.L128:
 2312              		.loc 1 1415 3 discriminator 2
 2313 004a FB68     		ldr	r3, [r7, #12]
 2314 004c 0122     		movs	r2, #1
 2315 004e 83F85020 		strb	r2, [r3, #80]
1416:Drivers/STM32F4xx_HAL_Driver/Src/stm32f4xx_hal_spi.c **** 
1417:Drivers/STM32F4xx_HAL_Driver/Src/stm32f4xx_hal_spi.c ****   if (hspi->State != HAL_SPI_STATE_READY)
 2316              		.loc 1 1417 11 is_stmt 1 discriminator 2
 2317 0052 FB68     		ldr	r3, [r7, #12]
 2318 0054 93F85130 		ldrb	r3, [r3, #81]
 2319 0058 DBB2     		uxtb	r3, r3
 2320              		.loc 1 1417 6 discriminator 2
 2321 005a 012B     		cmp	r3, #1
 2322 005c 02D0     		beq	.L129
1418:Drivers/STM32F4xx_HAL_Driver/Src/stm32f4xx_hal_spi.c ****   {
1419:Drivers/STM32F4xx_HAL_Driver/Src/stm32f4xx_hal_spi.c ****     errorcode = HAL_BUSY;
 2323              		.loc 1 1419 15
 2324 005e 0223     		movs	r3, #2
 2325 0060 FB75     		strb	r3, [r7, #23]
1420:Drivers/STM32F4xx_HAL_Driver/Src/stm32f4xx_hal_spi.c ****     goto error;
 2326              		.loc 1 1420 5
 2327 0062 55E0     		b	.L130
 2328              	.L129:
1421:Drivers/STM32F4xx_HAL_Driver/Src/stm32f4xx_hal_spi.c ****   }
1422:Drivers/STM32F4xx_HAL_Driver/Src/stm32f4xx_hal_spi.c **** 
1423:Drivers/STM32F4xx_HAL_Driver/Src/stm32f4xx_hal_spi.c ****   if ((pData == NULL) || (Size == 0U))
 2329              		.loc 1 1423 6
 2330 0064 BB68     		ldr	r3, [r7, #8]
 2331 0066 002B     		cmp	r3, #0
 2332 0068 02D0     		beq	.L131
 2333              		.loc 1 1423 23 discriminator 1
 2334 006a FB88     		ldrh	r3, [r7, #6]
 2335 006c 002B     		cmp	r3, #0
 2336 006e 02D1     		bne	.L132
ARM GAS  /tmp/cc9N7Buw.s 			page 67


 2337              	.L131:
1424:Drivers/STM32F4xx_HAL_Driver/Src/stm32f4xx_hal_spi.c ****   {
1425:Drivers/STM32F4xx_HAL_Driver/Src/stm32f4xx_hal_spi.c ****     errorcode = HAL_ERROR;
 2338              		.loc 1 1425 15
 2339 0070 0123     		movs	r3, #1
 2340 0072 FB75     		strb	r3, [r7, #23]
1426:Drivers/STM32F4xx_HAL_Driver/Src/stm32f4xx_hal_spi.c ****     goto error;
 2341              		.loc 1 1426 5
 2342 0074 4CE0     		b	.L130
 2343              	.L132:
1427:Drivers/STM32F4xx_HAL_Driver/Src/stm32f4xx_hal_spi.c ****   }
1428:Drivers/STM32F4xx_HAL_Driver/Src/stm32f4xx_hal_spi.c **** 
1429:Drivers/STM32F4xx_HAL_Driver/Src/stm32f4xx_hal_spi.c ****   /* Set the transaction information */
1430:Drivers/STM32F4xx_HAL_Driver/Src/stm32f4xx_hal_spi.c ****   hspi->State       = HAL_SPI_STATE_BUSY_RX;
 2344              		.loc 1 1430 21
 2345 0076 FB68     		ldr	r3, [r7, #12]
 2346 0078 0422     		movs	r2, #4
 2347 007a 83F85120 		strb	r2, [r3, #81]
1431:Drivers/STM32F4xx_HAL_Driver/Src/stm32f4xx_hal_spi.c ****   hspi->ErrorCode   = HAL_SPI_ERROR_NONE;
 2348              		.loc 1 1431 21
 2349 007e FB68     		ldr	r3, [r7, #12]
 2350 0080 0022     		movs	r2, #0
 2351 0082 5A65     		str	r2, [r3, #84]
1432:Drivers/STM32F4xx_HAL_Driver/Src/stm32f4xx_hal_spi.c ****   hspi->pRxBuffPtr  = (uint8_t *)pData;
 2352              		.loc 1 1432 21
 2353 0084 FB68     		ldr	r3, [r7, #12]
 2354 0086 BA68     		ldr	r2, [r7, #8]
 2355 0088 9A63     		str	r2, [r3, #56]
1433:Drivers/STM32F4xx_HAL_Driver/Src/stm32f4xx_hal_spi.c ****   hspi->RxXferSize  = Size;
 2356              		.loc 1 1433 21
 2357 008a FB68     		ldr	r3, [r7, #12]
 2358 008c FA88     		ldrh	r2, [r7, #6]	@ movhi
 2359 008e 9A87     		strh	r2, [r3, #60]	@ movhi
1434:Drivers/STM32F4xx_HAL_Driver/Src/stm32f4xx_hal_spi.c ****   hspi->RxXferCount = Size;
 2360              		.loc 1 1434 21
 2361 0090 FB68     		ldr	r3, [r7, #12]
 2362 0092 FA88     		ldrh	r2, [r7, #6]	@ movhi
 2363 0094 DA87     		strh	r2, [r3, #62]	@ movhi
1435:Drivers/STM32F4xx_HAL_Driver/Src/stm32f4xx_hal_spi.c **** 
1436:Drivers/STM32F4xx_HAL_Driver/Src/stm32f4xx_hal_spi.c ****   /* Init field not used in handle to zero */
1437:Drivers/STM32F4xx_HAL_Driver/Src/stm32f4xx_hal_spi.c ****   hspi->pTxBuffPtr  = (uint8_t *)NULL;
 2364              		.loc 1 1437 21
 2365 0096 FB68     		ldr	r3, [r7, #12]
 2366 0098 0022     		movs	r2, #0
 2367 009a 1A63     		str	r2, [r3, #48]
1438:Drivers/STM32F4xx_HAL_Driver/Src/stm32f4xx_hal_spi.c ****   hspi->TxXferSize  = 0U;
 2368              		.loc 1 1438 21
 2369 009c FB68     		ldr	r3, [r7, #12]
 2370 009e 0022     		movs	r2, #0
 2371 00a0 9A86     		strh	r2, [r3, #52]	@ movhi
1439:Drivers/STM32F4xx_HAL_Driver/Src/stm32f4xx_hal_spi.c ****   hspi->TxXferCount = 0U;
 2372              		.loc 1 1439 21
 2373 00a2 FB68     		ldr	r3, [r7, #12]
 2374 00a4 0022     		movs	r2, #0
 2375 00a6 DA86     		strh	r2, [r3, #54]	@ movhi
1440:Drivers/STM32F4xx_HAL_Driver/Src/stm32f4xx_hal_spi.c ****   hspi->TxISR       = NULL;
 2376              		.loc 1 1440 21
ARM GAS  /tmp/cc9N7Buw.s 			page 68


 2377 00a8 FB68     		ldr	r3, [r7, #12]
 2378 00aa 0022     		movs	r2, #0
 2379 00ac 5A64     		str	r2, [r3, #68]
1441:Drivers/STM32F4xx_HAL_Driver/Src/stm32f4xx_hal_spi.c **** 
1442:Drivers/STM32F4xx_HAL_Driver/Src/stm32f4xx_hal_spi.c ****   /* Set the function for IT treatment */
1443:Drivers/STM32F4xx_HAL_Driver/Src/stm32f4xx_hal_spi.c ****   if (hspi->Init.DataSize > SPI_DATASIZE_8BIT)
 2380              		.loc 1 1443 17
 2381 00ae FB68     		ldr	r3, [r7, #12]
 2382 00b0 DB68     		ldr	r3, [r3, #12]
 2383              		.loc 1 1443 6
 2384 00b2 002B     		cmp	r3, #0
 2385 00b4 03D0     		beq	.L133
1444:Drivers/STM32F4xx_HAL_Driver/Src/stm32f4xx_hal_spi.c ****   {
1445:Drivers/STM32F4xx_HAL_Driver/Src/stm32f4xx_hal_spi.c ****     hspi->RxISR = SPI_RxISR_16BIT;
 2386              		.loc 1 1445 17
 2387 00b6 FB68     		ldr	r3, [r7, #12]
 2388 00b8 1A4A     		ldr	r2, .L137
 2389 00ba 1A64     		str	r2, [r3, #64]
 2390 00bc 02E0     		b	.L134
 2391              	.L133:
1446:Drivers/STM32F4xx_HAL_Driver/Src/stm32f4xx_hal_spi.c ****   }
1447:Drivers/STM32F4xx_HAL_Driver/Src/stm32f4xx_hal_spi.c ****   else
1448:Drivers/STM32F4xx_HAL_Driver/Src/stm32f4xx_hal_spi.c ****   {
1449:Drivers/STM32F4xx_HAL_Driver/Src/stm32f4xx_hal_spi.c ****     hspi->RxISR = SPI_RxISR_8BIT;
 2392              		.loc 1 1449 17
 2393 00be FB68     		ldr	r3, [r7, #12]
 2394 00c0 194A     		ldr	r2, .L137+4
 2395 00c2 1A64     		str	r2, [r3, #64]
 2396              	.L134:
1450:Drivers/STM32F4xx_HAL_Driver/Src/stm32f4xx_hal_spi.c ****   }
1451:Drivers/STM32F4xx_HAL_Driver/Src/stm32f4xx_hal_spi.c **** 
1452:Drivers/STM32F4xx_HAL_Driver/Src/stm32f4xx_hal_spi.c ****   /* Configure communication direction : 1Line */
1453:Drivers/STM32F4xx_HAL_Driver/Src/stm32f4xx_hal_spi.c ****   if (hspi->Init.Direction == SPI_DIRECTION_1LINE)
 2397              		.loc 1 1453 17
 2398 00c4 FB68     		ldr	r3, [r7, #12]
 2399 00c6 9B68     		ldr	r3, [r3, #8]
 2400              		.loc 1 1453 6
 2401 00c8 B3F5004F 		cmp	r3, #32768
 2402 00cc 07D1     		bne	.L135
1454:Drivers/STM32F4xx_HAL_Driver/Src/stm32f4xx_hal_spi.c ****   {
1455:Drivers/STM32F4xx_HAL_Driver/Src/stm32f4xx_hal_spi.c ****     SPI_1LINE_RX(hspi);
 2403              		.loc 1 1455 5
 2404 00ce FB68     		ldr	r3, [r7, #12]
 2405 00d0 1B68     		ldr	r3, [r3]
 2406 00d2 1A68     		ldr	r2, [r3]
 2407 00d4 FB68     		ldr	r3, [r7, #12]
 2408 00d6 1B68     		ldr	r3, [r3]
 2409 00d8 22F48042 		bic	r2, r2, #16384
 2410 00dc 1A60     		str	r2, [r3]
 2411              	.L135:
1456:Drivers/STM32F4xx_HAL_Driver/Src/stm32f4xx_hal_spi.c ****   }
1457:Drivers/STM32F4xx_HAL_Driver/Src/stm32f4xx_hal_spi.c **** 
1458:Drivers/STM32F4xx_HAL_Driver/Src/stm32f4xx_hal_spi.c **** #if (USE_SPI_CRC != 0U)
1459:Drivers/STM32F4xx_HAL_Driver/Src/stm32f4xx_hal_spi.c ****   /* Reset CRC Calculation */
1460:Drivers/STM32F4xx_HAL_Driver/Src/stm32f4xx_hal_spi.c ****   if (hspi->Init.CRCCalculation == SPI_CRCCALCULATION_ENABLE)
1461:Drivers/STM32F4xx_HAL_Driver/Src/stm32f4xx_hal_spi.c ****   {
1462:Drivers/STM32F4xx_HAL_Driver/Src/stm32f4xx_hal_spi.c ****     SPI_RESET_CRC(hspi);
ARM GAS  /tmp/cc9N7Buw.s 			page 69


1463:Drivers/STM32F4xx_HAL_Driver/Src/stm32f4xx_hal_spi.c ****   }
1464:Drivers/STM32F4xx_HAL_Driver/Src/stm32f4xx_hal_spi.c **** #endif /* USE_SPI_CRC */
1465:Drivers/STM32F4xx_HAL_Driver/Src/stm32f4xx_hal_spi.c **** 
1466:Drivers/STM32F4xx_HAL_Driver/Src/stm32f4xx_hal_spi.c ****   /* Enable TXE and ERR interrupt */
1467:Drivers/STM32F4xx_HAL_Driver/Src/stm32f4xx_hal_spi.c ****   __HAL_SPI_ENABLE_IT(hspi, (SPI_IT_RXNE | SPI_IT_ERR));
 2412              		.loc 1 1467 3
 2413 00de FB68     		ldr	r3, [r7, #12]
 2414 00e0 1B68     		ldr	r3, [r3]
 2415 00e2 5A68     		ldr	r2, [r3, #4]
 2416 00e4 FB68     		ldr	r3, [r7, #12]
 2417 00e6 1B68     		ldr	r3, [r3]
 2418 00e8 42F06002 		orr	r2, r2, #96
 2419 00ec 5A60     		str	r2, [r3, #4]
1468:Drivers/STM32F4xx_HAL_Driver/Src/stm32f4xx_hal_spi.c **** 
1469:Drivers/STM32F4xx_HAL_Driver/Src/stm32f4xx_hal_spi.c ****   /* Note : The SPI must be enabled after unlocking current process
1470:Drivers/STM32F4xx_HAL_Driver/Src/stm32f4xx_hal_spi.c ****             to avoid the risk of SPI interrupt handle execution before current
1471:Drivers/STM32F4xx_HAL_Driver/Src/stm32f4xx_hal_spi.c ****             process unlock */
1472:Drivers/STM32F4xx_HAL_Driver/Src/stm32f4xx_hal_spi.c **** 
1473:Drivers/STM32F4xx_HAL_Driver/Src/stm32f4xx_hal_spi.c ****   /* Check if the SPI is already enabled */
1474:Drivers/STM32F4xx_HAL_Driver/Src/stm32f4xx_hal_spi.c ****   if ((hspi->Instance->CR1 & SPI_CR1_SPE) != SPI_CR1_SPE)
 2420              		.loc 1 1474 12
 2421 00ee FB68     		ldr	r3, [r7, #12]
 2422 00f0 1B68     		ldr	r3, [r3]
 2423              		.loc 1 1474 22
 2424 00f2 1B68     		ldr	r3, [r3]
 2425              		.loc 1 1474 28
 2426 00f4 03F04003 		and	r3, r3, #64
 2427              		.loc 1 1474 6
 2428 00f8 402B     		cmp	r3, #64
 2429 00fa 08D0     		beq	.L136
1475:Drivers/STM32F4xx_HAL_Driver/Src/stm32f4xx_hal_spi.c ****   {
1476:Drivers/STM32F4xx_HAL_Driver/Src/stm32f4xx_hal_spi.c ****     /* Enable SPI peripheral */
1477:Drivers/STM32F4xx_HAL_Driver/Src/stm32f4xx_hal_spi.c ****     __HAL_SPI_ENABLE(hspi);
 2430              		.loc 1 1477 5
 2431 00fc FB68     		ldr	r3, [r7, #12]
 2432 00fe 1B68     		ldr	r3, [r3]
 2433 0100 1A68     		ldr	r2, [r3]
 2434 0102 FB68     		ldr	r3, [r7, #12]
 2435 0104 1B68     		ldr	r3, [r3]
 2436 0106 42F04002 		orr	r2, r2, #64
 2437 010a 1A60     		str	r2, [r3]
 2438 010c 00E0     		b	.L130
 2439              	.L136:
1478:Drivers/STM32F4xx_HAL_Driver/Src/stm32f4xx_hal_spi.c ****   }
1479:Drivers/STM32F4xx_HAL_Driver/Src/stm32f4xx_hal_spi.c **** 
1480:Drivers/STM32F4xx_HAL_Driver/Src/stm32f4xx_hal_spi.c **** error :
 2440              		.loc 1 1480 1
 2441 010e 00BF     		nop
 2442              	.L130:
1481:Drivers/STM32F4xx_HAL_Driver/Src/stm32f4xx_hal_spi.c ****   /* Process Unlocked */
1482:Drivers/STM32F4xx_HAL_Driver/Src/stm32f4xx_hal_spi.c ****   __HAL_UNLOCK(hspi);
 2443              		.loc 1 1482 3
 2444 0110 FB68     		ldr	r3, [r7, #12]
 2445 0112 0022     		movs	r2, #0
 2446 0114 83F85020 		strb	r2, [r3, #80]
1483:Drivers/STM32F4xx_HAL_Driver/Src/stm32f4xx_hal_spi.c ****   return errorcode;
 2447              		.loc 1 1483 10
ARM GAS  /tmp/cc9N7Buw.s 			page 70


 2448 0118 FB7D     		ldrb	r3, [r7, #23]	@ zero_extendqisi2
 2449              	.L127:
1484:Drivers/STM32F4xx_HAL_Driver/Src/stm32f4xx_hal_spi.c **** }
 2450              		.loc 1 1484 1
 2451 011a 1846     		mov	r0, r3
 2452 011c 1837     		adds	r7, r7, #24
 2453              	.LCFI45:
 2454              		.cfi_def_cfa_offset 8
 2455 011e BD46     		mov	sp, r7
 2456              	.LCFI46:
 2457              		.cfi_def_cfa_register 13
 2458              		@ sp needed
 2459 0120 80BD     		pop	{r7, pc}
 2460              	.L138:
 2461 0122 00BF     		.align	2
 2462              	.L137:
 2463 0124 00000000 		.word	SPI_RxISR_16BIT
 2464 0128 00000000 		.word	SPI_RxISR_8BIT
 2465              		.cfi_endproc
 2466              	.LFE138:
 2468              		.section	.text.HAL_SPI_TransmitReceive_IT,"ax",%progbits
 2469              		.align	1
 2470              		.global	HAL_SPI_TransmitReceive_IT
 2471              		.syntax unified
 2472              		.thumb
 2473              		.thumb_func
 2474              		.fpu fpv4-sp-d16
 2476              	HAL_SPI_TransmitReceive_IT:
 2477              	.LFB139:
1485:Drivers/STM32F4xx_HAL_Driver/Src/stm32f4xx_hal_spi.c **** 
1486:Drivers/STM32F4xx_HAL_Driver/Src/stm32f4xx_hal_spi.c **** /**
1487:Drivers/STM32F4xx_HAL_Driver/Src/stm32f4xx_hal_spi.c ****   * @brief  Transmit and Receive an amount of data in non-blocking mode with Interrupt.
1488:Drivers/STM32F4xx_HAL_Driver/Src/stm32f4xx_hal_spi.c ****   * @param  hspi pointer to a SPI_HandleTypeDef structure that contains
1489:Drivers/STM32F4xx_HAL_Driver/Src/stm32f4xx_hal_spi.c ****   *               the configuration information for SPI module.
1490:Drivers/STM32F4xx_HAL_Driver/Src/stm32f4xx_hal_spi.c ****   * @param  pTxData pointer to transmission data buffer
1491:Drivers/STM32F4xx_HAL_Driver/Src/stm32f4xx_hal_spi.c ****   * @param  pRxData pointer to reception data buffer
1492:Drivers/STM32F4xx_HAL_Driver/Src/stm32f4xx_hal_spi.c ****   * @param  Size amount of data to be sent and received
1493:Drivers/STM32F4xx_HAL_Driver/Src/stm32f4xx_hal_spi.c ****   * @retval HAL status
1494:Drivers/STM32F4xx_HAL_Driver/Src/stm32f4xx_hal_spi.c ****   */
1495:Drivers/STM32F4xx_HAL_Driver/Src/stm32f4xx_hal_spi.c **** HAL_StatusTypeDef HAL_SPI_TransmitReceive_IT(SPI_HandleTypeDef *hspi, uint8_t *pTxData, uint8_t *pR
1496:Drivers/STM32F4xx_HAL_Driver/Src/stm32f4xx_hal_spi.c **** {
 2478              		.loc 1 1496 1
 2479              		.cfi_startproc
 2480              		@ args = 0, pretend = 0, frame = 24
 2481              		@ frame_needed = 1, uses_anonymous_args = 0
 2482 0000 80B5     		push	{r7, lr}
 2483              	.LCFI47:
 2484              		.cfi_def_cfa_offset 8
 2485              		.cfi_offset 7, -8
 2486              		.cfi_offset 14, -4
 2487 0002 86B0     		sub	sp, sp, #24
 2488              	.LCFI48:
 2489              		.cfi_def_cfa_offset 32
 2490 0004 00AF     		add	r7, sp, #0
 2491              	.LCFI49:
 2492              		.cfi_def_cfa_register 7
 2493 0006 F860     		str	r0, [r7, #12]
ARM GAS  /tmp/cc9N7Buw.s 			page 71


 2494 0008 B960     		str	r1, [r7, #8]
 2495 000a 7A60     		str	r2, [r7, #4]
 2496 000c 7B80     		strh	r3, [r7, #2]	@ movhi
1497:Drivers/STM32F4xx_HAL_Driver/Src/stm32f4xx_hal_spi.c ****   uint32_t             tmp_mode;
1498:Drivers/STM32F4xx_HAL_Driver/Src/stm32f4xx_hal_spi.c ****   HAL_SPI_StateTypeDef tmp_state;
1499:Drivers/STM32F4xx_HAL_Driver/Src/stm32f4xx_hal_spi.c ****   HAL_StatusTypeDef    errorcode = HAL_OK;
 2497              		.loc 1 1499 24
 2498 000e 0023     		movs	r3, #0
 2499 0010 FB75     		strb	r3, [r7, #23]
1500:Drivers/STM32F4xx_HAL_Driver/Src/stm32f4xx_hal_spi.c **** 
1501:Drivers/STM32F4xx_HAL_Driver/Src/stm32f4xx_hal_spi.c ****   /* Check Direction parameter */
1502:Drivers/STM32F4xx_HAL_Driver/Src/stm32f4xx_hal_spi.c ****   assert_param(IS_SPI_DIRECTION_2LINES(hspi->Init.Direction));
 2500              		.loc 1 1502 3
 2501 0012 FB68     		ldr	r3, [r7, #12]
 2502 0014 9B68     		ldr	r3, [r3, #8]
 2503 0016 002B     		cmp	r3, #0
 2504 0018 04D0     		beq	.L140
 2505              		.loc 1 1502 3 is_stmt 0 discriminator 1
 2506 001a 40F2DE51 		movw	r1, #1502
 2507 001e 4248     		ldr	r0, .L152
 2508 0020 FFF7FEFF 		bl	assert_failed
 2509              	.L140:
1503:Drivers/STM32F4xx_HAL_Driver/Src/stm32f4xx_hal_spi.c **** 
1504:Drivers/STM32F4xx_HAL_Driver/Src/stm32f4xx_hal_spi.c ****   /* Process locked */
1505:Drivers/STM32F4xx_HAL_Driver/Src/stm32f4xx_hal_spi.c ****   __HAL_LOCK(hspi);
 2510              		.loc 1 1505 3 is_stmt 1
 2511 0024 FB68     		ldr	r3, [r7, #12]
 2512 0026 93F85030 		ldrb	r3, [r3, #80]	@ zero_extendqisi2
 2513 002a 012B     		cmp	r3, #1
 2514 002c 01D1     		bne	.L141
 2515              		.loc 1 1505 3 is_stmt 0 discriminator 1
 2516 002e 0223     		movs	r3, #2
 2517 0030 75E0     		b	.L142
 2518              	.L141:
 2519              		.loc 1 1505 3 discriminator 2
 2520 0032 FB68     		ldr	r3, [r7, #12]
 2521 0034 0122     		movs	r2, #1
 2522 0036 83F85020 		strb	r2, [r3, #80]
1506:Drivers/STM32F4xx_HAL_Driver/Src/stm32f4xx_hal_spi.c **** 
1507:Drivers/STM32F4xx_HAL_Driver/Src/stm32f4xx_hal_spi.c ****   /* Init temporary variables */
1508:Drivers/STM32F4xx_HAL_Driver/Src/stm32f4xx_hal_spi.c ****   tmp_state           = hspi->State;
 2523              		.loc 1 1508 23 is_stmt 1 discriminator 2
 2524 003a FB68     		ldr	r3, [r7, #12]
 2525 003c 93F85130 		ldrb	r3, [r3, #81]
 2526 0040 BB75     		strb	r3, [r7, #22]
1509:Drivers/STM32F4xx_HAL_Driver/Src/stm32f4xx_hal_spi.c ****   tmp_mode            = hspi->Init.Mode;
 2527              		.loc 1 1509 23 discriminator 2
 2528 0042 FB68     		ldr	r3, [r7, #12]
 2529 0044 5B68     		ldr	r3, [r3, #4]
 2530 0046 3B61     		str	r3, [r7, #16]
1510:Drivers/STM32F4xx_HAL_Driver/Src/stm32f4xx_hal_spi.c **** 
1511:Drivers/STM32F4xx_HAL_Driver/Src/stm32f4xx_hal_spi.c ****   if (!((tmp_state == HAL_SPI_STATE_READY) || \
 2531              		.loc 1 1511 6 discriminator 2
 2532 0048 BB7D     		ldrb	r3, [r7, #22]	@ zero_extendqisi2
 2533 004a 012B     		cmp	r3, #1
 2534 004c 0DD0     		beq	.L143
 2535              		.loc 1 1511 7 discriminator 1
ARM GAS  /tmp/cc9N7Buw.s 			page 72


 2536 004e 3B69     		ldr	r3, [r7, #16]
 2537 0050 B3F5827F 		cmp	r3, #260
 2538 0054 06D1     		bne	.L144
1512:Drivers/STM32F4xx_HAL_Driver/Src/stm32f4xx_hal_spi.c ****         ((tmp_mode == SPI_MODE_MASTER) && (hspi->Init.Direction == SPI_DIRECTION_2LINES) && (tmp_st
 2539              		.loc 1 1512 54
 2540 0056 FB68     		ldr	r3, [r7, #12]
 2541 0058 9B68     		ldr	r3, [r3, #8]
 2542              		.loc 1 1512 40
 2543 005a 002B     		cmp	r3, #0
 2544 005c 02D1     		bne	.L144
 2545              		.loc 1 1512 90 discriminator 1
 2546 005e BB7D     		ldrb	r3, [r7, #22]	@ zero_extendqisi2
 2547 0060 042B     		cmp	r3, #4
 2548 0062 02D0     		beq	.L143
 2549              	.L144:
1513:Drivers/STM32F4xx_HAL_Driver/Src/stm32f4xx_hal_spi.c ****   {
1514:Drivers/STM32F4xx_HAL_Driver/Src/stm32f4xx_hal_spi.c ****     errorcode = HAL_BUSY;
 2550              		.loc 1 1514 15
 2551 0064 0223     		movs	r3, #2
 2552 0066 FB75     		strb	r3, [r7, #23]
1515:Drivers/STM32F4xx_HAL_Driver/Src/stm32f4xx_hal_spi.c ****     goto error;
 2553              		.loc 1 1515 5
 2554 0068 54E0     		b	.L145
 2555              	.L143:
1516:Drivers/STM32F4xx_HAL_Driver/Src/stm32f4xx_hal_spi.c ****   }
1517:Drivers/STM32F4xx_HAL_Driver/Src/stm32f4xx_hal_spi.c **** 
1518:Drivers/STM32F4xx_HAL_Driver/Src/stm32f4xx_hal_spi.c ****   if ((pTxData == NULL) || (pRxData == NULL) || (Size == 0U))
 2556              		.loc 1 1518 6
 2557 006a BB68     		ldr	r3, [r7, #8]
 2558 006c 002B     		cmp	r3, #0
 2559 006e 05D0     		beq	.L146
 2560              		.loc 1 1518 25 discriminator 1
 2561 0070 7B68     		ldr	r3, [r7, #4]
 2562 0072 002B     		cmp	r3, #0
 2563 0074 02D0     		beq	.L146
 2564              		.loc 1 1518 46 discriminator 2
 2565 0076 7B88     		ldrh	r3, [r7, #2]
 2566 0078 002B     		cmp	r3, #0
 2567 007a 02D1     		bne	.L147
 2568              	.L146:
1519:Drivers/STM32F4xx_HAL_Driver/Src/stm32f4xx_hal_spi.c ****   {
1520:Drivers/STM32F4xx_HAL_Driver/Src/stm32f4xx_hal_spi.c ****     errorcode = HAL_ERROR;
 2569              		.loc 1 1520 15
 2570 007c 0123     		movs	r3, #1
 2571 007e FB75     		strb	r3, [r7, #23]
1521:Drivers/STM32F4xx_HAL_Driver/Src/stm32f4xx_hal_spi.c ****     goto error;
 2572              		.loc 1 1521 5
 2573 0080 48E0     		b	.L145
 2574              	.L147:
1522:Drivers/STM32F4xx_HAL_Driver/Src/stm32f4xx_hal_spi.c ****   }
1523:Drivers/STM32F4xx_HAL_Driver/Src/stm32f4xx_hal_spi.c **** 
1524:Drivers/STM32F4xx_HAL_Driver/Src/stm32f4xx_hal_spi.c ****   /* Don't overwrite in case of HAL_SPI_STATE_BUSY_RX */
1525:Drivers/STM32F4xx_HAL_Driver/Src/stm32f4xx_hal_spi.c ****   if (hspi->State != HAL_SPI_STATE_BUSY_RX)
 2575              		.loc 1 1525 11
 2576 0082 FB68     		ldr	r3, [r7, #12]
 2577 0084 93F85130 		ldrb	r3, [r3, #81]
 2578 0088 DBB2     		uxtb	r3, r3
ARM GAS  /tmp/cc9N7Buw.s 			page 73


 2579              		.loc 1 1525 6
 2580 008a 042B     		cmp	r3, #4
 2581 008c 03D0     		beq	.L148
1526:Drivers/STM32F4xx_HAL_Driver/Src/stm32f4xx_hal_spi.c ****   {
1527:Drivers/STM32F4xx_HAL_Driver/Src/stm32f4xx_hal_spi.c ****     hspi->State = HAL_SPI_STATE_BUSY_TX_RX;
 2582              		.loc 1 1527 17
 2583 008e FB68     		ldr	r3, [r7, #12]
 2584 0090 0522     		movs	r2, #5
 2585 0092 83F85120 		strb	r2, [r3, #81]
 2586              	.L148:
1528:Drivers/STM32F4xx_HAL_Driver/Src/stm32f4xx_hal_spi.c ****   }
1529:Drivers/STM32F4xx_HAL_Driver/Src/stm32f4xx_hal_spi.c **** 
1530:Drivers/STM32F4xx_HAL_Driver/Src/stm32f4xx_hal_spi.c ****   /* Set the transaction information */
1531:Drivers/STM32F4xx_HAL_Driver/Src/stm32f4xx_hal_spi.c ****   hspi->ErrorCode   = HAL_SPI_ERROR_NONE;
 2587              		.loc 1 1531 21
 2588 0096 FB68     		ldr	r3, [r7, #12]
 2589 0098 0022     		movs	r2, #0
 2590 009a 5A65     		str	r2, [r3, #84]
1532:Drivers/STM32F4xx_HAL_Driver/Src/stm32f4xx_hal_spi.c ****   hspi->pTxBuffPtr  = (uint8_t *)pTxData;
 2591              		.loc 1 1532 21
 2592 009c FB68     		ldr	r3, [r7, #12]
 2593 009e BA68     		ldr	r2, [r7, #8]
 2594 00a0 1A63     		str	r2, [r3, #48]
1533:Drivers/STM32F4xx_HAL_Driver/Src/stm32f4xx_hal_spi.c ****   hspi->TxXferSize  = Size;
 2595              		.loc 1 1533 21
 2596 00a2 FB68     		ldr	r3, [r7, #12]
 2597 00a4 7A88     		ldrh	r2, [r7, #2]	@ movhi
 2598 00a6 9A86     		strh	r2, [r3, #52]	@ movhi
1534:Drivers/STM32F4xx_HAL_Driver/Src/stm32f4xx_hal_spi.c ****   hspi->TxXferCount = Size;
 2599              		.loc 1 1534 21
 2600 00a8 FB68     		ldr	r3, [r7, #12]
 2601 00aa 7A88     		ldrh	r2, [r7, #2]	@ movhi
 2602 00ac DA86     		strh	r2, [r3, #54]	@ movhi
1535:Drivers/STM32F4xx_HAL_Driver/Src/stm32f4xx_hal_spi.c ****   hspi->pRxBuffPtr  = (uint8_t *)pRxData;
 2603              		.loc 1 1535 21
 2604 00ae FB68     		ldr	r3, [r7, #12]
 2605 00b0 7A68     		ldr	r2, [r7, #4]
 2606 00b2 9A63     		str	r2, [r3, #56]
1536:Drivers/STM32F4xx_HAL_Driver/Src/stm32f4xx_hal_spi.c ****   hspi->RxXferSize  = Size;
 2607              		.loc 1 1536 21
 2608 00b4 FB68     		ldr	r3, [r7, #12]
 2609 00b6 7A88     		ldrh	r2, [r7, #2]	@ movhi
 2610 00b8 9A87     		strh	r2, [r3, #60]	@ movhi
1537:Drivers/STM32F4xx_HAL_Driver/Src/stm32f4xx_hal_spi.c ****   hspi->RxXferCount = Size;
 2611              		.loc 1 1537 21
 2612 00ba FB68     		ldr	r3, [r7, #12]
 2613 00bc 7A88     		ldrh	r2, [r7, #2]	@ movhi
 2614 00be DA87     		strh	r2, [r3, #62]	@ movhi
1538:Drivers/STM32F4xx_HAL_Driver/Src/stm32f4xx_hal_spi.c **** 
1539:Drivers/STM32F4xx_HAL_Driver/Src/stm32f4xx_hal_spi.c ****   /* Set the function for IT treatment */
1540:Drivers/STM32F4xx_HAL_Driver/Src/stm32f4xx_hal_spi.c ****   if (hspi->Init.DataSize > SPI_DATASIZE_8BIT)
 2615              		.loc 1 1540 17
 2616 00c0 FB68     		ldr	r3, [r7, #12]
 2617 00c2 DB68     		ldr	r3, [r3, #12]
 2618              		.loc 1 1540 6
 2619 00c4 002B     		cmp	r3, #0
 2620 00c6 06D0     		beq	.L149
ARM GAS  /tmp/cc9N7Buw.s 			page 74


1541:Drivers/STM32F4xx_HAL_Driver/Src/stm32f4xx_hal_spi.c ****   {
1542:Drivers/STM32F4xx_HAL_Driver/Src/stm32f4xx_hal_spi.c ****     hspi->RxISR     = SPI_2linesRxISR_16BIT;
 2621              		.loc 1 1542 21
 2622 00c8 FB68     		ldr	r3, [r7, #12]
 2623 00ca 184A     		ldr	r2, .L152+4
 2624 00cc 1A64     		str	r2, [r3, #64]
1543:Drivers/STM32F4xx_HAL_Driver/Src/stm32f4xx_hal_spi.c ****     hspi->TxISR     = SPI_2linesTxISR_16BIT;
 2625              		.loc 1 1543 21
 2626 00ce FB68     		ldr	r3, [r7, #12]
 2627 00d0 174A     		ldr	r2, .L152+8
 2628 00d2 5A64     		str	r2, [r3, #68]
 2629 00d4 05E0     		b	.L150
 2630              	.L149:
1544:Drivers/STM32F4xx_HAL_Driver/Src/stm32f4xx_hal_spi.c ****   }
1545:Drivers/STM32F4xx_HAL_Driver/Src/stm32f4xx_hal_spi.c ****   else
1546:Drivers/STM32F4xx_HAL_Driver/Src/stm32f4xx_hal_spi.c ****   {
1547:Drivers/STM32F4xx_HAL_Driver/Src/stm32f4xx_hal_spi.c ****     hspi->RxISR     = SPI_2linesRxISR_8BIT;
 2631              		.loc 1 1547 21
 2632 00d6 FB68     		ldr	r3, [r7, #12]
 2633 00d8 164A     		ldr	r2, .L152+12
 2634 00da 1A64     		str	r2, [r3, #64]
1548:Drivers/STM32F4xx_HAL_Driver/Src/stm32f4xx_hal_spi.c ****     hspi->TxISR     = SPI_2linesTxISR_8BIT;
 2635              		.loc 1 1548 21
 2636 00dc FB68     		ldr	r3, [r7, #12]
 2637 00de 164A     		ldr	r2, .L152+16
 2638 00e0 5A64     		str	r2, [r3, #68]
 2639              	.L150:
1549:Drivers/STM32F4xx_HAL_Driver/Src/stm32f4xx_hal_spi.c ****   }
1550:Drivers/STM32F4xx_HAL_Driver/Src/stm32f4xx_hal_spi.c **** 
1551:Drivers/STM32F4xx_HAL_Driver/Src/stm32f4xx_hal_spi.c **** #if (USE_SPI_CRC != 0U)
1552:Drivers/STM32F4xx_HAL_Driver/Src/stm32f4xx_hal_spi.c ****   /* Reset CRC Calculation */
1553:Drivers/STM32F4xx_HAL_Driver/Src/stm32f4xx_hal_spi.c ****   if (hspi->Init.CRCCalculation == SPI_CRCCALCULATION_ENABLE)
1554:Drivers/STM32F4xx_HAL_Driver/Src/stm32f4xx_hal_spi.c ****   {
1555:Drivers/STM32F4xx_HAL_Driver/Src/stm32f4xx_hal_spi.c ****     SPI_RESET_CRC(hspi);
1556:Drivers/STM32F4xx_HAL_Driver/Src/stm32f4xx_hal_spi.c ****   }
1557:Drivers/STM32F4xx_HAL_Driver/Src/stm32f4xx_hal_spi.c **** #endif /* USE_SPI_CRC */
1558:Drivers/STM32F4xx_HAL_Driver/Src/stm32f4xx_hal_spi.c **** 
1559:Drivers/STM32F4xx_HAL_Driver/Src/stm32f4xx_hal_spi.c ****   /* Enable TXE, RXNE and ERR interrupt */
1560:Drivers/STM32F4xx_HAL_Driver/Src/stm32f4xx_hal_spi.c ****   __HAL_SPI_ENABLE_IT(hspi, (SPI_IT_TXE | SPI_IT_RXNE | SPI_IT_ERR));
 2640              		.loc 1 1560 3
 2641 00e2 FB68     		ldr	r3, [r7, #12]
 2642 00e4 1B68     		ldr	r3, [r3]
 2643 00e6 5A68     		ldr	r2, [r3, #4]
 2644 00e8 FB68     		ldr	r3, [r7, #12]
 2645 00ea 1B68     		ldr	r3, [r3]
 2646 00ec 42F0E002 		orr	r2, r2, #224
 2647 00f0 5A60     		str	r2, [r3, #4]
1561:Drivers/STM32F4xx_HAL_Driver/Src/stm32f4xx_hal_spi.c **** 
1562:Drivers/STM32F4xx_HAL_Driver/Src/stm32f4xx_hal_spi.c ****   /* Check if the SPI is already enabled */
1563:Drivers/STM32F4xx_HAL_Driver/Src/stm32f4xx_hal_spi.c ****   if ((hspi->Instance->CR1 & SPI_CR1_SPE) != SPI_CR1_SPE)
 2648              		.loc 1 1563 12
 2649 00f2 FB68     		ldr	r3, [r7, #12]
 2650 00f4 1B68     		ldr	r3, [r3]
 2651              		.loc 1 1563 22
 2652 00f6 1B68     		ldr	r3, [r3]
 2653              		.loc 1 1563 28
 2654 00f8 03F04003 		and	r3, r3, #64
ARM GAS  /tmp/cc9N7Buw.s 			page 75


 2655              		.loc 1 1563 6
 2656 00fc 402B     		cmp	r3, #64
 2657 00fe 08D0     		beq	.L151
1564:Drivers/STM32F4xx_HAL_Driver/Src/stm32f4xx_hal_spi.c ****   {
1565:Drivers/STM32F4xx_HAL_Driver/Src/stm32f4xx_hal_spi.c ****     /* Enable SPI peripheral */
1566:Drivers/STM32F4xx_HAL_Driver/Src/stm32f4xx_hal_spi.c ****     __HAL_SPI_ENABLE(hspi);
 2658              		.loc 1 1566 5
 2659 0100 FB68     		ldr	r3, [r7, #12]
 2660 0102 1B68     		ldr	r3, [r3]
 2661 0104 1A68     		ldr	r2, [r3]
 2662 0106 FB68     		ldr	r3, [r7, #12]
 2663 0108 1B68     		ldr	r3, [r3]
 2664 010a 42F04002 		orr	r2, r2, #64
 2665 010e 1A60     		str	r2, [r3]
 2666 0110 00E0     		b	.L145
 2667              	.L151:
1567:Drivers/STM32F4xx_HAL_Driver/Src/stm32f4xx_hal_spi.c ****   }
1568:Drivers/STM32F4xx_HAL_Driver/Src/stm32f4xx_hal_spi.c **** 
1569:Drivers/STM32F4xx_HAL_Driver/Src/stm32f4xx_hal_spi.c **** error :
 2668              		.loc 1 1569 1
 2669 0112 00BF     		nop
 2670              	.L145:
1570:Drivers/STM32F4xx_HAL_Driver/Src/stm32f4xx_hal_spi.c ****   /* Process Unlocked */
1571:Drivers/STM32F4xx_HAL_Driver/Src/stm32f4xx_hal_spi.c ****   __HAL_UNLOCK(hspi);
 2671              		.loc 1 1571 3
 2672 0114 FB68     		ldr	r3, [r7, #12]
 2673 0116 0022     		movs	r2, #0
 2674 0118 83F85020 		strb	r2, [r3, #80]
1572:Drivers/STM32F4xx_HAL_Driver/Src/stm32f4xx_hal_spi.c ****   return errorcode;
 2675              		.loc 1 1572 10
 2676 011c FB7D     		ldrb	r3, [r7, #23]	@ zero_extendqisi2
 2677              	.L142:
1573:Drivers/STM32F4xx_HAL_Driver/Src/stm32f4xx_hal_spi.c **** }
 2678              		.loc 1 1573 1
 2679 011e 1846     		mov	r0, r3
 2680 0120 1837     		adds	r7, r7, #24
 2681              	.LCFI50:
 2682              		.cfi_def_cfa_offset 8
 2683 0122 BD46     		mov	sp, r7
 2684              	.LCFI51:
 2685              		.cfi_def_cfa_register 13
 2686              		@ sp needed
 2687 0124 80BD     		pop	{r7, pc}
 2688              	.L153:
 2689 0126 00BF     		.align	2
 2690              	.L152:
 2691 0128 00000000 		.word	.LC0
 2692 012c 00000000 		.word	SPI_2linesRxISR_16BIT
 2693 0130 00000000 		.word	SPI_2linesTxISR_16BIT
 2694 0134 00000000 		.word	SPI_2linesRxISR_8BIT
 2695 0138 00000000 		.word	SPI_2linesTxISR_8BIT
 2696              		.cfi_endproc
 2697              	.LFE139:
 2699              		.section	.text.HAL_SPI_Transmit_DMA,"ax",%progbits
 2700              		.align	1
 2701              		.global	HAL_SPI_Transmit_DMA
 2702              		.syntax unified
ARM GAS  /tmp/cc9N7Buw.s 			page 76


 2703              		.thumb
 2704              		.thumb_func
 2705              		.fpu fpv4-sp-d16
 2707              	HAL_SPI_Transmit_DMA:
 2708              	.LFB140:
1574:Drivers/STM32F4xx_HAL_Driver/Src/stm32f4xx_hal_spi.c **** 
1575:Drivers/STM32F4xx_HAL_Driver/Src/stm32f4xx_hal_spi.c **** /**
1576:Drivers/STM32F4xx_HAL_Driver/Src/stm32f4xx_hal_spi.c ****   * @brief  Transmit an amount of data in non-blocking mode with DMA.
1577:Drivers/STM32F4xx_HAL_Driver/Src/stm32f4xx_hal_spi.c ****   * @param  hspi pointer to a SPI_HandleTypeDef structure that contains
1578:Drivers/STM32F4xx_HAL_Driver/Src/stm32f4xx_hal_spi.c ****   *               the configuration information for SPI module.
1579:Drivers/STM32F4xx_HAL_Driver/Src/stm32f4xx_hal_spi.c ****   * @param  pData pointer to data buffer
1580:Drivers/STM32F4xx_HAL_Driver/Src/stm32f4xx_hal_spi.c ****   * @param  Size amount of data to be sent
1581:Drivers/STM32F4xx_HAL_Driver/Src/stm32f4xx_hal_spi.c ****   * @retval HAL status
1582:Drivers/STM32F4xx_HAL_Driver/Src/stm32f4xx_hal_spi.c ****   */
1583:Drivers/STM32F4xx_HAL_Driver/Src/stm32f4xx_hal_spi.c **** HAL_StatusTypeDef HAL_SPI_Transmit_DMA(SPI_HandleTypeDef *hspi, uint8_t *pData, uint16_t Size)
1584:Drivers/STM32F4xx_HAL_Driver/Src/stm32f4xx_hal_spi.c **** {
 2709              		.loc 1 1584 1
 2710              		.cfi_startproc
 2711              		@ args = 0, pretend = 0, frame = 24
 2712              		@ frame_needed = 1, uses_anonymous_args = 0
 2713 0000 80B5     		push	{r7, lr}
 2714              	.LCFI52:
 2715              		.cfi_def_cfa_offset 8
 2716              		.cfi_offset 7, -8
 2717              		.cfi_offset 14, -4
 2718 0002 86B0     		sub	sp, sp, #24
 2719              	.LCFI53:
 2720              		.cfi_def_cfa_offset 32
 2721 0004 00AF     		add	r7, sp, #0
 2722              	.LCFI54:
 2723              		.cfi_def_cfa_register 7
 2724 0006 F860     		str	r0, [r7, #12]
 2725 0008 B960     		str	r1, [r7, #8]
 2726 000a 1346     		mov	r3, r2
 2727 000c FB80     		strh	r3, [r7, #6]	@ movhi
1585:Drivers/STM32F4xx_HAL_Driver/Src/stm32f4xx_hal_spi.c ****   HAL_StatusTypeDef errorcode = HAL_OK;
 2728              		.loc 1 1585 21
 2729 000e 0023     		movs	r3, #0
 2730 0010 FB75     		strb	r3, [r7, #23]
1586:Drivers/STM32F4xx_HAL_Driver/Src/stm32f4xx_hal_spi.c **** 
1587:Drivers/STM32F4xx_HAL_Driver/Src/stm32f4xx_hal_spi.c ****   /* Check tx dma handle */
1588:Drivers/STM32F4xx_HAL_Driver/Src/stm32f4xx_hal_spi.c ****   assert_param(IS_SPI_DMA_HANDLE(hspi->hdmatx));
 2731              		.loc 1 1588 3
 2732 0012 FB68     		ldr	r3, [r7, #12]
 2733 0014 9B6C     		ldr	r3, [r3, #72]
 2734 0016 002B     		cmp	r3, #0
 2735 0018 04D1     		bne	.L155
 2736              		.loc 1 1588 3 is_stmt 0 discriminator 1
 2737 001a 40F23461 		movw	r1, #1588
 2738 001e 5848     		ldr	r0, .L166
 2739 0020 FFF7FEFF 		bl	assert_failed
 2740              	.L155:
1589:Drivers/STM32F4xx_HAL_Driver/Src/stm32f4xx_hal_spi.c **** 
1590:Drivers/STM32F4xx_HAL_Driver/Src/stm32f4xx_hal_spi.c ****   /* Check Direction parameter */
1591:Drivers/STM32F4xx_HAL_Driver/Src/stm32f4xx_hal_spi.c ****   assert_param(IS_SPI_DIRECTION_2LINES_OR_1LINE(hspi->Init.Direction));
 2741              		.loc 1 1591 3 is_stmt 1
 2742 0024 FB68     		ldr	r3, [r7, #12]
ARM GAS  /tmp/cc9N7Buw.s 			page 77


 2743 0026 9B68     		ldr	r3, [r3, #8]
 2744 0028 002B     		cmp	r3, #0
 2745 002a 09D0     		beq	.L156
 2746              		.loc 1 1591 3 is_stmt 0 discriminator 1
 2747 002c FB68     		ldr	r3, [r7, #12]
 2748 002e 9B68     		ldr	r3, [r3, #8]
 2749 0030 B3F5004F 		cmp	r3, #32768
 2750 0034 04D0     		beq	.L156
 2751              		.loc 1 1591 3 discriminator 2
 2752 0036 40F23761 		movw	r1, #1591
 2753 003a 5148     		ldr	r0, .L166
 2754 003c FFF7FEFF 		bl	assert_failed
 2755              	.L156:
1592:Drivers/STM32F4xx_HAL_Driver/Src/stm32f4xx_hal_spi.c **** 
1593:Drivers/STM32F4xx_HAL_Driver/Src/stm32f4xx_hal_spi.c ****   /* Process Locked */
1594:Drivers/STM32F4xx_HAL_Driver/Src/stm32f4xx_hal_spi.c ****   __HAL_LOCK(hspi);
 2756              		.loc 1 1594 3 is_stmt 1
 2757 0040 FB68     		ldr	r3, [r7, #12]
 2758 0042 93F85030 		ldrb	r3, [r3, #80]	@ zero_extendqisi2
 2759 0046 012B     		cmp	r3, #1
 2760 0048 01D1     		bne	.L157
 2761              		.loc 1 1594 3 is_stmt 0 discriminator 1
 2762 004a 0223     		movs	r3, #2
 2763 004c 93E0     		b	.L158
 2764              	.L157:
 2765              		.loc 1 1594 3 discriminator 2
 2766 004e FB68     		ldr	r3, [r7, #12]
 2767 0050 0122     		movs	r2, #1
 2768 0052 83F85020 		strb	r2, [r3, #80]
1595:Drivers/STM32F4xx_HAL_Driver/Src/stm32f4xx_hal_spi.c **** 
1596:Drivers/STM32F4xx_HAL_Driver/Src/stm32f4xx_hal_spi.c ****   if (hspi->State != HAL_SPI_STATE_READY)
 2769              		.loc 1 1596 11 is_stmt 1 discriminator 2
 2770 0056 FB68     		ldr	r3, [r7, #12]
 2771 0058 93F85130 		ldrb	r3, [r3, #81]
 2772 005c DBB2     		uxtb	r3, r3
 2773              		.loc 1 1596 6 discriminator 2
 2774 005e 012B     		cmp	r3, #1
 2775 0060 02D0     		beq	.L159
1597:Drivers/STM32F4xx_HAL_Driver/Src/stm32f4xx_hal_spi.c ****   {
1598:Drivers/STM32F4xx_HAL_Driver/Src/stm32f4xx_hal_spi.c ****     errorcode = HAL_BUSY;
 2776              		.loc 1 1598 15
 2777 0062 0223     		movs	r3, #2
 2778 0064 FB75     		strb	r3, [r7, #23]
1599:Drivers/STM32F4xx_HAL_Driver/Src/stm32f4xx_hal_spi.c ****     goto error;
 2779              		.loc 1 1599 5
 2780 0066 81E0     		b	.L160
 2781              	.L159:
1600:Drivers/STM32F4xx_HAL_Driver/Src/stm32f4xx_hal_spi.c ****   }
1601:Drivers/STM32F4xx_HAL_Driver/Src/stm32f4xx_hal_spi.c **** 
1602:Drivers/STM32F4xx_HAL_Driver/Src/stm32f4xx_hal_spi.c ****   if ((pData == NULL) || (Size == 0U))
 2782              		.loc 1 1602 6
 2783 0068 BB68     		ldr	r3, [r7, #8]
 2784 006a 002B     		cmp	r3, #0
 2785 006c 02D0     		beq	.L161
 2786              		.loc 1 1602 23 discriminator 1
 2787 006e FB88     		ldrh	r3, [r7, #6]
 2788 0070 002B     		cmp	r3, #0
ARM GAS  /tmp/cc9N7Buw.s 			page 78


 2789 0072 02D1     		bne	.L162
 2790              	.L161:
1603:Drivers/STM32F4xx_HAL_Driver/Src/stm32f4xx_hal_spi.c ****   {
1604:Drivers/STM32F4xx_HAL_Driver/Src/stm32f4xx_hal_spi.c ****     errorcode = HAL_ERROR;
 2791              		.loc 1 1604 15
 2792 0074 0123     		movs	r3, #1
 2793 0076 FB75     		strb	r3, [r7, #23]
1605:Drivers/STM32F4xx_HAL_Driver/Src/stm32f4xx_hal_spi.c ****     goto error;
 2794              		.loc 1 1605 5
 2795 0078 78E0     		b	.L160
 2796              	.L162:
1606:Drivers/STM32F4xx_HAL_Driver/Src/stm32f4xx_hal_spi.c ****   }
1607:Drivers/STM32F4xx_HAL_Driver/Src/stm32f4xx_hal_spi.c **** 
1608:Drivers/STM32F4xx_HAL_Driver/Src/stm32f4xx_hal_spi.c ****   /* Set the transaction information */
1609:Drivers/STM32F4xx_HAL_Driver/Src/stm32f4xx_hal_spi.c ****   hspi->State       = HAL_SPI_STATE_BUSY_TX;
 2797              		.loc 1 1609 21
 2798 007a FB68     		ldr	r3, [r7, #12]
 2799 007c 0322     		movs	r2, #3
 2800 007e 83F85120 		strb	r2, [r3, #81]
1610:Drivers/STM32F4xx_HAL_Driver/Src/stm32f4xx_hal_spi.c ****   hspi->ErrorCode   = HAL_SPI_ERROR_NONE;
 2801              		.loc 1 1610 21
 2802 0082 FB68     		ldr	r3, [r7, #12]
 2803 0084 0022     		movs	r2, #0
 2804 0086 5A65     		str	r2, [r3, #84]
1611:Drivers/STM32F4xx_HAL_Driver/Src/stm32f4xx_hal_spi.c ****   hspi->pTxBuffPtr  = (uint8_t *)pData;
 2805              		.loc 1 1611 21
 2806 0088 FB68     		ldr	r3, [r7, #12]
 2807 008a BA68     		ldr	r2, [r7, #8]
 2808 008c 1A63     		str	r2, [r3, #48]
1612:Drivers/STM32F4xx_HAL_Driver/Src/stm32f4xx_hal_spi.c ****   hspi->TxXferSize  = Size;
 2809              		.loc 1 1612 21
 2810 008e FB68     		ldr	r3, [r7, #12]
 2811 0090 FA88     		ldrh	r2, [r7, #6]	@ movhi
 2812 0092 9A86     		strh	r2, [r3, #52]	@ movhi
1613:Drivers/STM32F4xx_HAL_Driver/Src/stm32f4xx_hal_spi.c ****   hspi->TxXferCount = Size;
 2813              		.loc 1 1613 21
 2814 0094 FB68     		ldr	r3, [r7, #12]
 2815 0096 FA88     		ldrh	r2, [r7, #6]	@ movhi
 2816 0098 DA86     		strh	r2, [r3, #54]	@ movhi
1614:Drivers/STM32F4xx_HAL_Driver/Src/stm32f4xx_hal_spi.c **** 
1615:Drivers/STM32F4xx_HAL_Driver/Src/stm32f4xx_hal_spi.c ****   /* Init field not used in handle to zero */
1616:Drivers/STM32F4xx_HAL_Driver/Src/stm32f4xx_hal_spi.c ****   hspi->pRxBuffPtr  = (uint8_t *)NULL;
 2817              		.loc 1 1616 21
 2818 009a FB68     		ldr	r3, [r7, #12]
 2819 009c 0022     		movs	r2, #0
 2820 009e 9A63     		str	r2, [r3, #56]
1617:Drivers/STM32F4xx_HAL_Driver/Src/stm32f4xx_hal_spi.c ****   hspi->TxISR       = NULL;
 2821              		.loc 1 1617 21
 2822 00a0 FB68     		ldr	r3, [r7, #12]
 2823 00a2 0022     		movs	r2, #0
 2824 00a4 5A64     		str	r2, [r3, #68]
1618:Drivers/STM32F4xx_HAL_Driver/Src/stm32f4xx_hal_spi.c ****   hspi->RxISR       = NULL;
 2825              		.loc 1 1618 21
 2826 00a6 FB68     		ldr	r3, [r7, #12]
 2827 00a8 0022     		movs	r2, #0
 2828 00aa 1A64     		str	r2, [r3, #64]
1619:Drivers/STM32F4xx_HAL_Driver/Src/stm32f4xx_hal_spi.c ****   hspi->RxXferSize  = 0U;
ARM GAS  /tmp/cc9N7Buw.s 			page 79


 2829              		.loc 1 1619 21
 2830 00ac FB68     		ldr	r3, [r7, #12]
 2831 00ae 0022     		movs	r2, #0
 2832 00b0 9A87     		strh	r2, [r3, #60]	@ movhi
1620:Drivers/STM32F4xx_HAL_Driver/Src/stm32f4xx_hal_spi.c ****   hspi->RxXferCount = 0U;
 2833              		.loc 1 1620 21
 2834 00b2 FB68     		ldr	r3, [r7, #12]
 2835 00b4 0022     		movs	r2, #0
 2836 00b6 DA87     		strh	r2, [r3, #62]	@ movhi
1621:Drivers/STM32F4xx_HAL_Driver/Src/stm32f4xx_hal_spi.c **** 
1622:Drivers/STM32F4xx_HAL_Driver/Src/stm32f4xx_hal_spi.c ****   /* Configure communication direction : 1Line */
1623:Drivers/STM32F4xx_HAL_Driver/Src/stm32f4xx_hal_spi.c ****   if (hspi->Init.Direction == SPI_DIRECTION_1LINE)
 2837              		.loc 1 1623 17
 2838 00b8 FB68     		ldr	r3, [r7, #12]
 2839 00ba 9B68     		ldr	r3, [r3, #8]
 2840              		.loc 1 1623 6
 2841 00bc B3F5004F 		cmp	r3, #32768
 2842 00c0 07D1     		bne	.L163
1624:Drivers/STM32F4xx_HAL_Driver/Src/stm32f4xx_hal_spi.c ****   {
1625:Drivers/STM32F4xx_HAL_Driver/Src/stm32f4xx_hal_spi.c ****     SPI_1LINE_TX(hspi);
 2843              		.loc 1 1625 5
 2844 00c2 FB68     		ldr	r3, [r7, #12]
 2845 00c4 1B68     		ldr	r3, [r3]
 2846 00c6 1A68     		ldr	r2, [r3]
 2847 00c8 FB68     		ldr	r3, [r7, #12]
 2848 00ca 1B68     		ldr	r3, [r3]
 2849 00cc 42F48042 		orr	r2, r2, #16384
 2850 00d0 1A60     		str	r2, [r3]
 2851              	.L163:
1626:Drivers/STM32F4xx_HAL_Driver/Src/stm32f4xx_hal_spi.c ****   }
1627:Drivers/STM32F4xx_HAL_Driver/Src/stm32f4xx_hal_spi.c **** 
1628:Drivers/STM32F4xx_HAL_Driver/Src/stm32f4xx_hal_spi.c **** #if (USE_SPI_CRC != 0U)
1629:Drivers/STM32F4xx_HAL_Driver/Src/stm32f4xx_hal_spi.c ****   /* Reset CRC Calculation */
1630:Drivers/STM32F4xx_HAL_Driver/Src/stm32f4xx_hal_spi.c ****   if (hspi->Init.CRCCalculation == SPI_CRCCALCULATION_ENABLE)
1631:Drivers/STM32F4xx_HAL_Driver/Src/stm32f4xx_hal_spi.c ****   {
1632:Drivers/STM32F4xx_HAL_Driver/Src/stm32f4xx_hal_spi.c ****     SPI_RESET_CRC(hspi);
1633:Drivers/STM32F4xx_HAL_Driver/Src/stm32f4xx_hal_spi.c ****   }
1634:Drivers/STM32F4xx_HAL_Driver/Src/stm32f4xx_hal_spi.c **** #endif /* USE_SPI_CRC */
1635:Drivers/STM32F4xx_HAL_Driver/Src/stm32f4xx_hal_spi.c **** 
1636:Drivers/STM32F4xx_HAL_Driver/Src/stm32f4xx_hal_spi.c ****   /* Set the SPI TxDMA Half transfer complete callback */
1637:Drivers/STM32F4xx_HAL_Driver/Src/stm32f4xx_hal_spi.c ****   hspi->hdmatx->XferHalfCpltCallback = SPI_DMAHalfTransmitCplt;
 2852              		.loc 1 1637 7
 2853 00d2 FB68     		ldr	r3, [r7, #12]
 2854 00d4 9B6C     		ldr	r3, [r3, #72]
 2855              		.loc 1 1637 38
 2856 00d6 2B4A     		ldr	r2, .L166+4
 2857 00d8 1A64     		str	r2, [r3, #64]
1638:Drivers/STM32F4xx_HAL_Driver/Src/stm32f4xx_hal_spi.c **** 
1639:Drivers/STM32F4xx_HAL_Driver/Src/stm32f4xx_hal_spi.c ****   /* Set the SPI TxDMA transfer complete callback */
1640:Drivers/STM32F4xx_HAL_Driver/Src/stm32f4xx_hal_spi.c ****   hspi->hdmatx->XferCpltCallback = SPI_DMATransmitCplt;
 2858              		.loc 1 1640 7
 2859 00da FB68     		ldr	r3, [r7, #12]
 2860 00dc 9B6C     		ldr	r3, [r3, #72]
 2861              		.loc 1 1640 34
 2862 00de 2A4A     		ldr	r2, .L166+8
 2863 00e0 DA63     		str	r2, [r3, #60]
1641:Drivers/STM32F4xx_HAL_Driver/Src/stm32f4xx_hal_spi.c **** 
ARM GAS  /tmp/cc9N7Buw.s 			page 80


1642:Drivers/STM32F4xx_HAL_Driver/Src/stm32f4xx_hal_spi.c ****   /* Set the DMA error callback */
1643:Drivers/STM32F4xx_HAL_Driver/Src/stm32f4xx_hal_spi.c ****   hspi->hdmatx->XferErrorCallback = SPI_DMAError;
 2864              		.loc 1 1643 7
 2865 00e2 FB68     		ldr	r3, [r7, #12]
 2866 00e4 9B6C     		ldr	r3, [r3, #72]
 2867              		.loc 1 1643 35
 2868 00e6 294A     		ldr	r2, .L166+12
 2869 00e8 DA64     		str	r2, [r3, #76]
1644:Drivers/STM32F4xx_HAL_Driver/Src/stm32f4xx_hal_spi.c **** 
1645:Drivers/STM32F4xx_HAL_Driver/Src/stm32f4xx_hal_spi.c ****   /* Set the DMA AbortCpltCallback */
1646:Drivers/STM32F4xx_HAL_Driver/Src/stm32f4xx_hal_spi.c ****   hspi->hdmatx->XferAbortCallback = NULL;
 2870              		.loc 1 1646 7
 2871 00ea FB68     		ldr	r3, [r7, #12]
 2872 00ec 9B6C     		ldr	r3, [r3, #72]
 2873              		.loc 1 1646 35
 2874 00ee 0022     		movs	r2, #0
 2875 00f0 1A65     		str	r2, [r3, #80]
1647:Drivers/STM32F4xx_HAL_Driver/Src/stm32f4xx_hal_spi.c **** 
1648:Drivers/STM32F4xx_HAL_Driver/Src/stm32f4xx_hal_spi.c ****   /* Enable the Tx DMA Stream/Channel */
1649:Drivers/STM32F4xx_HAL_Driver/Src/stm32f4xx_hal_spi.c ****   if (HAL_OK != HAL_DMA_Start_IT(hspi->hdmatx, (uint32_t)hspi->pTxBuffPtr, (uint32_t)&hspi->Instanc
 2876              		.loc 1 1649 17
 2877 00f2 FB68     		ldr	r3, [r7, #12]
 2878 00f4 986C     		ldr	r0, [r3, #72]
 2879              		.loc 1 1649 62
 2880 00f6 FB68     		ldr	r3, [r7, #12]
 2881 00f8 1B6B     		ldr	r3, [r3, #48]
 2882              		.loc 1 1649 17
 2883 00fa 1946     		mov	r1, r3
 2884              		.loc 1 1649 91
 2885 00fc FB68     		ldr	r3, [r7, #12]
 2886 00fe 1B68     		ldr	r3, [r3]
 2887              		.loc 1 1649 86
 2888 0100 0C33     		adds	r3, r3, #12
 2889              		.loc 1 1649 17
 2890 0102 1A46     		mov	r2, r3
1650:Drivers/STM32F4xx_HAL_Driver/Src/stm32f4xx_hal_spi.c ****                                  hspi->TxXferCount))
 2891              		.loc 1 1650 38
 2892 0104 FB68     		ldr	r3, [r7, #12]
 2893 0106 DB8E     		ldrh	r3, [r3, #54]	@ movhi
 2894 0108 9BB2     		uxth	r3, r3
1649:Drivers/STM32F4xx_HAL_Driver/Src/stm32f4xx_hal_spi.c ****                                  hspi->TxXferCount))
 2895              		.loc 1 1649 17
 2896 010a FFF7FEFF 		bl	HAL_DMA_Start_IT
 2897 010e 0346     		mov	r3, r0
1649:Drivers/STM32F4xx_HAL_Driver/Src/stm32f4xx_hal_spi.c ****                                  hspi->TxXferCount))
 2898              		.loc 1 1649 6
 2899 0110 002B     		cmp	r3, #0
 2900 0112 0CD0     		beq	.L164
1651:Drivers/STM32F4xx_HAL_Driver/Src/stm32f4xx_hal_spi.c ****   {
1652:Drivers/STM32F4xx_HAL_Driver/Src/stm32f4xx_hal_spi.c ****     /* Update SPI error code */
1653:Drivers/STM32F4xx_HAL_Driver/Src/stm32f4xx_hal_spi.c ****     SET_BIT(hspi->ErrorCode, HAL_SPI_ERROR_DMA);
 2901              		.loc 1 1653 5
 2902 0114 FB68     		ldr	r3, [r7, #12]
 2903 0116 5B6D     		ldr	r3, [r3, #84]
 2904 0118 43F01002 		orr	r2, r3, #16
 2905 011c FB68     		ldr	r3, [r7, #12]
 2906 011e 5A65     		str	r2, [r3, #84]
ARM GAS  /tmp/cc9N7Buw.s 			page 81


1654:Drivers/STM32F4xx_HAL_Driver/Src/stm32f4xx_hal_spi.c ****     errorcode = HAL_ERROR;
 2907              		.loc 1 1654 15
 2908 0120 0123     		movs	r3, #1
 2909 0122 FB75     		strb	r3, [r7, #23]
1655:Drivers/STM32F4xx_HAL_Driver/Src/stm32f4xx_hal_spi.c **** 
1656:Drivers/STM32F4xx_HAL_Driver/Src/stm32f4xx_hal_spi.c ****     hspi->State = HAL_SPI_STATE_READY;
 2910              		.loc 1 1656 17
 2911 0124 FB68     		ldr	r3, [r7, #12]
 2912 0126 0122     		movs	r2, #1
 2913 0128 83F85120 		strb	r2, [r3, #81]
1657:Drivers/STM32F4xx_HAL_Driver/Src/stm32f4xx_hal_spi.c ****     goto error;
 2914              		.loc 1 1657 5
 2915 012c 1EE0     		b	.L160
 2916              	.L164:
1658:Drivers/STM32F4xx_HAL_Driver/Src/stm32f4xx_hal_spi.c ****   }
1659:Drivers/STM32F4xx_HAL_Driver/Src/stm32f4xx_hal_spi.c **** 
1660:Drivers/STM32F4xx_HAL_Driver/Src/stm32f4xx_hal_spi.c ****   /* Check if the SPI is already enabled */
1661:Drivers/STM32F4xx_HAL_Driver/Src/stm32f4xx_hal_spi.c ****   if ((hspi->Instance->CR1 & SPI_CR1_SPE) != SPI_CR1_SPE)
 2917              		.loc 1 1661 12
 2918 012e FB68     		ldr	r3, [r7, #12]
 2919 0130 1B68     		ldr	r3, [r3]
 2920              		.loc 1 1661 22
 2921 0132 1B68     		ldr	r3, [r3]
 2922              		.loc 1 1661 28
 2923 0134 03F04003 		and	r3, r3, #64
 2924              		.loc 1 1661 6
 2925 0138 402B     		cmp	r3, #64
 2926 013a 07D0     		beq	.L165
1662:Drivers/STM32F4xx_HAL_Driver/Src/stm32f4xx_hal_spi.c ****   {
1663:Drivers/STM32F4xx_HAL_Driver/Src/stm32f4xx_hal_spi.c ****     /* Enable SPI peripheral */
1664:Drivers/STM32F4xx_HAL_Driver/Src/stm32f4xx_hal_spi.c ****     __HAL_SPI_ENABLE(hspi);
 2927              		.loc 1 1664 5
 2928 013c FB68     		ldr	r3, [r7, #12]
 2929 013e 1B68     		ldr	r3, [r3]
 2930 0140 1A68     		ldr	r2, [r3]
 2931 0142 FB68     		ldr	r3, [r7, #12]
 2932 0144 1B68     		ldr	r3, [r3]
 2933 0146 42F04002 		orr	r2, r2, #64
 2934 014a 1A60     		str	r2, [r3]
 2935              	.L165:
1665:Drivers/STM32F4xx_HAL_Driver/Src/stm32f4xx_hal_spi.c ****   }
1666:Drivers/STM32F4xx_HAL_Driver/Src/stm32f4xx_hal_spi.c **** 
1667:Drivers/STM32F4xx_HAL_Driver/Src/stm32f4xx_hal_spi.c ****   /* Enable the SPI Error Interrupt Bit */
1668:Drivers/STM32F4xx_HAL_Driver/Src/stm32f4xx_hal_spi.c ****   __HAL_SPI_ENABLE_IT(hspi, (SPI_IT_ERR));
 2936              		.loc 1 1668 3
 2937 014c FB68     		ldr	r3, [r7, #12]
 2938 014e 1B68     		ldr	r3, [r3]
 2939 0150 5A68     		ldr	r2, [r3, #4]
 2940 0152 FB68     		ldr	r3, [r7, #12]
 2941 0154 1B68     		ldr	r3, [r3]
 2942 0156 42F02002 		orr	r2, r2, #32
 2943 015a 5A60     		str	r2, [r3, #4]
1669:Drivers/STM32F4xx_HAL_Driver/Src/stm32f4xx_hal_spi.c **** 
1670:Drivers/STM32F4xx_HAL_Driver/Src/stm32f4xx_hal_spi.c ****   /* Enable Tx DMA Request */
1671:Drivers/STM32F4xx_HAL_Driver/Src/stm32f4xx_hal_spi.c ****   SET_BIT(hspi->Instance->CR2, SPI_CR2_TXDMAEN);
 2944              		.loc 1 1671 3
 2945 015c FB68     		ldr	r3, [r7, #12]
ARM GAS  /tmp/cc9N7Buw.s 			page 82


 2946 015e 1B68     		ldr	r3, [r3]
 2947 0160 5A68     		ldr	r2, [r3, #4]
 2948 0162 FB68     		ldr	r3, [r7, #12]
 2949 0164 1B68     		ldr	r3, [r3]
 2950 0166 42F00202 		orr	r2, r2, #2
 2951 016a 5A60     		str	r2, [r3, #4]
 2952              	.L160:
1672:Drivers/STM32F4xx_HAL_Driver/Src/stm32f4xx_hal_spi.c **** 
1673:Drivers/STM32F4xx_HAL_Driver/Src/stm32f4xx_hal_spi.c **** error :
1674:Drivers/STM32F4xx_HAL_Driver/Src/stm32f4xx_hal_spi.c ****   /* Process Unlocked */
1675:Drivers/STM32F4xx_HAL_Driver/Src/stm32f4xx_hal_spi.c ****   __HAL_UNLOCK(hspi);
 2953              		.loc 1 1675 3
 2954 016c FB68     		ldr	r3, [r7, #12]
 2955 016e 0022     		movs	r2, #0
 2956 0170 83F85020 		strb	r2, [r3, #80]
1676:Drivers/STM32F4xx_HAL_Driver/Src/stm32f4xx_hal_spi.c ****   return errorcode;
 2957              		.loc 1 1676 10
 2958 0174 FB7D     		ldrb	r3, [r7, #23]	@ zero_extendqisi2
 2959              	.L158:
1677:Drivers/STM32F4xx_HAL_Driver/Src/stm32f4xx_hal_spi.c **** }
 2960              		.loc 1 1677 1
 2961 0176 1846     		mov	r0, r3
 2962 0178 1837     		adds	r7, r7, #24
 2963              	.LCFI55:
 2964              		.cfi_def_cfa_offset 8
 2965 017a BD46     		mov	sp, r7
 2966              	.LCFI56:
 2967              		.cfi_def_cfa_register 13
 2968              		@ sp needed
 2969 017c 80BD     		pop	{r7, pc}
 2970              	.L167:
 2971 017e 00BF     		.align	2
 2972              	.L166:
 2973 0180 00000000 		.word	.LC0
 2974 0184 00000000 		.word	SPI_DMAHalfTransmitCplt
 2975 0188 00000000 		.word	SPI_DMATransmitCplt
 2976 018c 00000000 		.word	SPI_DMAError
 2977              		.cfi_endproc
 2978              	.LFE140:
 2980              		.section	.text.HAL_SPI_Receive_DMA,"ax",%progbits
 2981              		.align	1
 2982              		.global	HAL_SPI_Receive_DMA
 2983              		.syntax unified
 2984              		.thumb
 2985              		.thumb_func
 2986              		.fpu fpv4-sp-d16
 2988              	HAL_SPI_Receive_DMA:
 2989              	.LFB141:
1678:Drivers/STM32F4xx_HAL_Driver/Src/stm32f4xx_hal_spi.c **** 
1679:Drivers/STM32F4xx_HAL_Driver/Src/stm32f4xx_hal_spi.c **** /**
1680:Drivers/STM32F4xx_HAL_Driver/Src/stm32f4xx_hal_spi.c ****   * @brief  Receive an amount of data in non-blocking mode with DMA.
1681:Drivers/STM32F4xx_HAL_Driver/Src/stm32f4xx_hal_spi.c ****   * @note   In case of MASTER mode and SPI_DIRECTION_2LINES direction, hdmatx shall be defined.
1682:Drivers/STM32F4xx_HAL_Driver/Src/stm32f4xx_hal_spi.c ****   * @param  hspi pointer to a SPI_HandleTypeDef structure that contains
1683:Drivers/STM32F4xx_HAL_Driver/Src/stm32f4xx_hal_spi.c ****   *               the configuration information for SPI module.
1684:Drivers/STM32F4xx_HAL_Driver/Src/stm32f4xx_hal_spi.c ****   * @param  pData pointer to data buffer
1685:Drivers/STM32F4xx_HAL_Driver/Src/stm32f4xx_hal_spi.c ****   * @note   When the CRC feature is enabled the pData Length must be Size + 1.
1686:Drivers/STM32F4xx_HAL_Driver/Src/stm32f4xx_hal_spi.c ****   * @param  Size amount of data to be sent
ARM GAS  /tmp/cc9N7Buw.s 			page 83


1687:Drivers/STM32F4xx_HAL_Driver/Src/stm32f4xx_hal_spi.c ****   * @retval HAL status
1688:Drivers/STM32F4xx_HAL_Driver/Src/stm32f4xx_hal_spi.c ****   */
1689:Drivers/STM32F4xx_HAL_Driver/Src/stm32f4xx_hal_spi.c **** HAL_StatusTypeDef HAL_SPI_Receive_DMA(SPI_HandleTypeDef *hspi, uint8_t *pData, uint16_t Size)
1690:Drivers/STM32F4xx_HAL_Driver/Src/stm32f4xx_hal_spi.c **** {
 2990              		.loc 1 1690 1
 2991              		.cfi_startproc
 2992              		@ args = 0, pretend = 0, frame = 24
 2993              		@ frame_needed = 1, uses_anonymous_args = 0
 2994 0000 80B5     		push	{r7, lr}
 2995              	.LCFI57:
 2996              		.cfi_def_cfa_offset 8
 2997              		.cfi_offset 7, -8
 2998              		.cfi_offset 14, -4
 2999 0002 86B0     		sub	sp, sp, #24
 3000              	.LCFI58:
 3001              		.cfi_def_cfa_offset 32
 3002 0004 00AF     		add	r7, sp, #0
 3003              	.LCFI59:
 3004              		.cfi_def_cfa_register 7
 3005 0006 F860     		str	r0, [r7, #12]
 3006 0008 B960     		str	r1, [r7, #8]
 3007 000a 1346     		mov	r3, r2
 3008 000c FB80     		strh	r3, [r7, #6]	@ movhi
1691:Drivers/STM32F4xx_HAL_Driver/Src/stm32f4xx_hal_spi.c ****   HAL_StatusTypeDef errorcode = HAL_OK;
 3009              		.loc 1 1691 21
 3010 000e 0023     		movs	r3, #0
 3011 0010 FB75     		strb	r3, [r7, #23]
1692:Drivers/STM32F4xx_HAL_Driver/Src/stm32f4xx_hal_spi.c **** 
1693:Drivers/STM32F4xx_HAL_Driver/Src/stm32f4xx_hal_spi.c ****   /* Check rx dma handle */
1694:Drivers/STM32F4xx_HAL_Driver/Src/stm32f4xx_hal_spi.c ****   assert_param(IS_SPI_DMA_HANDLE(hspi->hdmarx));
 3012              		.loc 1 1694 3
 3013 0012 FB68     		ldr	r3, [r7, #12]
 3014 0014 DB6C     		ldr	r3, [r3, #76]
 3015 0016 002B     		cmp	r3, #0
 3016 0018 04D1     		bne	.L169
 3017              		.loc 1 1694 3 is_stmt 0 discriminator 1
 3018 001a 40F29E61 		movw	r1, #1694
 3019 001e 5E48     		ldr	r0, .L181
 3020 0020 FFF7FEFF 		bl	assert_failed
 3021              	.L169:
1695:Drivers/STM32F4xx_HAL_Driver/Src/stm32f4xx_hal_spi.c **** 
1696:Drivers/STM32F4xx_HAL_Driver/Src/stm32f4xx_hal_spi.c ****   if ((hspi->Init.Direction == SPI_DIRECTION_2LINES) && (hspi->Init.Mode == SPI_MODE_MASTER))
 3022              		.loc 1 1696 18 is_stmt 1
 3023 0024 FB68     		ldr	r3, [r7, #12]
 3024 0026 9B68     		ldr	r3, [r3, #8]
 3025              		.loc 1 1696 6
 3026 0028 002B     		cmp	r3, #0
 3027 002a 19D1     		bne	.L170
 3028              		.loc 1 1696 68 discriminator 1
 3029 002c FB68     		ldr	r3, [r7, #12]
 3030 002e 5B68     		ldr	r3, [r3, #4]
 3031              		.loc 1 1696 54 discriminator 1
 3032 0030 B3F5827F 		cmp	r3, #260
 3033 0034 14D1     		bne	.L170
1697:Drivers/STM32F4xx_HAL_Driver/Src/stm32f4xx_hal_spi.c ****   {
1698:Drivers/STM32F4xx_HAL_Driver/Src/stm32f4xx_hal_spi.c ****     hspi->State = HAL_SPI_STATE_BUSY_RX;
 3034              		.loc 1 1698 17
ARM GAS  /tmp/cc9N7Buw.s 			page 84


 3035 0036 FB68     		ldr	r3, [r7, #12]
 3036 0038 0422     		movs	r2, #4
 3037 003a 83F85120 		strb	r2, [r3, #81]
1699:Drivers/STM32F4xx_HAL_Driver/Src/stm32f4xx_hal_spi.c **** 
1700:Drivers/STM32F4xx_HAL_Driver/Src/stm32f4xx_hal_spi.c ****     /* Check tx dma handle */
1701:Drivers/STM32F4xx_HAL_Driver/Src/stm32f4xx_hal_spi.c ****     assert_param(IS_SPI_DMA_HANDLE(hspi->hdmatx));
 3038              		.loc 1 1701 5
 3039 003e FB68     		ldr	r3, [r7, #12]
 3040 0040 9B6C     		ldr	r3, [r3, #72]
 3041 0042 002B     		cmp	r3, #0
 3042 0044 04D1     		bne	.L171
 3043              		.loc 1 1701 5 is_stmt 0 discriminator 1
 3044 0046 40F2A561 		movw	r1, #1701
 3045 004a 5348     		ldr	r0, .L181
 3046 004c FFF7FEFF 		bl	assert_failed
 3047              	.L171:
1702:Drivers/STM32F4xx_HAL_Driver/Src/stm32f4xx_hal_spi.c **** 
1703:Drivers/STM32F4xx_HAL_Driver/Src/stm32f4xx_hal_spi.c ****     /* Call transmit-receive function to send Dummy data on Tx line and generate clock on CLK line 
1704:Drivers/STM32F4xx_HAL_Driver/Src/stm32f4xx_hal_spi.c ****     return HAL_SPI_TransmitReceive_DMA(hspi, pData, pData, Size);
 3048              		.loc 1 1704 12 is_stmt 1
 3049 0050 FB88     		ldrh	r3, [r7, #6]
 3050 0052 BA68     		ldr	r2, [r7, #8]
 3051 0054 B968     		ldr	r1, [r7, #8]
 3052 0056 F868     		ldr	r0, [r7, #12]
 3053 0058 FFF7FEFF 		bl	HAL_SPI_TransmitReceive_DMA
 3054 005c 0346     		mov	r3, r0
 3055 005e 97E0     		b	.L172
 3056              	.L170:
1705:Drivers/STM32F4xx_HAL_Driver/Src/stm32f4xx_hal_spi.c ****   }
1706:Drivers/STM32F4xx_HAL_Driver/Src/stm32f4xx_hal_spi.c **** 
1707:Drivers/STM32F4xx_HAL_Driver/Src/stm32f4xx_hal_spi.c ****   /* Process Locked */
1708:Drivers/STM32F4xx_HAL_Driver/Src/stm32f4xx_hal_spi.c ****   __HAL_LOCK(hspi);
 3057              		.loc 1 1708 3
 3058 0060 FB68     		ldr	r3, [r7, #12]
 3059 0062 93F85030 		ldrb	r3, [r3, #80]	@ zero_extendqisi2
 3060 0066 012B     		cmp	r3, #1
 3061 0068 01D1     		bne	.L173
 3062              		.loc 1 1708 3 is_stmt 0 discriminator 1
 3063 006a 0223     		movs	r3, #2
 3064 006c 90E0     		b	.L172
 3065              	.L173:
 3066              		.loc 1 1708 3 discriminator 2
 3067 006e FB68     		ldr	r3, [r7, #12]
 3068 0070 0122     		movs	r2, #1
 3069 0072 83F85020 		strb	r2, [r3, #80]
1709:Drivers/STM32F4xx_HAL_Driver/Src/stm32f4xx_hal_spi.c **** 
1710:Drivers/STM32F4xx_HAL_Driver/Src/stm32f4xx_hal_spi.c ****   if (hspi->State != HAL_SPI_STATE_READY)
 3070              		.loc 1 1710 11 is_stmt 1 discriminator 2
 3071 0076 FB68     		ldr	r3, [r7, #12]
 3072 0078 93F85130 		ldrb	r3, [r3, #81]
 3073 007c DBB2     		uxtb	r3, r3
 3074              		.loc 1 1710 6 discriminator 2
 3075 007e 012B     		cmp	r3, #1
 3076 0080 02D0     		beq	.L174
1711:Drivers/STM32F4xx_HAL_Driver/Src/stm32f4xx_hal_spi.c ****   {
1712:Drivers/STM32F4xx_HAL_Driver/Src/stm32f4xx_hal_spi.c ****     errorcode = HAL_BUSY;
 3077              		.loc 1 1712 15
ARM GAS  /tmp/cc9N7Buw.s 			page 85


 3078 0082 0223     		movs	r3, #2
 3079 0084 FB75     		strb	r3, [r7, #23]
1713:Drivers/STM32F4xx_HAL_Driver/Src/stm32f4xx_hal_spi.c ****     goto error;
 3080              		.loc 1 1713 5
 3081 0086 7EE0     		b	.L175
 3082              	.L174:
1714:Drivers/STM32F4xx_HAL_Driver/Src/stm32f4xx_hal_spi.c ****   }
1715:Drivers/STM32F4xx_HAL_Driver/Src/stm32f4xx_hal_spi.c **** 
1716:Drivers/STM32F4xx_HAL_Driver/Src/stm32f4xx_hal_spi.c ****   if ((pData == NULL) || (Size == 0U))
 3083              		.loc 1 1716 6
 3084 0088 BB68     		ldr	r3, [r7, #8]
 3085 008a 002B     		cmp	r3, #0
 3086 008c 02D0     		beq	.L176
 3087              		.loc 1 1716 23 discriminator 1
 3088 008e FB88     		ldrh	r3, [r7, #6]
 3089 0090 002B     		cmp	r3, #0
 3090 0092 02D1     		bne	.L177
 3091              	.L176:
1717:Drivers/STM32F4xx_HAL_Driver/Src/stm32f4xx_hal_spi.c ****   {
1718:Drivers/STM32F4xx_HAL_Driver/Src/stm32f4xx_hal_spi.c ****     errorcode = HAL_ERROR;
 3092              		.loc 1 1718 15
 3093 0094 0123     		movs	r3, #1
 3094 0096 FB75     		strb	r3, [r7, #23]
1719:Drivers/STM32F4xx_HAL_Driver/Src/stm32f4xx_hal_spi.c ****     goto error;
 3095              		.loc 1 1719 5
 3096 0098 75E0     		b	.L175
 3097              	.L177:
1720:Drivers/STM32F4xx_HAL_Driver/Src/stm32f4xx_hal_spi.c ****   }
1721:Drivers/STM32F4xx_HAL_Driver/Src/stm32f4xx_hal_spi.c **** 
1722:Drivers/STM32F4xx_HAL_Driver/Src/stm32f4xx_hal_spi.c ****   /* Set the transaction information */
1723:Drivers/STM32F4xx_HAL_Driver/Src/stm32f4xx_hal_spi.c ****   hspi->State       = HAL_SPI_STATE_BUSY_RX;
 3098              		.loc 1 1723 21
 3099 009a FB68     		ldr	r3, [r7, #12]
 3100 009c 0422     		movs	r2, #4
 3101 009e 83F85120 		strb	r2, [r3, #81]
1724:Drivers/STM32F4xx_HAL_Driver/Src/stm32f4xx_hal_spi.c ****   hspi->ErrorCode   = HAL_SPI_ERROR_NONE;
 3102              		.loc 1 1724 21
 3103 00a2 FB68     		ldr	r3, [r7, #12]
 3104 00a4 0022     		movs	r2, #0
 3105 00a6 5A65     		str	r2, [r3, #84]
1725:Drivers/STM32F4xx_HAL_Driver/Src/stm32f4xx_hal_spi.c ****   hspi->pRxBuffPtr  = (uint8_t *)pData;
 3106              		.loc 1 1725 21
 3107 00a8 FB68     		ldr	r3, [r7, #12]
 3108 00aa BA68     		ldr	r2, [r7, #8]
 3109 00ac 9A63     		str	r2, [r3, #56]
1726:Drivers/STM32F4xx_HAL_Driver/Src/stm32f4xx_hal_spi.c ****   hspi->RxXferSize  = Size;
 3110              		.loc 1 1726 21
 3111 00ae FB68     		ldr	r3, [r7, #12]
 3112 00b0 FA88     		ldrh	r2, [r7, #6]	@ movhi
 3113 00b2 9A87     		strh	r2, [r3, #60]	@ movhi
1727:Drivers/STM32F4xx_HAL_Driver/Src/stm32f4xx_hal_spi.c ****   hspi->RxXferCount = Size;
 3114              		.loc 1 1727 21
 3115 00b4 FB68     		ldr	r3, [r7, #12]
 3116 00b6 FA88     		ldrh	r2, [r7, #6]	@ movhi
 3117 00b8 DA87     		strh	r2, [r3, #62]	@ movhi
1728:Drivers/STM32F4xx_HAL_Driver/Src/stm32f4xx_hal_spi.c **** 
1729:Drivers/STM32F4xx_HAL_Driver/Src/stm32f4xx_hal_spi.c ****   /*Init field not used in handle to zero */
ARM GAS  /tmp/cc9N7Buw.s 			page 86


1730:Drivers/STM32F4xx_HAL_Driver/Src/stm32f4xx_hal_spi.c ****   hspi->RxISR       = NULL;
 3118              		.loc 1 1730 21
 3119 00ba FB68     		ldr	r3, [r7, #12]
 3120 00bc 0022     		movs	r2, #0
 3121 00be 1A64     		str	r2, [r3, #64]
1731:Drivers/STM32F4xx_HAL_Driver/Src/stm32f4xx_hal_spi.c ****   hspi->TxISR       = NULL;
 3122              		.loc 1 1731 21
 3123 00c0 FB68     		ldr	r3, [r7, #12]
 3124 00c2 0022     		movs	r2, #0
 3125 00c4 5A64     		str	r2, [r3, #68]
1732:Drivers/STM32F4xx_HAL_Driver/Src/stm32f4xx_hal_spi.c ****   hspi->TxXferSize  = 0U;
 3126              		.loc 1 1732 21
 3127 00c6 FB68     		ldr	r3, [r7, #12]
 3128 00c8 0022     		movs	r2, #0
 3129 00ca 9A86     		strh	r2, [r3, #52]	@ movhi
1733:Drivers/STM32F4xx_HAL_Driver/Src/stm32f4xx_hal_spi.c ****   hspi->TxXferCount = 0U;
 3130              		.loc 1 1733 21
 3131 00cc FB68     		ldr	r3, [r7, #12]
 3132 00ce 0022     		movs	r2, #0
 3133 00d0 DA86     		strh	r2, [r3, #54]	@ movhi
1734:Drivers/STM32F4xx_HAL_Driver/Src/stm32f4xx_hal_spi.c **** 
1735:Drivers/STM32F4xx_HAL_Driver/Src/stm32f4xx_hal_spi.c ****   /* Configure communication direction : 1Line */
1736:Drivers/STM32F4xx_HAL_Driver/Src/stm32f4xx_hal_spi.c ****   if (hspi->Init.Direction == SPI_DIRECTION_1LINE)
 3134              		.loc 1 1736 17
 3135 00d2 FB68     		ldr	r3, [r7, #12]
 3136 00d4 9B68     		ldr	r3, [r3, #8]
 3137              		.loc 1 1736 6
 3138 00d6 B3F5004F 		cmp	r3, #32768
 3139 00da 07D1     		bne	.L178
1737:Drivers/STM32F4xx_HAL_Driver/Src/stm32f4xx_hal_spi.c ****   {
1738:Drivers/STM32F4xx_HAL_Driver/Src/stm32f4xx_hal_spi.c ****     SPI_1LINE_RX(hspi);
 3140              		.loc 1 1738 5
 3141 00dc FB68     		ldr	r3, [r7, #12]
 3142 00de 1B68     		ldr	r3, [r3]
 3143 00e0 1A68     		ldr	r2, [r3]
 3144 00e2 FB68     		ldr	r3, [r7, #12]
 3145 00e4 1B68     		ldr	r3, [r3]
 3146 00e6 22F48042 		bic	r2, r2, #16384
 3147 00ea 1A60     		str	r2, [r3]
 3148              	.L178:
1739:Drivers/STM32F4xx_HAL_Driver/Src/stm32f4xx_hal_spi.c ****   }
1740:Drivers/STM32F4xx_HAL_Driver/Src/stm32f4xx_hal_spi.c **** 
1741:Drivers/STM32F4xx_HAL_Driver/Src/stm32f4xx_hal_spi.c **** #if (USE_SPI_CRC != 0U)
1742:Drivers/STM32F4xx_HAL_Driver/Src/stm32f4xx_hal_spi.c ****   /* Reset CRC Calculation */
1743:Drivers/STM32F4xx_HAL_Driver/Src/stm32f4xx_hal_spi.c ****   if (hspi->Init.CRCCalculation == SPI_CRCCALCULATION_ENABLE)
1744:Drivers/STM32F4xx_HAL_Driver/Src/stm32f4xx_hal_spi.c ****   {
1745:Drivers/STM32F4xx_HAL_Driver/Src/stm32f4xx_hal_spi.c ****     SPI_RESET_CRC(hspi);
1746:Drivers/STM32F4xx_HAL_Driver/Src/stm32f4xx_hal_spi.c ****   }
1747:Drivers/STM32F4xx_HAL_Driver/Src/stm32f4xx_hal_spi.c **** #endif /* USE_SPI_CRC */
1748:Drivers/STM32F4xx_HAL_Driver/Src/stm32f4xx_hal_spi.c **** 
1749:Drivers/STM32F4xx_HAL_Driver/Src/stm32f4xx_hal_spi.c ****   /* Set the SPI RxDMA Half transfer complete callback */
1750:Drivers/STM32F4xx_HAL_Driver/Src/stm32f4xx_hal_spi.c ****   hspi->hdmarx->XferHalfCpltCallback = SPI_DMAHalfReceiveCplt;
 3149              		.loc 1 1750 7
 3150 00ec FB68     		ldr	r3, [r7, #12]
 3151 00ee DB6C     		ldr	r3, [r3, #76]
 3152              		.loc 1 1750 38
 3153 00f0 2A4A     		ldr	r2, .L181+4
ARM GAS  /tmp/cc9N7Buw.s 			page 87


 3154 00f2 1A64     		str	r2, [r3, #64]
1751:Drivers/STM32F4xx_HAL_Driver/Src/stm32f4xx_hal_spi.c **** 
1752:Drivers/STM32F4xx_HAL_Driver/Src/stm32f4xx_hal_spi.c ****   /* Set the SPI Rx DMA transfer complete callback */
1753:Drivers/STM32F4xx_HAL_Driver/Src/stm32f4xx_hal_spi.c ****   hspi->hdmarx->XferCpltCallback = SPI_DMAReceiveCplt;
 3155              		.loc 1 1753 7
 3156 00f4 FB68     		ldr	r3, [r7, #12]
 3157 00f6 DB6C     		ldr	r3, [r3, #76]
 3158              		.loc 1 1753 34
 3159 00f8 294A     		ldr	r2, .L181+8
 3160 00fa DA63     		str	r2, [r3, #60]
1754:Drivers/STM32F4xx_HAL_Driver/Src/stm32f4xx_hal_spi.c **** 
1755:Drivers/STM32F4xx_HAL_Driver/Src/stm32f4xx_hal_spi.c ****   /* Set the DMA error callback */
1756:Drivers/STM32F4xx_HAL_Driver/Src/stm32f4xx_hal_spi.c ****   hspi->hdmarx->XferErrorCallback = SPI_DMAError;
 3161              		.loc 1 1756 7
 3162 00fc FB68     		ldr	r3, [r7, #12]
 3163 00fe DB6C     		ldr	r3, [r3, #76]
 3164              		.loc 1 1756 35
 3165 0100 284A     		ldr	r2, .L181+12
 3166 0102 DA64     		str	r2, [r3, #76]
1757:Drivers/STM32F4xx_HAL_Driver/Src/stm32f4xx_hal_spi.c **** 
1758:Drivers/STM32F4xx_HAL_Driver/Src/stm32f4xx_hal_spi.c ****   /* Set the DMA AbortCpltCallback */
1759:Drivers/STM32F4xx_HAL_Driver/Src/stm32f4xx_hal_spi.c ****   hspi->hdmarx->XferAbortCallback = NULL;
 3167              		.loc 1 1759 7
 3168 0104 FB68     		ldr	r3, [r7, #12]
 3169 0106 DB6C     		ldr	r3, [r3, #76]
 3170              		.loc 1 1759 35
 3171 0108 0022     		movs	r2, #0
 3172 010a 1A65     		str	r2, [r3, #80]
1760:Drivers/STM32F4xx_HAL_Driver/Src/stm32f4xx_hal_spi.c **** 
1761:Drivers/STM32F4xx_HAL_Driver/Src/stm32f4xx_hal_spi.c ****   /* Enable the Rx DMA Stream/Channel  */
1762:Drivers/STM32F4xx_HAL_Driver/Src/stm32f4xx_hal_spi.c ****   if (HAL_OK != HAL_DMA_Start_IT(hspi->hdmarx, (uint32_t)&hspi->Instance->DR, (uint32_t)hspi->pRxBu
 3173              		.loc 1 1762 17
 3174 010c FB68     		ldr	r3, [r7, #12]
 3175 010e D86C     		ldr	r0, [r3, #76]
 3176              		.loc 1 1762 63
 3177 0110 FB68     		ldr	r3, [r7, #12]
 3178 0112 1B68     		ldr	r3, [r3]
 3179              		.loc 1 1762 58
 3180 0114 0C33     		adds	r3, r3, #12
 3181              		.loc 1 1762 17
 3182 0116 1946     		mov	r1, r3
 3183              		.loc 1 1762 93
 3184 0118 FB68     		ldr	r3, [r7, #12]
 3185 011a 9B6B     		ldr	r3, [r3, #56]
 3186              		.loc 1 1762 17
 3187 011c 1A46     		mov	r2, r3
1763:Drivers/STM32F4xx_HAL_Driver/Src/stm32f4xx_hal_spi.c ****                                  hspi->RxXferCount))
 3188              		.loc 1 1763 38
 3189 011e FB68     		ldr	r3, [r7, #12]
 3190 0120 DB8F     		ldrh	r3, [r3, #62]	@ movhi
 3191 0122 9BB2     		uxth	r3, r3
1762:Drivers/STM32F4xx_HAL_Driver/Src/stm32f4xx_hal_spi.c ****                                  hspi->RxXferCount))
 3192              		.loc 1 1762 17
 3193 0124 FFF7FEFF 		bl	HAL_DMA_Start_IT
 3194 0128 0346     		mov	r3, r0
1762:Drivers/STM32F4xx_HAL_Driver/Src/stm32f4xx_hal_spi.c ****                                  hspi->RxXferCount))
 3195              		.loc 1 1762 6
ARM GAS  /tmp/cc9N7Buw.s 			page 88


 3196 012a 002B     		cmp	r3, #0
 3197 012c 0CD0     		beq	.L179
1764:Drivers/STM32F4xx_HAL_Driver/Src/stm32f4xx_hal_spi.c ****   {
1765:Drivers/STM32F4xx_HAL_Driver/Src/stm32f4xx_hal_spi.c ****     /* Update SPI error code */
1766:Drivers/STM32F4xx_HAL_Driver/Src/stm32f4xx_hal_spi.c ****     SET_BIT(hspi->ErrorCode, HAL_SPI_ERROR_DMA);
 3198              		.loc 1 1766 5
 3199 012e FB68     		ldr	r3, [r7, #12]
 3200 0130 5B6D     		ldr	r3, [r3, #84]
 3201 0132 43F01002 		orr	r2, r3, #16
 3202 0136 FB68     		ldr	r3, [r7, #12]
 3203 0138 5A65     		str	r2, [r3, #84]
1767:Drivers/STM32F4xx_HAL_Driver/Src/stm32f4xx_hal_spi.c ****     errorcode = HAL_ERROR;
 3204              		.loc 1 1767 15
 3205 013a 0123     		movs	r3, #1
 3206 013c FB75     		strb	r3, [r7, #23]
1768:Drivers/STM32F4xx_HAL_Driver/Src/stm32f4xx_hal_spi.c **** 
1769:Drivers/STM32F4xx_HAL_Driver/Src/stm32f4xx_hal_spi.c ****     hspi->State = HAL_SPI_STATE_READY;
 3207              		.loc 1 1769 17
 3208 013e FB68     		ldr	r3, [r7, #12]
 3209 0140 0122     		movs	r2, #1
 3210 0142 83F85120 		strb	r2, [r3, #81]
1770:Drivers/STM32F4xx_HAL_Driver/Src/stm32f4xx_hal_spi.c ****     goto error;
 3211              		.loc 1 1770 5
 3212 0146 1EE0     		b	.L175
 3213              	.L179:
1771:Drivers/STM32F4xx_HAL_Driver/Src/stm32f4xx_hal_spi.c ****   }
1772:Drivers/STM32F4xx_HAL_Driver/Src/stm32f4xx_hal_spi.c **** 
1773:Drivers/STM32F4xx_HAL_Driver/Src/stm32f4xx_hal_spi.c ****   /* Check if the SPI is already enabled */
1774:Drivers/STM32F4xx_HAL_Driver/Src/stm32f4xx_hal_spi.c ****   if ((hspi->Instance->CR1 & SPI_CR1_SPE) != SPI_CR1_SPE)
 3214              		.loc 1 1774 12
 3215 0148 FB68     		ldr	r3, [r7, #12]
 3216 014a 1B68     		ldr	r3, [r3]
 3217              		.loc 1 1774 22
 3218 014c 1B68     		ldr	r3, [r3]
 3219              		.loc 1 1774 28
 3220 014e 03F04003 		and	r3, r3, #64
 3221              		.loc 1 1774 6
 3222 0152 402B     		cmp	r3, #64
 3223 0154 07D0     		beq	.L180
1775:Drivers/STM32F4xx_HAL_Driver/Src/stm32f4xx_hal_spi.c ****   {
1776:Drivers/STM32F4xx_HAL_Driver/Src/stm32f4xx_hal_spi.c ****     /* Enable SPI peripheral */
1777:Drivers/STM32F4xx_HAL_Driver/Src/stm32f4xx_hal_spi.c ****     __HAL_SPI_ENABLE(hspi);
 3224              		.loc 1 1777 5
 3225 0156 FB68     		ldr	r3, [r7, #12]
 3226 0158 1B68     		ldr	r3, [r3]
 3227 015a 1A68     		ldr	r2, [r3]
 3228 015c FB68     		ldr	r3, [r7, #12]
 3229 015e 1B68     		ldr	r3, [r3]
 3230 0160 42F04002 		orr	r2, r2, #64
 3231 0164 1A60     		str	r2, [r3]
 3232              	.L180:
1778:Drivers/STM32F4xx_HAL_Driver/Src/stm32f4xx_hal_spi.c ****   }
1779:Drivers/STM32F4xx_HAL_Driver/Src/stm32f4xx_hal_spi.c **** 
1780:Drivers/STM32F4xx_HAL_Driver/Src/stm32f4xx_hal_spi.c ****   /* Enable the SPI Error Interrupt Bit */
1781:Drivers/STM32F4xx_HAL_Driver/Src/stm32f4xx_hal_spi.c ****   __HAL_SPI_ENABLE_IT(hspi, (SPI_IT_ERR));
 3233              		.loc 1 1781 3
 3234 0166 FB68     		ldr	r3, [r7, #12]
ARM GAS  /tmp/cc9N7Buw.s 			page 89


 3235 0168 1B68     		ldr	r3, [r3]
 3236 016a 5A68     		ldr	r2, [r3, #4]
 3237 016c FB68     		ldr	r3, [r7, #12]
 3238 016e 1B68     		ldr	r3, [r3]
 3239 0170 42F02002 		orr	r2, r2, #32
 3240 0174 5A60     		str	r2, [r3, #4]
1782:Drivers/STM32F4xx_HAL_Driver/Src/stm32f4xx_hal_spi.c **** 
1783:Drivers/STM32F4xx_HAL_Driver/Src/stm32f4xx_hal_spi.c ****   /* Enable Rx DMA Request */
1784:Drivers/STM32F4xx_HAL_Driver/Src/stm32f4xx_hal_spi.c ****   SET_BIT(hspi->Instance->CR2, SPI_CR2_RXDMAEN);
 3241              		.loc 1 1784 3
 3242 0176 FB68     		ldr	r3, [r7, #12]
 3243 0178 1B68     		ldr	r3, [r3]
 3244 017a 5A68     		ldr	r2, [r3, #4]
 3245 017c FB68     		ldr	r3, [r7, #12]
 3246 017e 1B68     		ldr	r3, [r3]
 3247 0180 42F00102 		orr	r2, r2, #1
 3248 0184 5A60     		str	r2, [r3, #4]
 3249              	.L175:
1785:Drivers/STM32F4xx_HAL_Driver/Src/stm32f4xx_hal_spi.c **** 
1786:Drivers/STM32F4xx_HAL_Driver/Src/stm32f4xx_hal_spi.c **** error:
1787:Drivers/STM32F4xx_HAL_Driver/Src/stm32f4xx_hal_spi.c ****   /* Process Unlocked */
1788:Drivers/STM32F4xx_HAL_Driver/Src/stm32f4xx_hal_spi.c ****   __HAL_UNLOCK(hspi);
 3250              		.loc 1 1788 3
 3251 0186 FB68     		ldr	r3, [r7, #12]
 3252 0188 0022     		movs	r2, #0
 3253 018a 83F85020 		strb	r2, [r3, #80]
1789:Drivers/STM32F4xx_HAL_Driver/Src/stm32f4xx_hal_spi.c ****   return errorcode;
 3254              		.loc 1 1789 10
 3255 018e FB7D     		ldrb	r3, [r7, #23]	@ zero_extendqisi2
 3256              	.L172:
1790:Drivers/STM32F4xx_HAL_Driver/Src/stm32f4xx_hal_spi.c **** }
 3257              		.loc 1 1790 1
 3258 0190 1846     		mov	r0, r3
 3259 0192 1837     		adds	r7, r7, #24
 3260              	.LCFI60:
 3261              		.cfi_def_cfa_offset 8
 3262 0194 BD46     		mov	sp, r7
 3263              	.LCFI61:
 3264              		.cfi_def_cfa_register 13
 3265              		@ sp needed
 3266 0196 80BD     		pop	{r7, pc}
 3267              	.L182:
 3268              		.align	2
 3269              	.L181:
 3270 0198 00000000 		.word	.LC0
 3271 019c 00000000 		.word	SPI_DMAHalfReceiveCplt
 3272 01a0 00000000 		.word	SPI_DMAReceiveCplt
 3273 01a4 00000000 		.word	SPI_DMAError
 3274              		.cfi_endproc
 3275              	.LFE141:
 3277              		.section	.text.HAL_SPI_TransmitReceive_DMA,"ax",%progbits
 3278              		.align	1
 3279              		.global	HAL_SPI_TransmitReceive_DMA
 3280              		.syntax unified
 3281              		.thumb
 3282              		.thumb_func
 3283              		.fpu fpv4-sp-d16
ARM GAS  /tmp/cc9N7Buw.s 			page 90


 3285              	HAL_SPI_TransmitReceive_DMA:
 3286              	.LFB142:
1791:Drivers/STM32F4xx_HAL_Driver/Src/stm32f4xx_hal_spi.c **** 
1792:Drivers/STM32F4xx_HAL_Driver/Src/stm32f4xx_hal_spi.c **** /**
1793:Drivers/STM32F4xx_HAL_Driver/Src/stm32f4xx_hal_spi.c ****   * @brief  Transmit and Receive an amount of data in non-blocking mode with DMA.
1794:Drivers/STM32F4xx_HAL_Driver/Src/stm32f4xx_hal_spi.c ****   * @param  hspi pointer to a SPI_HandleTypeDef structure that contains
1795:Drivers/STM32F4xx_HAL_Driver/Src/stm32f4xx_hal_spi.c ****   *               the configuration information for SPI module.
1796:Drivers/STM32F4xx_HAL_Driver/Src/stm32f4xx_hal_spi.c ****   * @param  pTxData pointer to transmission data buffer
1797:Drivers/STM32F4xx_HAL_Driver/Src/stm32f4xx_hal_spi.c ****   * @param  pRxData pointer to reception data buffer
1798:Drivers/STM32F4xx_HAL_Driver/Src/stm32f4xx_hal_spi.c ****   * @note   When the CRC feature is enabled the pRxData Length must be Size + 1
1799:Drivers/STM32F4xx_HAL_Driver/Src/stm32f4xx_hal_spi.c ****   * @param  Size amount of data to be sent
1800:Drivers/STM32F4xx_HAL_Driver/Src/stm32f4xx_hal_spi.c ****   * @retval HAL status
1801:Drivers/STM32F4xx_HAL_Driver/Src/stm32f4xx_hal_spi.c ****   */
1802:Drivers/STM32F4xx_HAL_Driver/Src/stm32f4xx_hal_spi.c **** HAL_StatusTypeDef HAL_SPI_TransmitReceive_DMA(SPI_HandleTypeDef *hspi, uint8_t *pTxData, uint8_t *p
1803:Drivers/STM32F4xx_HAL_Driver/Src/stm32f4xx_hal_spi.c ****                                               uint16_t Size)
1804:Drivers/STM32F4xx_HAL_Driver/Src/stm32f4xx_hal_spi.c **** {
 3287              		.loc 1 1804 1
 3288              		.cfi_startproc
 3289              		@ args = 0, pretend = 0, frame = 24
 3290              		@ frame_needed = 1, uses_anonymous_args = 0
 3291 0000 80B5     		push	{r7, lr}
 3292              	.LCFI62:
 3293              		.cfi_def_cfa_offset 8
 3294              		.cfi_offset 7, -8
 3295              		.cfi_offset 14, -4
 3296 0002 86B0     		sub	sp, sp, #24
 3297              	.LCFI63:
 3298              		.cfi_def_cfa_offset 32
 3299 0004 00AF     		add	r7, sp, #0
 3300              	.LCFI64:
 3301              		.cfi_def_cfa_register 7
 3302 0006 F860     		str	r0, [r7, #12]
 3303 0008 B960     		str	r1, [r7, #8]
 3304 000a 7A60     		str	r2, [r7, #4]
 3305 000c 7B80     		strh	r3, [r7, #2]	@ movhi
1805:Drivers/STM32F4xx_HAL_Driver/Src/stm32f4xx_hal_spi.c ****   uint32_t             tmp_mode;
1806:Drivers/STM32F4xx_HAL_Driver/Src/stm32f4xx_hal_spi.c ****   HAL_SPI_StateTypeDef tmp_state;
1807:Drivers/STM32F4xx_HAL_Driver/Src/stm32f4xx_hal_spi.c ****   HAL_StatusTypeDef errorcode = HAL_OK;
 3306              		.loc 1 1807 21
 3307 000e 0023     		movs	r3, #0
 3308 0010 FB75     		strb	r3, [r7, #23]
1808:Drivers/STM32F4xx_HAL_Driver/Src/stm32f4xx_hal_spi.c **** 
1809:Drivers/STM32F4xx_HAL_Driver/Src/stm32f4xx_hal_spi.c ****   /* Check rx & tx dma handles */
1810:Drivers/STM32F4xx_HAL_Driver/Src/stm32f4xx_hal_spi.c ****   assert_param(IS_SPI_DMA_HANDLE(hspi->hdmarx));
 3309              		.loc 1 1810 3
 3310 0012 FB68     		ldr	r3, [r7, #12]
 3311 0014 DB6C     		ldr	r3, [r3, #76]
 3312 0016 002B     		cmp	r3, #0
 3313 0018 04D1     		bne	.L184
 3314              		.loc 1 1810 3 is_stmt 0 discriminator 1
 3315 001a 40F21271 		movw	r1, #1810
 3316 001e 8248     		ldr	r0, .L200
 3317 0020 FFF7FEFF 		bl	assert_failed
 3318              	.L184:
1811:Drivers/STM32F4xx_HAL_Driver/Src/stm32f4xx_hal_spi.c ****   assert_param(IS_SPI_DMA_HANDLE(hspi->hdmatx));
 3319              		.loc 1 1811 3 is_stmt 1
 3320 0024 FB68     		ldr	r3, [r7, #12]
ARM GAS  /tmp/cc9N7Buw.s 			page 91


 3321 0026 9B6C     		ldr	r3, [r3, #72]
 3322 0028 002B     		cmp	r3, #0
 3323 002a 04D1     		bne	.L185
 3324              		.loc 1 1811 3 is_stmt 0 discriminator 1
 3325 002c 40F21371 		movw	r1, #1811
 3326 0030 7D48     		ldr	r0, .L200
 3327 0032 FFF7FEFF 		bl	assert_failed
 3328              	.L185:
1812:Drivers/STM32F4xx_HAL_Driver/Src/stm32f4xx_hal_spi.c **** 
1813:Drivers/STM32F4xx_HAL_Driver/Src/stm32f4xx_hal_spi.c ****   /* Check Direction parameter */
1814:Drivers/STM32F4xx_HAL_Driver/Src/stm32f4xx_hal_spi.c ****   assert_param(IS_SPI_DIRECTION_2LINES(hspi->Init.Direction));
 3329              		.loc 1 1814 3 is_stmt 1
 3330 0036 FB68     		ldr	r3, [r7, #12]
 3331 0038 9B68     		ldr	r3, [r3, #8]
 3332 003a 002B     		cmp	r3, #0
 3333 003c 04D0     		beq	.L186
 3334              		.loc 1 1814 3 is_stmt 0 discriminator 1
 3335 003e 40F21671 		movw	r1, #1814
 3336 0042 7948     		ldr	r0, .L200
 3337 0044 FFF7FEFF 		bl	assert_failed
 3338              	.L186:
1815:Drivers/STM32F4xx_HAL_Driver/Src/stm32f4xx_hal_spi.c **** 
1816:Drivers/STM32F4xx_HAL_Driver/Src/stm32f4xx_hal_spi.c ****   /* Process locked */
1817:Drivers/STM32F4xx_HAL_Driver/Src/stm32f4xx_hal_spi.c ****   __HAL_LOCK(hspi);
 3339              		.loc 1 1817 3 is_stmt 1
 3340 0048 FB68     		ldr	r3, [r7, #12]
 3341 004a 93F85030 		ldrb	r3, [r3, #80]	@ zero_extendqisi2
 3342 004e 012B     		cmp	r3, #1
 3343 0050 01D1     		bne	.L187
 3344              		.loc 1 1817 3 is_stmt 0 discriminator 1
 3345 0052 0223     		movs	r3, #2
 3346 0054 E3E0     		b	.L188
 3347              	.L187:
 3348              		.loc 1 1817 3 discriminator 2
 3349 0056 FB68     		ldr	r3, [r7, #12]
 3350 0058 0122     		movs	r2, #1
 3351 005a 83F85020 		strb	r2, [r3, #80]
1818:Drivers/STM32F4xx_HAL_Driver/Src/stm32f4xx_hal_spi.c **** 
1819:Drivers/STM32F4xx_HAL_Driver/Src/stm32f4xx_hal_spi.c ****   /* Init temporary variables */
1820:Drivers/STM32F4xx_HAL_Driver/Src/stm32f4xx_hal_spi.c ****   tmp_state           = hspi->State;
 3352              		.loc 1 1820 23 is_stmt 1 discriminator 2
 3353 005e FB68     		ldr	r3, [r7, #12]
 3354 0060 93F85130 		ldrb	r3, [r3, #81]
 3355 0064 BB75     		strb	r3, [r7, #22]
1821:Drivers/STM32F4xx_HAL_Driver/Src/stm32f4xx_hal_spi.c ****   tmp_mode            = hspi->Init.Mode;
 3356              		.loc 1 1821 23 discriminator 2
 3357 0066 FB68     		ldr	r3, [r7, #12]
 3358 0068 5B68     		ldr	r3, [r3, #4]
 3359 006a 3B61     		str	r3, [r7, #16]
1822:Drivers/STM32F4xx_HAL_Driver/Src/stm32f4xx_hal_spi.c **** 
1823:Drivers/STM32F4xx_HAL_Driver/Src/stm32f4xx_hal_spi.c ****   if (!((tmp_state == HAL_SPI_STATE_READY) ||
 3360              		.loc 1 1823 6 discriminator 2
 3361 006c BB7D     		ldrb	r3, [r7, #22]	@ zero_extendqisi2
 3362 006e 012B     		cmp	r3, #1
 3363 0070 0DD0     		beq	.L189
 3364              		.loc 1 1823 7 discriminator 1
 3365 0072 3B69     		ldr	r3, [r7, #16]
ARM GAS  /tmp/cc9N7Buw.s 			page 92


 3366 0074 B3F5827F 		cmp	r3, #260
 3367 0078 06D1     		bne	.L190
1824:Drivers/STM32F4xx_HAL_Driver/Src/stm32f4xx_hal_spi.c ****         ((tmp_mode == SPI_MODE_MASTER) && (hspi->Init.Direction == SPI_DIRECTION_2LINES) && (tmp_st
 3368              		.loc 1 1824 54
 3369 007a FB68     		ldr	r3, [r7, #12]
 3370 007c 9B68     		ldr	r3, [r3, #8]
 3371              		.loc 1 1824 40
 3372 007e 002B     		cmp	r3, #0
 3373 0080 02D1     		bne	.L190
 3374              		.loc 1 1824 90 discriminator 1
 3375 0082 BB7D     		ldrb	r3, [r7, #22]	@ zero_extendqisi2
 3376 0084 042B     		cmp	r3, #4
 3377 0086 02D0     		beq	.L189
 3378              	.L190:
1825:Drivers/STM32F4xx_HAL_Driver/Src/stm32f4xx_hal_spi.c ****   {
1826:Drivers/STM32F4xx_HAL_Driver/Src/stm32f4xx_hal_spi.c ****     errorcode = HAL_BUSY;
 3379              		.loc 1 1826 15
 3380 0088 0223     		movs	r3, #2
 3381 008a FB75     		strb	r3, [r7, #23]
1827:Drivers/STM32F4xx_HAL_Driver/Src/stm32f4xx_hal_spi.c ****     goto error;
 3382              		.loc 1 1827 5
 3383 008c C2E0     		b	.L191
 3384              	.L189:
1828:Drivers/STM32F4xx_HAL_Driver/Src/stm32f4xx_hal_spi.c ****   }
1829:Drivers/STM32F4xx_HAL_Driver/Src/stm32f4xx_hal_spi.c **** 
1830:Drivers/STM32F4xx_HAL_Driver/Src/stm32f4xx_hal_spi.c ****   if ((pTxData == NULL) || (pRxData == NULL) || (Size == 0U))
 3385              		.loc 1 1830 6
 3386 008e BB68     		ldr	r3, [r7, #8]
 3387 0090 002B     		cmp	r3, #0
 3388 0092 05D0     		beq	.L192
 3389              		.loc 1 1830 25 discriminator 1
 3390 0094 7B68     		ldr	r3, [r7, #4]
 3391 0096 002B     		cmp	r3, #0
 3392 0098 02D0     		beq	.L192
 3393              		.loc 1 1830 46 discriminator 2
 3394 009a 7B88     		ldrh	r3, [r7, #2]
 3395 009c 002B     		cmp	r3, #0
 3396 009e 02D1     		bne	.L193
 3397              	.L192:
1831:Drivers/STM32F4xx_HAL_Driver/Src/stm32f4xx_hal_spi.c ****   {
1832:Drivers/STM32F4xx_HAL_Driver/Src/stm32f4xx_hal_spi.c ****     errorcode = HAL_ERROR;
 3398              		.loc 1 1832 15
 3399 00a0 0123     		movs	r3, #1
 3400 00a2 FB75     		strb	r3, [r7, #23]
1833:Drivers/STM32F4xx_HAL_Driver/Src/stm32f4xx_hal_spi.c ****     goto error;
 3401              		.loc 1 1833 5
 3402 00a4 B6E0     		b	.L191
 3403              	.L193:
1834:Drivers/STM32F4xx_HAL_Driver/Src/stm32f4xx_hal_spi.c ****   }
1835:Drivers/STM32F4xx_HAL_Driver/Src/stm32f4xx_hal_spi.c **** 
1836:Drivers/STM32F4xx_HAL_Driver/Src/stm32f4xx_hal_spi.c ****   /* Don't overwrite in case of HAL_SPI_STATE_BUSY_RX */
1837:Drivers/STM32F4xx_HAL_Driver/Src/stm32f4xx_hal_spi.c ****   if (hspi->State != HAL_SPI_STATE_BUSY_RX)
 3404              		.loc 1 1837 11
 3405 00a6 FB68     		ldr	r3, [r7, #12]
 3406 00a8 93F85130 		ldrb	r3, [r3, #81]
 3407 00ac DBB2     		uxtb	r3, r3
 3408              		.loc 1 1837 6
ARM GAS  /tmp/cc9N7Buw.s 			page 93


 3409 00ae 042B     		cmp	r3, #4
 3410 00b0 03D0     		beq	.L194
1838:Drivers/STM32F4xx_HAL_Driver/Src/stm32f4xx_hal_spi.c ****   {
1839:Drivers/STM32F4xx_HAL_Driver/Src/stm32f4xx_hal_spi.c ****     hspi->State = HAL_SPI_STATE_BUSY_TX_RX;
 3411              		.loc 1 1839 17
 3412 00b2 FB68     		ldr	r3, [r7, #12]
 3413 00b4 0522     		movs	r2, #5
 3414 00b6 83F85120 		strb	r2, [r3, #81]
 3415              	.L194:
1840:Drivers/STM32F4xx_HAL_Driver/Src/stm32f4xx_hal_spi.c ****   }
1841:Drivers/STM32F4xx_HAL_Driver/Src/stm32f4xx_hal_spi.c **** 
1842:Drivers/STM32F4xx_HAL_Driver/Src/stm32f4xx_hal_spi.c ****   /* Set the transaction information */
1843:Drivers/STM32F4xx_HAL_Driver/Src/stm32f4xx_hal_spi.c ****   hspi->ErrorCode   = HAL_SPI_ERROR_NONE;
 3416              		.loc 1 1843 21
 3417 00ba FB68     		ldr	r3, [r7, #12]
 3418 00bc 0022     		movs	r2, #0
 3419 00be 5A65     		str	r2, [r3, #84]
1844:Drivers/STM32F4xx_HAL_Driver/Src/stm32f4xx_hal_spi.c ****   hspi->pTxBuffPtr  = (uint8_t *)pTxData;
 3420              		.loc 1 1844 21
 3421 00c0 FB68     		ldr	r3, [r7, #12]
 3422 00c2 BA68     		ldr	r2, [r7, #8]
 3423 00c4 1A63     		str	r2, [r3, #48]
1845:Drivers/STM32F4xx_HAL_Driver/Src/stm32f4xx_hal_spi.c ****   hspi->TxXferSize  = Size;
 3424              		.loc 1 1845 21
 3425 00c6 FB68     		ldr	r3, [r7, #12]
 3426 00c8 7A88     		ldrh	r2, [r7, #2]	@ movhi
 3427 00ca 9A86     		strh	r2, [r3, #52]	@ movhi
1846:Drivers/STM32F4xx_HAL_Driver/Src/stm32f4xx_hal_spi.c ****   hspi->TxXferCount = Size;
 3428              		.loc 1 1846 21
 3429 00cc FB68     		ldr	r3, [r7, #12]
 3430 00ce 7A88     		ldrh	r2, [r7, #2]	@ movhi
 3431 00d0 DA86     		strh	r2, [r3, #54]	@ movhi
1847:Drivers/STM32F4xx_HAL_Driver/Src/stm32f4xx_hal_spi.c ****   hspi->pRxBuffPtr  = (uint8_t *)pRxData;
 3432              		.loc 1 1847 21
 3433 00d2 FB68     		ldr	r3, [r7, #12]
 3434 00d4 7A68     		ldr	r2, [r7, #4]
 3435 00d6 9A63     		str	r2, [r3, #56]
1848:Drivers/STM32F4xx_HAL_Driver/Src/stm32f4xx_hal_spi.c ****   hspi->RxXferSize  = Size;
 3436              		.loc 1 1848 21
 3437 00d8 FB68     		ldr	r3, [r7, #12]
 3438 00da 7A88     		ldrh	r2, [r7, #2]	@ movhi
 3439 00dc 9A87     		strh	r2, [r3, #60]	@ movhi
1849:Drivers/STM32F4xx_HAL_Driver/Src/stm32f4xx_hal_spi.c ****   hspi->RxXferCount = Size;
 3440              		.loc 1 1849 21
 3441 00de FB68     		ldr	r3, [r7, #12]
 3442 00e0 7A88     		ldrh	r2, [r7, #2]	@ movhi
 3443 00e2 DA87     		strh	r2, [r3, #62]	@ movhi
1850:Drivers/STM32F4xx_HAL_Driver/Src/stm32f4xx_hal_spi.c **** 
1851:Drivers/STM32F4xx_HAL_Driver/Src/stm32f4xx_hal_spi.c ****   /* Init field not used in handle to zero */
1852:Drivers/STM32F4xx_HAL_Driver/Src/stm32f4xx_hal_spi.c ****   hspi->RxISR       = NULL;
 3444              		.loc 1 1852 21
 3445 00e4 FB68     		ldr	r3, [r7, #12]
 3446 00e6 0022     		movs	r2, #0
 3447 00e8 1A64     		str	r2, [r3, #64]
1853:Drivers/STM32F4xx_HAL_Driver/Src/stm32f4xx_hal_spi.c ****   hspi->TxISR       = NULL;
 3448              		.loc 1 1853 21
 3449 00ea FB68     		ldr	r3, [r7, #12]
ARM GAS  /tmp/cc9N7Buw.s 			page 94


 3450 00ec 0022     		movs	r2, #0
 3451 00ee 5A64     		str	r2, [r3, #68]
1854:Drivers/STM32F4xx_HAL_Driver/Src/stm32f4xx_hal_spi.c **** 
1855:Drivers/STM32F4xx_HAL_Driver/Src/stm32f4xx_hal_spi.c **** #if (USE_SPI_CRC != 0U)
1856:Drivers/STM32F4xx_HAL_Driver/Src/stm32f4xx_hal_spi.c ****   /* Reset CRC Calculation */
1857:Drivers/STM32F4xx_HAL_Driver/Src/stm32f4xx_hal_spi.c ****   if (hspi->Init.CRCCalculation == SPI_CRCCALCULATION_ENABLE)
1858:Drivers/STM32F4xx_HAL_Driver/Src/stm32f4xx_hal_spi.c ****   {
1859:Drivers/STM32F4xx_HAL_Driver/Src/stm32f4xx_hal_spi.c ****     SPI_RESET_CRC(hspi);
1860:Drivers/STM32F4xx_HAL_Driver/Src/stm32f4xx_hal_spi.c ****   }
1861:Drivers/STM32F4xx_HAL_Driver/Src/stm32f4xx_hal_spi.c **** #endif /* USE_SPI_CRC */
1862:Drivers/STM32F4xx_HAL_Driver/Src/stm32f4xx_hal_spi.c **** 
1863:Drivers/STM32F4xx_HAL_Driver/Src/stm32f4xx_hal_spi.c ****   /* Check if we are in Rx only or in Rx/Tx Mode and configure the DMA transfer complete callback *
1864:Drivers/STM32F4xx_HAL_Driver/Src/stm32f4xx_hal_spi.c ****   if (hspi->State == HAL_SPI_STATE_BUSY_RX)
 3452              		.loc 1 1864 11
 3453 00f0 FB68     		ldr	r3, [r7, #12]
 3454 00f2 93F85130 		ldrb	r3, [r3, #81]
 3455 00f6 DBB2     		uxtb	r3, r3
 3456              		.loc 1 1864 6
 3457 00f8 042B     		cmp	r3, #4
 3458 00fa 08D1     		bne	.L195
1865:Drivers/STM32F4xx_HAL_Driver/Src/stm32f4xx_hal_spi.c ****   {
1866:Drivers/STM32F4xx_HAL_Driver/Src/stm32f4xx_hal_spi.c ****     /* Set the SPI Rx DMA Half transfer complete callback */
1867:Drivers/STM32F4xx_HAL_Driver/Src/stm32f4xx_hal_spi.c ****     hspi->hdmarx->XferHalfCpltCallback = SPI_DMAHalfReceiveCplt;
 3459              		.loc 1 1867 9
 3460 00fc FB68     		ldr	r3, [r7, #12]
 3461 00fe DB6C     		ldr	r3, [r3, #76]
 3462              		.loc 1 1867 40
 3463 0100 4A4A     		ldr	r2, .L200+4
 3464 0102 1A64     		str	r2, [r3, #64]
1868:Drivers/STM32F4xx_HAL_Driver/Src/stm32f4xx_hal_spi.c ****     hspi->hdmarx->XferCpltCallback     = SPI_DMAReceiveCplt;
 3465              		.loc 1 1868 9
 3466 0104 FB68     		ldr	r3, [r7, #12]
 3467 0106 DB6C     		ldr	r3, [r3, #76]
 3468              		.loc 1 1868 40
 3469 0108 494A     		ldr	r2, .L200+8
 3470 010a DA63     		str	r2, [r3, #60]
 3471 010c 07E0     		b	.L196
 3472              	.L195:
1869:Drivers/STM32F4xx_HAL_Driver/Src/stm32f4xx_hal_spi.c ****   }
1870:Drivers/STM32F4xx_HAL_Driver/Src/stm32f4xx_hal_spi.c ****   else
1871:Drivers/STM32F4xx_HAL_Driver/Src/stm32f4xx_hal_spi.c ****   {
1872:Drivers/STM32F4xx_HAL_Driver/Src/stm32f4xx_hal_spi.c ****     /* Set the SPI Tx/Rx DMA Half transfer complete callback */
1873:Drivers/STM32F4xx_HAL_Driver/Src/stm32f4xx_hal_spi.c ****     hspi->hdmarx->XferHalfCpltCallback = SPI_DMAHalfTransmitReceiveCplt;
 3473              		.loc 1 1873 9
 3474 010e FB68     		ldr	r3, [r7, #12]
 3475 0110 DB6C     		ldr	r3, [r3, #76]
 3476              		.loc 1 1873 40
 3477 0112 484A     		ldr	r2, .L200+12
 3478 0114 1A64     		str	r2, [r3, #64]
1874:Drivers/STM32F4xx_HAL_Driver/Src/stm32f4xx_hal_spi.c ****     hspi->hdmarx->XferCpltCallback     = SPI_DMATransmitReceiveCplt;
 3479              		.loc 1 1874 9
 3480 0116 FB68     		ldr	r3, [r7, #12]
 3481 0118 DB6C     		ldr	r3, [r3, #76]
 3482              		.loc 1 1874 40
 3483 011a 474A     		ldr	r2, .L200+16
 3484 011c DA63     		str	r2, [r3, #60]
 3485              	.L196:
ARM GAS  /tmp/cc9N7Buw.s 			page 95


1875:Drivers/STM32F4xx_HAL_Driver/Src/stm32f4xx_hal_spi.c ****   }
1876:Drivers/STM32F4xx_HAL_Driver/Src/stm32f4xx_hal_spi.c **** 
1877:Drivers/STM32F4xx_HAL_Driver/Src/stm32f4xx_hal_spi.c ****   /* Set the DMA error callback */
1878:Drivers/STM32F4xx_HAL_Driver/Src/stm32f4xx_hal_spi.c ****   hspi->hdmarx->XferErrorCallback = SPI_DMAError;
 3486              		.loc 1 1878 7
 3487 011e FB68     		ldr	r3, [r7, #12]
 3488 0120 DB6C     		ldr	r3, [r3, #76]
 3489              		.loc 1 1878 35
 3490 0122 464A     		ldr	r2, .L200+20
 3491 0124 DA64     		str	r2, [r3, #76]
1879:Drivers/STM32F4xx_HAL_Driver/Src/stm32f4xx_hal_spi.c **** 
1880:Drivers/STM32F4xx_HAL_Driver/Src/stm32f4xx_hal_spi.c ****   /* Set the DMA AbortCpltCallback */
1881:Drivers/STM32F4xx_HAL_Driver/Src/stm32f4xx_hal_spi.c ****   hspi->hdmarx->XferAbortCallback = NULL;
 3492              		.loc 1 1881 7
 3493 0126 FB68     		ldr	r3, [r7, #12]
 3494 0128 DB6C     		ldr	r3, [r3, #76]
 3495              		.loc 1 1881 35
 3496 012a 0022     		movs	r2, #0
 3497 012c 1A65     		str	r2, [r3, #80]
1882:Drivers/STM32F4xx_HAL_Driver/Src/stm32f4xx_hal_spi.c **** 
1883:Drivers/STM32F4xx_HAL_Driver/Src/stm32f4xx_hal_spi.c ****   /* Enable the Rx DMA Stream/Channel  */
1884:Drivers/STM32F4xx_HAL_Driver/Src/stm32f4xx_hal_spi.c ****   if (HAL_OK != HAL_DMA_Start_IT(hspi->hdmarx, (uint32_t)&hspi->Instance->DR, (uint32_t)hspi->pRxBu
 3498              		.loc 1 1884 17
 3499 012e FB68     		ldr	r3, [r7, #12]
 3500 0130 D86C     		ldr	r0, [r3, #76]
 3501              		.loc 1 1884 63
 3502 0132 FB68     		ldr	r3, [r7, #12]
 3503 0134 1B68     		ldr	r3, [r3]
 3504              		.loc 1 1884 58
 3505 0136 0C33     		adds	r3, r3, #12
 3506              		.loc 1 1884 17
 3507 0138 1946     		mov	r1, r3
 3508              		.loc 1 1884 93
 3509 013a FB68     		ldr	r3, [r7, #12]
 3510 013c 9B6B     		ldr	r3, [r3, #56]
 3511              		.loc 1 1884 17
 3512 013e 1A46     		mov	r2, r3
1885:Drivers/STM32F4xx_HAL_Driver/Src/stm32f4xx_hal_spi.c ****                                  hspi->RxXferCount))
 3513              		.loc 1 1885 38
 3514 0140 FB68     		ldr	r3, [r7, #12]
 3515 0142 DB8F     		ldrh	r3, [r3, #62]	@ movhi
 3516 0144 9BB2     		uxth	r3, r3
1884:Drivers/STM32F4xx_HAL_Driver/Src/stm32f4xx_hal_spi.c ****                                  hspi->RxXferCount))
 3517              		.loc 1 1884 17
 3518 0146 FFF7FEFF 		bl	HAL_DMA_Start_IT
 3519 014a 0346     		mov	r3, r0
1884:Drivers/STM32F4xx_HAL_Driver/Src/stm32f4xx_hal_spi.c ****                                  hspi->RxXferCount))
 3520              		.loc 1 1884 6
 3521 014c 002B     		cmp	r3, #0
 3522 014e 0CD0     		beq	.L197
1886:Drivers/STM32F4xx_HAL_Driver/Src/stm32f4xx_hal_spi.c ****   {
1887:Drivers/STM32F4xx_HAL_Driver/Src/stm32f4xx_hal_spi.c ****     /* Update SPI error code */
1888:Drivers/STM32F4xx_HAL_Driver/Src/stm32f4xx_hal_spi.c ****     SET_BIT(hspi->ErrorCode, HAL_SPI_ERROR_DMA);
 3523              		.loc 1 1888 5
 3524 0150 FB68     		ldr	r3, [r7, #12]
 3525 0152 5B6D     		ldr	r3, [r3, #84]
 3526 0154 43F01002 		orr	r2, r3, #16
ARM GAS  /tmp/cc9N7Buw.s 			page 96


 3527 0158 FB68     		ldr	r3, [r7, #12]
 3528 015a 5A65     		str	r2, [r3, #84]
1889:Drivers/STM32F4xx_HAL_Driver/Src/stm32f4xx_hal_spi.c ****     errorcode = HAL_ERROR;
 3529              		.loc 1 1889 15
 3530 015c 0123     		movs	r3, #1
 3531 015e FB75     		strb	r3, [r7, #23]
1890:Drivers/STM32F4xx_HAL_Driver/Src/stm32f4xx_hal_spi.c **** 
1891:Drivers/STM32F4xx_HAL_Driver/Src/stm32f4xx_hal_spi.c ****     hspi->State = HAL_SPI_STATE_READY;
 3532              		.loc 1 1891 17
 3533 0160 FB68     		ldr	r3, [r7, #12]
 3534 0162 0122     		movs	r2, #1
 3535 0164 83F85120 		strb	r2, [r3, #81]
1892:Drivers/STM32F4xx_HAL_Driver/Src/stm32f4xx_hal_spi.c ****     goto error;
 3536              		.loc 1 1892 5
 3537 0168 54E0     		b	.L191
 3538              	.L197:
1893:Drivers/STM32F4xx_HAL_Driver/Src/stm32f4xx_hal_spi.c ****   }
1894:Drivers/STM32F4xx_HAL_Driver/Src/stm32f4xx_hal_spi.c **** 
1895:Drivers/STM32F4xx_HAL_Driver/Src/stm32f4xx_hal_spi.c ****   /* Enable Rx DMA Request */
1896:Drivers/STM32F4xx_HAL_Driver/Src/stm32f4xx_hal_spi.c ****   SET_BIT(hspi->Instance->CR2, SPI_CR2_RXDMAEN);
 3539              		.loc 1 1896 3
 3540 016a FB68     		ldr	r3, [r7, #12]
 3541 016c 1B68     		ldr	r3, [r3]
 3542 016e 5A68     		ldr	r2, [r3, #4]
 3543 0170 FB68     		ldr	r3, [r7, #12]
 3544 0172 1B68     		ldr	r3, [r3]
 3545 0174 42F00102 		orr	r2, r2, #1
 3546 0178 5A60     		str	r2, [r3, #4]
1897:Drivers/STM32F4xx_HAL_Driver/Src/stm32f4xx_hal_spi.c **** 
1898:Drivers/STM32F4xx_HAL_Driver/Src/stm32f4xx_hal_spi.c ****   /* Set the SPI Tx DMA transfer complete callback as NULL because the communication closing
1899:Drivers/STM32F4xx_HAL_Driver/Src/stm32f4xx_hal_spi.c ****   is performed in DMA reception complete callback  */
1900:Drivers/STM32F4xx_HAL_Driver/Src/stm32f4xx_hal_spi.c ****   hspi->hdmatx->XferHalfCpltCallback = NULL;
 3547              		.loc 1 1900 7
 3548 017a FB68     		ldr	r3, [r7, #12]
 3549 017c 9B6C     		ldr	r3, [r3, #72]
 3550              		.loc 1 1900 38
 3551 017e 0022     		movs	r2, #0
 3552 0180 1A64     		str	r2, [r3, #64]
1901:Drivers/STM32F4xx_HAL_Driver/Src/stm32f4xx_hal_spi.c ****   hspi->hdmatx->XferCpltCallback     = NULL;
 3553              		.loc 1 1901 7
 3554 0182 FB68     		ldr	r3, [r7, #12]
 3555 0184 9B6C     		ldr	r3, [r3, #72]
 3556              		.loc 1 1901 38
 3557 0186 0022     		movs	r2, #0
 3558 0188 DA63     		str	r2, [r3, #60]
1902:Drivers/STM32F4xx_HAL_Driver/Src/stm32f4xx_hal_spi.c ****   hspi->hdmatx->XferErrorCallback    = NULL;
 3559              		.loc 1 1902 7
 3560 018a FB68     		ldr	r3, [r7, #12]
 3561 018c 9B6C     		ldr	r3, [r3, #72]
 3562              		.loc 1 1902 38
 3563 018e 0022     		movs	r2, #0
 3564 0190 DA64     		str	r2, [r3, #76]
1903:Drivers/STM32F4xx_HAL_Driver/Src/stm32f4xx_hal_spi.c ****   hspi->hdmatx->XferAbortCallback    = NULL;
 3565              		.loc 1 1903 7
 3566 0192 FB68     		ldr	r3, [r7, #12]
 3567 0194 9B6C     		ldr	r3, [r3, #72]
 3568              		.loc 1 1903 38
ARM GAS  /tmp/cc9N7Buw.s 			page 97


 3569 0196 0022     		movs	r2, #0
 3570 0198 1A65     		str	r2, [r3, #80]
1904:Drivers/STM32F4xx_HAL_Driver/Src/stm32f4xx_hal_spi.c **** 
1905:Drivers/STM32F4xx_HAL_Driver/Src/stm32f4xx_hal_spi.c ****   /* Enable the Tx DMA Stream/Channel  */
1906:Drivers/STM32F4xx_HAL_Driver/Src/stm32f4xx_hal_spi.c ****   if (HAL_OK != HAL_DMA_Start_IT(hspi->hdmatx, (uint32_t)hspi->pTxBuffPtr, (uint32_t)&hspi->Instanc
 3571              		.loc 1 1906 17
 3572 019a FB68     		ldr	r3, [r7, #12]
 3573 019c 986C     		ldr	r0, [r3, #72]
 3574              		.loc 1 1906 62
 3575 019e FB68     		ldr	r3, [r7, #12]
 3576 01a0 1B6B     		ldr	r3, [r3, #48]
 3577              		.loc 1 1906 17
 3578 01a2 1946     		mov	r1, r3
 3579              		.loc 1 1906 91
 3580 01a4 FB68     		ldr	r3, [r7, #12]
 3581 01a6 1B68     		ldr	r3, [r3]
 3582              		.loc 1 1906 86
 3583 01a8 0C33     		adds	r3, r3, #12
 3584              		.loc 1 1906 17
 3585 01aa 1A46     		mov	r2, r3
1907:Drivers/STM32F4xx_HAL_Driver/Src/stm32f4xx_hal_spi.c ****                                  hspi->TxXferCount))
 3586              		.loc 1 1907 38
 3587 01ac FB68     		ldr	r3, [r7, #12]
 3588 01ae DB8E     		ldrh	r3, [r3, #54]	@ movhi
 3589 01b0 9BB2     		uxth	r3, r3
1906:Drivers/STM32F4xx_HAL_Driver/Src/stm32f4xx_hal_spi.c ****                                  hspi->TxXferCount))
 3590              		.loc 1 1906 17
 3591 01b2 FFF7FEFF 		bl	HAL_DMA_Start_IT
 3592 01b6 0346     		mov	r3, r0
1906:Drivers/STM32F4xx_HAL_Driver/Src/stm32f4xx_hal_spi.c ****                                  hspi->TxXferCount))
 3593              		.loc 1 1906 6
 3594 01b8 002B     		cmp	r3, #0
 3595 01ba 0CD0     		beq	.L198
1908:Drivers/STM32F4xx_HAL_Driver/Src/stm32f4xx_hal_spi.c ****   {
1909:Drivers/STM32F4xx_HAL_Driver/Src/stm32f4xx_hal_spi.c ****     /* Update SPI error code */
1910:Drivers/STM32F4xx_HAL_Driver/Src/stm32f4xx_hal_spi.c ****     SET_BIT(hspi->ErrorCode, HAL_SPI_ERROR_DMA);
 3596              		.loc 1 1910 5
 3597 01bc FB68     		ldr	r3, [r7, #12]
 3598 01be 5B6D     		ldr	r3, [r3, #84]
 3599 01c0 43F01002 		orr	r2, r3, #16
 3600 01c4 FB68     		ldr	r3, [r7, #12]
 3601 01c6 5A65     		str	r2, [r3, #84]
1911:Drivers/STM32F4xx_HAL_Driver/Src/stm32f4xx_hal_spi.c ****     errorcode = HAL_ERROR;
 3602              		.loc 1 1911 15
 3603 01c8 0123     		movs	r3, #1
 3604 01ca FB75     		strb	r3, [r7, #23]
1912:Drivers/STM32F4xx_HAL_Driver/Src/stm32f4xx_hal_spi.c **** 
1913:Drivers/STM32F4xx_HAL_Driver/Src/stm32f4xx_hal_spi.c ****     hspi->State = HAL_SPI_STATE_READY;
 3605              		.loc 1 1913 17
 3606 01cc FB68     		ldr	r3, [r7, #12]
 3607 01ce 0122     		movs	r2, #1
 3608 01d0 83F85120 		strb	r2, [r3, #81]
1914:Drivers/STM32F4xx_HAL_Driver/Src/stm32f4xx_hal_spi.c ****     goto error;
 3609              		.loc 1 1914 5
 3610 01d4 1EE0     		b	.L191
 3611              	.L198:
1915:Drivers/STM32F4xx_HAL_Driver/Src/stm32f4xx_hal_spi.c ****   }
ARM GAS  /tmp/cc9N7Buw.s 			page 98


1916:Drivers/STM32F4xx_HAL_Driver/Src/stm32f4xx_hal_spi.c **** 
1917:Drivers/STM32F4xx_HAL_Driver/Src/stm32f4xx_hal_spi.c ****   /* Check if the SPI is already enabled */
1918:Drivers/STM32F4xx_HAL_Driver/Src/stm32f4xx_hal_spi.c ****   if ((hspi->Instance->CR1 & SPI_CR1_SPE) != SPI_CR1_SPE)
 3612              		.loc 1 1918 12
 3613 01d6 FB68     		ldr	r3, [r7, #12]
 3614 01d8 1B68     		ldr	r3, [r3]
 3615              		.loc 1 1918 22
 3616 01da 1B68     		ldr	r3, [r3]
 3617              		.loc 1 1918 28
 3618 01dc 03F04003 		and	r3, r3, #64
 3619              		.loc 1 1918 6
 3620 01e0 402B     		cmp	r3, #64
 3621 01e2 07D0     		beq	.L199
1919:Drivers/STM32F4xx_HAL_Driver/Src/stm32f4xx_hal_spi.c ****   {
1920:Drivers/STM32F4xx_HAL_Driver/Src/stm32f4xx_hal_spi.c ****     /* Enable SPI peripheral */
1921:Drivers/STM32F4xx_HAL_Driver/Src/stm32f4xx_hal_spi.c ****     __HAL_SPI_ENABLE(hspi);
 3622              		.loc 1 1921 5
 3623 01e4 FB68     		ldr	r3, [r7, #12]
 3624 01e6 1B68     		ldr	r3, [r3]
 3625 01e8 1A68     		ldr	r2, [r3]
 3626 01ea FB68     		ldr	r3, [r7, #12]
 3627 01ec 1B68     		ldr	r3, [r3]
 3628 01ee 42F04002 		orr	r2, r2, #64
 3629 01f2 1A60     		str	r2, [r3]
 3630              	.L199:
1922:Drivers/STM32F4xx_HAL_Driver/Src/stm32f4xx_hal_spi.c ****   }
1923:Drivers/STM32F4xx_HAL_Driver/Src/stm32f4xx_hal_spi.c ****   /* Enable the SPI Error Interrupt Bit */
1924:Drivers/STM32F4xx_HAL_Driver/Src/stm32f4xx_hal_spi.c ****   __HAL_SPI_ENABLE_IT(hspi, (SPI_IT_ERR));
 3631              		.loc 1 1924 3
 3632 01f4 FB68     		ldr	r3, [r7, #12]
 3633 01f6 1B68     		ldr	r3, [r3]
 3634 01f8 5A68     		ldr	r2, [r3, #4]
 3635 01fa FB68     		ldr	r3, [r7, #12]
 3636 01fc 1B68     		ldr	r3, [r3]
 3637 01fe 42F02002 		orr	r2, r2, #32
 3638 0202 5A60     		str	r2, [r3, #4]
1925:Drivers/STM32F4xx_HAL_Driver/Src/stm32f4xx_hal_spi.c **** 
1926:Drivers/STM32F4xx_HAL_Driver/Src/stm32f4xx_hal_spi.c ****   /* Enable Tx DMA Request */
1927:Drivers/STM32F4xx_HAL_Driver/Src/stm32f4xx_hal_spi.c ****   SET_BIT(hspi->Instance->CR2, SPI_CR2_TXDMAEN);
 3639              		.loc 1 1927 3
 3640 0204 FB68     		ldr	r3, [r7, #12]
 3641 0206 1B68     		ldr	r3, [r3]
 3642 0208 5A68     		ldr	r2, [r3, #4]
 3643 020a FB68     		ldr	r3, [r7, #12]
 3644 020c 1B68     		ldr	r3, [r3]
 3645 020e 42F00202 		orr	r2, r2, #2
 3646 0212 5A60     		str	r2, [r3, #4]
 3647              	.L191:
1928:Drivers/STM32F4xx_HAL_Driver/Src/stm32f4xx_hal_spi.c **** 
1929:Drivers/STM32F4xx_HAL_Driver/Src/stm32f4xx_hal_spi.c **** error :
1930:Drivers/STM32F4xx_HAL_Driver/Src/stm32f4xx_hal_spi.c ****   /* Process Unlocked */
1931:Drivers/STM32F4xx_HAL_Driver/Src/stm32f4xx_hal_spi.c ****   __HAL_UNLOCK(hspi);
 3648              		.loc 1 1931 3
 3649 0214 FB68     		ldr	r3, [r7, #12]
 3650 0216 0022     		movs	r2, #0
 3651 0218 83F85020 		strb	r2, [r3, #80]
1932:Drivers/STM32F4xx_HAL_Driver/Src/stm32f4xx_hal_spi.c ****   return errorcode;
ARM GAS  /tmp/cc9N7Buw.s 			page 99


 3652              		.loc 1 1932 10
 3653 021c FB7D     		ldrb	r3, [r7, #23]	@ zero_extendqisi2
 3654              	.L188:
1933:Drivers/STM32F4xx_HAL_Driver/Src/stm32f4xx_hal_spi.c **** }
 3655              		.loc 1 1933 1
 3656 021e 1846     		mov	r0, r3
 3657 0220 1837     		adds	r7, r7, #24
 3658              	.LCFI65:
 3659              		.cfi_def_cfa_offset 8
 3660 0222 BD46     		mov	sp, r7
 3661              	.LCFI66:
 3662              		.cfi_def_cfa_register 13
 3663              		@ sp needed
 3664 0224 80BD     		pop	{r7, pc}
 3665              	.L201:
 3666 0226 00BF     		.align	2
 3667              	.L200:
 3668 0228 00000000 		.word	.LC0
 3669 022c 00000000 		.word	SPI_DMAHalfReceiveCplt
 3670 0230 00000000 		.word	SPI_DMAReceiveCplt
 3671 0234 00000000 		.word	SPI_DMAHalfTransmitReceiveCplt
 3672 0238 00000000 		.word	SPI_DMATransmitReceiveCplt
 3673 023c 00000000 		.word	SPI_DMAError
 3674              		.cfi_endproc
 3675              	.LFE142:
 3677              		.section	.text.HAL_SPI_Abort,"ax",%progbits
 3678              		.align	1
 3679              		.global	HAL_SPI_Abort
 3680              		.syntax unified
 3681              		.thumb
 3682              		.thumb_func
 3683              		.fpu fpv4-sp-d16
 3685              	HAL_SPI_Abort:
 3686              	.LFB143:
1934:Drivers/STM32F4xx_HAL_Driver/Src/stm32f4xx_hal_spi.c **** 
1935:Drivers/STM32F4xx_HAL_Driver/Src/stm32f4xx_hal_spi.c **** /**
1936:Drivers/STM32F4xx_HAL_Driver/Src/stm32f4xx_hal_spi.c ****   * @brief  Abort ongoing transfer (blocking mode).
1937:Drivers/STM32F4xx_HAL_Driver/Src/stm32f4xx_hal_spi.c ****   * @param  hspi SPI handle.
1938:Drivers/STM32F4xx_HAL_Driver/Src/stm32f4xx_hal_spi.c ****   * @note   This procedure could be used for aborting any ongoing transfer (Tx and Rx),
1939:Drivers/STM32F4xx_HAL_Driver/Src/stm32f4xx_hal_spi.c ****   *         started in Interrupt or DMA mode.
1940:Drivers/STM32F4xx_HAL_Driver/Src/stm32f4xx_hal_spi.c ****   *         This procedure performs following operations :
1941:Drivers/STM32F4xx_HAL_Driver/Src/stm32f4xx_hal_spi.c ****   *           - Disable SPI Interrupts (depending of transfer direction)
1942:Drivers/STM32F4xx_HAL_Driver/Src/stm32f4xx_hal_spi.c ****   *           - Disable the DMA transfer in the peripheral register (if enabled)
1943:Drivers/STM32F4xx_HAL_Driver/Src/stm32f4xx_hal_spi.c ****   *           - Abort DMA transfer by calling HAL_DMA_Abort (in case of transfer in DMA mode)
1944:Drivers/STM32F4xx_HAL_Driver/Src/stm32f4xx_hal_spi.c ****   *           - Set handle State to READY
1945:Drivers/STM32F4xx_HAL_Driver/Src/stm32f4xx_hal_spi.c ****   * @note   This procedure is executed in blocking mode : when exiting function, Abort is considere
1946:Drivers/STM32F4xx_HAL_Driver/Src/stm32f4xx_hal_spi.c ****   * @retval HAL status
1947:Drivers/STM32F4xx_HAL_Driver/Src/stm32f4xx_hal_spi.c ****   */
1948:Drivers/STM32F4xx_HAL_Driver/Src/stm32f4xx_hal_spi.c **** HAL_StatusTypeDef HAL_SPI_Abort(SPI_HandleTypeDef *hspi)
1949:Drivers/STM32F4xx_HAL_Driver/Src/stm32f4xx_hal_spi.c **** {
 3687              		.loc 1 1949 1
 3688              		.cfi_startproc
 3689              		@ args = 0, pretend = 0, frame = 32
 3690              		@ frame_needed = 1, uses_anonymous_args = 0
 3691 0000 80B5     		push	{r7, lr}
 3692              	.LCFI67:
 3693              		.cfi_def_cfa_offset 8
ARM GAS  /tmp/cc9N7Buw.s 			page 100


 3694              		.cfi_offset 7, -8
 3695              		.cfi_offset 14, -4
 3696 0002 88B0     		sub	sp, sp, #32
 3697              	.LCFI68:
 3698              		.cfi_def_cfa_offset 40
 3699 0004 00AF     		add	r7, sp, #0
 3700              	.LCFI69:
 3701              		.cfi_def_cfa_register 7
 3702 0006 7860     		str	r0, [r7, #4]
1950:Drivers/STM32F4xx_HAL_Driver/Src/stm32f4xx_hal_spi.c ****   HAL_StatusTypeDef errorcode;
1951:Drivers/STM32F4xx_HAL_Driver/Src/stm32f4xx_hal_spi.c ****   __IO uint32_t count;
1952:Drivers/STM32F4xx_HAL_Driver/Src/stm32f4xx_hal_spi.c ****   __IO uint32_t resetcount;
1953:Drivers/STM32F4xx_HAL_Driver/Src/stm32f4xx_hal_spi.c **** 
1954:Drivers/STM32F4xx_HAL_Driver/Src/stm32f4xx_hal_spi.c ****   /* Initialized local variable  */
1955:Drivers/STM32F4xx_HAL_Driver/Src/stm32f4xx_hal_spi.c ****   errorcode = HAL_OK;
 3703              		.loc 1 1955 13
 3704 0008 0023     		movs	r3, #0
 3705 000a FB77     		strb	r3, [r7, #31]
1956:Drivers/STM32F4xx_HAL_Driver/Src/stm32f4xx_hal_spi.c ****   resetcount = SPI_DEFAULT_TIMEOUT * (SystemCoreClock / 24U / 1000U);
 3706              		.loc 1 1956 61
 3707 000c 6E4B     		ldr	r3, .L220
 3708 000e 1B68     		ldr	r3, [r3]
 3709 0010 6E4A     		ldr	r2, .L220+4
 3710 0012 A2FB0323 		umull	r2, r3, r2, r3
 3711 0016 5B0A     		lsrs	r3, r3, #9
 3712              		.loc 1 1956 36
 3713 0018 6422     		movs	r2, #100
 3714 001a 02FB03F3 		mul	r3, r2, r3
 3715              		.loc 1 1956 14
 3716 001e 7B61     		str	r3, [r7, #20]
1957:Drivers/STM32F4xx_HAL_Driver/Src/stm32f4xx_hal_spi.c ****   count = resetcount;
 3717              		.loc 1 1957 9
 3718 0020 7B69     		ldr	r3, [r7, #20]
 3719 0022 BB61     		str	r3, [r7, #24]
1958:Drivers/STM32F4xx_HAL_Driver/Src/stm32f4xx_hal_spi.c **** 
1959:Drivers/STM32F4xx_HAL_Driver/Src/stm32f4xx_hal_spi.c ****   /* Clear ERRIE interrupt to avoid error interrupts generation during Abort procedure */
1960:Drivers/STM32F4xx_HAL_Driver/Src/stm32f4xx_hal_spi.c ****   CLEAR_BIT(hspi->Instance->CR2, SPI_CR2_ERRIE);
 3720              		.loc 1 1960 3
 3721 0024 7B68     		ldr	r3, [r7, #4]
 3722 0026 1B68     		ldr	r3, [r3]
 3723 0028 5A68     		ldr	r2, [r3, #4]
 3724 002a 7B68     		ldr	r3, [r7, #4]
 3725 002c 1B68     		ldr	r3, [r3]
 3726 002e 22F02002 		bic	r2, r2, #32
 3727 0032 5A60     		str	r2, [r3, #4]
1961:Drivers/STM32F4xx_HAL_Driver/Src/stm32f4xx_hal_spi.c **** 
1962:Drivers/STM32F4xx_HAL_Driver/Src/stm32f4xx_hal_spi.c ****   /* Disable TXEIE, RXNEIE and ERRIE(mode fault event, overrun error, TI frame error) interrupts */
1963:Drivers/STM32F4xx_HAL_Driver/Src/stm32f4xx_hal_spi.c ****   if (HAL_IS_BIT_SET(hspi->Instance->CR2, SPI_CR2_TXEIE))
 3728              		.loc 1 1963 7
 3729 0034 7B68     		ldr	r3, [r7, #4]
 3730 0036 1B68     		ldr	r3, [r3]
 3731 0038 5B68     		ldr	r3, [r3, #4]
 3732 003a 03F08003 		and	r3, r3, #128
 3733              		.loc 1 1963 6
 3734 003e 802B     		cmp	r3, #128
 3735 0040 17D1     		bne	.L203
1964:Drivers/STM32F4xx_HAL_Driver/Src/stm32f4xx_hal_spi.c ****   {
ARM GAS  /tmp/cc9N7Buw.s 			page 101


1965:Drivers/STM32F4xx_HAL_Driver/Src/stm32f4xx_hal_spi.c ****     hspi->TxISR = SPI_AbortTx_ISR;
 3736              		.loc 1 1965 17
 3737 0042 7B68     		ldr	r3, [r7, #4]
 3738 0044 624A     		ldr	r2, .L220+8
 3739 0046 5A64     		str	r2, [r3, #68]
 3740              	.L206:
1966:Drivers/STM32F4xx_HAL_Driver/Src/stm32f4xx_hal_spi.c ****     /* Wait HAL_SPI_STATE_ABORT state */
1967:Drivers/STM32F4xx_HAL_Driver/Src/stm32f4xx_hal_spi.c ****     do
1968:Drivers/STM32F4xx_HAL_Driver/Src/stm32f4xx_hal_spi.c ****     {
1969:Drivers/STM32F4xx_HAL_Driver/Src/stm32f4xx_hal_spi.c ****       if (count == 0U)
 3741              		.loc 1 1969 17
 3742 0048 BB69     		ldr	r3, [r7, #24]
 3743              		.loc 1 1969 10
 3744 004a 002B     		cmp	r3, #0
 3745 004c 06D1     		bne	.L204
1970:Drivers/STM32F4xx_HAL_Driver/Src/stm32f4xx_hal_spi.c ****       {
1971:Drivers/STM32F4xx_HAL_Driver/Src/stm32f4xx_hal_spi.c ****         SET_BIT(hspi->ErrorCode, HAL_SPI_ERROR_ABORT);
 3746              		.loc 1 1971 9
 3747 004e 7B68     		ldr	r3, [r7, #4]
 3748 0050 5B6D     		ldr	r3, [r3, #84]
 3749 0052 43F04002 		orr	r2, r3, #64
 3750 0056 7B68     		ldr	r3, [r7, #4]
 3751 0058 5A65     		str	r2, [r3, #84]
1972:Drivers/STM32F4xx_HAL_Driver/Src/stm32f4xx_hal_spi.c ****         break;
 3752              		.loc 1 1972 9
 3753 005a 08E0     		b	.L205
 3754              	.L204:
1973:Drivers/STM32F4xx_HAL_Driver/Src/stm32f4xx_hal_spi.c ****       }
1974:Drivers/STM32F4xx_HAL_Driver/Src/stm32f4xx_hal_spi.c ****       count--;
 3755              		.loc 1 1974 12
 3756 005c BB69     		ldr	r3, [r7, #24]
 3757 005e 013B     		subs	r3, r3, #1
 3758 0060 BB61     		str	r3, [r7, #24]
1975:Drivers/STM32F4xx_HAL_Driver/Src/stm32f4xx_hal_spi.c ****     } while (hspi->State != HAL_SPI_STATE_ABORT);
 3759              		.loc 1 1975 18
 3760 0062 7B68     		ldr	r3, [r7, #4]
 3761 0064 93F85130 		ldrb	r3, [r3, #81]
 3762 0068 DBB2     		uxtb	r3, r3
 3763              		.loc 1 1975 5
 3764 006a 072B     		cmp	r3, #7
 3765 006c ECD1     		bne	.L206
 3766              	.L205:
1976:Drivers/STM32F4xx_HAL_Driver/Src/stm32f4xx_hal_spi.c ****     /* Reset Timeout Counter */
1977:Drivers/STM32F4xx_HAL_Driver/Src/stm32f4xx_hal_spi.c ****     count = resetcount;
 3767              		.loc 1 1977 11
 3768 006e 7B69     		ldr	r3, [r7, #20]
 3769 0070 BB61     		str	r3, [r7, #24]
 3770              	.L203:
1978:Drivers/STM32F4xx_HAL_Driver/Src/stm32f4xx_hal_spi.c ****   }
1979:Drivers/STM32F4xx_HAL_Driver/Src/stm32f4xx_hal_spi.c **** 
1980:Drivers/STM32F4xx_HAL_Driver/Src/stm32f4xx_hal_spi.c ****   if (HAL_IS_BIT_SET(hspi->Instance->CR2, SPI_CR2_RXNEIE))
 3771              		.loc 1 1980 7
 3772 0072 7B68     		ldr	r3, [r7, #4]
 3773 0074 1B68     		ldr	r3, [r3]
 3774 0076 5B68     		ldr	r3, [r3, #4]
 3775 0078 03F04003 		and	r3, r3, #64
 3776              		.loc 1 1980 6
ARM GAS  /tmp/cc9N7Buw.s 			page 102


 3777 007c 402B     		cmp	r3, #64
 3778 007e 17D1     		bne	.L207
1981:Drivers/STM32F4xx_HAL_Driver/Src/stm32f4xx_hal_spi.c ****   {
1982:Drivers/STM32F4xx_HAL_Driver/Src/stm32f4xx_hal_spi.c ****     hspi->RxISR = SPI_AbortRx_ISR;
 3779              		.loc 1 1982 17
 3780 0080 7B68     		ldr	r3, [r7, #4]
 3781 0082 544A     		ldr	r2, .L220+12
 3782 0084 1A64     		str	r2, [r3, #64]
 3783              	.L210:
1983:Drivers/STM32F4xx_HAL_Driver/Src/stm32f4xx_hal_spi.c ****     /* Wait HAL_SPI_STATE_ABORT state */
1984:Drivers/STM32F4xx_HAL_Driver/Src/stm32f4xx_hal_spi.c ****     do
1985:Drivers/STM32F4xx_HAL_Driver/Src/stm32f4xx_hal_spi.c ****     {
1986:Drivers/STM32F4xx_HAL_Driver/Src/stm32f4xx_hal_spi.c ****       if (count == 0U)
 3784              		.loc 1 1986 17
 3785 0086 BB69     		ldr	r3, [r7, #24]
 3786              		.loc 1 1986 10
 3787 0088 002B     		cmp	r3, #0
 3788 008a 06D1     		bne	.L208
1987:Drivers/STM32F4xx_HAL_Driver/Src/stm32f4xx_hal_spi.c ****       {
1988:Drivers/STM32F4xx_HAL_Driver/Src/stm32f4xx_hal_spi.c ****         SET_BIT(hspi->ErrorCode, HAL_SPI_ERROR_ABORT);
 3789              		.loc 1 1988 9
 3790 008c 7B68     		ldr	r3, [r7, #4]
 3791 008e 5B6D     		ldr	r3, [r3, #84]
 3792 0090 43F04002 		orr	r2, r3, #64
 3793 0094 7B68     		ldr	r3, [r7, #4]
 3794 0096 5A65     		str	r2, [r3, #84]
1989:Drivers/STM32F4xx_HAL_Driver/Src/stm32f4xx_hal_spi.c ****         break;
 3795              		.loc 1 1989 9
 3796 0098 08E0     		b	.L209
 3797              	.L208:
1990:Drivers/STM32F4xx_HAL_Driver/Src/stm32f4xx_hal_spi.c ****       }
1991:Drivers/STM32F4xx_HAL_Driver/Src/stm32f4xx_hal_spi.c ****       count--;
 3798              		.loc 1 1991 12
 3799 009a BB69     		ldr	r3, [r7, #24]
 3800 009c 013B     		subs	r3, r3, #1
 3801 009e BB61     		str	r3, [r7, #24]
1992:Drivers/STM32F4xx_HAL_Driver/Src/stm32f4xx_hal_spi.c ****     } while (hspi->State != HAL_SPI_STATE_ABORT);
 3802              		.loc 1 1992 18
 3803 00a0 7B68     		ldr	r3, [r7, #4]
 3804 00a2 93F85130 		ldrb	r3, [r3, #81]
 3805 00a6 DBB2     		uxtb	r3, r3
 3806              		.loc 1 1992 5
 3807 00a8 072B     		cmp	r3, #7
 3808 00aa ECD1     		bne	.L210
 3809              	.L209:
1993:Drivers/STM32F4xx_HAL_Driver/Src/stm32f4xx_hal_spi.c ****     /* Reset Timeout Counter */
1994:Drivers/STM32F4xx_HAL_Driver/Src/stm32f4xx_hal_spi.c ****     count = resetcount;
 3810              		.loc 1 1994 11
 3811 00ac 7B69     		ldr	r3, [r7, #20]
 3812 00ae BB61     		str	r3, [r7, #24]
 3813              	.L207:
1995:Drivers/STM32F4xx_HAL_Driver/Src/stm32f4xx_hal_spi.c ****   }
1996:Drivers/STM32F4xx_HAL_Driver/Src/stm32f4xx_hal_spi.c **** 
1997:Drivers/STM32F4xx_HAL_Driver/Src/stm32f4xx_hal_spi.c ****   /* Disable the SPI DMA Tx request if enabled */
1998:Drivers/STM32F4xx_HAL_Driver/Src/stm32f4xx_hal_spi.c ****   if (HAL_IS_BIT_SET(hspi->Instance->CR2, SPI_CR2_TXDMAEN))
 3814              		.loc 1 1998 7
 3815 00b0 7B68     		ldr	r3, [r7, #4]
ARM GAS  /tmp/cc9N7Buw.s 			page 103


 3816 00b2 1B68     		ldr	r3, [r3]
 3817 00b4 5B68     		ldr	r3, [r3, #4]
 3818 00b6 03F00203 		and	r3, r3, #2
 3819              		.loc 1 1998 6
 3820 00ba 022B     		cmp	r3, #2
 3821 00bc 2ED1     		bne	.L211
1999:Drivers/STM32F4xx_HAL_Driver/Src/stm32f4xx_hal_spi.c ****   {
2000:Drivers/STM32F4xx_HAL_Driver/Src/stm32f4xx_hal_spi.c ****     /* Abort the SPI DMA Tx Stream/Channel : use blocking DMA Abort API (no callback) */
2001:Drivers/STM32F4xx_HAL_Driver/Src/stm32f4xx_hal_spi.c ****     if (hspi->hdmatx != NULL)
 3822              		.loc 1 2001 13
 3823 00be 7B68     		ldr	r3, [r7, #4]
 3824 00c0 9B6C     		ldr	r3, [r3, #72]
 3825              		.loc 1 2001 8
 3826 00c2 002B     		cmp	r3, #0
 3827 00c4 2AD0     		beq	.L211
2002:Drivers/STM32F4xx_HAL_Driver/Src/stm32f4xx_hal_spi.c ****     {
2003:Drivers/STM32F4xx_HAL_Driver/Src/stm32f4xx_hal_spi.c ****       /* Set the SPI DMA Abort callback :
2004:Drivers/STM32F4xx_HAL_Driver/Src/stm32f4xx_hal_spi.c ****       will lead to call HAL_SPI_AbortCpltCallback() at end of DMA abort procedure */
2005:Drivers/STM32F4xx_HAL_Driver/Src/stm32f4xx_hal_spi.c ****       hspi->hdmatx->XferAbortCallback = NULL;
 3828              		.loc 1 2005 11
 3829 00c6 7B68     		ldr	r3, [r7, #4]
 3830 00c8 9B6C     		ldr	r3, [r3, #72]
 3831              		.loc 1 2005 39
 3832 00ca 0022     		movs	r2, #0
 3833 00cc 1A65     		str	r2, [r3, #80]
2006:Drivers/STM32F4xx_HAL_Driver/Src/stm32f4xx_hal_spi.c **** 
2007:Drivers/STM32F4xx_HAL_Driver/Src/stm32f4xx_hal_spi.c ****       /* Abort DMA Tx Handle linked to SPI Peripheral */
2008:Drivers/STM32F4xx_HAL_Driver/Src/stm32f4xx_hal_spi.c ****       if (HAL_DMA_Abort(hspi->hdmatx) != HAL_OK)
 3834              		.loc 1 2008 11
 3835 00ce 7B68     		ldr	r3, [r7, #4]
 3836 00d0 9B6C     		ldr	r3, [r3, #72]
 3837 00d2 1846     		mov	r0, r3
 3838 00d4 FFF7FEFF 		bl	HAL_DMA_Abort
 3839 00d8 0346     		mov	r3, r0
 3840              		.loc 1 2008 10
 3841 00da 002B     		cmp	r3, #0
 3842 00dc 02D0     		beq	.L212
2009:Drivers/STM32F4xx_HAL_Driver/Src/stm32f4xx_hal_spi.c ****       {
2010:Drivers/STM32F4xx_HAL_Driver/Src/stm32f4xx_hal_spi.c ****         hspi->ErrorCode = HAL_SPI_ERROR_ABORT;
 3843              		.loc 1 2010 25
 3844 00de 7B68     		ldr	r3, [r7, #4]
 3845 00e0 4022     		movs	r2, #64
 3846 00e2 5A65     		str	r2, [r3, #84]
 3847              	.L212:
2011:Drivers/STM32F4xx_HAL_Driver/Src/stm32f4xx_hal_spi.c ****       }
2012:Drivers/STM32F4xx_HAL_Driver/Src/stm32f4xx_hal_spi.c **** 
2013:Drivers/STM32F4xx_HAL_Driver/Src/stm32f4xx_hal_spi.c ****       /* Disable Tx DMA Request */
2014:Drivers/STM32F4xx_HAL_Driver/Src/stm32f4xx_hal_spi.c ****       CLEAR_BIT(hspi->Instance->CR2, (SPI_CR2_TXDMAEN));
 3848              		.loc 1 2014 7
 3849 00e4 7B68     		ldr	r3, [r7, #4]
 3850 00e6 1B68     		ldr	r3, [r3]
 3851 00e8 5A68     		ldr	r2, [r3, #4]
 3852 00ea 7B68     		ldr	r3, [r7, #4]
 3853 00ec 1B68     		ldr	r3, [r3]
 3854 00ee 22F00202 		bic	r2, r2, #2
 3855 00f2 5A60     		str	r2, [r3, #4]
 3856              	.L214:
ARM GAS  /tmp/cc9N7Buw.s 			page 104


2015:Drivers/STM32F4xx_HAL_Driver/Src/stm32f4xx_hal_spi.c **** 
2016:Drivers/STM32F4xx_HAL_Driver/Src/stm32f4xx_hal_spi.c ****       /* Wait until TXE flag is set */
2017:Drivers/STM32F4xx_HAL_Driver/Src/stm32f4xx_hal_spi.c ****       do
2018:Drivers/STM32F4xx_HAL_Driver/Src/stm32f4xx_hal_spi.c ****       {
2019:Drivers/STM32F4xx_HAL_Driver/Src/stm32f4xx_hal_spi.c ****         if (count == 0U)
 3857              		.loc 1 2019 19
 3858 00f4 BB69     		ldr	r3, [r7, #24]
 3859              		.loc 1 2019 12
 3860 00f6 002B     		cmp	r3, #0
 3861 00f8 06D1     		bne	.L213
2020:Drivers/STM32F4xx_HAL_Driver/Src/stm32f4xx_hal_spi.c ****         {
2021:Drivers/STM32F4xx_HAL_Driver/Src/stm32f4xx_hal_spi.c ****           SET_BIT(hspi->ErrorCode, HAL_SPI_ERROR_ABORT);
 3862              		.loc 1 2021 11
 3863 00fa 7B68     		ldr	r3, [r7, #4]
 3864 00fc 5B6D     		ldr	r3, [r3, #84]
 3865 00fe 43F04002 		orr	r2, r3, #64
 3866 0102 7B68     		ldr	r3, [r7, #4]
 3867 0104 5A65     		str	r2, [r3, #84]
2022:Drivers/STM32F4xx_HAL_Driver/Src/stm32f4xx_hal_spi.c ****           break;
 3868              		.loc 1 2022 11
 3869 0106 09E0     		b	.L211
 3870              	.L213:
2023:Drivers/STM32F4xx_HAL_Driver/Src/stm32f4xx_hal_spi.c ****         }
2024:Drivers/STM32F4xx_HAL_Driver/Src/stm32f4xx_hal_spi.c ****         count--;
 3871              		.loc 1 2024 14
 3872 0108 BB69     		ldr	r3, [r7, #24]
 3873 010a 013B     		subs	r3, r3, #1
 3874 010c BB61     		str	r3, [r7, #24]
2025:Drivers/STM32F4xx_HAL_Driver/Src/stm32f4xx_hal_spi.c ****       } while ((hspi->Instance->SR & SPI_FLAG_TXE) == RESET);
 3875              		.loc 1 2025 21
 3876 010e 7B68     		ldr	r3, [r7, #4]
 3877 0110 1B68     		ldr	r3, [r3]
 3878              		.loc 1 2025 31
 3879 0112 9B68     		ldr	r3, [r3, #8]
 3880              		.loc 1 2025 36
 3881 0114 03F00203 		and	r3, r3, #2
 3882              		.loc 1 2025 7
 3883 0118 002B     		cmp	r3, #0
 3884 011a EBD0     		beq	.L214
 3885              	.L211:
2026:Drivers/STM32F4xx_HAL_Driver/Src/stm32f4xx_hal_spi.c ****     }
2027:Drivers/STM32F4xx_HAL_Driver/Src/stm32f4xx_hal_spi.c ****   }
2028:Drivers/STM32F4xx_HAL_Driver/Src/stm32f4xx_hal_spi.c **** 
2029:Drivers/STM32F4xx_HAL_Driver/Src/stm32f4xx_hal_spi.c ****   /* Disable the SPI DMA Rx request if enabled */
2030:Drivers/STM32F4xx_HAL_Driver/Src/stm32f4xx_hal_spi.c ****   if (HAL_IS_BIT_SET(hspi->Instance->CR2, SPI_CR2_RXDMAEN))
 3886              		.loc 1 2030 7
 3887 011c 7B68     		ldr	r3, [r7, #4]
 3888 011e 1B68     		ldr	r3, [r3]
 3889 0120 5B68     		ldr	r3, [r3, #4]
 3890 0122 03F00103 		and	r3, r3, #1
 3891              		.loc 1 2030 6
 3892 0126 012B     		cmp	r3, #1
 3893 0128 22D1     		bne	.L215
2031:Drivers/STM32F4xx_HAL_Driver/Src/stm32f4xx_hal_spi.c ****   {
2032:Drivers/STM32F4xx_HAL_Driver/Src/stm32f4xx_hal_spi.c ****     /* Abort the SPI DMA Rx Stream/Channel : use blocking DMA Abort API (no callback) */
2033:Drivers/STM32F4xx_HAL_Driver/Src/stm32f4xx_hal_spi.c ****     if (hspi->hdmarx != NULL)
 3894              		.loc 1 2033 13
ARM GAS  /tmp/cc9N7Buw.s 			page 105


 3895 012a 7B68     		ldr	r3, [r7, #4]
 3896 012c DB6C     		ldr	r3, [r3, #76]
 3897              		.loc 1 2033 8
 3898 012e 002B     		cmp	r3, #0
 3899 0130 1ED0     		beq	.L215
2034:Drivers/STM32F4xx_HAL_Driver/Src/stm32f4xx_hal_spi.c ****     {
2035:Drivers/STM32F4xx_HAL_Driver/Src/stm32f4xx_hal_spi.c ****       /* Set the SPI DMA Abort callback :
2036:Drivers/STM32F4xx_HAL_Driver/Src/stm32f4xx_hal_spi.c ****       will lead to call HAL_SPI_AbortCpltCallback() at end of DMA abort procedure */
2037:Drivers/STM32F4xx_HAL_Driver/Src/stm32f4xx_hal_spi.c ****       hspi->hdmarx->XferAbortCallback = NULL;
 3900              		.loc 1 2037 11
 3901 0132 7B68     		ldr	r3, [r7, #4]
 3902 0134 DB6C     		ldr	r3, [r3, #76]
 3903              		.loc 1 2037 39
 3904 0136 0022     		movs	r2, #0
 3905 0138 1A65     		str	r2, [r3, #80]
2038:Drivers/STM32F4xx_HAL_Driver/Src/stm32f4xx_hal_spi.c **** 
2039:Drivers/STM32F4xx_HAL_Driver/Src/stm32f4xx_hal_spi.c ****       /* Abort DMA Rx Handle linked to SPI Peripheral */
2040:Drivers/STM32F4xx_HAL_Driver/Src/stm32f4xx_hal_spi.c ****       if (HAL_DMA_Abort(hspi->hdmarx) != HAL_OK)
 3906              		.loc 1 2040 11
 3907 013a 7B68     		ldr	r3, [r7, #4]
 3908 013c DB6C     		ldr	r3, [r3, #76]
 3909 013e 1846     		mov	r0, r3
 3910 0140 FFF7FEFF 		bl	HAL_DMA_Abort
 3911 0144 0346     		mov	r3, r0
 3912              		.loc 1 2040 10
 3913 0146 002B     		cmp	r3, #0
 3914 0148 02D0     		beq	.L216
2041:Drivers/STM32F4xx_HAL_Driver/Src/stm32f4xx_hal_spi.c ****       {
2042:Drivers/STM32F4xx_HAL_Driver/Src/stm32f4xx_hal_spi.c ****         hspi->ErrorCode = HAL_SPI_ERROR_ABORT;
 3915              		.loc 1 2042 25
 3916 014a 7B68     		ldr	r3, [r7, #4]
 3917 014c 4022     		movs	r2, #64
 3918 014e 5A65     		str	r2, [r3, #84]
 3919              	.L216:
2043:Drivers/STM32F4xx_HAL_Driver/Src/stm32f4xx_hal_spi.c ****       }
2044:Drivers/STM32F4xx_HAL_Driver/Src/stm32f4xx_hal_spi.c **** 
2045:Drivers/STM32F4xx_HAL_Driver/Src/stm32f4xx_hal_spi.c ****       /* Disable peripheral */
2046:Drivers/STM32F4xx_HAL_Driver/Src/stm32f4xx_hal_spi.c ****       __HAL_SPI_DISABLE(hspi);
 3920              		.loc 1 2046 7
 3921 0150 7B68     		ldr	r3, [r7, #4]
 3922 0152 1B68     		ldr	r3, [r3]
 3923 0154 1A68     		ldr	r2, [r3]
 3924 0156 7B68     		ldr	r3, [r7, #4]
 3925 0158 1B68     		ldr	r3, [r3]
 3926 015a 22F04002 		bic	r2, r2, #64
 3927 015e 1A60     		str	r2, [r3]
2047:Drivers/STM32F4xx_HAL_Driver/Src/stm32f4xx_hal_spi.c **** 
2048:Drivers/STM32F4xx_HAL_Driver/Src/stm32f4xx_hal_spi.c ****       /* Disable Rx DMA Request */
2049:Drivers/STM32F4xx_HAL_Driver/Src/stm32f4xx_hal_spi.c ****       CLEAR_BIT(hspi->Instance->CR2, (SPI_CR2_RXDMAEN));
 3928              		.loc 1 2049 7
 3929 0160 7B68     		ldr	r3, [r7, #4]
 3930 0162 1B68     		ldr	r3, [r3]
 3931 0164 5A68     		ldr	r2, [r3, #4]
 3932 0166 7B68     		ldr	r3, [r7, #4]
 3933 0168 1B68     		ldr	r3, [r3]
 3934 016a 22F00102 		bic	r2, r2, #1
 3935 016e 5A60     		str	r2, [r3, #4]
ARM GAS  /tmp/cc9N7Buw.s 			page 106


 3936              	.L215:
2050:Drivers/STM32F4xx_HAL_Driver/Src/stm32f4xx_hal_spi.c ****     }
2051:Drivers/STM32F4xx_HAL_Driver/Src/stm32f4xx_hal_spi.c ****   }
2052:Drivers/STM32F4xx_HAL_Driver/Src/stm32f4xx_hal_spi.c ****   /* Reset Tx and Rx transfer counters */
2053:Drivers/STM32F4xx_HAL_Driver/Src/stm32f4xx_hal_spi.c ****   hspi->RxXferCount = 0U;
 3937              		.loc 1 2053 21
 3938 0170 7B68     		ldr	r3, [r7, #4]
 3939 0172 0022     		movs	r2, #0
 3940 0174 DA87     		strh	r2, [r3, #62]	@ movhi
2054:Drivers/STM32F4xx_HAL_Driver/Src/stm32f4xx_hal_spi.c ****   hspi->TxXferCount = 0U;
 3941              		.loc 1 2054 21
 3942 0176 7B68     		ldr	r3, [r7, #4]
 3943 0178 0022     		movs	r2, #0
 3944 017a DA86     		strh	r2, [r3, #54]	@ movhi
2055:Drivers/STM32F4xx_HAL_Driver/Src/stm32f4xx_hal_spi.c **** 
2056:Drivers/STM32F4xx_HAL_Driver/Src/stm32f4xx_hal_spi.c ****   /* Check error during Abort procedure */
2057:Drivers/STM32F4xx_HAL_Driver/Src/stm32f4xx_hal_spi.c ****   if (hspi->ErrorCode == HAL_SPI_ERROR_ABORT)
 3945              		.loc 1 2057 11
 3946 017c 7B68     		ldr	r3, [r7, #4]
 3947 017e 5B6D     		ldr	r3, [r3, #84]
 3948              		.loc 1 2057 6
 3949 0180 402B     		cmp	r3, #64
 3950 0182 02D1     		bne	.L217
2058:Drivers/STM32F4xx_HAL_Driver/Src/stm32f4xx_hal_spi.c ****   {
2059:Drivers/STM32F4xx_HAL_Driver/Src/stm32f4xx_hal_spi.c ****     /* return HAL_Error in case of error during Abort procedure */
2060:Drivers/STM32F4xx_HAL_Driver/Src/stm32f4xx_hal_spi.c ****     errorcode = HAL_ERROR;
 3951              		.loc 1 2060 15
 3952 0184 0123     		movs	r3, #1
 3953 0186 FB77     		strb	r3, [r7, #31]
 3954 0188 02E0     		b	.L218
 3955              	.L217:
2061:Drivers/STM32F4xx_HAL_Driver/Src/stm32f4xx_hal_spi.c ****   }
2062:Drivers/STM32F4xx_HAL_Driver/Src/stm32f4xx_hal_spi.c ****   else
2063:Drivers/STM32F4xx_HAL_Driver/Src/stm32f4xx_hal_spi.c ****   {
2064:Drivers/STM32F4xx_HAL_Driver/Src/stm32f4xx_hal_spi.c ****     /* Reset errorCode */
2065:Drivers/STM32F4xx_HAL_Driver/Src/stm32f4xx_hal_spi.c ****     hspi->ErrorCode = HAL_SPI_ERROR_NONE;
 3956              		.loc 1 2065 21
 3957 018a 7B68     		ldr	r3, [r7, #4]
 3958 018c 0022     		movs	r2, #0
 3959 018e 5A65     		str	r2, [r3, #84]
 3960              	.L218:
 3961              	.LBB4:
2066:Drivers/STM32F4xx_HAL_Driver/Src/stm32f4xx_hal_spi.c ****   }
2067:Drivers/STM32F4xx_HAL_Driver/Src/stm32f4xx_hal_spi.c **** 
2068:Drivers/STM32F4xx_HAL_Driver/Src/stm32f4xx_hal_spi.c ****   /* Clear the Error flags in the SR register */
2069:Drivers/STM32F4xx_HAL_Driver/Src/stm32f4xx_hal_spi.c ****   __HAL_SPI_CLEAR_OVRFLAG(hspi);
 3962              		.loc 1 2069 3
 3963 0190 0023     		movs	r3, #0
 3964 0192 3B61     		str	r3, [r7, #16]
 3965 0194 7B68     		ldr	r3, [r7, #4]
 3966 0196 1B68     		ldr	r3, [r3]
 3967 0198 DB68     		ldr	r3, [r3, #12]
 3968 019a 3B61     		str	r3, [r7, #16]
 3969 019c 7B68     		ldr	r3, [r7, #4]
 3970 019e 1B68     		ldr	r3, [r3]
 3971 01a0 9B68     		ldr	r3, [r3, #8]
 3972 01a2 3B61     		str	r3, [r7, #16]
ARM GAS  /tmp/cc9N7Buw.s 			page 107


 3973 01a4 3B69     		ldr	r3, [r7, #16]
 3974              	.LBE4:
 3975              	.LBB5:
2070:Drivers/STM32F4xx_HAL_Driver/Src/stm32f4xx_hal_spi.c ****   __HAL_SPI_CLEAR_FREFLAG(hspi);
 3976              		.loc 1 2070 3
 3977 01a6 0023     		movs	r3, #0
 3978 01a8 FB60     		str	r3, [r7, #12]
 3979 01aa 7B68     		ldr	r3, [r7, #4]
 3980 01ac 1B68     		ldr	r3, [r3]
 3981 01ae 9B68     		ldr	r3, [r3, #8]
 3982 01b0 FB60     		str	r3, [r7, #12]
 3983 01b2 FB68     		ldr	r3, [r7, #12]
 3984              	.LBE5:
2071:Drivers/STM32F4xx_HAL_Driver/Src/stm32f4xx_hal_spi.c **** 
2072:Drivers/STM32F4xx_HAL_Driver/Src/stm32f4xx_hal_spi.c ****   /* Restore hspi->state to ready */
2073:Drivers/STM32F4xx_HAL_Driver/Src/stm32f4xx_hal_spi.c ****   hspi->State = HAL_SPI_STATE_READY;
 3985              		.loc 1 2073 15
 3986 01b4 7B68     		ldr	r3, [r7, #4]
 3987 01b6 0122     		movs	r2, #1
 3988 01b8 83F85120 		strb	r2, [r3, #81]
2074:Drivers/STM32F4xx_HAL_Driver/Src/stm32f4xx_hal_spi.c **** 
2075:Drivers/STM32F4xx_HAL_Driver/Src/stm32f4xx_hal_spi.c ****   return errorcode;
 3989              		.loc 1 2075 10
 3990 01bc FB7F     		ldrb	r3, [r7, #31]	@ zero_extendqisi2
2076:Drivers/STM32F4xx_HAL_Driver/Src/stm32f4xx_hal_spi.c **** }
 3991              		.loc 1 2076 1
 3992 01be 1846     		mov	r0, r3
 3993 01c0 2037     		adds	r7, r7, #32
 3994              	.LCFI70:
 3995              		.cfi_def_cfa_offset 8
 3996 01c2 BD46     		mov	sp, r7
 3997              	.LCFI71:
 3998              		.cfi_def_cfa_register 13
 3999              		@ sp needed
 4000 01c4 80BD     		pop	{r7, pc}
 4001              	.L221:
 4002 01c6 00BF     		.align	2
 4003              	.L220:
 4004 01c8 00000000 		.word	SystemCoreClock
 4005 01cc F1197605 		.word	91625969
 4006 01d0 00000000 		.word	SPI_AbortTx_ISR
 4007 01d4 00000000 		.word	SPI_AbortRx_ISR
 4008              		.cfi_endproc
 4009              	.LFE143:
 4011              		.section	.text.HAL_SPI_Abort_IT,"ax",%progbits
 4012              		.align	1
 4013              		.global	HAL_SPI_Abort_IT
 4014              		.syntax unified
 4015              		.thumb
 4016              		.thumb_func
 4017              		.fpu fpv4-sp-d16
 4019              	HAL_SPI_Abort_IT:
 4020              	.LFB144:
2077:Drivers/STM32F4xx_HAL_Driver/Src/stm32f4xx_hal_spi.c **** 
2078:Drivers/STM32F4xx_HAL_Driver/Src/stm32f4xx_hal_spi.c **** /**
2079:Drivers/STM32F4xx_HAL_Driver/Src/stm32f4xx_hal_spi.c ****   * @brief  Abort ongoing transfer (Interrupt mode).
2080:Drivers/STM32F4xx_HAL_Driver/Src/stm32f4xx_hal_spi.c ****   * @param  hspi SPI handle.
ARM GAS  /tmp/cc9N7Buw.s 			page 108


2081:Drivers/STM32F4xx_HAL_Driver/Src/stm32f4xx_hal_spi.c ****   * @note   This procedure could be used for aborting any ongoing transfer (Tx and Rx),
2082:Drivers/STM32F4xx_HAL_Driver/Src/stm32f4xx_hal_spi.c ****   *         started in Interrupt or DMA mode.
2083:Drivers/STM32F4xx_HAL_Driver/Src/stm32f4xx_hal_spi.c ****   *         This procedure performs following operations :
2084:Drivers/STM32F4xx_HAL_Driver/Src/stm32f4xx_hal_spi.c ****   *           - Disable SPI Interrupts (depending of transfer direction)
2085:Drivers/STM32F4xx_HAL_Driver/Src/stm32f4xx_hal_spi.c ****   *           - Disable the DMA transfer in the peripheral register (if enabled)
2086:Drivers/STM32F4xx_HAL_Driver/Src/stm32f4xx_hal_spi.c ****   *           - Abort DMA transfer by calling HAL_DMA_Abort_IT (in case of transfer in DMA mode)
2087:Drivers/STM32F4xx_HAL_Driver/Src/stm32f4xx_hal_spi.c ****   *           - Set handle State to READY
2088:Drivers/STM32F4xx_HAL_Driver/Src/stm32f4xx_hal_spi.c ****   *           - At abort completion, call user abort complete callback
2089:Drivers/STM32F4xx_HAL_Driver/Src/stm32f4xx_hal_spi.c ****   * @note   This procedure is executed in Interrupt mode, meaning that abort procedure could be
2090:Drivers/STM32F4xx_HAL_Driver/Src/stm32f4xx_hal_spi.c ****   *         considered as completed only when user abort complete callback is executed (not when ex
2091:Drivers/STM32F4xx_HAL_Driver/Src/stm32f4xx_hal_spi.c ****   * @retval HAL status
2092:Drivers/STM32F4xx_HAL_Driver/Src/stm32f4xx_hal_spi.c ****   */
2093:Drivers/STM32F4xx_HAL_Driver/Src/stm32f4xx_hal_spi.c **** HAL_StatusTypeDef HAL_SPI_Abort_IT(SPI_HandleTypeDef *hspi)
2094:Drivers/STM32F4xx_HAL_Driver/Src/stm32f4xx_hal_spi.c **** {
 4021              		.loc 1 2094 1
 4022              		.cfi_startproc
 4023              		@ args = 0, pretend = 0, frame = 32
 4024              		@ frame_needed = 1, uses_anonymous_args = 0
 4025 0000 80B5     		push	{r7, lr}
 4026              	.LCFI72:
 4027              		.cfi_def_cfa_offset 8
 4028              		.cfi_offset 7, -8
 4029              		.cfi_offset 14, -4
 4030 0002 88B0     		sub	sp, sp, #32
 4031              	.LCFI73:
 4032              		.cfi_def_cfa_offset 40
 4033 0004 00AF     		add	r7, sp, #0
 4034              	.LCFI74:
 4035              		.cfi_def_cfa_register 7
 4036 0006 7860     		str	r0, [r7, #4]
2095:Drivers/STM32F4xx_HAL_Driver/Src/stm32f4xx_hal_spi.c ****   HAL_StatusTypeDef errorcode;
2096:Drivers/STM32F4xx_HAL_Driver/Src/stm32f4xx_hal_spi.c ****   uint32_t abortcplt ;
2097:Drivers/STM32F4xx_HAL_Driver/Src/stm32f4xx_hal_spi.c ****   __IO uint32_t count;
2098:Drivers/STM32F4xx_HAL_Driver/Src/stm32f4xx_hal_spi.c ****   __IO uint32_t resetcount;
2099:Drivers/STM32F4xx_HAL_Driver/Src/stm32f4xx_hal_spi.c **** 
2100:Drivers/STM32F4xx_HAL_Driver/Src/stm32f4xx_hal_spi.c ****   /* Initialized local variable  */
2101:Drivers/STM32F4xx_HAL_Driver/Src/stm32f4xx_hal_spi.c ****   errorcode = HAL_OK;
 4037              		.loc 1 2101 13
 4038 0008 0023     		movs	r3, #0
 4039 000a FB77     		strb	r3, [r7, #31]
2102:Drivers/STM32F4xx_HAL_Driver/Src/stm32f4xx_hal_spi.c ****   abortcplt = 1U;
 4040              		.loc 1 2102 13
 4041 000c 0123     		movs	r3, #1
 4042 000e BB61     		str	r3, [r7, #24]
2103:Drivers/STM32F4xx_HAL_Driver/Src/stm32f4xx_hal_spi.c ****   resetcount = SPI_DEFAULT_TIMEOUT * (SystemCoreClock / 24U / 1000U);
 4043              		.loc 1 2103 61
 4044 0010 724B     		ldr	r3, .L243
 4045 0012 1B68     		ldr	r3, [r3]
 4046 0014 724A     		ldr	r2, .L243+4
 4047 0016 A2FB0323 		umull	r2, r3, r2, r3
 4048 001a 5B0A     		lsrs	r3, r3, #9
 4049              		.loc 1 2103 36
 4050 001c 6422     		movs	r2, #100
 4051 001e 02FB03F3 		mul	r3, r2, r3
 4052              		.loc 1 2103 14
 4053 0022 3B61     		str	r3, [r7, #16]
2104:Drivers/STM32F4xx_HAL_Driver/Src/stm32f4xx_hal_spi.c ****   count = resetcount;
ARM GAS  /tmp/cc9N7Buw.s 			page 109


 4054              		.loc 1 2104 9
 4055 0024 3B69     		ldr	r3, [r7, #16]
 4056 0026 7B61     		str	r3, [r7, #20]
2105:Drivers/STM32F4xx_HAL_Driver/Src/stm32f4xx_hal_spi.c **** 
2106:Drivers/STM32F4xx_HAL_Driver/Src/stm32f4xx_hal_spi.c ****   /* Clear ERRIE interrupt to avoid error interrupts generation during Abort procedure */
2107:Drivers/STM32F4xx_HAL_Driver/Src/stm32f4xx_hal_spi.c ****   CLEAR_BIT(hspi->Instance->CR2, SPI_CR2_ERRIE);
 4057              		.loc 1 2107 3
 4058 0028 7B68     		ldr	r3, [r7, #4]
 4059 002a 1B68     		ldr	r3, [r3]
 4060 002c 5A68     		ldr	r2, [r3, #4]
 4061 002e 7B68     		ldr	r3, [r7, #4]
 4062 0030 1B68     		ldr	r3, [r3]
 4063 0032 22F02002 		bic	r2, r2, #32
 4064 0036 5A60     		str	r2, [r3, #4]
2108:Drivers/STM32F4xx_HAL_Driver/Src/stm32f4xx_hal_spi.c **** 
2109:Drivers/STM32F4xx_HAL_Driver/Src/stm32f4xx_hal_spi.c ****   /* Change Rx and Tx Irq Handler to Disable TXEIE, RXNEIE and ERRIE interrupts */
2110:Drivers/STM32F4xx_HAL_Driver/Src/stm32f4xx_hal_spi.c ****   if (HAL_IS_BIT_SET(hspi->Instance->CR2, SPI_CR2_TXEIE))
 4065              		.loc 1 2110 7
 4066 0038 7B68     		ldr	r3, [r7, #4]
 4067 003a 1B68     		ldr	r3, [r3]
 4068 003c 5B68     		ldr	r3, [r3, #4]
 4069 003e 03F08003 		and	r3, r3, #128
 4070              		.loc 1 2110 6
 4071 0042 802B     		cmp	r3, #128
 4072 0044 17D1     		bne	.L223
2111:Drivers/STM32F4xx_HAL_Driver/Src/stm32f4xx_hal_spi.c ****   {
2112:Drivers/STM32F4xx_HAL_Driver/Src/stm32f4xx_hal_spi.c ****     hspi->TxISR = SPI_AbortTx_ISR;
 4073              		.loc 1 2112 17
 4074 0046 7B68     		ldr	r3, [r7, #4]
 4075 0048 664A     		ldr	r2, .L243+8
 4076 004a 5A64     		str	r2, [r3, #68]
 4077              	.L226:
2113:Drivers/STM32F4xx_HAL_Driver/Src/stm32f4xx_hal_spi.c ****     /* Wait HAL_SPI_STATE_ABORT state */
2114:Drivers/STM32F4xx_HAL_Driver/Src/stm32f4xx_hal_spi.c ****     do
2115:Drivers/STM32F4xx_HAL_Driver/Src/stm32f4xx_hal_spi.c ****     {
2116:Drivers/STM32F4xx_HAL_Driver/Src/stm32f4xx_hal_spi.c ****       if (count == 0U)
 4078              		.loc 1 2116 17
 4079 004c 7B69     		ldr	r3, [r7, #20]
 4080              		.loc 1 2116 10
 4081 004e 002B     		cmp	r3, #0
 4082 0050 06D1     		bne	.L224
2117:Drivers/STM32F4xx_HAL_Driver/Src/stm32f4xx_hal_spi.c ****       {
2118:Drivers/STM32F4xx_HAL_Driver/Src/stm32f4xx_hal_spi.c ****         SET_BIT(hspi->ErrorCode, HAL_SPI_ERROR_ABORT);
 4083              		.loc 1 2118 9
 4084 0052 7B68     		ldr	r3, [r7, #4]
 4085 0054 5B6D     		ldr	r3, [r3, #84]
 4086 0056 43F04002 		orr	r2, r3, #64
 4087 005a 7B68     		ldr	r3, [r7, #4]
 4088 005c 5A65     		str	r2, [r3, #84]
2119:Drivers/STM32F4xx_HAL_Driver/Src/stm32f4xx_hal_spi.c ****         break;
 4089              		.loc 1 2119 9
 4090 005e 08E0     		b	.L225
 4091              	.L224:
2120:Drivers/STM32F4xx_HAL_Driver/Src/stm32f4xx_hal_spi.c ****       }
2121:Drivers/STM32F4xx_HAL_Driver/Src/stm32f4xx_hal_spi.c ****       count--;
 4092              		.loc 1 2121 12
 4093 0060 7B69     		ldr	r3, [r7, #20]
ARM GAS  /tmp/cc9N7Buw.s 			page 110


 4094 0062 013B     		subs	r3, r3, #1
 4095 0064 7B61     		str	r3, [r7, #20]
2122:Drivers/STM32F4xx_HAL_Driver/Src/stm32f4xx_hal_spi.c ****     } while (hspi->State != HAL_SPI_STATE_ABORT);
 4096              		.loc 1 2122 18
 4097 0066 7B68     		ldr	r3, [r7, #4]
 4098 0068 93F85130 		ldrb	r3, [r3, #81]
 4099 006c DBB2     		uxtb	r3, r3
 4100              		.loc 1 2122 5
 4101 006e 072B     		cmp	r3, #7
 4102 0070 ECD1     		bne	.L226
 4103              	.L225:
2123:Drivers/STM32F4xx_HAL_Driver/Src/stm32f4xx_hal_spi.c ****     /* Reset Timeout Counter */
2124:Drivers/STM32F4xx_HAL_Driver/Src/stm32f4xx_hal_spi.c ****     count = resetcount;
 4104              		.loc 1 2124 11
 4105 0072 3B69     		ldr	r3, [r7, #16]
 4106 0074 7B61     		str	r3, [r7, #20]
 4107              	.L223:
2125:Drivers/STM32F4xx_HAL_Driver/Src/stm32f4xx_hal_spi.c ****   }
2126:Drivers/STM32F4xx_HAL_Driver/Src/stm32f4xx_hal_spi.c **** 
2127:Drivers/STM32F4xx_HAL_Driver/Src/stm32f4xx_hal_spi.c ****   if (HAL_IS_BIT_SET(hspi->Instance->CR2, SPI_CR2_RXNEIE))
 4108              		.loc 1 2127 7
 4109 0076 7B68     		ldr	r3, [r7, #4]
 4110 0078 1B68     		ldr	r3, [r3]
 4111 007a 5B68     		ldr	r3, [r3, #4]
 4112 007c 03F04003 		and	r3, r3, #64
 4113              		.loc 1 2127 6
 4114 0080 402B     		cmp	r3, #64
 4115 0082 17D1     		bne	.L227
2128:Drivers/STM32F4xx_HAL_Driver/Src/stm32f4xx_hal_spi.c ****   {
2129:Drivers/STM32F4xx_HAL_Driver/Src/stm32f4xx_hal_spi.c ****     hspi->RxISR = SPI_AbortRx_ISR;
 4116              		.loc 1 2129 17
 4117 0084 7B68     		ldr	r3, [r7, #4]
 4118 0086 584A     		ldr	r2, .L243+12
 4119 0088 1A64     		str	r2, [r3, #64]
 4120              	.L230:
2130:Drivers/STM32F4xx_HAL_Driver/Src/stm32f4xx_hal_spi.c ****     /* Wait HAL_SPI_STATE_ABORT state */
2131:Drivers/STM32F4xx_HAL_Driver/Src/stm32f4xx_hal_spi.c ****     do
2132:Drivers/STM32F4xx_HAL_Driver/Src/stm32f4xx_hal_spi.c ****     {
2133:Drivers/STM32F4xx_HAL_Driver/Src/stm32f4xx_hal_spi.c ****       if (count == 0U)
 4121              		.loc 1 2133 17
 4122 008a 7B69     		ldr	r3, [r7, #20]
 4123              		.loc 1 2133 10
 4124 008c 002B     		cmp	r3, #0
 4125 008e 06D1     		bne	.L228
2134:Drivers/STM32F4xx_HAL_Driver/Src/stm32f4xx_hal_spi.c ****       {
2135:Drivers/STM32F4xx_HAL_Driver/Src/stm32f4xx_hal_spi.c ****         SET_BIT(hspi->ErrorCode, HAL_SPI_ERROR_ABORT);
 4126              		.loc 1 2135 9
 4127 0090 7B68     		ldr	r3, [r7, #4]
 4128 0092 5B6D     		ldr	r3, [r3, #84]
 4129 0094 43F04002 		orr	r2, r3, #64
 4130 0098 7B68     		ldr	r3, [r7, #4]
 4131 009a 5A65     		str	r2, [r3, #84]
2136:Drivers/STM32F4xx_HAL_Driver/Src/stm32f4xx_hal_spi.c ****         break;
 4132              		.loc 1 2136 9
 4133 009c 08E0     		b	.L229
 4134              	.L228:
2137:Drivers/STM32F4xx_HAL_Driver/Src/stm32f4xx_hal_spi.c ****       }
ARM GAS  /tmp/cc9N7Buw.s 			page 111


2138:Drivers/STM32F4xx_HAL_Driver/Src/stm32f4xx_hal_spi.c ****       count--;
 4135              		.loc 1 2138 12
 4136 009e 7B69     		ldr	r3, [r7, #20]
 4137 00a0 013B     		subs	r3, r3, #1
 4138 00a2 7B61     		str	r3, [r7, #20]
2139:Drivers/STM32F4xx_HAL_Driver/Src/stm32f4xx_hal_spi.c ****     } while (hspi->State != HAL_SPI_STATE_ABORT);
 4139              		.loc 1 2139 18
 4140 00a4 7B68     		ldr	r3, [r7, #4]
 4141 00a6 93F85130 		ldrb	r3, [r3, #81]
 4142 00aa DBB2     		uxtb	r3, r3
 4143              		.loc 1 2139 5
 4144 00ac 072B     		cmp	r3, #7
 4145 00ae ECD1     		bne	.L230
 4146              	.L229:
2140:Drivers/STM32F4xx_HAL_Driver/Src/stm32f4xx_hal_spi.c ****     /* Reset Timeout Counter */
2141:Drivers/STM32F4xx_HAL_Driver/Src/stm32f4xx_hal_spi.c ****     count = resetcount;
 4147              		.loc 1 2141 11
 4148 00b0 3B69     		ldr	r3, [r7, #16]
 4149 00b2 7B61     		str	r3, [r7, #20]
 4150              	.L227:
2142:Drivers/STM32F4xx_HAL_Driver/Src/stm32f4xx_hal_spi.c ****   }
2143:Drivers/STM32F4xx_HAL_Driver/Src/stm32f4xx_hal_spi.c **** 
2144:Drivers/STM32F4xx_HAL_Driver/Src/stm32f4xx_hal_spi.c ****   /* If DMA Tx and/or DMA Rx Handles are associated to SPI Handle, DMA Abort complete callbacks sho
2145:Drivers/STM32F4xx_HAL_Driver/Src/stm32f4xx_hal_spi.c ****      before any call to DMA Abort functions */
2146:Drivers/STM32F4xx_HAL_Driver/Src/stm32f4xx_hal_spi.c ****   /* DMA Tx Handle is valid */
2147:Drivers/STM32F4xx_HAL_Driver/Src/stm32f4xx_hal_spi.c ****   if (hspi->hdmatx != NULL)
 4151              		.loc 1 2147 11
 4152 00b4 7B68     		ldr	r3, [r7, #4]
 4153 00b6 9B6C     		ldr	r3, [r3, #72]
 4154              		.loc 1 2147 6
 4155 00b8 002B     		cmp	r3, #0
 4156 00ba 0FD0     		beq	.L231
2148:Drivers/STM32F4xx_HAL_Driver/Src/stm32f4xx_hal_spi.c ****   {
2149:Drivers/STM32F4xx_HAL_Driver/Src/stm32f4xx_hal_spi.c ****     /* Set DMA Abort Complete callback if UART DMA Tx request if enabled.
2150:Drivers/STM32F4xx_HAL_Driver/Src/stm32f4xx_hal_spi.c ****        Otherwise, set it to NULL */
2151:Drivers/STM32F4xx_HAL_Driver/Src/stm32f4xx_hal_spi.c ****     if (HAL_IS_BIT_SET(hspi->Instance->CR2, SPI_CR2_TXDMAEN))
 4157              		.loc 1 2151 9
 4158 00bc 7B68     		ldr	r3, [r7, #4]
 4159 00be 1B68     		ldr	r3, [r3]
 4160 00c0 5B68     		ldr	r3, [r3, #4]
 4161 00c2 03F00203 		and	r3, r3, #2
 4162              		.loc 1 2151 8
 4163 00c6 022B     		cmp	r3, #2
 4164 00c8 04D1     		bne	.L232
2152:Drivers/STM32F4xx_HAL_Driver/Src/stm32f4xx_hal_spi.c ****     {
2153:Drivers/STM32F4xx_HAL_Driver/Src/stm32f4xx_hal_spi.c ****       hspi->hdmatx->XferAbortCallback = SPI_DMATxAbortCallback;
 4165              		.loc 1 2153 11
 4166 00ca 7B68     		ldr	r3, [r7, #4]
 4167 00cc 9B6C     		ldr	r3, [r3, #72]
 4168              		.loc 1 2153 39
 4169 00ce 474A     		ldr	r2, .L243+16
 4170 00d0 1A65     		str	r2, [r3, #80]
 4171 00d2 03E0     		b	.L231
 4172              	.L232:
2154:Drivers/STM32F4xx_HAL_Driver/Src/stm32f4xx_hal_spi.c ****     }
2155:Drivers/STM32F4xx_HAL_Driver/Src/stm32f4xx_hal_spi.c ****     else
2156:Drivers/STM32F4xx_HAL_Driver/Src/stm32f4xx_hal_spi.c ****     {
ARM GAS  /tmp/cc9N7Buw.s 			page 112


2157:Drivers/STM32F4xx_HAL_Driver/Src/stm32f4xx_hal_spi.c ****       hspi->hdmatx->XferAbortCallback = NULL;
 4173              		.loc 1 2157 11
 4174 00d4 7B68     		ldr	r3, [r7, #4]
 4175 00d6 9B6C     		ldr	r3, [r3, #72]
 4176              		.loc 1 2157 39
 4177 00d8 0022     		movs	r2, #0
 4178 00da 1A65     		str	r2, [r3, #80]
 4179              	.L231:
2158:Drivers/STM32F4xx_HAL_Driver/Src/stm32f4xx_hal_spi.c ****     }
2159:Drivers/STM32F4xx_HAL_Driver/Src/stm32f4xx_hal_spi.c ****   }
2160:Drivers/STM32F4xx_HAL_Driver/Src/stm32f4xx_hal_spi.c ****   /* DMA Rx Handle is valid */
2161:Drivers/STM32F4xx_HAL_Driver/Src/stm32f4xx_hal_spi.c ****   if (hspi->hdmarx != NULL)
 4180              		.loc 1 2161 11
 4181 00dc 7B68     		ldr	r3, [r7, #4]
 4182 00de DB6C     		ldr	r3, [r3, #76]
 4183              		.loc 1 2161 6
 4184 00e0 002B     		cmp	r3, #0
 4185 00e2 0FD0     		beq	.L233
2162:Drivers/STM32F4xx_HAL_Driver/Src/stm32f4xx_hal_spi.c ****   {
2163:Drivers/STM32F4xx_HAL_Driver/Src/stm32f4xx_hal_spi.c ****     /* Set DMA Abort Complete callback if UART DMA Rx request if enabled.
2164:Drivers/STM32F4xx_HAL_Driver/Src/stm32f4xx_hal_spi.c ****        Otherwise, set it to NULL */
2165:Drivers/STM32F4xx_HAL_Driver/Src/stm32f4xx_hal_spi.c ****     if (HAL_IS_BIT_SET(hspi->Instance->CR2, SPI_CR2_RXDMAEN))
 4186              		.loc 1 2165 9
 4187 00e4 7B68     		ldr	r3, [r7, #4]
 4188 00e6 1B68     		ldr	r3, [r3]
 4189 00e8 5B68     		ldr	r3, [r3, #4]
 4190 00ea 03F00103 		and	r3, r3, #1
 4191              		.loc 1 2165 8
 4192 00ee 012B     		cmp	r3, #1
 4193 00f0 04D1     		bne	.L234
2166:Drivers/STM32F4xx_HAL_Driver/Src/stm32f4xx_hal_spi.c ****     {
2167:Drivers/STM32F4xx_HAL_Driver/Src/stm32f4xx_hal_spi.c ****       hspi->hdmarx->XferAbortCallback = SPI_DMARxAbortCallback;
 4194              		.loc 1 2167 11
 4195 00f2 7B68     		ldr	r3, [r7, #4]
 4196 00f4 DB6C     		ldr	r3, [r3, #76]
 4197              		.loc 1 2167 39
 4198 00f6 3E4A     		ldr	r2, .L243+20
 4199 00f8 1A65     		str	r2, [r3, #80]
 4200 00fa 03E0     		b	.L233
 4201              	.L234:
2168:Drivers/STM32F4xx_HAL_Driver/Src/stm32f4xx_hal_spi.c ****     }
2169:Drivers/STM32F4xx_HAL_Driver/Src/stm32f4xx_hal_spi.c ****     else
2170:Drivers/STM32F4xx_HAL_Driver/Src/stm32f4xx_hal_spi.c ****     {
2171:Drivers/STM32F4xx_HAL_Driver/Src/stm32f4xx_hal_spi.c ****       hspi->hdmarx->XferAbortCallback = NULL;
 4202              		.loc 1 2171 11
 4203 00fc 7B68     		ldr	r3, [r7, #4]
 4204 00fe DB6C     		ldr	r3, [r3, #76]
 4205              		.loc 1 2171 39
 4206 0100 0022     		movs	r2, #0
 4207 0102 1A65     		str	r2, [r3, #80]
 4208              	.L233:
2172:Drivers/STM32F4xx_HAL_Driver/Src/stm32f4xx_hal_spi.c ****     }
2173:Drivers/STM32F4xx_HAL_Driver/Src/stm32f4xx_hal_spi.c ****   }
2174:Drivers/STM32F4xx_HAL_Driver/Src/stm32f4xx_hal_spi.c **** 
2175:Drivers/STM32F4xx_HAL_Driver/Src/stm32f4xx_hal_spi.c ****   /* Disable the SPI DMA Tx request if enabled */
2176:Drivers/STM32F4xx_HAL_Driver/Src/stm32f4xx_hal_spi.c ****   if (HAL_IS_BIT_SET(hspi->Instance->CR2, SPI_CR2_TXDMAEN))
 4209              		.loc 1 2176 7
ARM GAS  /tmp/cc9N7Buw.s 			page 113


 4210 0104 7B68     		ldr	r3, [r7, #4]
 4211 0106 1B68     		ldr	r3, [r3]
 4212 0108 5B68     		ldr	r3, [r3, #4]
 4213 010a 03F00203 		and	r3, r3, #2
 4214              		.loc 1 2176 6
 4215 010e 022B     		cmp	r3, #2
 4216 0110 15D1     		bne	.L235
2177:Drivers/STM32F4xx_HAL_Driver/Src/stm32f4xx_hal_spi.c ****   {
2178:Drivers/STM32F4xx_HAL_Driver/Src/stm32f4xx_hal_spi.c ****     /* Abort the SPI DMA Tx Stream/Channel */
2179:Drivers/STM32F4xx_HAL_Driver/Src/stm32f4xx_hal_spi.c ****     if (hspi->hdmatx != NULL)
 4217              		.loc 1 2179 13
 4218 0112 7B68     		ldr	r3, [r7, #4]
 4219 0114 9B6C     		ldr	r3, [r3, #72]
 4220              		.loc 1 2179 8
 4221 0116 002B     		cmp	r3, #0
 4222 0118 11D0     		beq	.L235
2180:Drivers/STM32F4xx_HAL_Driver/Src/stm32f4xx_hal_spi.c ****     {
2181:Drivers/STM32F4xx_HAL_Driver/Src/stm32f4xx_hal_spi.c ****       /* Abort DMA Tx Handle linked to SPI Peripheral */
2182:Drivers/STM32F4xx_HAL_Driver/Src/stm32f4xx_hal_spi.c ****       if (HAL_DMA_Abort_IT(hspi->hdmatx) != HAL_OK)
 4223              		.loc 1 2182 11
 4224 011a 7B68     		ldr	r3, [r7, #4]
 4225 011c 9B6C     		ldr	r3, [r3, #72]
 4226 011e 1846     		mov	r0, r3
 4227 0120 FFF7FEFF 		bl	HAL_DMA_Abort_IT
 4228 0124 0346     		mov	r3, r0
 4229              		.loc 1 2182 10
 4230 0126 002B     		cmp	r3, #0
 4231 0128 07D0     		beq	.L236
2183:Drivers/STM32F4xx_HAL_Driver/Src/stm32f4xx_hal_spi.c ****       {
2184:Drivers/STM32F4xx_HAL_Driver/Src/stm32f4xx_hal_spi.c ****         hspi->hdmatx->XferAbortCallback = NULL;
 4232              		.loc 1 2184 13
 4233 012a 7B68     		ldr	r3, [r7, #4]
 4234 012c 9B6C     		ldr	r3, [r3, #72]
 4235              		.loc 1 2184 41
 4236 012e 0022     		movs	r2, #0
 4237 0130 1A65     		str	r2, [r3, #80]
2185:Drivers/STM32F4xx_HAL_Driver/Src/stm32f4xx_hal_spi.c ****         hspi->ErrorCode = HAL_SPI_ERROR_ABORT;
 4238              		.loc 1 2185 25
 4239 0132 7B68     		ldr	r3, [r7, #4]
 4240 0134 4022     		movs	r2, #64
 4241 0136 5A65     		str	r2, [r3, #84]
 4242 0138 01E0     		b	.L235
 4243              	.L236:
2186:Drivers/STM32F4xx_HAL_Driver/Src/stm32f4xx_hal_spi.c ****       }
2187:Drivers/STM32F4xx_HAL_Driver/Src/stm32f4xx_hal_spi.c ****       else
2188:Drivers/STM32F4xx_HAL_Driver/Src/stm32f4xx_hal_spi.c ****       {
2189:Drivers/STM32F4xx_HAL_Driver/Src/stm32f4xx_hal_spi.c ****         abortcplt = 0U;
 4244              		.loc 1 2189 19
 4245 013a 0023     		movs	r3, #0
 4246 013c BB61     		str	r3, [r7, #24]
 4247              	.L235:
2190:Drivers/STM32F4xx_HAL_Driver/Src/stm32f4xx_hal_spi.c ****       }
2191:Drivers/STM32F4xx_HAL_Driver/Src/stm32f4xx_hal_spi.c ****     }
2192:Drivers/STM32F4xx_HAL_Driver/Src/stm32f4xx_hal_spi.c ****   }
2193:Drivers/STM32F4xx_HAL_Driver/Src/stm32f4xx_hal_spi.c ****   /* Disable the SPI DMA Rx request if enabled */
2194:Drivers/STM32F4xx_HAL_Driver/Src/stm32f4xx_hal_spi.c ****   if (HAL_IS_BIT_SET(hspi->Instance->CR2, SPI_CR2_RXDMAEN))
 4248              		.loc 1 2194 7
ARM GAS  /tmp/cc9N7Buw.s 			page 114


 4249 013e 7B68     		ldr	r3, [r7, #4]
 4250 0140 1B68     		ldr	r3, [r3]
 4251 0142 5B68     		ldr	r3, [r3, #4]
 4252 0144 03F00103 		and	r3, r3, #1
 4253              		.loc 1 2194 6
 4254 0148 012B     		cmp	r3, #1
 4255 014a 15D1     		bne	.L237
2195:Drivers/STM32F4xx_HAL_Driver/Src/stm32f4xx_hal_spi.c ****   {
2196:Drivers/STM32F4xx_HAL_Driver/Src/stm32f4xx_hal_spi.c ****     /* Abort the SPI DMA Rx Stream/Channel */
2197:Drivers/STM32F4xx_HAL_Driver/Src/stm32f4xx_hal_spi.c ****     if (hspi->hdmarx != NULL)
 4256              		.loc 1 2197 13
 4257 014c 7B68     		ldr	r3, [r7, #4]
 4258 014e DB6C     		ldr	r3, [r3, #76]
 4259              		.loc 1 2197 8
 4260 0150 002B     		cmp	r3, #0
 4261 0152 11D0     		beq	.L237
2198:Drivers/STM32F4xx_HAL_Driver/Src/stm32f4xx_hal_spi.c ****     {
2199:Drivers/STM32F4xx_HAL_Driver/Src/stm32f4xx_hal_spi.c ****       /* Abort DMA Rx Handle linked to SPI Peripheral */
2200:Drivers/STM32F4xx_HAL_Driver/Src/stm32f4xx_hal_spi.c ****       if (HAL_DMA_Abort_IT(hspi->hdmarx) !=  HAL_OK)
 4262              		.loc 1 2200 11
 4263 0154 7B68     		ldr	r3, [r7, #4]
 4264 0156 DB6C     		ldr	r3, [r3, #76]
 4265 0158 1846     		mov	r0, r3
 4266 015a FFF7FEFF 		bl	HAL_DMA_Abort_IT
 4267 015e 0346     		mov	r3, r0
 4268              		.loc 1 2200 10
 4269 0160 002B     		cmp	r3, #0
 4270 0162 07D0     		beq	.L238
2201:Drivers/STM32F4xx_HAL_Driver/Src/stm32f4xx_hal_spi.c ****       {
2202:Drivers/STM32F4xx_HAL_Driver/Src/stm32f4xx_hal_spi.c ****         hspi->hdmarx->XferAbortCallback = NULL;
 4271              		.loc 1 2202 13
 4272 0164 7B68     		ldr	r3, [r7, #4]
 4273 0166 DB6C     		ldr	r3, [r3, #76]
 4274              		.loc 1 2202 41
 4275 0168 0022     		movs	r2, #0
 4276 016a 1A65     		str	r2, [r3, #80]
2203:Drivers/STM32F4xx_HAL_Driver/Src/stm32f4xx_hal_spi.c ****         hspi->ErrorCode = HAL_SPI_ERROR_ABORT;
 4277              		.loc 1 2203 25
 4278 016c 7B68     		ldr	r3, [r7, #4]
 4279 016e 4022     		movs	r2, #64
 4280 0170 5A65     		str	r2, [r3, #84]
 4281 0172 01E0     		b	.L237
 4282              	.L238:
2204:Drivers/STM32F4xx_HAL_Driver/Src/stm32f4xx_hal_spi.c ****       }
2205:Drivers/STM32F4xx_HAL_Driver/Src/stm32f4xx_hal_spi.c ****       else
2206:Drivers/STM32F4xx_HAL_Driver/Src/stm32f4xx_hal_spi.c ****       {
2207:Drivers/STM32F4xx_HAL_Driver/Src/stm32f4xx_hal_spi.c ****         abortcplt = 0U;
 4283              		.loc 1 2207 19
 4284 0174 0023     		movs	r3, #0
 4285 0176 BB61     		str	r3, [r7, #24]
 4286              	.L237:
2208:Drivers/STM32F4xx_HAL_Driver/Src/stm32f4xx_hal_spi.c ****       }
2209:Drivers/STM32F4xx_HAL_Driver/Src/stm32f4xx_hal_spi.c ****     }
2210:Drivers/STM32F4xx_HAL_Driver/Src/stm32f4xx_hal_spi.c ****   }
2211:Drivers/STM32F4xx_HAL_Driver/Src/stm32f4xx_hal_spi.c **** 
2212:Drivers/STM32F4xx_HAL_Driver/Src/stm32f4xx_hal_spi.c ****   if (abortcplt == 1U)
 4287              		.loc 1 2212 6
ARM GAS  /tmp/cc9N7Buw.s 			page 115


 4288 0178 BB69     		ldr	r3, [r7, #24]
 4289 017a 012B     		cmp	r3, #1
 4290 017c 28D1     		bne	.L239
2213:Drivers/STM32F4xx_HAL_Driver/Src/stm32f4xx_hal_spi.c ****   {
2214:Drivers/STM32F4xx_HAL_Driver/Src/stm32f4xx_hal_spi.c ****     /* Reset Tx and Rx transfer counters */
2215:Drivers/STM32F4xx_HAL_Driver/Src/stm32f4xx_hal_spi.c ****     hspi->RxXferCount = 0U;
 4291              		.loc 1 2215 23
 4292 017e 7B68     		ldr	r3, [r7, #4]
 4293 0180 0022     		movs	r2, #0
 4294 0182 DA87     		strh	r2, [r3, #62]	@ movhi
2216:Drivers/STM32F4xx_HAL_Driver/Src/stm32f4xx_hal_spi.c ****     hspi->TxXferCount = 0U;
 4295              		.loc 1 2216 23
 4296 0184 7B68     		ldr	r3, [r7, #4]
 4297 0186 0022     		movs	r2, #0
 4298 0188 DA86     		strh	r2, [r3, #54]	@ movhi
2217:Drivers/STM32F4xx_HAL_Driver/Src/stm32f4xx_hal_spi.c **** 
2218:Drivers/STM32F4xx_HAL_Driver/Src/stm32f4xx_hal_spi.c ****     /* Check error during Abort procedure */
2219:Drivers/STM32F4xx_HAL_Driver/Src/stm32f4xx_hal_spi.c ****     if (hspi->ErrorCode == HAL_SPI_ERROR_ABORT)
 4299              		.loc 1 2219 13
 4300 018a 7B68     		ldr	r3, [r7, #4]
 4301 018c 5B6D     		ldr	r3, [r3, #84]
 4302              		.loc 1 2219 8
 4303 018e 402B     		cmp	r3, #64
 4304 0190 02D1     		bne	.L240
2220:Drivers/STM32F4xx_HAL_Driver/Src/stm32f4xx_hal_spi.c ****     {
2221:Drivers/STM32F4xx_HAL_Driver/Src/stm32f4xx_hal_spi.c ****       /* return HAL_Error in case of error during Abort procedure */
2222:Drivers/STM32F4xx_HAL_Driver/Src/stm32f4xx_hal_spi.c ****       errorcode = HAL_ERROR;
 4305              		.loc 1 2222 17
 4306 0192 0123     		movs	r3, #1
 4307 0194 FB77     		strb	r3, [r7, #31]
 4308 0196 02E0     		b	.L241
 4309              	.L240:
2223:Drivers/STM32F4xx_HAL_Driver/Src/stm32f4xx_hal_spi.c ****     }
2224:Drivers/STM32F4xx_HAL_Driver/Src/stm32f4xx_hal_spi.c ****     else
2225:Drivers/STM32F4xx_HAL_Driver/Src/stm32f4xx_hal_spi.c ****     {
2226:Drivers/STM32F4xx_HAL_Driver/Src/stm32f4xx_hal_spi.c ****       /* Reset errorCode */
2227:Drivers/STM32F4xx_HAL_Driver/Src/stm32f4xx_hal_spi.c ****       hspi->ErrorCode = HAL_SPI_ERROR_NONE;
 4310              		.loc 1 2227 23
 4311 0198 7B68     		ldr	r3, [r7, #4]
 4312 019a 0022     		movs	r2, #0
 4313 019c 5A65     		str	r2, [r3, #84]
 4314              	.L241:
 4315              	.LBB6:
2228:Drivers/STM32F4xx_HAL_Driver/Src/stm32f4xx_hal_spi.c ****     }
2229:Drivers/STM32F4xx_HAL_Driver/Src/stm32f4xx_hal_spi.c **** 
2230:Drivers/STM32F4xx_HAL_Driver/Src/stm32f4xx_hal_spi.c ****     /* Clear the Error flags in the SR register */
2231:Drivers/STM32F4xx_HAL_Driver/Src/stm32f4xx_hal_spi.c ****     __HAL_SPI_CLEAR_OVRFLAG(hspi);
 4316              		.loc 1 2231 5
 4317 019e 0023     		movs	r3, #0
 4318 01a0 FB60     		str	r3, [r7, #12]
 4319 01a2 7B68     		ldr	r3, [r7, #4]
 4320 01a4 1B68     		ldr	r3, [r3]
 4321 01a6 DB68     		ldr	r3, [r3, #12]
 4322 01a8 FB60     		str	r3, [r7, #12]
 4323 01aa 7B68     		ldr	r3, [r7, #4]
 4324 01ac 1B68     		ldr	r3, [r3]
 4325 01ae 9B68     		ldr	r3, [r3, #8]
ARM GAS  /tmp/cc9N7Buw.s 			page 116


 4326 01b0 FB60     		str	r3, [r7, #12]
 4327 01b2 FB68     		ldr	r3, [r7, #12]
 4328              	.LBE6:
 4329              	.LBB7:
2232:Drivers/STM32F4xx_HAL_Driver/Src/stm32f4xx_hal_spi.c ****     __HAL_SPI_CLEAR_FREFLAG(hspi);
 4330              		.loc 1 2232 5
 4331 01b4 0023     		movs	r3, #0
 4332 01b6 BB60     		str	r3, [r7, #8]
 4333 01b8 7B68     		ldr	r3, [r7, #4]
 4334 01ba 1B68     		ldr	r3, [r3]
 4335 01bc 9B68     		ldr	r3, [r3, #8]
 4336 01be BB60     		str	r3, [r7, #8]
 4337 01c0 BB68     		ldr	r3, [r7, #8]
 4338              	.LBE7:
2233:Drivers/STM32F4xx_HAL_Driver/Src/stm32f4xx_hal_spi.c **** 
2234:Drivers/STM32F4xx_HAL_Driver/Src/stm32f4xx_hal_spi.c ****     /* Restore hspi->State to Ready */
2235:Drivers/STM32F4xx_HAL_Driver/Src/stm32f4xx_hal_spi.c ****     hspi->State = HAL_SPI_STATE_READY;
 4339              		.loc 1 2235 17
 4340 01c2 7B68     		ldr	r3, [r7, #4]
 4341 01c4 0122     		movs	r2, #1
 4342 01c6 83F85120 		strb	r2, [r3, #81]
2236:Drivers/STM32F4xx_HAL_Driver/Src/stm32f4xx_hal_spi.c **** 
2237:Drivers/STM32F4xx_HAL_Driver/Src/stm32f4xx_hal_spi.c ****     /* As no DMA to be aborted, call directly user Abort complete callback */
2238:Drivers/STM32F4xx_HAL_Driver/Src/stm32f4xx_hal_spi.c **** #if (USE_HAL_SPI_REGISTER_CALLBACKS == 1U)
2239:Drivers/STM32F4xx_HAL_Driver/Src/stm32f4xx_hal_spi.c ****     hspi->AbortCpltCallback(hspi);
2240:Drivers/STM32F4xx_HAL_Driver/Src/stm32f4xx_hal_spi.c **** #else
2241:Drivers/STM32F4xx_HAL_Driver/Src/stm32f4xx_hal_spi.c ****     HAL_SPI_AbortCpltCallback(hspi);
 4343              		.loc 1 2241 5
 4344 01ca 7868     		ldr	r0, [r7, #4]
 4345 01cc FFF7FEFF 		bl	HAL_SPI_AbortCpltCallback
 4346              	.L239:
2242:Drivers/STM32F4xx_HAL_Driver/Src/stm32f4xx_hal_spi.c **** #endif /* USE_HAL_SPI_REGISTER_CALLBACKS */
2243:Drivers/STM32F4xx_HAL_Driver/Src/stm32f4xx_hal_spi.c ****   }
2244:Drivers/STM32F4xx_HAL_Driver/Src/stm32f4xx_hal_spi.c **** 
2245:Drivers/STM32F4xx_HAL_Driver/Src/stm32f4xx_hal_spi.c ****   return errorcode;
 4347              		.loc 1 2245 10
 4348 01d0 FB7F     		ldrb	r3, [r7, #31]	@ zero_extendqisi2
2246:Drivers/STM32F4xx_HAL_Driver/Src/stm32f4xx_hal_spi.c **** }
 4349              		.loc 1 2246 1
 4350 01d2 1846     		mov	r0, r3
 4351 01d4 2037     		adds	r7, r7, #32
 4352              	.LCFI75:
 4353              		.cfi_def_cfa_offset 8
 4354 01d6 BD46     		mov	sp, r7
 4355              	.LCFI76:
 4356              		.cfi_def_cfa_register 13
 4357              		@ sp needed
 4358 01d8 80BD     		pop	{r7, pc}
 4359              	.L244:
 4360 01da 00BF     		.align	2
 4361              	.L243:
 4362 01dc 00000000 		.word	SystemCoreClock
 4363 01e0 F1197605 		.word	91625969
 4364 01e4 00000000 		.word	SPI_AbortTx_ISR
 4365 01e8 00000000 		.word	SPI_AbortRx_ISR
 4366 01ec 00000000 		.word	SPI_DMATxAbortCallback
 4367 01f0 00000000 		.word	SPI_DMARxAbortCallback
ARM GAS  /tmp/cc9N7Buw.s 			page 117


 4368              		.cfi_endproc
 4369              	.LFE144:
 4371              		.section	.text.HAL_SPI_DMAPause,"ax",%progbits
 4372              		.align	1
 4373              		.global	HAL_SPI_DMAPause
 4374              		.syntax unified
 4375              		.thumb
 4376              		.thumb_func
 4377              		.fpu fpv4-sp-d16
 4379              	HAL_SPI_DMAPause:
 4380              	.LFB145:
2247:Drivers/STM32F4xx_HAL_Driver/Src/stm32f4xx_hal_spi.c **** 
2248:Drivers/STM32F4xx_HAL_Driver/Src/stm32f4xx_hal_spi.c **** /**
2249:Drivers/STM32F4xx_HAL_Driver/Src/stm32f4xx_hal_spi.c ****   * @brief  Pause the DMA Transfer.
2250:Drivers/STM32F4xx_HAL_Driver/Src/stm32f4xx_hal_spi.c ****   * @param  hspi pointer to a SPI_HandleTypeDef structure that contains
2251:Drivers/STM32F4xx_HAL_Driver/Src/stm32f4xx_hal_spi.c ****   *               the configuration information for the specified SPI module.
2252:Drivers/STM32F4xx_HAL_Driver/Src/stm32f4xx_hal_spi.c ****   * @retval HAL status
2253:Drivers/STM32F4xx_HAL_Driver/Src/stm32f4xx_hal_spi.c ****   */
2254:Drivers/STM32F4xx_HAL_Driver/Src/stm32f4xx_hal_spi.c **** HAL_StatusTypeDef HAL_SPI_DMAPause(SPI_HandleTypeDef *hspi)
2255:Drivers/STM32F4xx_HAL_Driver/Src/stm32f4xx_hal_spi.c **** {
 4381              		.loc 1 2255 1
 4382              		.cfi_startproc
 4383              		@ args = 0, pretend = 0, frame = 8
 4384              		@ frame_needed = 1, uses_anonymous_args = 0
 4385              		@ link register save eliminated.
 4386 0000 80B4     		push	{r7}
 4387              	.LCFI77:
 4388              		.cfi_def_cfa_offset 4
 4389              		.cfi_offset 7, -4
 4390 0002 83B0     		sub	sp, sp, #12
 4391              	.LCFI78:
 4392              		.cfi_def_cfa_offset 16
 4393 0004 00AF     		add	r7, sp, #0
 4394              	.LCFI79:
 4395              		.cfi_def_cfa_register 7
 4396 0006 7860     		str	r0, [r7, #4]
2256:Drivers/STM32F4xx_HAL_Driver/Src/stm32f4xx_hal_spi.c ****   /* Process Locked */
2257:Drivers/STM32F4xx_HAL_Driver/Src/stm32f4xx_hal_spi.c ****   __HAL_LOCK(hspi);
 4397              		.loc 1 2257 3
 4398 0008 7B68     		ldr	r3, [r7, #4]
 4399 000a 93F85030 		ldrb	r3, [r3, #80]	@ zero_extendqisi2
 4400 000e 012B     		cmp	r3, #1
 4401 0010 01D1     		bne	.L246
 4402              		.loc 1 2257 3 is_stmt 0 discriminator 1
 4403 0012 0223     		movs	r3, #2
 4404 0014 10E0     		b	.L247
 4405              	.L246:
 4406              		.loc 1 2257 3 discriminator 2
 4407 0016 7B68     		ldr	r3, [r7, #4]
 4408 0018 0122     		movs	r2, #1
 4409 001a 83F85020 		strb	r2, [r3, #80]
2258:Drivers/STM32F4xx_HAL_Driver/Src/stm32f4xx_hal_spi.c **** 
2259:Drivers/STM32F4xx_HAL_Driver/Src/stm32f4xx_hal_spi.c ****   /* Disable the SPI DMA Tx & Rx requests */
2260:Drivers/STM32F4xx_HAL_Driver/Src/stm32f4xx_hal_spi.c ****   CLEAR_BIT(hspi->Instance->CR2, SPI_CR2_TXDMAEN | SPI_CR2_RXDMAEN);
 4410              		.loc 1 2260 3 is_stmt 1 discriminator 2
 4411 001e 7B68     		ldr	r3, [r7, #4]
 4412 0020 1B68     		ldr	r3, [r3]
ARM GAS  /tmp/cc9N7Buw.s 			page 118


 4413 0022 5A68     		ldr	r2, [r3, #4]
 4414 0024 7B68     		ldr	r3, [r7, #4]
 4415 0026 1B68     		ldr	r3, [r3]
 4416 0028 22F00302 		bic	r2, r2, #3
 4417 002c 5A60     		str	r2, [r3, #4]
2261:Drivers/STM32F4xx_HAL_Driver/Src/stm32f4xx_hal_spi.c **** 
2262:Drivers/STM32F4xx_HAL_Driver/Src/stm32f4xx_hal_spi.c ****   /* Process Unlocked */
2263:Drivers/STM32F4xx_HAL_Driver/Src/stm32f4xx_hal_spi.c ****   __HAL_UNLOCK(hspi);
 4418              		.loc 1 2263 3 discriminator 2
 4419 002e 7B68     		ldr	r3, [r7, #4]
 4420 0030 0022     		movs	r2, #0
 4421 0032 83F85020 		strb	r2, [r3, #80]
2264:Drivers/STM32F4xx_HAL_Driver/Src/stm32f4xx_hal_spi.c **** 
2265:Drivers/STM32F4xx_HAL_Driver/Src/stm32f4xx_hal_spi.c ****   return HAL_OK;
 4422              		.loc 1 2265 10 discriminator 2
 4423 0036 0023     		movs	r3, #0
 4424              	.L247:
2266:Drivers/STM32F4xx_HAL_Driver/Src/stm32f4xx_hal_spi.c **** }
 4425              		.loc 1 2266 1
 4426 0038 1846     		mov	r0, r3
 4427 003a 0C37     		adds	r7, r7, #12
 4428              	.LCFI80:
 4429              		.cfi_def_cfa_offset 4
 4430 003c BD46     		mov	sp, r7
 4431              	.LCFI81:
 4432              		.cfi_def_cfa_register 13
 4433              		@ sp needed
 4434 003e 5DF8047B 		ldr	r7, [sp], #4
 4435              	.LCFI82:
 4436              		.cfi_restore 7
 4437              		.cfi_def_cfa_offset 0
 4438 0042 7047     		bx	lr
 4439              		.cfi_endproc
 4440              	.LFE145:
 4442              		.section	.text.HAL_SPI_DMAResume,"ax",%progbits
 4443              		.align	1
 4444              		.global	HAL_SPI_DMAResume
 4445              		.syntax unified
 4446              		.thumb
 4447              		.thumb_func
 4448              		.fpu fpv4-sp-d16
 4450              	HAL_SPI_DMAResume:
 4451              	.LFB146:
2267:Drivers/STM32F4xx_HAL_Driver/Src/stm32f4xx_hal_spi.c **** 
2268:Drivers/STM32F4xx_HAL_Driver/Src/stm32f4xx_hal_spi.c **** /**
2269:Drivers/STM32F4xx_HAL_Driver/Src/stm32f4xx_hal_spi.c ****   * @brief  Resume the DMA Transfer.
2270:Drivers/STM32F4xx_HAL_Driver/Src/stm32f4xx_hal_spi.c ****   * @param  hspi pointer to a SPI_HandleTypeDef structure that contains
2271:Drivers/STM32F4xx_HAL_Driver/Src/stm32f4xx_hal_spi.c ****   *               the configuration information for the specified SPI module.
2272:Drivers/STM32F4xx_HAL_Driver/Src/stm32f4xx_hal_spi.c ****   * @retval HAL status
2273:Drivers/STM32F4xx_HAL_Driver/Src/stm32f4xx_hal_spi.c ****   */
2274:Drivers/STM32F4xx_HAL_Driver/Src/stm32f4xx_hal_spi.c **** HAL_StatusTypeDef HAL_SPI_DMAResume(SPI_HandleTypeDef *hspi)
2275:Drivers/STM32F4xx_HAL_Driver/Src/stm32f4xx_hal_spi.c **** {
 4452              		.loc 1 2275 1
 4453              		.cfi_startproc
 4454              		@ args = 0, pretend = 0, frame = 8
 4455              		@ frame_needed = 1, uses_anonymous_args = 0
 4456              		@ link register save eliminated.
ARM GAS  /tmp/cc9N7Buw.s 			page 119


 4457 0000 80B4     		push	{r7}
 4458              	.LCFI83:
 4459              		.cfi_def_cfa_offset 4
 4460              		.cfi_offset 7, -4
 4461 0002 83B0     		sub	sp, sp, #12
 4462              	.LCFI84:
 4463              		.cfi_def_cfa_offset 16
 4464 0004 00AF     		add	r7, sp, #0
 4465              	.LCFI85:
 4466              		.cfi_def_cfa_register 7
 4467 0006 7860     		str	r0, [r7, #4]
2276:Drivers/STM32F4xx_HAL_Driver/Src/stm32f4xx_hal_spi.c ****   /* Process Locked */
2277:Drivers/STM32F4xx_HAL_Driver/Src/stm32f4xx_hal_spi.c ****   __HAL_LOCK(hspi);
 4468              		.loc 1 2277 3
 4469 0008 7B68     		ldr	r3, [r7, #4]
 4470 000a 93F85030 		ldrb	r3, [r3, #80]	@ zero_extendqisi2
 4471 000e 012B     		cmp	r3, #1
 4472 0010 01D1     		bne	.L249
 4473              		.loc 1 2277 3 is_stmt 0 discriminator 1
 4474 0012 0223     		movs	r3, #2
 4475 0014 10E0     		b	.L250
 4476              	.L249:
 4477              		.loc 1 2277 3 discriminator 2
 4478 0016 7B68     		ldr	r3, [r7, #4]
 4479 0018 0122     		movs	r2, #1
 4480 001a 83F85020 		strb	r2, [r3, #80]
2278:Drivers/STM32F4xx_HAL_Driver/Src/stm32f4xx_hal_spi.c **** 
2279:Drivers/STM32F4xx_HAL_Driver/Src/stm32f4xx_hal_spi.c ****   /* Enable the SPI DMA Tx & Rx requests */
2280:Drivers/STM32F4xx_HAL_Driver/Src/stm32f4xx_hal_spi.c ****   SET_BIT(hspi->Instance->CR2, SPI_CR2_TXDMAEN | SPI_CR2_RXDMAEN);
 4481              		.loc 1 2280 3 is_stmt 1 discriminator 2
 4482 001e 7B68     		ldr	r3, [r7, #4]
 4483 0020 1B68     		ldr	r3, [r3]
 4484 0022 5A68     		ldr	r2, [r3, #4]
 4485 0024 7B68     		ldr	r3, [r7, #4]
 4486 0026 1B68     		ldr	r3, [r3]
 4487 0028 42F00302 		orr	r2, r2, #3
 4488 002c 5A60     		str	r2, [r3, #4]
2281:Drivers/STM32F4xx_HAL_Driver/Src/stm32f4xx_hal_spi.c **** 
2282:Drivers/STM32F4xx_HAL_Driver/Src/stm32f4xx_hal_spi.c ****   /* Process Unlocked */
2283:Drivers/STM32F4xx_HAL_Driver/Src/stm32f4xx_hal_spi.c ****   __HAL_UNLOCK(hspi);
 4489              		.loc 1 2283 3 discriminator 2
 4490 002e 7B68     		ldr	r3, [r7, #4]
 4491 0030 0022     		movs	r2, #0
 4492 0032 83F85020 		strb	r2, [r3, #80]
2284:Drivers/STM32F4xx_HAL_Driver/Src/stm32f4xx_hal_spi.c **** 
2285:Drivers/STM32F4xx_HAL_Driver/Src/stm32f4xx_hal_spi.c ****   return HAL_OK;
 4493              		.loc 1 2285 10 discriminator 2
 4494 0036 0023     		movs	r3, #0
 4495              	.L250:
2286:Drivers/STM32F4xx_HAL_Driver/Src/stm32f4xx_hal_spi.c **** }
 4496              		.loc 1 2286 1
 4497 0038 1846     		mov	r0, r3
 4498 003a 0C37     		adds	r7, r7, #12
 4499              	.LCFI86:
 4500              		.cfi_def_cfa_offset 4
 4501 003c BD46     		mov	sp, r7
 4502              	.LCFI87:
ARM GAS  /tmp/cc9N7Buw.s 			page 120


 4503              		.cfi_def_cfa_register 13
 4504              		@ sp needed
 4505 003e 5DF8047B 		ldr	r7, [sp], #4
 4506              	.LCFI88:
 4507              		.cfi_restore 7
 4508              		.cfi_def_cfa_offset 0
 4509 0042 7047     		bx	lr
 4510              		.cfi_endproc
 4511              	.LFE146:
 4513              		.section	.text.HAL_SPI_DMAStop,"ax",%progbits
 4514              		.align	1
 4515              		.global	HAL_SPI_DMAStop
 4516              		.syntax unified
 4517              		.thumb
 4518              		.thumb_func
 4519              		.fpu fpv4-sp-d16
 4521              	HAL_SPI_DMAStop:
 4522              	.LFB147:
2287:Drivers/STM32F4xx_HAL_Driver/Src/stm32f4xx_hal_spi.c **** 
2288:Drivers/STM32F4xx_HAL_Driver/Src/stm32f4xx_hal_spi.c **** /**
2289:Drivers/STM32F4xx_HAL_Driver/Src/stm32f4xx_hal_spi.c ****   * @brief  Stop the DMA Transfer.
2290:Drivers/STM32F4xx_HAL_Driver/Src/stm32f4xx_hal_spi.c ****   * @param  hspi pointer to a SPI_HandleTypeDef structure that contains
2291:Drivers/STM32F4xx_HAL_Driver/Src/stm32f4xx_hal_spi.c ****   *               the configuration information for the specified SPI module.
2292:Drivers/STM32F4xx_HAL_Driver/Src/stm32f4xx_hal_spi.c ****   * @retval HAL status
2293:Drivers/STM32F4xx_HAL_Driver/Src/stm32f4xx_hal_spi.c ****   */
2294:Drivers/STM32F4xx_HAL_Driver/Src/stm32f4xx_hal_spi.c **** HAL_StatusTypeDef HAL_SPI_DMAStop(SPI_HandleTypeDef *hspi)
2295:Drivers/STM32F4xx_HAL_Driver/Src/stm32f4xx_hal_spi.c **** {
 4523              		.loc 1 2295 1
 4524              		.cfi_startproc
 4525              		@ args = 0, pretend = 0, frame = 16
 4526              		@ frame_needed = 1, uses_anonymous_args = 0
 4527 0000 80B5     		push	{r7, lr}
 4528              	.LCFI89:
 4529              		.cfi_def_cfa_offset 8
 4530              		.cfi_offset 7, -8
 4531              		.cfi_offset 14, -4
 4532 0002 84B0     		sub	sp, sp, #16
 4533              	.LCFI90:
 4534              		.cfi_def_cfa_offset 24
 4535 0004 00AF     		add	r7, sp, #0
 4536              	.LCFI91:
 4537              		.cfi_def_cfa_register 7
 4538 0006 7860     		str	r0, [r7, #4]
2296:Drivers/STM32F4xx_HAL_Driver/Src/stm32f4xx_hal_spi.c ****   HAL_StatusTypeDef errorcode = HAL_OK;
 4539              		.loc 1 2296 21
 4540 0008 0023     		movs	r3, #0
 4541 000a FB73     		strb	r3, [r7, #15]
2297:Drivers/STM32F4xx_HAL_Driver/Src/stm32f4xx_hal_spi.c ****   /* The Lock is not implemented on this API to allow the user application
2298:Drivers/STM32F4xx_HAL_Driver/Src/stm32f4xx_hal_spi.c ****      to call the HAL SPI API under callbacks HAL_SPI_TxCpltCallback() or HAL_SPI_RxCpltCallback() o
2299:Drivers/STM32F4xx_HAL_Driver/Src/stm32f4xx_hal_spi.c ****      when calling HAL_DMA_Abort() API the DMA TX/RX Transfer complete interrupt is generated
2300:Drivers/STM32F4xx_HAL_Driver/Src/stm32f4xx_hal_spi.c ****      and the correspond call back is executed HAL_SPI_TxCpltCallback() or HAL_SPI_RxCpltCallback() 
2301:Drivers/STM32F4xx_HAL_Driver/Src/stm32f4xx_hal_spi.c ****      */
2302:Drivers/STM32F4xx_HAL_Driver/Src/stm32f4xx_hal_spi.c **** 
2303:Drivers/STM32F4xx_HAL_Driver/Src/stm32f4xx_hal_spi.c ****   /* Abort the SPI DMA tx Stream/Channel  */
2304:Drivers/STM32F4xx_HAL_Driver/Src/stm32f4xx_hal_spi.c ****   if (hspi->hdmatx != NULL)
 4542              		.loc 1 2304 11
 4543 000c 7B68     		ldr	r3, [r7, #4]
ARM GAS  /tmp/cc9N7Buw.s 			page 121


 4544 000e 9B6C     		ldr	r3, [r3, #72]
 4545              		.loc 1 2304 6
 4546 0010 002B     		cmp	r3, #0
 4547 0012 0FD0     		beq	.L252
2305:Drivers/STM32F4xx_HAL_Driver/Src/stm32f4xx_hal_spi.c ****   {
2306:Drivers/STM32F4xx_HAL_Driver/Src/stm32f4xx_hal_spi.c ****     if (HAL_OK != HAL_DMA_Abort(hspi->hdmatx))
 4548              		.loc 1 2306 19
 4549 0014 7B68     		ldr	r3, [r7, #4]
 4550 0016 9B6C     		ldr	r3, [r3, #72]
 4551 0018 1846     		mov	r0, r3
 4552 001a FFF7FEFF 		bl	HAL_DMA_Abort
 4553 001e 0346     		mov	r3, r0
 4554              		.loc 1 2306 8
 4555 0020 002B     		cmp	r3, #0
 4556 0022 07D0     		beq	.L252
2307:Drivers/STM32F4xx_HAL_Driver/Src/stm32f4xx_hal_spi.c ****     {
2308:Drivers/STM32F4xx_HAL_Driver/Src/stm32f4xx_hal_spi.c ****       SET_BIT(hspi->ErrorCode, HAL_SPI_ERROR_DMA);
 4557              		.loc 1 2308 7
 4558 0024 7B68     		ldr	r3, [r7, #4]
 4559 0026 5B6D     		ldr	r3, [r3, #84]
 4560 0028 43F01002 		orr	r2, r3, #16
 4561 002c 7B68     		ldr	r3, [r7, #4]
 4562 002e 5A65     		str	r2, [r3, #84]
2309:Drivers/STM32F4xx_HAL_Driver/Src/stm32f4xx_hal_spi.c ****       errorcode = HAL_ERROR;
 4563              		.loc 1 2309 17
 4564 0030 0123     		movs	r3, #1
 4565 0032 FB73     		strb	r3, [r7, #15]
 4566              	.L252:
2310:Drivers/STM32F4xx_HAL_Driver/Src/stm32f4xx_hal_spi.c ****     }
2311:Drivers/STM32F4xx_HAL_Driver/Src/stm32f4xx_hal_spi.c ****   }
2312:Drivers/STM32F4xx_HAL_Driver/Src/stm32f4xx_hal_spi.c ****   /* Abort the SPI DMA rx Stream/Channel  */
2313:Drivers/STM32F4xx_HAL_Driver/Src/stm32f4xx_hal_spi.c ****   if (hspi->hdmarx != NULL)
 4567              		.loc 1 2313 11
 4568 0034 7B68     		ldr	r3, [r7, #4]
 4569 0036 DB6C     		ldr	r3, [r3, #76]
 4570              		.loc 1 2313 6
 4571 0038 002B     		cmp	r3, #0
 4572 003a 0FD0     		beq	.L253
2314:Drivers/STM32F4xx_HAL_Driver/Src/stm32f4xx_hal_spi.c ****   {
2315:Drivers/STM32F4xx_HAL_Driver/Src/stm32f4xx_hal_spi.c ****     if (HAL_OK != HAL_DMA_Abort(hspi->hdmarx))
 4573              		.loc 1 2315 19
 4574 003c 7B68     		ldr	r3, [r7, #4]
 4575 003e DB6C     		ldr	r3, [r3, #76]
 4576 0040 1846     		mov	r0, r3
 4577 0042 FFF7FEFF 		bl	HAL_DMA_Abort
 4578 0046 0346     		mov	r3, r0
 4579              		.loc 1 2315 8
 4580 0048 002B     		cmp	r3, #0
 4581 004a 07D0     		beq	.L253
2316:Drivers/STM32F4xx_HAL_Driver/Src/stm32f4xx_hal_spi.c ****     {
2317:Drivers/STM32F4xx_HAL_Driver/Src/stm32f4xx_hal_spi.c ****       SET_BIT(hspi->ErrorCode, HAL_SPI_ERROR_DMA);
 4582              		.loc 1 2317 7
 4583 004c 7B68     		ldr	r3, [r7, #4]
 4584 004e 5B6D     		ldr	r3, [r3, #84]
 4585 0050 43F01002 		orr	r2, r3, #16
 4586 0054 7B68     		ldr	r3, [r7, #4]
 4587 0056 5A65     		str	r2, [r3, #84]
ARM GAS  /tmp/cc9N7Buw.s 			page 122


2318:Drivers/STM32F4xx_HAL_Driver/Src/stm32f4xx_hal_spi.c ****       errorcode = HAL_ERROR;
 4588              		.loc 1 2318 17
 4589 0058 0123     		movs	r3, #1
 4590 005a FB73     		strb	r3, [r7, #15]
 4591              	.L253:
2319:Drivers/STM32F4xx_HAL_Driver/Src/stm32f4xx_hal_spi.c ****     }
2320:Drivers/STM32F4xx_HAL_Driver/Src/stm32f4xx_hal_spi.c ****   }
2321:Drivers/STM32F4xx_HAL_Driver/Src/stm32f4xx_hal_spi.c **** 
2322:Drivers/STM32F4xx_HAL_Driver/Src/stm32f4xx_hal_spi.c ****   /* Disable the SPI DMA Tx & Rx requests */
2323:Drivers/STM32F4xx_HAL_Driver/Src/stm32f4xx_hal_spi.c ****   CLEAR_BIT(hspi->Instance->CR2, SPI_CR2_TXDMAEN | SPI_CR2_RXDMAEN);
 4592              		.loc 1 2323 3
 4593 005c 7B68     		ldr	r3, [r7, #4]
 4594 005e 1B68     		ldr	r3, [r3]
 4595 0060 5A68     		ldr	r2, [r3, #4]
 4596 0062 7B68     		ldr	r3, [r7, #4]
 4597 0064 1B68     		ldr	r3, [r3]
 4598 0066 22F00302 		bic	r2, r2, #3
 4599 006a 5A60     		str	r2, [r3, #4]
2324:Drivers/STM32F4xx_HAL_Driver/Src/stm32f4xx_hal_spi.c ****   hspi->State = HAL_SPI_STATE_READY;
 4600              		.loc 1 2324 15
 4601 006c 7B68     		ldr	r3, [r7, #4]
 4602 006e 0122     		movs	r2, #1
 4603 0070 83F85120 		strb	r2, [r3, #81]
2325:Drivers/STM32F4xx_HAL_Driver/Src/stm32f4xx_hal_spi.c ****   return errorcode;
 4604              		.loc 1 2325 10
 4605 0074 FB7B     		ldrb	r3, [r7, #15]	@ zero_extendqisi2
2326:Drivers/STM32F4xx_HAL_Driver/Src/stm32f4xx_hal_spi.c **** }
 4606              		.loc 1 2326 1
 4607 0076 1846     		mov	r0, r3
 4608 0078 1037     		adds	r7, r7, #16
 4609              	.LCFI92:
 4610              		.cfi_def_cfa_offset 8
 4611 007a BD46     		mov	sp, r7
 4612              	.LCFI93:
 4613              		.cfi_def_cfa_register 13
 4614              		@ sp needed
 4615 007c 80BD     		pop	{r7, pc}
 4616              		.cfi_endproc
 4617              	.LFE147:
 4619              		.section	.text.HAL_SPI_IRQHandler,"ax",%progbits
 4620              		.align	1
 4621              		.global	HAL_SPI_IRQHandler
 4622              		.syntax unified
 4623              		.thumb
 4624              		.thumb_func
 4625              		.fpu fpv4-sp-d16
 4627              	HAL_SPI_IRQHandler:
 4628              	.LFB148:
2327:Drivers/STM32F4xx_HAL_Driver/Src/stm32f4xx_hal_spi.c **** 
2328:Drivers/STM32F4xx_HAL_Driver/Src/stm32f4xx_hal_spi.c **** /**
2329:Drivers/STM32F4xx_HAL_Driver/Src/stm32f4xx_hal_spi.c ****   * @brief  Handle SPI interrupt request.
2330:Drivers/STM32F4xx_HAL_Driver/Src/stm32f4xx_hal_spi.c ****   * @param  hspi pointer to a SPI_HandleTypeDef structure that contains
2331:Drivers/STM32F4xx_HAL_Driver/Src/stm32f4xx_hal_spi.c ****   *               the configuration information for the specified SPI module.
2332:Drivers/STM32F4xx_HAL_Driver/Src/stm32f4xx_hal_spi.c ****   * @retval None
2333:Drivers/STM32F4xx_HAL_Driver/Src/stm32f4xx_hal_spi.c ****   */
2334:Drivers/STM32F4xx_HAL_Driver/Src/stm32f4xx_hal_spi.c **** void HAL_SPI_IRQHandler(SPI_HandleTypeDef *hspi)
2335:Drivers/STM32F4xx_HAL_Driver/Src/stm32f4xx_hal_spi.c **** {
ARM GAS  /tmp/cc9N7Buw.s 			page 123


 4629              		.loc 1 2335 1
 4630              		.cfi_startproc
 4631              		@ args = 0, pretend = 0, frame = 32
 4632              		@ frame_needed = 1, uses_anonymous_args = 0
 4633 0000 80B5     		push	{r7, lr}
 4634              	.LCFI94:
 4635              		.cfi_def_cfa_offset 8
 4636              		.cfi_offset 7, -8
 4637              		.cfi_offset 14, -4
 4638 0002 88B0     		sub	sp, sp, #32
 4639              	.LCFI95:
 4640              		.cfi_def_cfa_offset 40
 4641 0004 00AF     		add	r7, sp, #0
 4642              	.LCFI96:
 4643              		.cfi_def_cfa_register 7
 4644 0006 7860     		str	r0, [r7, #4]
2336:Drivers/STM32F4xx_HAL_Driver/Src/stm32f4xx_hal_spi.c ****   uint32_t itsource = hspi->Instance->CR2;
 4645              		.loc 1 2336 27
 4646 0008 7B68     		ldr	r3, [r7, #4]
 4647 000a 1B68     		ldr	r3, [r3]
 4648              		.loc 1 2336 12
 4649 000c 5B68     		ldr	r3, [r3, #4]
 4650 000e FB61     		str	r3, [r7, #28]
2337:Drivers/STM32F4xx_HAL_Driver/Src/stm32f4xx_hal_spi.c ****   uint32_t itflag   = hspi->Instance->SR;
 4651              		.loc 1 2337 27
 4652 0010 7B68     		ldr	r3, [r7, #4]
 4653 0012 1B68     		ldr	r3, [r3]
 4654              		.loc 1 2337 12
 4655 0014 9B68     		ldr	r3, [r3, #8]
 4656 0016 BB61     		str	r3, [r7, #24]
2338:Drivers/STM32F4xx_HAL_Driver/Src/stm32f4xx_hal_spi.c **** 
2339:Drivers/STM32F4xx_HAL_Driver/Src/stm32f4xx_hal_spi.c ****   /* SPI in mode Receiver ----------------------------------------------------*/
2340:Drivers/STM32F4xx_HAL_Driver/Src/stm32f4xx_hal_spi.c ****   if ((SPI_CHECK_FLAG(itflag, SPI_FLAG_OVR) == RESET) &&
 4657              		.loc 1 2340 8
 4658 0018 BB69     		ldr	r3, [r7, #24]
 4659 001a 9B09     		lsrs	r3, r3, #6
 4660 001c 03F00103 		and	r3, r3, #1
 4661              		.loc 1 2340 6
 4662 0020 002B     		cmp	r3, #0
 4663 0022 0FD1     		bne	.L256
2341:Drivers/STM32F4xx_HAL_Driver/Src/stm32f4xx_hal_spi.c ****       (SPI_CHECK_FLAG(itflag, SPI_FLAG_RXNE) != RESET) && (SPI_CHECK_IT_SOURCE(itsource, SPI_IT_RXN
 4664              		.loc 1 2341 8 discriminator 1
 4665 0024 BB69     		ldr	r3, [r7, #24]
 4666 0026 03F00103 		and	r3, r3, #1
2340:Drivers/STM32F4xx_HAL_Driver/Src/stm32f4xx_hal_spi.c ****       (SPI_CHECK_FLAG(itflag, SPI_FLAG_RXNE) != RESET) && (SPI_CHECK_IT_SOURCE(itsource, SPI_IT_RXN
 4667              		.loc 1 2340 55 discriminator 1
 4668 002a 002B     		cmp	r3, #0
 4669 002c 0AD0     		beq	.L256
 4670              		.loc 1 2341 60
 4671 002e FB69     		ldr	r3, [r7, #28]
 4672 0030 9B09     		lsrs	r3, r3, #6
 4673 0032 03F00103 		and	r3, r3, #1
 4674              		.loc 1 2341 56
 4675 0036 002B     		cmp	r3, #0
 4676 0038 04D0     		beq	.L256
2342:Drivers/STM32F4xx_HAL_Driver/Src/stm32f4xx_hal_spi.c ****   {
2343:Drivers/STM32F4xx_HAL_Driver/Src/stm32f4xx_hal_spi.c ****     hspi->RxISR(hspi);
ARM GAS  /tmp/cc9N7Buw.s 			page 124


 4677              		.loc 1 2343 9
 4678 003a 7B68     		ldr	r3, [r7, #4]
 4679 003c 1B6C     		ldr	r3, [r3, #64]
 4680              		.loc 1 2343 5
 4681 003e 7868     		ldr	r0, [r7, #4]
 4682 0040 9847     		blx	r3
 4683              	.LVL0:
2344:Drivers/STM32F4xx_HAL_Driver/Src/stm32f4xx_hal_spi.c ****     return;
 4684              		.loc 1 2344 5
 4685 0042 D7E0     		b	.L255
 4686              	.L256:
2345:Drivers/STM32F4xx_HAL_Driver/Src/stm32f4xx_hal_spi.c ****   }
2346:Drivers/STM32F4xx_HAL_Driver/Src/stm32f4xx_hal_spi.c **** 
2347:Drivers/STM32F4xx_HAL_Driver/Src/stm32f4xx_hal_spi.c ****   /* SPI in mode Transmitter -------------------------------------------------*/
2348:Drivers/STM32F4xx_HAL_Driver/Src/stm32f4xx_hal_spi.c ****   if ((SPI_CHECK_FLAG(itflag, SPI_FLAG_TXE) != RESET) && (SPI_CHECK_IT_SOURCE(itsource, SPI_IT_TXE)
 4687              		.loc 1 2348 8
 4688 0044 BB69     		ldr	r3, [r7, #24]
 4689 0046 5B08     		lsrs	r3, r3, #1
 4690 0048 03F00103 		and	r3, r3, #1
 4691              		.loc 1 2348 6
 4692 004c 002B     		cmp	r3, #0
 4693 004e 0AD0     		beq	.L258
 4694              		.loc 1 2348 59 discriminator 1
 4695 0050 FB69     		ldr	r3, [r7, #28]
 4696 0052 DB09     		lsrs	r3, r3, #7
 4697 0054 03F00103 		and	r3, r3, #1
 4698              		.loc 1 2348 55 discriminator 1
 4699 0058 002B     		cmp	r3, #0
 4700 005a 04D0     		beq	.L258
2349:Drivers/STM32F4xx_HAL_Driver/Src/stm32f4xx_hal_spi.c ****   {
2350:Drivers/STM32F4xx_HAL_Driver/Src/stm32f4xx_hal_spi.c ****     hspi->TxISR(hspi);
 4701              		.loc 1 2350 9
 4702 005c 7B68     		ldr	r3, [r7, #4]
 4703 005e 5B6C     		ldr	r3, [r3, #68]
 4704              		.loc 1 2350 5
 4705 0060 7868     		ldr	r0, [r7, #4]
 4706 0062 9847     		blx	r3
 4707              	.LVL1:
2351:Drivers/STM32F4xx_HAL_Driver/Src/stm32f4xx_hal_spi.c ****     return;
 4708              		.loc 1 2351 5
 4709 0064 C6E0     		b	.L255
 4710              	.L258:
2352:Drivers/STM32F4xx_HAL_Driver/Src/stm32f4xx_hal_spi.c ****   }
2353:Drivers/STM32F4xx_HAL_Driver/Src/stm32f4xx_hal_spi.c **** 
2354:Drivers/STM32F4xx_HAL_Driver/Src/stm32f4xx_hal_spi.c ****   /* SPI in Error Treatment --------------------------------------------------*/
2355:Drivers/STM32F4xx_HAL_Driver/Src/stm32f4xx_hal_spi.c ****   if (((SPI_CHECK_FLAG(itflag, SPI_FLAG_MODF) != RESET) || (SPI_CHECK_FLAG(itflag, SPI_FLAG_OVR) !=
 4711              		.loc 1 2355 9
 4712 0066 BB69     		ldr	r3, [r7, #24]
 4713 0068 5B09     		lsrs	r3, r3, #5
 4714 006a 03F00103 		and	r3, r3, #1
 4715              		.loc 1 2355 6
 4716 006e 002B     		cmp	r3, #0
 4717 0070 0CD1     		bne	.L259
 4718              		.loc 1 2355 61 discriminator 1
 4719 0072 BB69     		ldr	r3, [r7, #24]
 4720 0074 9B09     		lsrs	r3, r3, #6
 4721 0076 03F00103 		and	r3, r3, #1
ARM GAS  /tmp/cc9N7Buw.s 			page 125


 4722              		.loc 1 2355 57 discriminator 1
 4723 007a 002B     		cmp	r3, #0
 4724 007c 06D1     		bne	.L259
2356:Drivers/STM32F4xx_HAL_Driver/Src/stm32f4xx_hal_spi.c ****        || (SPI_CHECK_FLAG(itflag, SPI_FLAG_FRE) != RESET)) && (SPI_CHECK_IT_SOURCE(itsource, SPI_IT
 4725              		.loc 1 2356 12
 4726 007e BB69     		ldr	r3, [r7, #24]
 4727 0080 1B0A     		lsrs	r3, r3, #8
 4728 0082 03F00103 		and	r3, r3, #1
 4729              		.loc 1 2356 8
 4730 0086 002B     		cmp	r3, #0
 4731 0088 00F0B480 		beq	.L255
 4732              	.L259:
 4733              		.loc 1 2356 64 discriminator 1
 4734 008c FB69     		ldr	r3, [r7, #28]
 4735 008e 5B09     		lsrs	r3, r3, #5
 4736 0090 03F00103 		and	r3, r3, #1
 4737              		.loc 1 2356 60 discriminator 1
 4738 0094 002B     		cmp	r3, #0
 4739 0096 00F0AD80 		beq	.L255
2357:Drivers/STM32F4xx_HAL_Driver/Src/stm32f4xx_hal_spi.c ****   {
2358:Drivers/STM32F4xx_HAL_Driver/Src/stm32f4xx_hal_spi.c ****     /* SPI Overrun error interrupt occurred ----------------------------------*/
2359:Drivers/STM32F4xx_HAL_Driver/Src/stm32f4xx_hal_spi.c ****     if (SPI_CHECK_FLAG(itflag, SPI_FLAG_OVR) != RESET)
 4740              		.loc 1 2359 9
 4741 009a BB69     		ldr	r3, [r7, #24]
 4742 009c 9B09     		lsrs	r3, r3, #6
 4743 009e 03F00103 		and	r3, r3, #1
 4744              		.loc 1 2359 8
 4745 00a2 002B     		cmp	r3, #0
 4746 00a4 23D0     		beq	.L260
2360:Drivers/STM32F4xx_HAL_Driver/Src/stm32f4xx_hal_spi.c ****     {
2361:Drivers/STM32F4xx_HAL_Driver/Src/stm32f4xx_hal_spi.c ****       if (hspi->State != HAL_SPI_STATE_BUSY_TX)
 4747              		.loc 1 2361 15
 4748 00a6 7B68     		ldr	r3, [r7, #4]
 4749 00a8 93F85130 		ldrb	r3, [r3, #81]
 4750 00ac DBB2     		uxtb	r3, r3
 4751              		.loc 1 2361 10
 4752 00ae 032B     		cmp	r3, #3
 4753 00b0 11D0     		beq	.L261
2362:Drivers/STM32F4xx_HAL_Driver/Src/stm32f4xx_hal_spi.c ****       {
2363:Drivers/STM32F4xx_HAL_Driver/Src/stm32f4xx_hal_spi.c ****         SET_BIT(hspi->ErrorCode, HAL_SPI_ERROR_OVR);
 4754              		.loc 1 2363 9
 4755 00b2 7B68     		ldr	r3, [r7, #4]
 4756 00b4 5B6D     		ldr	r3, [r3, #84]
 4757 00b6 43F00402 		orr	r2, r3, #4
 4758 00ba 7B68     		ldr	r3, [r7, #4]
 4759 00bc 5A65     		str	r2, [r3, #84]
 4760              	.LBB8:
2364:Drivers/STM32F4xx_HAL_Driver/Src/stm32f4xx_hal_spi.c ****         __HAL_SPI_CLEAR_OVRFLAG(hspi);
 4761              		.loc 1 2364 9
 4762 00be 0023     		movs	r3, #0
 4763 00c0 7B61     		str	r3, [r7, #20]
 4764 00c2 7B68     		ldr	r3, [r7, #4]
 4765 00c4 1B68     		ldr	r3, [r3]
 4766 00c6 DB68     		ldr	r3, [r3, #12]
 4767 00c8 7B61     		str	r3, [r7, #20]
 4768 00ca 7B68     		ldr	r3, [r7, #4]
 4769 00cc 1B68     		ldr	r3, [r3]
ARM GAS  /tmp/cc9N7Buw.s 			page 126


 4770 00ce 9B68     		ldr	r3, [r3, #8]
 4771 00d0 7B61     		str	r3, [r7, #20]
 4772 00d2 7B69     		ldr	r3, [r7, #20]
 4773              	.LBE8:
 4774 00d4 0BE0     		b	.L260
 4775              	.L261:
 4776              	.LBB9:
2365:Drivers/STM32F4xx_HAL_Driver/Src/stm32f4xx_hal_spi.c ****       }
2366:Drivers/STM32F4xx_HAL_Driver/Src/stm32f4xx_hal_spi.c ****       else
2367:Drivers/STM32F4xx_HAL_Driver/Src/stm32f4xx_hal_spi.c ****       {
2368:Drivers/STM32F4xx_HAL_Driver/Src/stm32f4xx_hal_spi.c ****         __HAL_SPI_CLEAR_OVRFLAG(hspi);
 4777              		.loc 1 2368 9
 4778 00d6 0023     		movs	r3, #0
 4779 00d8 3B61     		str	r3, [r7, #16]
 4780 00da 7B68     		ldr	r3, [r7, #4]
 4781 00dc 1B68     		ldr	r3, [r3]
 4782 00de DB68     		ldr	r3, [r3, #12]
 4783 00e0 3B61     		str	r3, [r7, #16]
 4784 00e2 7B68     		ldr	r3, [r7, #4]
 4785 00e4 1B68     		ldr	r3, [r3]
 4786 00e6 9B68     		ldr	r3, [r3, #8]
 4787 00e8 3B61     		str	r3, [r7, #16]
 4788 00ea 3B69     		ldr	r3, [r7, #16]
 4789              	.LBE9:
2369:Drivers/STM32F4xx_HAL_Driver/Src/stm32f4xx_hal_spi.c ****         return;
 4790              		.loc 1 2369 9
 4791 00ec 82E0     		b	.L255
 4792              	.L260:
2370:Drivers/STM32F4xx_HAL_Driver/Src/stm32f4xx_hal_spi.c ****       }
2371:Drivers/STM32F4xx_HAL_Driver/Src/stm32f4xx_hal_spi.c ****     }
2372:Drivers/STM32F4xx_HAL_Driver/Src/stm32f4xx_hal_spi.c **** 
2373:Drivers/STM32F4xx_HAL_Driver/Src/stm32f4xx_hal_spi.c ****     /* SPI Mode Fault error interrupt occurred -------------------------------*/
2374:Drivers/STM32F4xx_HAL_Driver/Src/stm32f4xx_hal_spi.c ****     if (SPI_CHECK_FLAG(itflag, SPI_FLAG_MODF) != RESET)
 4793              		.loc 1 2374 9
 4794 00ee BB69     		ldr	r3, [r7, #24]
 4795 00f0 5B09     		lsrs	r3, r3, #5
 4796 00f2 03F00103 		and	r3, r3, #1
 4797              		.loc 1 2374 8
 4798 00f6 002B     		cmp	r3, #0
 4799 00f8 14D0     		beq	.L262
2375:Drivers/STM32F4xx_HAL_Driver/Src/stm32f4xx_hal_spi.c ****     {
2376:Drivers/STM32F4xx_HAL_Driver/Src/stm32f4xx_hal_spi.c ****       SET_BIT(hspi->ErrorCode, HAL_SPI_ERROR_MODF);
 4800              		.loc 1 2376 7
 4801 00fa 7B68     		ldr	r3, [r7, #4]
 4802 00fc 5B6D     		ldr	r3, [r3, #84]
 4803 00fe 43F00102 		orr	r2, r3, #1
 4804 0102 7B68     		ldr	r3, [r7, #4]
 4805 0104 5A65     		str	r2, [r3, #84]
 4806              	.LBB10:
2377:Drivers/STM32F4xx_HAL_Driver/Src/stm32f4xx_hal_spi.c ****       __HAL_SPI_CLEAR_MODFFLAG(hspi);
 4807              		.loc 1 2377 7
 4808 0106 0023     		movs	r3, #0
 4809 0108 FB60     		str	r3, [r7, #12]
 4810 010a 7B68     		ldr	r3, [r7, #4]
 4811 010c 1B68     		ldr	r3, [r3]
 4812 010e 9B68     		ldr	r3, [r3, #8]
 4813 0110 FB60     		str	r3, [r7, #12]
ARM GAS  /tmp/cc9N7Buw.s 			page 127


 4814 0112 7B68     		ldr	r3, [r7, #4]
 4815 0114 1B68     		ldr	r3, [r3]
 4816 0116 1A68     		ldr	r2, [r3]
 4817 0118 7B68     		ldr	r3, [r7, #4]
 4818 011a 1B68     		ldr	r3, [r3]
 4819 011c 22F04002 		bic	r2, r2, #64
 4820 0120 1A60     		str	r2, [r3]
 4821 0122 FB68     		ldr	r3, [r7, #12]
 4822              	.L262:
 4823              	.LBE10:
2378:Drivers/STM32F4xx_HAL_Driver/Src/stm32f4xx_hal_spi.c ****     }
2379:Drivers/STM32F4xx_HAL_Driver/Src/stm32f4xx_hal_spi.c **** 
2380:Drivers/STM32F4xx_HAL_Driver/Src/stm32f4xx_hal_spi.c ****     /* SPI Frame error interrupt occurred ------------------------------------*/
2381:Drivers/STM32F4xx_HAL_Driver/Src/stm32f4xx_hal_spi.c ****     if (SPI_CHECK_FLAG(itflag, SPI_FLAG_FRE) != RESET)
 4824              		.loc 1 2381 9
 4825 0124 BB69     		ldr	r3, [r7, #24]
 4826 0126 1B0A     		lsrs	r3, r3, #8
 4827 0128 03F00103 		and	r3, r3, #1
 4828              		.loc 1 2381 8
 4829 012c 002B     		cmp	r3, #0
 4830 012e 0CD0     		beq	.L263
2382:Drivers/STM32F4xx_HAL_Driver/Src/stm32f4xx_hal_spi.c ****     {
2383:Drivers/STM32F4xx_HAL_Driver/Src/stm32f4xx_hal_spi.c ****       SET_BIT(hspi->ErrorCode, HAL_SPI_ERROR_FRE);
 4831              		.loc 1 2383 7
 4832 0130 7B68     		ldr	r3, [r7, #4]
 4833 0132 5B6D     		ldr	r3, [r3, #84]
 4834 0134 43F00802 		orr	r2, r3, #8
 4835 0138 7B68     		ldr	r3, [r7, #4]
 4836 013a 5A65     		str	r2, [r3, #84]
 4837              	.LBB11:
2384:Drivers/STM32F4xx_HAL_Driver/Src/stm32f4xx_hal_spi.c ****       __HAL_SPI_CLEAR_FREFLAG(hspi);
 4838              		.loc 1 2384 7
 4839 013c 0023     		movs	r3, #0
 4840 013e BB60     		str	r3, [r7, #8]
 4841 0140 7B68     		ldr	r3, [r7, #4]
 4842 0142 1B68     		ldr	r3, [r3]
 4843 0144 9B68     		ldr	r3, [r3, #8]
 4844 0146 BB60     		str	r3, [r7, #8]
 4845 0148 BB68     		ldr	r3, [r7, #8]
 4846              	.L263:
 4847              	.LBE11:
2385:Drivers/STM32F4xx_HAL_Driver/Src/stm32f4xx_hal_spi.c ****     }
2386:Drivers/STM32F4xx_HAL_Driver/Src/stm32f4xx_hal_spi.c **** 
2387:Drivers/STM32F4xx_HAL_Driver/Src/stm32f4xx_hal_spi.c ****     if (hspi->ErrorCode != HAL_SPI_ERROR_NONE)
 4848              		.loc 1 2387 13
 4849 014a 7B68     		ldr	r3, [r7, #4]
 4850 014c 5B6D     		ldr	r3, [r3, #84]
 4851              		.loc 1 2387 8
 4852 014e 002B     		cmp	r3, #0
 4853 0150 4FD0     		beq	.L269
2388:Drivers/STM32F4xx_HAL_Driver/Src/stm32f4xx_hal_spi.c ****     {
2389:Drivers/STM32F4xx_HAL_Driver/Src/stm32f4xx_hal_spi.c ****       /* Disable all interrupts */
2390:Drivers/STM32F4xx_HAL_Driver/Src/stm32f4xx_hal_spi.c ****       __HAL_SPI_DISABLE_IT(hspi, SPI_IT_RXNE | SPI_IT_TXE | SPI_IT_ERR);
 4854              		.loc 1 2390 7
 4855 0152 7B68     		ldr	r3, [r7, #4]
 4856 0154 1B68     		ldr	r3, [r3]
 4857 0156 5A68     		ldr	r2, [r3, #4]
ARM GAS  /tmp/cc9N7Buw.s 			page 128


 4858 0158 7B68     		ldr	r3, [r7, #4]
 4859 015a 1B68     		ldr	r3, [r3]
 4860 015c 22F0E002 		bic	r2, r2, #224
 4861 0160 5A60     		str	r2, [r3, #4]
2391:Drivers/STM32F4xx_HAL_Driver/Src/stm32f4xx_hal_spi.c **** 
2392:Drivers/STM32F4xx_HAL_Driver/Src/stm32f4xx_hal_spi.c ****       hspi->State = HAL_SPI_STATE_READY;
 4862              		.loc 1 2392 19
 4863 0162 7B68     		ldr	r3, [r7, #4]
 4864 0164 0122     		movs	r2, #1
 4865 0166 83F85120 		strb	r2, [r3, #81]
2393:Drivers/STM32F4xx_HAL_Driver/Src/stm32f4xx_hal_spi.c ****       /* Disable the SPI DMA requests if enabled */
2394:Drivers/STM32F4xx_HAL_Driver/Src/stm32f4xx_hal_spi.c ****       if ((HAL_IS_BIT_SET(itsource, SPI_CR2_TXDMAEN)) || (HAL_IS_BIT_SET(itsource, SPI_CR2_RXDMAEN)
 4866              		.loc 1 2394 12
 4867 016a FB69     		ldr	r3, [r7, #28]
 4868 016c 03F00203 		and	r3, r3, #2
 4869              		.loc 1 2394 10
 4870 0170 002B     		cmp	r3, #0
 4871 0172 04D1     		bne	.L265
 4872              		.loc 1 2394 59 discriminator 1
 4873 0174 FB69     		ldr	r3, [r7, #28]
 4874 0176 03F00103 		and	r3, r3, #1
 4875              		.loc 1 2394 55 discriminator 1
 4876 017a 002B     		cmp	r3, #0
 4877 017c 34D0     		beq	.L266
 4878              	.L265:
2395:Drivers/STM32F4xx_HAL_Driver/Src/stm32f4xx_hal_spi.c ****       {
2396:Drivers/STM32F4xx_HAL_Driver/Src/stm32f4xx_hal_spi.c ****         CLEAR_BIT(hspi->Instance->CR2, (SPI_CR2_TXDMAEN | SPI_CR2_RXDMAEN));
 4879              		.loc 1 2396 9
 4880 017e 7B68     		ldr	r3, [r7, #4]
 4881 0180 1B68     		ldr	r3, [r3]
 4882 0182 5A68     		ldr	r2, [r3, #4]
 4883 0184 7B68     		ldr	r3, [r7, #4]
 4884 0186 1B68     		ldr	r3, [r3]
 4885 0188 22F00302 		bic	r2, r2, #3
 4886 018c 5A60     		str	r2, [r3, #4]
2397:Drivers/STM32F4xx_HAL_Driver/Src/stm32f4xx_hal_spi.c **** 
2398:Drivers/STM32F4xx_HAL_Driver/Src/stm32f4xx_hal_spi.c ****         /* Abort the SPI DMA Rx channel */
2399:Drivers/STM32F4xx_HAL_Driver/Src/stm32f4xx_hal_spi.c ****         if (hspi->hdmarx != NULL)
 4887              		.loc 1 2399 17
 4888 018e 7B68     		ldr	r3, [r7, #4]
 4889 0190 DB6C     		ldr	r3, [r3, #76]
 4890              		.loc 1 2399 12
 4891 0192 002B     		cmp	r3, #0
 4892 0194 11D0     		beq	.L267
2400:Drivers/STM32F4xx_HAL_Driver/Src/stm32f4xx_hal_spi.c ****         {
2401:Drivers/STM32F4xx_HAL_Driver/Src/stm32f4xx_hal_spi.c ****           /* Set the SPI DMA Abort callback :
2402:Drivers/STM32F4xx_HAL_Driver/Src/stm32f4xx_hal_spi.c ****           will lead to call HAL_SPI_ErrorCallback() at end of DMA abort procedure */
2403:Drivers/STM32F4xx_HAL_Driver/Src/stm32f4xx_hal_spi.c ****           hspi->hdmarx->XferAbortCallback = SPI_DMAAbortOnError;
 4893              		.loc 1 2403 15
 4894 0196 7B68     		ldr	r3, [r7, #4]
 4895 0198 DB6C     		ldr	r3, [r3, #76]
 4896              		.loc 1 2403 43
 4897 019a 184A     		ldr	r2, .L271
 4898 019c 1A65     		str	r2, [r3, #80]
2404:Drivers/STM32F4xx_HAL_Driver/Src/stm32f4xx_hal_spi.c ****           if (HAL_OK != HAL_DMA_Abort_IT(hspi->hdmarx))
 4899              		.loc 1 2404 25
 4900 019e 7B68     		ldr	r3, [r7, #4]
ARM GAS  /tmp/cc9N7Buw.s 			page 129


 4901 01a0 DB6C     		ldr	r3, [r3, #76]
 4902 01a2 1846     		mov	r0, r3
 4903 01a4 FFF7FEFF 		bl	HAL_DMA_Abort_IT
 4904 01a8 0346     		mov	r3, r0
 4905              		.loc 1 2404 14
 4906 01aa 002B     		cmp	r3, #0
 4907 01ac 05D0     		beq	.L267
2405:Drivers/STM32F4xx_HAL_Driver/Src/stm32f4xx_hal_spi.c ****           {
2406:Drivers/STM32F4xx_HAL_Driver/Src/stm32f4xx_hal_spi.c ****             SET_BIT(hspi->ErrorCode, HAL_SPI_ERROR_ABORT);
 4908              		.loc 1 2406 13
 4909 01ae 7B68     		ldr	r3, [r7, #4]
 4910 01b0 5B6D     		ldr	r3, [r3, #84]
 4911 01b2 43F04002 		orr	r2, r3, #64
 4912 01b6 7B68     		ldr	r3, [r7, #4]
 4913 01b8 5A65     		str	r2, [r3, #84]
 4914              	.L267:
2407:Drivers/STM32F4xx_HAL_Driver/Src/stm32f4xx_hal_spi.c ****           }
2408:Drivers/STM32F4xx_HAL_Driver/Src/stm32f4xx_hal_spi.c ****         }
2409:Drivers/STM32F4xx_HAL_Driver/Src/stm32f4xx_hal_spi.c ****         /* Abort the SPI DMA Tx channel */
2410:Drivers/STM32F4xx_HAL_Driver/Src/stm32f4xx_hal_spi.c ****         if (hspi->hdmatx != NULL)
 4915              		.loc 1 2410 17
 4916 01ba 7B68     		ldr	r3, [r7, #4]
 4917 01bc 9B6C     		ldr	r3, [r3, #72]
 4918              		.loc 1 2410 12
 4919 01be 002B     		cmp	r3, #0
 4920 01c0 16D0     		beq	.L270
2411:Drivers/STM32F4xx_HAL_Driver/Src/stm32f4xx_hal_spi.c ****         {
2412:Drivers/STM32F4xx_HAL_Driver/Src/stm32f4xx_hal_spi.c ****           /* Set the SPI DMA Abort callback :
2413:Drivers/STM32F4xx_HAL_Driver/Src/stm32f4xx_hal_spi.c ****           will lead to call HAL_SPI_ErrorCallback() at end of DMA abort procedure */
2414:Drivers/STM32F4xx_HAL_Driver/Src/stm32f4xx_hal_spi.c ****           hspi->hdmatx->XferAbortCallback = SPI_DMAAbortOnError;
 4921              		.loc 1 2414 15
 4922 01c2 7B68     		ldr	r3, [r7, #4]
 4923 01c4 9B6C     		ldr	r3, [r3, #72]
 4924              		.loc 1 2414 43
 4925 01c6 0D4A     		ldr	r2, .L271
 4926 01c8 1A65     		str	r2, [r3, #80]
2415:Drivers/STM32F4xx_HAL_Driver/Src/stm32f4xx_hal_spi.c ****           if (HAL_OK != HAL_DMA_Abort_IT(hspi->hdmatx))
 4927              		.loc 1 2415 25
 4928 01ca 7B68     		ldr	r3, [r7, #4]
 4929 01cc 9B6C     		ldr	r3, [r3, #72]
 4930 01ce 1846     		mov	r0, r3
 4931 01d0 FFF7FEFF 		bl	HAL_DMA_Abort_IT
 4932 01d4 0346     		mov	r3, r0
 4933              		.loc 1 2415 14
 4934 01d6 002B     		cmp	r3, #0
 4935 01d8 0AD0     		beq	.L270
2416:Drivers/STM32F4xx_HAL_Driver/Src/stm32f4xx_hal_spi.c ****           {
2417:Drivers/STM32F4xx_HAL_Driver/Src/stm32f4xx_hal_spi.c ****             SET_BIT(hspi->ErrorCode, HAL_SPI_ERROR_ABORT);
 4936              		.loc 1 2417 13
 4937 01da 7B68     		ldr	r3, [r7, #4]
 4938 01dc 5B6D     		ldr	r3, [r3, #84]
 4939 01de 43F04002 		orr	r2, r3, #64
 4940 01e2 7B68     		ldr	r3, [r7, #4]
 4941 01e4 5A65     		str	r2, [r3, #84]
2410:Drivers/STM32F4xx_HAL_Driver/Src/stm32f4xx_hal_spi.c ****         {
 4942              		.loc 1 2410 12
 4943 01e6 03E0     		b	.L270
ARM GAS  /tmp/cc9N7Buw.s 			page 130


 4944              	.L266:
2418:Drivers/STM32F4xx_HAL_Driver/Src/stm32f4xx_hal_spi.c ****           }
2419:Drivers/STM32F4xx_HAL_Driver/Src/stm32f4xx_hal_spi.c ****         }
2420:Drivers/STM32F4xx_HAL_Driver/Src/stm32f4xx_hal_spi.c ****       }
2421:Drivers/STM32F4xx_HAL_Driver/Src/stm32f4xx_hal_spi.c ****       else
2422:Drivers/STM32F4xx_HAL_Driver/Src/stm32f4xx_hal_spi.c ****       {
2423:Drivers/STM32F4xx_HAL_Driver/Src/stm32f4xx_hal_spi.c ****         /* Call user error callback */
2424:Drivers/STM32F4xx_HAL_Driver/Src/stm32f4xx_hal_spi.c **** #if (USE_HAL_SPI_REGISTER_CALLBACKS == 1U)
2425:Drivers/STM32F4xx_HAL_Driver/Src/stm32f4xx_hal_spi.c ****         hspi->ErrorCallback(hspi);
2426:Drivers/STM32F4xx_HAL_Driver/Src/stm32f4xx_hal_spi.c **** #else
2427:Drivers/STM32F4xx_HAL_Driver/Src/stm32f4xx_hal_spi.c ****         HAL_SPI_ErrorCallback(hspi);
 4945              		.loc 1 2427 9
 4946 01e8 7868     		ldr	r0, [r7, #4]
 4947 01ea FFF7FEFF 		bl	HAL_SPI_ErrorCallback
2428:Drivers/STM32F4xx_HAL_Driver/Src/stm32f4xx_hal_spi.c **** #endif /* USE_HAL_SPI_REGISTER_CALLBACKS */
2429:Drivers/STM32F4xx_HAL_Driver/Src/stm32f4xx_hal_spi.c ****       }
2430:Drivers/STM32F4xx_HAL_Driver/Src/stm32f4xx_hal_spi.c ****     }
2431:Drivers/STM32F4xx_HAL_Driver/Src/stm32f4xx_hal_spi.c ****     return;
 4948              		.loc 1 2431 5
 4949 01ee 00E0     		b	.L269
 4950              	.L270:
2410:Drivers/STM32F4xx_HAL_Driver/Src/stm32f4xx_hal_spi.c ****         {
 4951              		.loc 1 2410 12
 4952 01f0 00BF     		nop
 4953              	.L269:
 4954              		.loc 1 2431 5
 4955 01f2 00BF     		nop
 4956              	.L255:
2432:Drivers/STM32F4xx_HAL_Driver/Src/stm32f4xx_hal_spi.c ****   }
2433:Drivers/STM32F4xx_HAL_Driver/Src/stm32f4xx_hal_spi.c **** }
 4957              		.loc 1 2433 1
 4958 01f4 2037     		adds	r7, r7, #32
 4959              	.LCFI97:
 4960              		.cfi_def_cfa_offset 8
 4961 01f6 BD46     		mov	sp, r7
 4962              	.LCFI98:
 4963              		.cfi_def_cfa_register 13
 4964              		@ sp needed
 4965 01f8 80BD     		pop	{r7, pc}
 4966              	.L272:
 4967 01fa 00BF     		.align	2
 4968              	.L271:
 4969 01fc 00000000 		.word	SPI_DMAAbortOnError
 4970              		.cfi_endproc
 4971              	.LFE148:
 4973              		.section	.text.HAL_SPI_TxCpltCallback,"ax",%progbits
 4974              		.align	1
 4975              		.weak	HAL_SPI_TxCpltCallback
 4976              		.syntax unified
 4977              		.thumb
 4978              		.thumb_func
 4979              		.fpu fpv4-sp-d16
 4981              	HAL_SPI_TxCpltCallback:
 4982              	.LFB149:
2434:Drivers/STM32F4xx_HAL_Driver/Src/stm32f4xx_hal_spi.c **** 
2435:Drivers/STM32F4xx_HAL_Driver/Src/stm32f4xx_hal_spi.c **** /**
2436:Drivers/STM32F4xx_HAL_Driver/Src/stm32f4xx_hal_spi.c ****   * @brief  Tx Transfer completed callback.
ARM GAS  /tmp/cc9N7Buw.s 			page 131


2437:Drivers/STM32F4xx_HAL_Driver/Src/stm32f4xx_hal_spi.c ****   * @param  hspi pointer to a SPI_HandleTypeDef structure that contains
2438:Drivers/STM32F4xx_HAL_Driver/Src/stm32f4xx_hal_spi.c ****   *               the configuration information for SPI module.
2439:Drivers/STM32F4xx_HAL_Driver/Src/stm32f4xx_hal_spi.c ****   * @retval None
2440:Drivers/STM32F4xx_HAL_Driver/Src/stm32f4xx_hal_spi.c ****   */
2441:Drivers/STM32F4xx_HAL_Driver/Src/stm32f4xx_hal_spi.c **** __weak void HAL_SPI_TxCpltCallback(SPI_HandleTypeDef *hspi)
2442:Drivers/STM32F4xx_HAL_Driver/Src/stm32f4xx_hal_spi.c **** {
 4983              		.loc 1 2442 1
 4984              		.cfi_startproc
 4985              		@ args = 0, pretend = 0, frame = 8
 4986              		@ frame_needed = 1, uses_anonymous_args = 0
 4987              		@ link register save eliminated.
 4988 0000 80B4     		push	{r7}
 4989              	.LCFI99:
 4990              		.cfi_def_cfa_offset 4
 4991              		.cfi_offset 7, -4
 4992 0002 83B0     		sub	sp, sp, #12
 4993              	.LCFI100:
 4994              		.cfi_def_cfa_offset 16
 4995 0004 00AF     		add	r7, sp, #0
 4996              	.LCFI101:
 4997              		.cfi_def_cfa_register 7
 4998 0006 7860     		str	r0, [r7, #4]
2443:Drivers/STM32F4xx_HAL_Driver/Src/stm32f4xx_hal_spi.c ****   /* Prevent unused argument(s) compilation warning */
2444:Drivers/STM32F4xx_HAL_Driver/Src/stm32f4xx_hal_spi.c ****   UNUSED(hspi);
2445:Drivers/STM32F4xx_HAL_Driver/Src/stm32f4xx_hal_spi.c **** 
2446:Drivers/STM32F4xx_HAL_Driver/Src/stm32f4xx_hal_spi.c ****   /* NOTE : This function should not be modified, when the callback is needed,
2447:Drivers/STM32F4xx_HAL_Driver/Src/stm32f4xx_hal_spi.c ****             the HAL_SPI_TxCpltCallback should be implemented in the user file
2448:Drivers/STM32F4xx_HAL_Driver/Src/stm32f4xx_hal_spi.c ****    */
2449:Drivers/STM32F4xx_HAL_Driver/Src/stm32f4xx_hal_spi.c **** }
 4999              		.loc 1 2449 1
 5000 0008 00BF     		nop
 5001 000a 0C37     		adds	r7, r7, #12
 5002              	.LCFI102:
 5003              		.cfi_def_cfa_offset 4
 5004 000c BD46     		mov	sp, r7
 5005              	.LCFI103:
 5006              		.cfi_def_cfa_register 13
 5007              		@ sp needed
 5008 000e 5DF8047B 		ldr	r7, [sp], #4
 5009              	.LCFI104:
 5010              		.cfi_restore 7
 5011              		.cfi_def_cfa_offset 0
 5012 0012 7047     		bx	lr
 5013              		.cfi_endproc
 5014              	.LFE149:
 5016              		.section	.text.HAL_SPI_RxCpltCallback,"ax",%progbits
 5017              		.align	1
 5018              		.weak	HAL_SPI_RxCpltCallback
 5019              		.syntax unified
 5020              		.thumb
 5021              		.thumb_func
 5022              		.fpu fpv4-sp-d16
 5024              	HAL_SPI_RxCpltCallback:
 5025              	.LFB150:
2450:Drivers/STM32F4xx_HAL_Driver/Src/stm32f4xx_hal_spi.c **** 
2451:Drivers/STM32F4xx_HAL_Driver/Src/stm32f4xx_hal_spi.c **** /**
2452:Drivers/STM32F4xx_HAL_Driver/Src/stm32f4xx_hal_spi.c ****   * @brief  Rx Transfer completed callback.
ARM GAS  /tmp/cc9N7Buw.s 			page 132


2453:Drivers/STM32F4xx_HAL_Driver/Src/stm32f4xx_hal_spi.c ****   * @param  hspi pointer to a SPI_HandleTypeDef structure that contains
2454:Drivers/STM32F4xx_HAL_Driver/Src/stm32f4xx_hal_spi.c ****   *               the configuration information for SPI module.
2455:Drivers/STM32F4xx_HAL_Driver/Src/stm32f4xx_hal_spi.c ****   * @retval None
2456:Drivers/STM32F4xx_HAL_Driver/Src/stm32f4xx_hal_spi.c ****   */
2457:Drivers/STM32F4xx_HAL_Driver/Src/stm32f4xx_hal_spi.c **** __weak void HAL_SPI_RxCpltCallback(SPI_HandleTypeDef *hspi)
2458:Drivers/STM32F4xx_HAL_Driver/Src/stm32f4xx_hal_spi.c **** {
 5026              		.loc 1 2458 1
 5027              		.cfi_startproc
 5028              		@ args = 0, pretend = 0, frame = 8
 5029              		@ frame_needed = 1, uses_anonymous_args = 0
 5030              		@ link register save eliminated.
 5031 0000 80B4     		push	{r7}
 5032              	.LCFI105:
 5033              		.cfi_def_cfa_offset 4
 5034              		.cfi_offset 7, -4
 5035 0002 83B0     		sub	sp, sp, #12
 5036              	.LCFI106:
 5037              		.cfi_def_cfa_offset 16
 5038 0004 00AF     		add	r7, sp, #0
 5039              	.LCFI107:
 5040              		.cfi_def_cfa_register 7
 5041 0006 7860     		str	r0, [r7, #4]
2459:Drivers/STM32F4xx_HAL_Driver/Src/stm32f4xx_hal_spi.c ****   /* Prevent unused argument(s) compilation warning */
2460:Drivers/STM32F4xx_HAL_Driver/Src/stm32f4xx_hal_spi.c ****   UNUSED(hspi);
2461:Drivers/STM32F4xx_HAL_Driver/Src/stm32f4xx_hal_spi.c **** 
2462:Drivers/STM32F4xx_HAL_Driver/Src/stm32f4xx_hal_spi.c ****   /* NOTE : This function should not be modified, when the callback is needed,
2463:Drivers/STM32F4xx_HAL_Driver/Src/stm32f4xx_hal_spi.c ****             the HAL_SPI_RxCpltCallback should be implemented in the user file
2464:Drivers/STM32F4xx_HAL_Driver/Src/stm32f4xx_hal_spi.c ****    */
2465:Drivers/STM32F4xx_HAL_Driver/Src/stm32f4xx_hal_spi.c **** }
 5042              		.loc 1 2465 1
 5043 0008 00BF     		nop
 5044 000a 0C37     		adds	r7, r7, #12
 5045              	.LCFI108:
 5046              		.cfi_def_cfa_offset 4
 5047 000c BD46     		mov	sp, r7
 5048              	.LCFI109:
 5049              		.cfi_def_cfa_register 13
 5050              		@ sp needed
 5051 000e 5DF8047B 		ldr	r7, [sp], #4
 5052              	.LCFI110:
 5053              		.cfi_restore 7
 5054              		.cfi_def_cfa_offset 0
 5055 0012 7047     		bx	lr
 5056              		.cfi_endproc
 5057              	.LFE150:
 5059              		.section	.text.HAL_SPI_TxRxCpltCallback,"ax",%progbits
 5060              		.align	1
 5061              		.weak	HAL_SPI_TxRxCpltCallback
 5062              		.syntax unified
 5063              		.thumb
 5064              		.thumb_func
 5065              		.fpu fpv4-sp-d16
 5067              	HAL_SPI_TxRxCpltCallback:
 5068              	.LFB151:
2466:Drivers/STM32F4xx_HAL_Driver/Src/stm32f4xx_hal_spi.c **** 
2467:Drivers/STM32F4xx_HAL_Driver/Src/stm32f4xx_hal_spi.c **** /**
2468:Drivers/STM32F4xx_HAL_Driver/Src/stm32f4xx_hal_spi.c ****   * @brief  Tx and Rx Transfer completed callback.
ARM GAS  /tmp/cc9N7Buw.s 			page 133


2469:Drivers/STM32F4xx_HAL_Driver/Src/stm32f4xx_hal_spi.c ****   * @param  hspi pointer to a SPI_HandleTypeDef structure that contains
2470:Drivers/STM32F4xx_HAL_Driver/Src/stm32f4xx_hal_spi.c ****   *               the configuration information for SPI module.
2471:Drivers/STM32F4xx_HAL_Driver/Src/stm32f4xx_hal_spi.c ****   * @retval None
2472:Drivers/STM32F4xx_HAL_Driver/Src/stm32f4xx_hal_spi.c ****   */
2473:Drivers/STM32F4xx_HAL_Driver/Src/stm32f4xx_hal_spi.c **** __weak void HAL_SPI_TxRxCpltCallback(SPI_HandleTypeDef *hspi)
2474:Drivers/STM32F4xx_HAL_Driver/Src/stm32f4xx_hal_spi.c **** {
 5069              		.loc 1 2474 1
 5070              		.cfi_startproc
 5071              		@ args = 0, pretend = 0, frame = 8
 5072              		@ frame_needed = 1, uses_anonymous_args = 0
 5073              		@ link register save eliminated.
 5074 0000 80B4     		push	{r7}
 5075              	.LCFI111:
 5076              		.cfi_def_cfa_offset 4
 5077              		.cfi_offset 7, -4
 5078 0002 83B0     		sub	sp, sp, #12
 5079              	.LCFI112:
 5080              		.cfi_def_cfa_offset 16
 5081 0004 00AF     		add	r7, sp, #0
 5082              	.LCFI113:
 5083              		.cfi_def_cfa_register 7
 5084 0006 7860     		str	r0, [r7, #4]
2475:Drivers/STM32F4xx_HAL_Driver/Src/stm32f4xx_hal_spi.c ****   /* Prevent unused argument(s) compilation warning */
2476:Drivers/STM32F4xx_HAL_Driver/Src/stm32f4xx_hal_spi.c ****   UNUSED(hspi);
2477:Drivers/STM32F4xx_HAL_Driver/Src/stm32f4xx_hal_spi.c **** 
2478:Drivers/STM32F4xx_HAL_Driver/Src/stm32f4xx_hal_spi.c ****   /* NOTE : This function should not be modified, when the callback is needed,
2479:Drivers/STM32F4xx_HAL_Driver/Src/stm32f4xx_hal_spi.c ****             the HAL_SPI_TxRxCpltCallback should be implemented in the user file
2480:Drivers/STM32F4xx_HAL_Driver/Src/stm32f4xx_hal_spi.c ****    */
2481:Drivers/STM32F4xx_HAL_Driver/Src/stm32f4xx_hal_spi.c **** }
 5085              		.loc 1 2481 1
 5086 0008 00BF     		nop
 5087 000a 0C37     		adds	r7, r7, #12
 5088              	.LCFI114:
 5089              		.cfi_def_cfa_offset 4
 5090 000c BD46     		mov	sp, r7
 5091              	.LCFI115:
 5092              		.cfi_def_cfa_register 13
 5093              		@ sp needed
 5094 000e 5DF8047B 		ldr	r7, [sp], #4
 5095              	.LCFI116:
 5096              		.cfi_restore 7
 5097              		.cfi_def_cfa_offset 0
 5098 0012 7047     		bx	lr
 5099              		.cfi_endproc
 5100              	.LFE151:
 5102              		.section	.text.HAL_SPI_TxHalfCpltCallback,"ax",%progbits
 5103              		.align	1
 5104              		.weak	HAL_SPI_TxHalfCpltCallback
 5105              		.syntax unified
 5106              		.thumb
 5107              		.thumb_func
 5108              		.fpu fpv4-sp-d16
 5110              	HAL_SPI_TxHalfCpltCallback:
 5111              	.LFB152:
2482:Drivers/STM32F4xx_HAL_Driver/Src/stm32f4xx_hal_spi.c **** 
2483:Drivers/STM32F4xx_HAL_Driver/Src/stm32f4xx_hal_spi.c **** /**
2484:Drivers/STM32F4xx_HAL_Driver/Src/stm32f4xx_hal_spi.c ****   * @brief  Tx Half Transfer completed callback.
ARM GAS  /tmp/cc9N7Buw.s 			page 134


2485:Drivers/STM32F4xx_HAL_Driver/Src/stm32f4xx_hal_spi.c ****   * @param  hspi pointer to a SPI_HandleTypeDef structure that contains
2486:Drivers/STM32F4xx_HAL_Driver/Src/stm32f4xx_hal_spi.c ****   *               the configuration information for SPI module.
2487:Drivers/STM32F4xx_HAL_Driver/Src/stm32f4xx_hal_spi.c ****   * @retval None
2488:Drivers/STM32F4xx_HAL_Driver/Src/stm32f4xx_hal_spi.c ****   */
2489:Drivers/STM32F4xx_HAL_Driver/Src/stm32f4xx_hal_spi.c **** __weak void HAL_SPI_TxHalfCpltCallback(SPI_HandleTypeDef *hspi)
2490:Drivers/STM32F4xx_HAL_Driver/Src/stm32f4xx_hal_spi.c **** {
 5112              		.loc 1 2490 1
 5113              		.cfi_startproc
 5114              		@ args = 0, pretend = 0, frame = 8
 5115              		@ frame_needed = 1, uses_anonymous_args = 0
 5116              		@ link register save eliminated.
 5117 0000 80B4     		push	{r7}
 5118              	.LCFI117:
 5119              		.cfi_def_cfa_offset 4
 5120              		.cfi_offset 7, -4
 5121 0002 83B0     		sub	sp, sp, #12
 5122              	.LCFI118:
 5123              		.cfi_def_cfa_offset 16
 5124 0004 00AF     		add	r7, sp, #0
 5125              	.LCFI119:
 5126              		.cfi_def_cfa_register 7
 5127 0006 7860     		str	r0, [r7, #4]
2491:Drivers/STM32F4xx_HAL_Driver/Src/stm32f4xx_hal_spi.c ****   /* Prevent unused argument(s) compilation warning */
2492:Drivers/STM32F4xx_HAL_Driver/Src/stm32f4xx_hal_spi.c ****   UNUSED(hspi);
2493:Drivers/STM32F4xx_HAL_Driver/Src/stm32f4xx_hal_spi.c **** 
2494:Drivers/STM32F4xx_HAL_Driver/Src/stm32f4xx_hal_spi.c ****   /* NOTE : This function should not be modified, when the callback is needed,
2495:Drivers/STM32F4xx_HAL_Driver/Src/stm32f4xx_hal_spi.c ****             the HAL_SPI_TxHalfCpltCallback should be implemented in the user file
2496:Drivers/STM32F4xx_HAL_Driver/Src/stm32f4xx_hal_spi.c ****    */
2497:Drivers/STM32F4xx_HAL_Driver/Src/stm32f4xx_hal_spi.c **** }
 5128              		.loc 1 2497 1
 5129 0008 00BF     		nop
 5130 000a 0C37     		adds	r7, r7, #12
 5131              	.LCFI120:
 5132              		.cfi_def_cfa_offset 4
 5133 000c BD46     		mov	sp, r7
 5134              	.LCFI121:
 5135              		.cfi_def_cfa_register 13
 5136              		@ sp needed
 5137 000e 5DF8047B 		ldr	r7, [sp], #4
 5138              	.LCFI122:
 5139              		.cfi_restore 7
 5140              		.cfi_def_cfa_offset 0
 5141 0012 7047     		bx	lr
 5142              		.cfi_endproc
 5143              	.LFE152:
 5145              		.section	.text.HAL_SPI_RxHalfCpltCallback,"ax",%progbits
 5146              		.align	1
 5147              		.weak	HAL_SPI_RxHalfCpltCallback
 5148              		.syntax unified
 5149              		.thumb
 5150              		.thumb_func
 5151              		.fpu fpv4-sp-d16
 5153              	HAL_SPI_RxHalfCpltCallback:
 5154              	.LFB153:
2498:Drivers/STM32F4xx_HAL_Driver/Src/stm32f4xx_hal_spi.c **** 
2499:Drivers/STM32F4xx_HAL_Driver/Src/stm32f4xx_hal_spi.c **** /**
2500:Drivers/STM32F4xx_HAL_Driver/Src/stm32f4xx_hal_spi.c ****   * @brief  Rx Half Transfer completed callback.
ARM GAS  /tmp/cc9N7Buw.s 			page 135


2501:Drivers/STM32F4xx_HAL_Driver/Src/stm32f4xx_hal_spi.c ****   * @param  hspi pointer to a SPI_HandleTypeDef structure that contains
2502:Drivers/STM32F4xx_HAL_Driver/Src/stm32f4xx_hal_spi.c ****   *               the configuration information for SPI module.
2503:Drivers/STM32F4xx_HAL_Driver/Src/stm32f4xx_hal_spi.c ****   * @retval None
2504:Drivers/STM32F4xx_HAL_Driver/Src/stm32f4xx_hal_spi.c ****   */
2505:Drivers/STM32F4xx_HAL_Driver/Src/stm32f4xx_hal_spi.c **** __weak void HAL_SPI_RxHalfCpltCallback(SPI_HandleTypeDef *hspi)
2506:Drivers/STM32F4xx_HAL_Driver/Src/stm32f4xx_hal_spi.c **** {
 5155              		.loc 1 2506 1
 5156              		.cfi_startproc
 5157              		@ args = 0, pretend = 0, frame = 8
 5158              		@ frame_needed = 1, uses_anonymous_args = 0
 5159              		@ link register save eliminated.
 5160 0000 80B4     		push	{r7}
 5161              	.LCFI123:
 5162              		.cfi_def_cfa_offset 4
 5163              		.cfi_offset 7, -4
 5164 0002 83B0     		sub	sp, sp, #12
 5165              	.LCFI124:
 5166              		.cfi_def_cfa_offset 16
 5167 0004 00AF     		add	r7, sp, #0
 5168              	.LCFI125:
 5169              		.cfi_def_cfa_register 7
 5170 0006 7860     		str	r0, [r7, #4]
2507:Drivers/STM32F4xx_HAL_Driver/Src/stm32f4xx_hal_spi.c ****   /* Prevent unused argument(s) compilation warning */
2508:Drivers/STM32F4xx_HAL_Driver/Src/stm32f4xx_hal_spi.c ****   UNUSED(hspi);
2509:Drivers/STM32F4xx_HAL_Driver/Src/stm32f4xx_hal_spi.c **** 
2510:Drivers/STM32F4xx_HAL_Driver/Src/stm32f4xx_hal_spi.c ****   /* NOTE : This function should not be modified, when the callback is needed,
2511:Drivers/STM32F4xx_HAL_Driver/Src/stm32f4xx_hal_spi.c ****             the HAL_SPI_RxHalfCpltCallback() should be implemented in the user file
2512:Drivers/STM32F4xx_HAL_Driver/Src/stm32f4xx_hal_spi.c ****    */
2513:Drivers/STM32F4xx_HAL_Driver/Src/stm32f4xx_hal_spi.c **** }
 5171              		.loc 1 2513 1
 5172 0008 00BF     		nop
 5173 000a 0C37     		adds	r7, r7, #12
 5174              	.LCFI126:
 5175              		.cfi_def_cfa_offset 4
 5176 000c BD46     		mov	sp, r7
 5177              	.LCFI127:
 5178              		.cfi_def_cfa_register 13
 5179              		@ sp needed
 5180 000e 5DF8047B 		ldr	r7, [sp], #4
 5181              	.LCFI128:
 5182              		.cfi_restore 7
 5183              		.cfi_def_cfa_offset 0
 5184 0012 7047     		bx	lr
 5185              		.cfi_endproc
 5186              	.LFE153:
 5188              		.section	.text.HAL_SPI_TxRxHalfCpltCallback,"ax",%progbits
 5189              		.align	1
 5190              		.weak	HAL_SPI_TxRxHalfCpltCallback
 5191              		.syntax unified
 5192              		.thumb
 5193              		.thumb_func
 5194              		.fpu fpv4-sp-d16
 5196              	HAL_SPI_TxRxHalfCpltCallback:
 5197              	.LFB154:
2514:Drivers/STM32F4xx_HAL_Driver/Src/stm32f4xx_hal_spi.c **** 
2515:Drivers/STM32F4xx_HAL_Driver/Src/stm32f4xx_hal_spi.c **** /**
2516:Drivers/STM32F4xx_HAL_Driver/Src/stm32f4xx_hal_spi.c ****   * @brief  Tx and Rx Half Transfer callback.
ARM GAS  /tmp/cc9N7Buw.s 			page 136


2517:Drivers/STM32F4xx_HAL_Driver/Src/stm32f4xx_hal_spi.c ****   * @param  hspi pointer to a SPI_HandleTypeDef structure that contains
2518:Drivers/STM32F4xx_HAL_Driver/Src/stm32f4xx_hal_spi.c ****   *               the configuration information for SPI module.
2519:Drivers/STM32F4xx_HAL_Driver/Src/stm32f4xx_hal_spi.c ****   * @retval None
2520:Drivers/STM32F4xx_HAL_Driver/Src/stm32f4xx_hal_spi.c ****   */
2521:Drivers/STM32F4xx_HAL_Driver/Src/stm32f4xx_hal_spi.c **** __weak void HAL_SPI_TxRxHalfCpltCallback(SPI_HandleTypeDef *hspi)
2522:Drivers/STM32F4xx_HAL_Driver/Src/stm32f4xx_hal_spi.c **** {
 5198              		.loc 1 2522 1
 5199              		.cfi_startproc
 5200              		@ args = 0, pretend = 0, frame = 8
 5201              		@ frame_needed = 1, uses_anonymous_args = 0
 5202              		@ link register save eliminated.
 5203 0000 80B4     		push	{r7}
 5204              	.LCFI129:
 5205              		.cfi_def_cfa_offset 4
 5206              		.cfi_offset 7, -4
 5207 0002 83B0     		sub	sp, sp, #12
 5208              	.LCFI130:
 5209              		.cfi_def_cfa_offset 16
 5210 0004 00AF     		add	r7, sp, #0
 5211              	.LCFI131:
 5212              		.cfi_def_cfa_register 7
 5213 0006 7860     		str	r0, [r7, #4]
2523:Drivers/STM32F4xx_HAL_Driver/Src/stm32f4xx_hal_spi.c ****   /* Prevent unused argument(s) compilation warning */
2524:Drivers/STM32F4xx_HAL_Driver/Src/stm32f4xx_hal_spi.c ****   UNUSED(hspi);
2525:Drivers/STM32F4xx_HAL_Driver/Src/stm32f4xx_hal_spi.c **** 
2526:Drivers/STM32F4xx_HAL_Driver/Src/stm32f4xx_hal_spi.c ****   /* NOTE : This function should not be modified, when the callback is needed,
2527:Drivers/STM32F4xx_HAL_Driver/Src/stm32f4xx_hal_spi.c ****             the HAL_SPI_TxRxHalfCpltCallback() should be implemented in the user file
2528:Drivers/STM32F4xx_HAL_Driver/Src/stm32f4xx_hal_spi.c ****    */
2529:Drivers/STM32F4xx_HAL_Driver/Src/stm32f4xx_hal_spi.c **** }
 5214              		.loc 1 2529 1
 5215 0008 00BF     		nop
 5216 000a 0C37     		adds	r7, r7, #12
 5217              	.LCFI132:
 5218              		.cfi_def_cfa_offset 4
 5219 000c BD46     		mov	sp, r7
 5220              	.LCFI133:
 5221              		.cfi_def_cfa_register 13
 5222              		@ sp needed
 5223 000e 5DF8047B 		ldr	r7, [sp], #4
 5224              	.LCFI134:
 5225              		.cfi_restore 7
 5226              		.cfi_def_cfa_offset 0
 5227 0012 7047     		bx	lr
 5228              		.cfi_endproc
 5229              	.LFE154:
 5231              		.section	.text.HAL_SPI_ErrorCallback,"ax",%progbits
 5232              		.align	1
 5233              		.weak	HAL_SPI_ErrorCallback
 5234              		.syntax unified
 5235              		.thumb
 5236              		.thumb_func
 5237              		.fpu fpv4-sp-d16
 5239              	HAL_SPI_ErrorCallback:
 5240              	.LFB155:
2530:Drivers/STM32F4xx_HAL_Driver/Src/stm32f4xx_hal_spi.c **** 
2531:Drivers/STM32F4xx_HAL_Driver/Src/stm32f4xx_hal_spi.c **** /**
2532:Drivers/STM32F4xx_HAL_Driver/Src/stm32f4xx_hal_spi.c ****   * @brief  SPI error callback.
ARM GAS  /tmp/cc9N7Buw.s 			page 137


2533:Drivers/STM32F4xx_HAL_Driver/Src/stm32f4xx_hal_spi.c ****   * @param  hspi pointer to a SPI_HandleTypeDef structure that contains
2534:Drivers/STM32F4xx_HAL_Driver/Src/stm32f4xx_hal_spi.c ****   *               the configuration information for SPI module.
2535:Drivers/STM32F4xx_HAL_Driver/Src/stm32f4xx_hal_spi.c ****   * @retval None
2536:Drivers/STM32F4xx_HAL_Driver/Src/stm32f4xx_hal_spi.c ****   */
2537:Drivers/STM32F4xx_HAL_Driver/Src/stm32f4xx_hal_spi.c **** __weak void HAL_SPI_ErrorCallback(SPI_HandleTypeDef *hspi)
2538:Drivers/STM32F4xx_HAL_Driver/Src/stm32f4xx_hal_spi.c **** {
 5241              		.loc 1 2538 1
 5242              		.cfi_startproc
 5243              		@ args = 0, pretend = 0, frame = 8
 5244              		@ frame_needed = 1, uses_anonymous_args = 0
 5245              		@ link register save eliminated.
 5246 0000 80B4     		push	{r7}
 5247              	.LCFI135:
 5248              		.cfi_def_cfa_offset 4
 5249              		.cfi_offset 7, -4
 5250 0002 83B0     		sub	sp, sp, #12
 5251              	.LCFI136:
 5252              		.cfi_def_cfa_offset 16
 5253 0004 00AF     		add	r7, sp, #0
 5254              	.LCFI137:
 5255              		.cfi_def_cfa_register 7
 5256 0006 7860     		str	r0, [r7, #4]
2539:Drivers/STM32F4xx_HAL_Driver/Src/stm32f4xx_hal_spi.c ****   /* Prevent unused argument(s) compilation warning */
2540:Drivers/STM32F4xx_HAL_Driver/Src/stm32f4xx_hal_spi.c ****   UNUSED(hspi);
2541:Drivers/STM32F4xx_HAL_Driver/Src/stm32f4xx_hal_spi.c **** 
2542:Drivers/STM32F4xx_HAL_Driver/Src/stm32f4xx_hal_spi.c ****   /* NOTE : This function should not be modified, when the callback is needed,
2543:Drivers/STM32F4xx_HAL_Driver/Src/stm32f4xx_hal_spi.c ****             the HAL_SPI_ErrorCallback should be implemented in the user file
2544:Drivers/STM32F4xx_HAL_Driver/Src/stm32f4xx_hal_spi.c ****    */
2545:Drivers/STM32F4xx_HAL_Driver/Src/stm32f4xx_hal_spi.c ****   /* NOTE : The ErrorCode parameter in the hspi handle is updated by the SPI processes
2546:Drivers/STM32F4xx_HAL_Driver/Src/stm32f4xx_hal_spi.c ****             and user can use HAL_SPI_GetError() API to check the latest error occurred
2547:Drivers/STM32F4xx_HAL_Driver/Src/stm32f4xx_hal_spi.c ****    */
2548:Drivers/STM32F4xx_HAL_Driver/Src/stm32f4xx_hal_spi.c **** }
 5257              		.loc 1 2548 1
 5258 0008 00BF     		nop
 5259 000a 0C37     		adds	r7, r7, #12
 5260              	.LCFI138:
 5261              		.cfi_def_cfa_offset 4
 5262 000c BD46     		mov	sp, r7
 5263              	.LCFI139:
 5264              		.cfi_def_cfa_register 13
 5265              		@ sp needed
 5266 000e 5DF8047B 		ldr	r7, [sp], #4
 5267              	.LCFI140:
 5268              		.cfi_restore 7
 5269              		.cfi_def_cfa_offset 0
 5270 0012 7047     		bx	lr
 5271              		.cfi_endproc
 5272              	.LFE155:
 5274              		.section	.text.HAL_SPI_AbortCpltCallback,"ax",%progbits
 5275              		.align	1
 5276              		.weak	HAL_SPI_AbortCpltCallback
 5277              		.syntax unified
 5278              		.thumb
 5279              		.thumb_func
 5280              		.fpu fpv4-sp-d16
 5282              	HAL_SPI_AbortCpltCallback:
 5283              	.LFB156:
ARM GAS  /tmp/cc9N7Buw.s 			page 138


2549:Drivers/STM32F4xx_HAL_Driver/Src/stm32f4xx_hal_spi.c **** 
2550:Drivers/STM32F4xx_HAL_Driver/Src/stm32f4xx_hal_spi.c **** /**
2551:Drivers/STM32F4xx_HAL_Driver/Src/stm32f4xx_hal_spi.c ****   * @brief  SPI Abort Complete callback.
2552:Drivers/STM32F4xx_HAL_Driver/Src/stm32f4xx_hal_spi.c ****   * @param  hspi SPI handle.
2553:Drivers/STM32F4xx_HAL_Driver/Src/stm32f4xx_hal_spi.c ****   * @retval None
2554:Drivers/STM32F4xx_HAL_Driver/Src/stm32f4xx_hal_spi.c ****   */
2555:Drivers/STM32F4xx_HAL_Driver/Src/stm32f4xx_hal_spi.c **** __weak void HAL_SPI_AbortCpltCallback(SPI_HandleTypeDef *hspi)
2556:Drivers/STM32F4xx_HAL_Driver/Src/stm32f4xx_hal_spi.c **** {
 5284              		.loc 1 2556 1
 5285              		.cfi_startproc
 5286              		@ args = 0, pretend = 0, frame = 8
 5287              		@ frame_needed = 1, uses_anonymous_args = 0
 5288              		@ link register save eliminated.
 5289 0000 80B4     		push	{r7}
 5290              	.LCFI141:
 5291              		.cfi_def_cfa_offset 4
 5292              		.cfi_offset 7, -4
 5293 0002 83B0     		sub	sp, sp, #12
 5294              	.LCFI142:
 5295              		.cfi_def_cfa_offset 16
 5296 0004 00AF     		add	r7, sp, #0
 5297              	.LCFI143:
 5298              		.cfi_def_cfa_register 7
 5299 0006 7860     		str	r0, [r7, #4]
2557:Drivers/STM32F4xx_HAL_Driver/Src/stm32f4xx_hal_spi.c ****   /* Prevent unused argument(s) compilation warning */
2558:Drivers/STM32F4xx_HAL_Driver/Src/stm32f4xx_hal_spi.c ****   UNUSED(hspi);
2559:Drivers/STM32F4xx_HAL_Driver/Src/stm32f4xx_hal_spi.c **** 
2560:Drivers/STM32F4xx_HAL_Driver/Src/stm32f4xx_hal_spi.c ****   /* NOTE : This function should not be modified, when the callback is needed,
2561:Drivers/STM32F4xx_HAL_Driver/Src/stm32f4xx_hal_spi.c ****             the HAL_SPI_AbortCpltCallback can be implemented in the user file.
2562:Drivers/STM32F4xx_HAL_Driver/Src/stm32f4xx_hal_spi.c ****    */
2563:Drivers/STM32F4xx_HAL_Driver/Src/stm32f4xx_hal_spi.c **** }
 5300              		.loc 1 2563 1
 5301 0008 00BF     		nop
 5302 000a 0C37     		adds	r7, r7, #12
 5303              	.LCFI144:
 5304              		.cfi_def_cfa_offset 4
 5305 000c BD46     		mov	sp, r7
 5306              	.LCFI145:
 5307              		.cfi_def_cfa_register 13
 5308              		@ sp needed
 5309 000e 5DF8047B 		ldr	r7, [sp], #4
 5310              	.LCFI146:
 5311              		.cfi_restore 7
 5312              		.cfi_def_cfa_offset 0
 5313 0012 7047     		bx	lr
 5314              		.cfi_endproc
 5315              	.LFE156:
 5317              		.section	.text.HAL_SPI_GetState,"ax",%progbits
 5318              		.align	1
 5319              		.global	HAL_SPI_GetState
 5320              		.syntax unified
 5321              		.thumb
 5322              		.thumb_func
 5323              		.fpu fpv4-sp-d16
 5325              	HAL_SPI_GetState:
 5326              	.LFB157:
2564:Drivers/STM32F4xx_HAL_Driver/Src/stm32f4xx_hal_spi.c **** 
ARM GAS  /tmp/cc9N7Buw.s 			page 139


2565:Drivers/STM32F4xx_HAL_Driver/Src/stm32f4xx_hal_spi.c **** /**
2566:Drivers/STM32F4xx_HAL_Driver/Src/stm32f4xx_hal_spi.c ****   * @}
2567:Drivers/STM32F4xx_HAL_Driver/Src/stm32f4xx_hal_spi.c ****   */
2568:Drivers/STM32F4xx_HAL_Driver/Src/stm32f4xx_hal_spi.c **** 
2569:Drivers/STM32F4xx_HAL_Driver/Src/stm32f4xx_hal_spi.c **** /** @defgroup SPI_Exported_Functions_Group3 Peripheral State and Errors functions
2570:Drivers/STM32F4xx_HAL_Driver/Src/stm32f4xx_hal_spi.c ****   * @brief   SPI control functions
2571:Drivers/STM32F4xx_HAL_Driver/Src/stm32f4xx_hal_spi.c ****   *
2572:Drivers/STM32F4xx_HAL_Driver/Src/stm32f4xx_hal_spi.c **** @verbatim
2573:Drivers/STM32F4xx_HAL_Driver/Src/stm32f4xx_hal_spi.c ****  ===============================================================================
2574:Drivers/STM32F4xx_HAL_Driver/Src/stm32f4xx_hal_spi.c ****                       ##### Peripheral State and Errors functions #####
2575:Drivers/STM32F4xx_HAL_Driver/Src/stm32f4xx_hal_spi.c ****  ===============================================================================
2576:Drivers/STM32F4xx_HAL_Driver/Src/stm32f4xx_hal_spi.c ****     [..]
2577:Drivers/STM32F4xx_HAL_Driver/Src/stm32f4xx_hal_spi.c ****     This subsection provides a set of functions allowing to control the SPI.
2578:Drivers/STM32F4xx_HAL_Driver/Src/stm32f4xx_hal_spi.c ****      (+) HAL_SPI_GetState() API can be helpful to check in run-time the state of the SPI peripheral
2579:Drivers/STM32F4xx_HAL_Driver/Src/stm32f4xx_hal_spi.c ****      (+) HAL_SPI_GetError() check in run-time Errors occurring during communication
2580:Drivers/STM32F4xx_HAL_Driver/Src/stm32f4xx_hal_spi.c **** @endverbatim
2581:Drivers/STM32F4xx_HAL_Driver/Src/stm32f4xx_hal_spi.c ****   * @{
2582:Drivers/STM32F4xx_HAL_Driver/Src/stm32f4xx_hal_spi.c ****   */
2583:Drivers/STM32F4xx_HAL_Driver/Src/stm32f4xx_hal_spi.c **** 
2584:Drivers/STM32F4xx_HAL_Driver/Src/stm32f4xx_hal_spi.c **** /**
2585:Drivers/STM32F4xx_HAL_Driver/Src/stm32f4xx_hal_spi.c ****   * @brief  Return the SPI handle state.
2586:Drivers/STM32F4xx_HAL_Driver/Src/stm32f4xx_hal_spi.c ****   * @param  hspi pointer to a SPI_HandleTypeDef structure that contains
2587:Drivers/STM32F4xx_HAL_Driver/Src/stm32f4xx_hal_spi.c ****   *               the configuration information for SPI module.
2588:Drivers/STM32F4xx_HAL_Driver/Src/stm32f4xx_hal_spi.c ****   * @retval SPI state
2589:Drivers/STM32F4xx_HAL_Driver/Src/stm32f4xx_hal_spi.c ****   */
2590:Drivers/STM32F4xx_HAL_Driver/Src/stm32f4xx_hal_spi.c **** HAL_SPI_StateTypeDef HAL_SPI_GetState(SPI_HandleTypeDef *hspi)
2591:Drivers/STM32F4xx_HAL_Driver/Src/stm32f4xx_hal_spi.c **** {
 5327              		.loc 1 2591 1
 5328              		.cfi_startproc
 5329              		@ args = 0, pretend = 0, frame = 8
 5330              		@ frame_needed = 1, uses_anonymous_args = 0
 5331              		@ link register save eliminated.
 5332 0000 80B4     		push	{r7}
 5333              	.LCFI147:
 5334              		.cfi_def_cfa_offset 4
 5335              		.cfi_offset 7, -4
 5336 0002 83B0     		sub	sp, sp, #12
 5337              	.LCFI148:
 5338              		.cfi_def_cfa_offset 16
 5339 0004 00AF     		add	r7, sp, #0
 5340              	.LCFI149:
 5341              		.cfi_def_cfa_register 7
 5342 0006 7860     		str	r0, [r7, #4]
2592:Drivers/STM32F4xx_HAL_Driver/Src/stm32f4xx_hal_spi.c ****   /* Return SPI handle state */
2593:Drivers/STM32F4xx_HAL_Driver/Src/stm32f4xx_hal_spi.c ****   return hspi->State;
 5343              		.loc 1 2593 14
 5344 0008 7B68     		ldr	r3, [r7, #4]
 5345 000a 93F85130 		ldrb	r3, [r3, #81]
 5346 000e DBB2     		uxtb	r3, r3
2594:Drivers/STM32F4xx_HAL_Driver/Src/stm32f4xx_hal_spi.c **** }
 5347              		.loc 1 2594 1
 5348 0010 1846     		mov	r0, r3
 5349 0012 0C37     		adds	r7, r7, #12
 5350              	.LCFI150:
 5351              		.cfi_def_cfa_offset 4
 5352 0014 BD46     		mov	sp, r7
 5353              	.LCFI151:
ARM GAS  /tmp/cc9N7Buw.s 			page 140


 5354              		.cfi_def_cfa_register 13
 5355              		@ sp needed
 5356 0016 5DF8047B 		ldr	r7, [sp], #4
 5357              	.LCFI152:
 5358              		.cfi_restore 7
 5359              		.cfi_def_cfa_offset 0
 5360 001a 7047     		bx	lr
 5361              		.cfi_endproc
 5362              	.LFE157:
 5364              		.section	.text.HAL_SPI_GetError,"ax",%progbits
 5365              		.align	1
 5366              		.global	HAL_SPI_GetError
 5367              		.syntax unified
 5368              		.thumb
 5369              		.thumb_func
 5370              		.fpu fpv4-sp-d16
 5372              	HAL_SPI_GetError:
 5373              	.LFB158:
2595:Drivers/STM32F4xx_HAL_Driver/Src/stm32f4xx_hal_spi.c **** 
2596:Drivers/STM32F4xx_HAL_Driver/Src/stm32f4xx_hal_spi.c **** /**
2597:Drivers/STM32F4xx_HAL_Driver/Src/stm32f4xx_hal_spi.c ****   * @brief  Return the SPI error code.
2598:Drivers/STM32F4xx_HAL_Driver/Src/stm32f4xx_hal_spi.c ****   * @param  hspi pointer to a SPI_HandleTypeDef structure that contains
2599:Drivers/STM32F4xx_HAL_Driver/Src/stm32f4xx_hal_spi.c ****   *               the configuration information for SPI module.
2600:Drivers/STM32F4xx_HAL_Driver/Src/stm32f4xx_hal_spi.c ****   * @retval SPI error code in bitmap format
2601:Drivers/STM32F4xx_HAL_Driver/Src/stm32f4xx_hal_spi.c ****   */
2602:Drivers/STM32F4xx_HAL_Driver/Src/stm32f4xx_hal_spi.c **** uint32_t HAL_SPI_GetError(SPI_HandleTypeDef *hspi)
2603:Drivers/STM32F4xx_HAL_Driver/Src/stm32f4xx_hal_spi.c **** {
 5374              		.loc 1 2603 1
 5375              		.cfi_startproc
 5376              		@ args = 0, pretend = 0, frame = 8
 5377              		@ frame_needed = 1, uses_anonymous_args = 0
 5378              		@ link register save eliminated.
 5379 0000 80B4     		push	{r7}
 5380              	.LCFI153:
 5381              		.cfi_def_cfa_offset 4
 5382              		.cfi_offset 7, -4
 5383 0002 83B0     		sub	sp, sp, #12
 5384              	.LCFI154:
 5385              		.cfi_def_cfa_offset 16
 5386 0004 00AF     		add	r7, sp, #0
 5387              	.LCFI155:
 5388              		.cfi_def_cfa_register 7
 5389 0006 7860     		str	r0, [r7, #4]
2604:Drivers/STM32F4xx_HAL_Driver/Src/stm32f4xx_hal_spi.c ****   /* Return SPI ErrorCode */
2605:Drivers/STM32F4xx_HAL_Driver/Src/stm32f4xx_hal_spi.c ****   return hspi->ErrorCode;
 5390              		.loc 1 2605 14
 5391 0008 7B68     		ldr	r3, [r7, #4]
 5392 000a 5B6D     		ldr	r3, [r3, #84]
2606:Drivers/STM32F4xx_HAL_Driver/Src/stm32f4xx_hal_spi.c **** }
 5393              		.loc 1 2606 1
 5394 000c 1846     		mov	r0, r3
 5395 000e 0C37     		adds	r7, r7, #12
 5396              	.LCFI156:
 5397              		.cfi_def_cfa_offset 4
 5398 0010 BD46     		mov	sp, r7
 5399              	.LCFI157:
 5400              		.cfi_def_cfa_register 13
ARM GAS  /tmp/cc9N7Buw.s 			page 141


 5401              		@ sp needed
 5402 0012 5DF8047B 		ldr	r7, [sp], #4
 5403              	.LCFI158:
 5404              		.cfi_restore 7
 5405              		.cfi_def_cfa_offset 0
 5406 0016 7047     		bx	lr
 5407              		.cfi_endproc
 5408              	.LFE158:
 5410              		.section	.text.SPI_DMATransmitCplt,"ax",%progbits
 5411              		.align	1
 5412              		.syntax unified
 5413              		.thumb
 5414              		.thumb_func
 5415              		.fpu fpv4-sp-d16
 5417              	SPI_DMATransmitCplt:
 5418              	.LFB159:
2607:Drivers/STM32F4xx_HAL_Driver/Src/stm32f4xx_hal_spi.c **** 
2608:Drivers/STM32F4xx_HAL_Driver/Src/stm32f4xx_hal_spi.c **** /**
2609:Drivers/STM32F4xx_HAL_Driver/Src/stm32f4xx_hal_spi.c ****   * @}
2610:Drivers/STM32F4xx_HAL_Driver/Src/stm32f4xx_hal_spi.c ****   */
2611:Drivers/STM32F4xx_HAL_Driver/Src/stm32f4xx_hal_spi.c **** 
2612:Drivers/STM32F4xx_HAL_Driver/Src/stm32f4xx_hal_spi.c **** /**
2613:Drivers/STM32F4xx_HAL_Driver/Src/stm32f4xx_hal_spi.c ****   * @}
2614:Drivers/STM32F4xx_HAL_Driver/Src/stm32f4xx_hal_spi.c ****   */
2615:Drivers/STM32F4xx_HAL_Driver/Src/stm32f4xx_hal_spi.c **** 
2616:Drivers/STM32F4xx_HAL_Driver/Src/stm32f4xx_hal_spi.c **** /** @addtogroup SPI_Private_Functions
2617:Drivers/STM32F4xx_HAL_Driver/Src/stm32f4xx_hal_spi.c ****   * @brief   Private functions
2618:Drivers/STM32F4xx_HAL_Driver/Src/stm32f4xx_hal_spi.c ****   * @{
2619:Drivers/STM32F4xx_HAL_Driver/Src/stm32f4xx_hal_spi.c ****   */
2620:Drivers/STM32F4xx_HAL_Driver/Src/stm32f4xx_hal_spi.c **** 
2621:Drivers/STM32F4xx_HAL_Driver/Src/stm32f4xx_hal_spi.c **** /**
2622:Drivers/STM32F4xx_HAL_Driver/Src/stm32f4xx_hal_spi.c ****   * @brief  DMA SPI transmit process complete callback.
2623:Drivers/STM32F4xx_HAL_Driver/Src/stm32f4xx_hal_spi.c ****   * @param  hdma pointer to a DMA_HandleTypeDef structure that contains
2624:Drivers/STM32F4xx_HAL_Driver/Src/stm32f4xx_hal_spi.c ****   *               the configuration information for the specified DMA module.
2625:Drivers/STM32F4xx_HAL_Driver/Src/stm32f4xx_hal_spi.c ****   * @retval None
2626:Drivers/STM32F4xx_HAL_Driver/Src/stm32f4xx_hal_spi.c ****   */
2627:Drivers/STM32F4xx_HAL_Driver/Src/stm32f4xx_hal_spi.c **** static void SPI_DMATransmitCplt(DMA_HandleTypeDef *hdma)
2628:Drivers/STM32F4xx_HAL_Driver/Src/stm32f4xx_hal_spi.c **** {
 5419              		.loc 1 2628 1
 5420              		.cfi_startproc
 5421              		@ args = 0, pretend = 0, frame = 24
 5422              		@ frame_needed = 1, uses_anonymous_args = 0
 5423 0000 80B5     		push	{r7, lr}
 5424              	.LCFI159:
 5425              		.cfi_def_cfa_offset 8
 5426              		.cfi_offset 7, -8
 5427              		.cfi_offset 14, -4
 5428 0002 86B0     		sub	sp, sp, #24
 5429              	.LCFI160:
 5430              		.cfi_def_cfa_offset 32
 5431 0004 00AF     		add	r7, sp, #0
 5432              	.LCFI161:
 5433              		.cfi_def_cfa_register 7
 5434 0006 7860     		str	r0, [r7, #4]
2629:Drivers/STM32F4xx_HAL_Driver/Src/stm32f4xx_hal_spi.c ****   SPI_HandleTypeDef *hspi = (SPI_HandleTypeDef *)(((DMA_HandleTypeDef *)hdma)->Parent); /* Derogati
 5435              		.loc 1 2629 22
 5436 0008 7B68     		ldr	r3, [r7, #4]
ARM GAS  /tmp/cc9N7Buw.s 			page 142


 5437 000a 9B6B     		ldr	r3, [r3, #56]
 5438 000c 7B61     		str	r3, [r7, #20]
2630:Drivers/STM32F4xx_HAL_Driver/Src/stm32f4xx_hal_spi.c ****   uint32_t tickstart;
2631:Drivers/STM32F4xx_HAL_Driver/Src/stm32f4xx_hal_spi.c **** 
2632:Drivers/STM32F4xx_HAL_Driver/Src/stm32f4xx_hal_spi.c ****   /* Init tickstart for timeout management*/
2633:Drivers/STM32F4xx_HAL_Driver/Src/stm32f4xx_hal_spi.c ****   tickstart = HAL_GetTick();
 5439              		.loc 1 2633 15
 5440 000e FFF7FEFF 		bl	HAL_GetTick
 5441 0012 3861     		str	r0, [r7, #16]
2634:Drivers/STM32F4xx_HAL_Driver/Src/stm32f4xx_hal_spi.c **** 
2635:Drivers/STM32F4xx_HAL_Driver/Src/stm32f4xx_hal_spi.c ****   /* DMA Normal Mode */
2636:Drivers/STM32F4xx_HAL_Driver/Src/stm32f4xx_hal_spi.c ****   if ((hdma->Instance->CR & DMA_SxCR_CIRC) != DMA_SxCR_CIRC)
 5442              		.loc 1 2636 12
 5443 0014 7B68     		ldr	r3, [r7, #4]
 5444 0016 1B68     		ldr	r3, [r3]
 5445              		.loc 1 2636 22
 5446 0018 1B68     		ldr	r3, [r3]
 5447              		.loc 1 2636 27
 5448 001a 03F48073 		and	r3, r3, #256
 5449              		.loc 1 2636 6
 5450 001e B3F5807F 		cmp	r3, #256
 5451 0022 3BD0     		beq	.L286
2637:Drivers/STM32F4xx_HAL_Driver/Src/stm32f4xx_hal_spi.c ****   {
2638:Drivers/STM32F4xx_HAL_Driver/Src/stm32f4xx_hal_spi.c ****     /* Disable ERR interrupt */
2639:Drivers/STM32F4xx_HAL_Driver/Src/stm32f4xx_hal_spi.c ****     __HAL_SPI_DISABLE_IT(hspi, SPI_IT_ERR);
 5452              		.loc 1 2639 5
 5453 0024 7B69     		ldr	r3, [r7, #20]
 5454 0026 1B68     		ldr	r3, [r3]
 5455 0028 5A68     		ldr	r2, [r3, #4]
 5456 002a 7B69     		ldr	r3, [r7, #20]
 5457 002c 1B68     		ldr	r3, [r3]
 5458 002e 22F02002 		bic	r2, r2, #32
 5459 0032 5A60     		str	r2, [r3, #4]
2640:Drivers/STM32F4xx_HAL_Driver/Src/stm32f4xx_hal_spi.c **** 
2641:Drivers/STM32F4xx_HAL_Driver/Src/stm32f4xx_hal_spi.c ****     /* Disable Tx DMA Request */
2642:Drivers/STM32F4xx_HAL_Driver/Src/stm32f4xx_hal_spi.c ****     CLEAR_BIT(hspi->Instance->CR2, SPI_CR2_TXDMAEN);
 5460              		.loc 1 2642 5
 5461 0034 7B69     		ldr	r3, [r7, #20]
 5462 0036 1B68     		ldr	r3, [r3]
 5463 0038 5A68     		ldr	r2, [r3, #4]
 5464 003a 7B69     		ldr	r3, [r7, #20]
 5465 003c 1B68     		ldr	r3, [r3]
 5466 003e 22F00202 		bic	r2, r2, #2
 5467 0042 5A60     		str	r2, [r3, #4]
2643:Drivers/STM32F4xx_HAL_Driver/Src/stm32f4xx_hal_spi.c **** 
2644:Drivers/STM32F4xx_HAL_Driver/Src/stm32f4xx_hal_spi.c ****     /* Check the end of the transaction */
2645:Drivers/STM32F4xx_HAL_Driver/Src/stm32f4xx_hal_spi.c ****     if (SPI_EndRxTxTransaction(hspi, SPI_DEFAULT_TIMEOUT, tickstart) != HAL_OK)
 5468              		.loc 1 2645 9
 5469 0044 3A69     		ldr	r2, [r7, #16]
 5470 0046 6421     		movs	r1, #100
 5471 0048 7869     		ldr	r0, [r7, #20]
 5472 004a FFF7FEFF 		bl	SPI_EndRxTxTransaction
 5473 004e 0346     		mov	r3, r0
 5474              		.loc 1 2645 8
 5475 0050 002B     		cmp	r3, #0
 5476 0052 05D0     		beq	.L287
2646:Drivers/STM32F4xx_HAL_Driver/Src/stm32f4xx_hal_spi.c ****     {
ARM GAS  /tmp/cc9N7Buw.s 			page 143


2647:Drivers/STM32F4xx_HAL_Driver/Src/stm32f4xx_hal_spi.c ****       SET_BIT(hspi->ErrorCode, HAL_SPI_ERROR_FLAG);
 5477              		.loc 1 2647 7
 5478 0054 7B69     		ldr	r3, [r7, #20]
 5479 0056 5B6D     		ldr	r3, [r3, #84]
 5480 0058 43F02002 		orr	r2, r3, #32
 5481 005c 7B69     		ldr	r3, [r7, #20]
 5482 005e 5A65     		str	r2, [r3, #84]
 5483              	.L287:
2648:Drivers/STM32F4xx_HAL_Driver/Src/stm32f4xx_hal_spi.c ****     }
2649:Drivers/STM32F4xx_HAL_Driver/Src/stm32f4xx_hal_spi.c **** 
2650:Drivers/STM32F4xx_HAL_Driver/Src/stm32f4xx_hal_spi.c ****     /* Clear overrun flag in 2 Lines communication mode because received data is not read */
2651:Drivers/STM32F4xx_HAL_Driver/Src/stm32f4xx_hal_spi.c ****     if (hspi->Init.Direction == SPI_DIRECTION_2LINES)
 5484              		.loc 1 2651 19
 5485 0060 7B69     		ldr	r3, [r7, #20]
 5486 0062 9B68     		ldr	r3, [r3, #8]
 5487              		.loc 1 2651 8
 5488 0064 002B     		cmp	r3, #0
 5489 0066 0AD1     		bne	.L288
 5490              	.LBB12:
2652:Drivers/STM32F4xx_HAL_Driver/Src/stm32f4xx_hal_spi.c ****     {
2653:Drivers/STM32F4xx_HAL_Driver/Src/stm32f4xx_hal_spi.c ****       __HAL_SPI_CLEAR_OVRFLAG(hspi);
 5491              		.loc 1 2653 7
 5492 0068 0023     		movs	r3, #0
 5493 006a FB60     		str	r3, [r7, #12]
 5494 006c 7B69     		ldr	r3, [r7, #20]
 5495 006e 1B68     		ldr	r3, [r3]
 5496 0070 DB68     		ldr	r3, [r3, #12]
 5497 0072 FB60     		str	r3, [r7, #12]
 5498 0074 7B69     		ldr	r3, [r7, #20]
 5499 0076 1B68     		ldr	r3, [r3]
 5500 0078 9B68     		ldr	r3, [r3, #8]
 5501 007a FB60     		str	r3, [r7, #12]
 5502 007c FB68     		ldr	r3, [r7, #12]
 5503              	.L288:
 5504              	.LBE12:
2654:Drivers/STM32F4xx_HAL_Driver/Src/stm32f4xx_hal_spi.c ****     }
2655:Drivers/STM32F4xx_HAL_Driver/Src/stm32f4xx_hal_spi.c **** 
2656:Drivers/STM32F4xx_HAL_Driver/Src/stm32f4xx_hal_spi.c ****     hspi->TxXferCount = 0U;
 5505              		.loc 1 2656 23
 5506 007e 7B69     		ldr	r3, [r7, #20]
 5507 0080 0022     		movs	r2, #0
 5508 0082 DA86     		strh	r2, [r3, #54]	@ movhi
2657:Drivers/STM32F4xx_HAL_Driver/Src/stm32f4xx_hal_spi.c ****     hspi->State = HAL_SPI_STATE_READY;
 5509              		.loc 1 2657 17
 5510 0084 7B69     		ldr	r3, [r7, #20]
 5511 0086 0122     		movs	r2, #1
 5512 0088 83F85120 		strb	r2, [r3, #81]
2658:Drivers/STM32F4xx_HAL_Driver/Src/stm32f4xx_hal_spi.c **** 
2659:Drivers/STM32F4xx_HAL_Driver/Src/stm32f4xx_hal_spi.c ****     if (hspi->ErrorCode != HAL_SPI_ERROR_NONE)
 5513              		.loc 1 2659 13
 5514 008c 7B69     		ldr	r3, [r7, #20]
 5515 008e 5B6D     		ldr	r3, [r3, #84]
 5516              		.loc 1 2659 8
 5517 0090 002B     		cmp	r3, #0
 5518 0092 03D0     		beq	.L286
2660:Drivers/STM32F4xx_HAL_Driver/Src/stm32f4xx_hal_spi.c ****     {
2661:Drivers/STM32F4xx_HAL_Driver/Src/stm32f4xx_hal_spi.c ****       /* Call user error callback */
ARM GAS  /tmp/cc9N7Buw.s 			page 144


2662:Drivers/STM32F4xx_HAL_Driver/Src/stm32f4xx_hal_spi.c **** #if (USE_HAL_SPI_REGISTER_CALLBACKS == 1U)
2663:Drivers/STM32F4xx_HAL_Driver/Src/stm32f4xx_hal_spi.c ****       hspi->ErrorCallback(hspi);
2664:Drivers/STM32F4xx_HAL_Driver/Src/stm32f4xx_hal_spi.c **** #else
2665:Drivers/STM32F4xx_HAL_Driver/Src/stm32f4xx_hal_spi.c ****       HAL_SPI_ErrorCallback(hspi);
 5519              		.loc 1 2665 7
 5520 0094 7869     		ldr	r0, [r7, #20]
 5521 0096 FFF7FEFF 		bl	HAL_SPI_ErrorCallback
2666:Drivers/STM32F4xx_HAL_Driver/Src/stm32f4xx_hal_spi.c **** #endif /* USE_HAL_SPI_REGISTER_CALLBACKS */
2667:Drivers/STM32F4xx_HAL_Driver/Src/stm32f4xx_hal_spi.c ****       return;
 5522              		.loc 1 2667 7
 5523 009a 02E0     		b	.L285
 5524              	.L286:
2668:Drivers/STM32F4xx_HAL_Driver/Src/stm32f4xx_hal_spi.c ****     }
2669:Drivers/STM32F4xx_HAL_Driver/Src/stm32f4xx_hal_spi.c ****   }
2670:Drivers/STM32F4xx_HAL_Driver/Src/stm32f4xx_hal_spi.c ****   /* Call user Tx complete callback */
2671:Drivers/STM32F4xx_HAL_Driver/Src/stm32f4xx_hal_spi.c **** #if (USE_HAL_SPI_REGISTER_CALLBACKS == 1U)
2672:Drivers/STM32F4xx_HAL_Driver/Src/stm32f4xx_hal_spi.c ****   hspi->TxCpltCallback(hspi);
2673:Drivers/STM32F4xx_HAL_Driver/Src/stm32f4xx_hal_spi.c **** #else
2674:Drivers/STM32F4xx_HAL_Driver/Src/stm32f4xx_hal_spi.c ****   HAL_SPI_TxCpltCallback(hspi);
 5525              		.loc 1 2674 3
 5526 009c 7869     		ldr	r0, [r7, #20]
 5527 009e FFF7FEFF 		bl	HAL_SPI_TxCpltCallback
 5528              	.L285:
2675:Drivers/STM32F4xx_HAL_Driver/Src/stm32f4xx_hal_spi.c **** #endif /* USE_HAL_SPI_REGISTER_CALLBACKS */
2676:Drivers/STM32F4xx_HAL_Driver/Src/stm32f4xx_hal_spi.c **** }
 5529              		.loc 1 2676 1
 5530 00a2 1837     		adds	r7, r7, #24
 5531              	.LCFI162:
 5532              		.cfi_def_cfa_offset 8
 5533 00a4 BD46     		mov	sp, r7
 5534              	.LCFI163:
 5535              		.cfi_def_cfa_register 13
 5536              		@ sp needed
 5537 00a6 80BD     		pop	{r7, pc}
 5538              		.cfi_endproc
 5539              	.LFE159:
 5541              		.section	.text.SPI_DMAReceiveCplt,"ax",%progbits
 5542              		.align	1
 5543              		.syntax unified
 5544              		.thumb
 5545              		.thumb_func
 5546              		.fpu fpv4-sp-d16
 5548              	SPI_DMAReceiveCplt:
 5549              	.LFB160:
2677:Drivers/STM32F4xx_HAL_Driver/Src/stm32f4xx_hal_spi.c **** 
2678:Drivers/STM32F4xx_HAL_Driver/Src/stm32f4xx_hal_spi.c **** /**
2679:Drivers/STM32F4xx_HAL_Driver/Src/stm32f4xx_hal_spi.c ****   * @brief  DMA SPI receive process complete callback.
2680:Drivers/STM32F4xx_HAL_Driver/Src/stm32f4xx_hal_spi.c ****   * @param  hdma pointer to a DMA_HandleTypeDef structure that contains
2681:Drivers/STM32F4xx_HAL_Driver/Src/stm32f4xx_hal_spi.c ****   *               the configuration information for the specified DMA module.
2682:Drivers/STM32F4xx_HAL_Driver/Src/stm32f4xx_hal_spi.c ****   * @retval None
2683:Drivers/STM32F4xx_HAL_Driver/Src/stm32f4xx_hal_spi.c ****   */
2684:Drivers/STM32F4xx_HAL_Driver/Src/stm32f4xx_hal_spi.c **** static void SPI_DMAReceiveCplt(DMA_HandleTypeDef *hdma)
2685:Drivers/STM32F4xx_HAL_Driver/Src/stm32f4xx_hal_spi.c **** {
 5550              		.loc 1 2685 1
 5551              		.cfi_startproc
 5552              		@ args = 0, pretend = 0, frame = 16
 5553              		@ frame_needed = 1, uses_anonymous_args = 0
ARM GAS  /tmp/cc9N7Buw.s 			page 145


 5554 0000 80B5     		push	{r7, lr}
 5555              	.LCFI164:
 5556              		.cfi_def_cfa_offset 8
 5557              		.cfi_offset 7, -8
 5558              		.cfi_offset 14, -4
 5559 0002 84B0     		sub	sp, sp, #16
 5560              	.LCFI165:
 5561              		.cfi_def_cfa_offset 24
 5562 0004 00AF     		add	r7, sp, #0
 5563              	.LCFI166:
 5564              		.cfi_def_cfa_register 7
 5565 0006 7860     		str	r0, [r7, #4]
2686:Drivers/STM32F4xx_HAL_Driver/Src/stm32f4xx_hal_spi.c ****   SPI_HandleTypeDef *hspi = (SPI_HandleTypeDef *)(((DMA_HandleTypeDef *)hdma)->Parent); /* Derogati
 5566              		.loc 1 2686 22
 5567 0008 7B68     		ldr	r3, [r7, #4]
 5568 000a 9B6B     		ldr	r3, [r3, #56]
 5569 000c FB60     		str	r3, [r7, #12]
2687:Drivers/STM32F4xx_HAL_Driver/Src/stm32f4xx_hal_spi.c ****   uint32_t tickstart;
2688:Drivers/STM32F4xx_HAL_Driver/Src/stm32f4xx_hal_spi.c **** 
2689:Drivers/STM32F4xx_HAL_Driver/Src/stm32f4xx_hal_spi.c ****   /* Init tickstart for timeout management*/
2690:Drivers/STM32F4xx_HAL_Driver/Src/stm32f4xx_hal_spi.c ****   tickstart = HAL_GetTick();
 5570              		.loc 1 2690 15
 5571 000e FFF7FEFF 		bl	HAL_GetTick
 5572 0012 B860     		str	r0, [r7, #8]
2691:Drivers/STM32F4xx_HAL_Driver/Src/stm32f4xx_hal_spi.c **** 
2692:Drivers/STM32F4xx_HAL_Driver/Src/stm32f4xx_hal_spi.c ****   /* DMA Normal Mode */
2693:Drivers/STM32F4xx_HAL_Driver/Src/stm32f4xx_hal_spi.c ****   if ((hdma->Instance->CR & DMA_SxCR_CIRC) != DMA_SxCR_CIRC)
 5573              		.loc 1 2693 12
 5574 0014 7B68     		ldr	r3, [r7, #4]
 5575 0016 1B68     		ldr	r3, [r3]
 5576              		.loc 1 2693 22
 5577 0018 1B68     		ldr	r3, [r3]
 5578              		.loc 1 2693 27
 5579 001a 03F48073 		and	r3, r3, #256
 5580              		.loc 1 2693 6
 5581 001e B3F5807F 		cmp	r3, #256
 5582 0022 3BD0     		beq	.L291
2694:Drivers/STM32F4xx_HAL_Driver/Src/stm32f4xx_hal_spi.c ****   {
2695:Drivers/STM32F4xx_HAL_Driver/Src/stm32f4xx_hal_spi.c ****     /* Disable ERR interrupt */
2696:Drivers/STM32F4xx_HAL_Driver/Src/stm32f4xx_hal_spi.c ****     __HAL_SPI_DISABLE_IT(hspi, SPI_IT_ERR);
 5583              		.loc 1 2696 5
 5584 0024 FB68     		ldr	r3, [r7, #12]
 5585 0026 1B68     		ldr	r3, [r3]
 5586 0028 5A68     		ldr	r2, [r3, #4]
 5587 002a FB68     		ldr	r3, [r7, #12]
 5588 002c 1B68     		ldr	r3, [r3]
 5589 002e 22F02002 		bic	r2, r2, #32
 5590 0032 5A60     		str	r2, [r3, #4]
2697:Drivers/STM32F4xx_HAL_Driver/Src/stm32f4xx_hal_spi.c **** 
2698:Drivers/STM32F4xx_HAL_Driver/Src/stm32f4xx_hal_spi.c **** #if (USE_SPI_CRC != 0U)
2699:Drivers/STM32F4xx_HAL_Driver/Src/stm32f4xx_hal_spi.c ****     /* CRC handling */
2700:Drivers/STM32F4xx_HAL_Driver/Src/stm32f4xx_hal_spi.c ****     if (hspi->Init.CRCCalculation == SPI_CRCCALCULATION_ENABLE)
2701:Drivers/STM32F4xx_HAL_Driver/Src/stm32f4xx_hal_spi.c ****     {
2702:Drivers/STM32F4xx_HAL_Driver/Src/stm32f4xx_hal_spi.c ****       /* Wait until RXNE flag */
2703:Drivers/STM32F4xx_HAL_Driver/Src/stm32f4xx_hal_spi.c ****       if (SPI_WaitFlagStateUntilTimeout(hspi, SPI_FLAG_RXNE, SET, SPI_DEFAULT_TIMEOUT, tickstart) !
2704:Drivers/STM32F4xx_HAL_Driver/Src/stm32f4xx_hal_spi.c ****       {
2705:Drivers/STM32F4xx_HAL_Driver/Src/stm32f4xx_hal_spi.c ****         /* Error on the CRC reception */
ARM GAS  /tmp/cc9N7Buw.s 			page 146


2706:Drivers/STM32F4xx_HAL_Driver/Src/stm32f4xx_hal_spi.c ****         SET_BIT(hspi->ErrorCode, HAL_SPI_ERROR_CRC);
2707:Drivers/STM32F4xx_HAL_Driver/Src/stm32f4xx_hal_spi.c ****       }
2708:Drivers/STM32F4xx_HAL_Driver/Src/stm32f4xx_hal_spi.c ****       /* Read CRC */
2709:Drivers/STM32F4xx_HAL_Driver/Src/stm32f4xx_hal_spi.c ****       READ_REG(hspi->Instance->DR);
2710:Drivers/STM32F4xx_HAL_Driver/Src/stm32f4xx_hal_spi.c ****     }
2711:Drivers/STM32F4xx_HAL_Driver/Src/stm32f4xx_hal_spi.c **** #endif /* USE_SPI_CRC */
2712:Drivers/STM32F4xx_HAL_Driver/Src/stm32f4xx_hal_spi.c **** 
2713:Drivers/STM32F4xx_HAL_Driver/Src/stm32f4xx_hal_spi.c ****     /* Check if we are in Master RX 2 line mode */
2714:Drivers/STM32F4xx_HAL_Driver/Src/stm32f4xx_hal_spi.c ****     if ((hspi->Init.Direction == SPI_DIRECTION_2LINES) && (hspi->Init.Mode == SPI_MODE_MASTER))
 5591              		.loc 1 2714 20
 5592 0034 FB68     		ldr	r3, [r7, #12]
 5593 0036 9B68     		ldr	r3, [r3, #8]
 5594              		.loc 1 2714 8
 5595 0038 002B     		cmp	r3, #0
 5596 003a 0DD1     		bne	.L292
 5597              		.loc 1 2714 70 discriminator 1
 5598 003c FB68     		ldr	r3, [r7, #12]
 5599 003e 5B68     		ldr	r3, [r3, #4]
 5600              		.loc 1 2714 56 discriminator 1
 5601 0040 B3F5827F 		cmp	r3, #260
 5602 0044 08D1     		bne	.L292
2715:Drivers/STM32F4xx_HAL_Driver/Src/stm32f4xx_hal_spi.c ****     {
2716:Drivers/STM32F4xx_HAL_Driver/Src/stm32f4xx_hal_spi.c ****       /* Disable Rx/Tx DMA Request (done by default to handle the case master rx direction 2 lines)
2717:Drivers/STM32F4xx_HAL_Driver/Src/stm32f4xx_hal_spi.c ****       CLEAR_BIT(hspi->Instance->CR2, SPI_CR2_TXDMAEN | SPI_CR2_RXDMAEN);
 5603              		.loc 1 2717 7
 5604 0046 FB68     		ldr	r3, [r7, #12]
 5605 0048 1B68     		ldr	r3, [r3]
 5606 004a 5A68     		ldr	r2, [r3, #4]
 5607 004c FB68     		ldr	r3, [r7, #12]
 5608 004e 1B68     		ldr	r3, [r3]
 5609 0050 22F00302 		bic	r2, r2, #3
 5610 0054 5A60     		str	r2, [r3, #4]
 5611 0056 07E0     		b	.L293
 5612              	.L292:
2718:Drivers/STM32F4xx_HAL_Driver/Src/stm32f4xx_hal_spi.c ****     }
2719:Drivers/STM32F4xx_HAL_Driver/Src/stm32f4xx_hal_spi.c ****     else
2720:Drivers/STM32F4xx_HAL_Driver/Src/stm32f4xx_hal_spi.c ****     {
2721:Drivers/STM32F4xx_HAL_Driver/Src/stm32f4xx_hal_spi.c ****       /* Normal case */
2722:Drivers/STM32F4xx_HAL_Driver/Src/stm32f4xx_hal_spi.c ****       CLEAR_BIT(hspi->Instance->CR2, SPI_CR2_RXDMAEN);
 5613              		.loc 1 2722 7
 5614 0058 FB68     		ldr	r3, [r7, #12]
 5615 005a 1B68     		ldr	r3, [r3]
 5616 005c 5A68     		ldr	r2, [r3, #4]
 5617 005e FB68     		ldr	r3, [r7, #12]
 5618 0060 1B68     		ldr	r3, [r3]
 5619 0062 22F00102 		bic	r2, r2, #1
 5620 0066 5A60     		str	r2, [r3, #4]
 5621              	.L293:
2723:Drivers/STM32F4xx_HAL_Driver/Src/stm32f4xx_hal_spi.c ****     }
2724:Drivers/STM32F4xx_HAL_Driver/Src/stm32f4xx_hal_spi.c **** 
2725:Drivers/STM32F4xx_HAL_Driver/Src/stm32f4xx_hal_spi.c ****     /* Check the end of the transaction */
2726:Drivers/STM32F4xx_HAL_Driver/Src/stm32f4xx_hal_spi.c ****     if (SPI_EndRxTransaction(hspi, SPI_DEFAULT_TIMEOUT, tickstart) != HAL_OK)
 5622              		.loc 1 2726 9
 5623 0068 BA68     		ldr	r2, [r7, #8]
 5624 006a 6421     		movs	r1, #100
 5625 006c F868     		ldr	r0, [r7, #12]
 5626 006e FFF7FEFF 		bl	SPI_EndRxTransaction
ARM GAS  /tmp/cc9N7Buw.s 			page 147


 5627 0072 0346     		mov	r3, r0
 5628              		.loc 1 2726 8
 5629 0074 002B     		cmp	r3, #0
 5630 0076 02D0     		beq	.L294
2727:Drivers/STM32F4xx_HAL_Driver/Src/stm32f4xx_hal_spi.c ****     {
2728:Drivers/STM32F4xx_HAL_Driver/Src/stm32f4xx_hal_spi.c ****       hspi->ErrorCode = HAL_SPI_ERROR_FLAG;
 5631              		.loc 1 2728 23
 5632 0078 FB68     		ldr	r3, [r7, #12]
 5633 007a 2022     		movs	r2, #32
 5634 007c 5A65     		str	r2, [r3, #84]
 5635              	.L294:
2729:Drivers/STM32F4xx_HAL_Driver/Src/stm32f4xx_hal_spi.c ****     }
2730:Drivers/STM32F4xx_HAL_Driver/Src/stm32f4xx_hal_spi.c **** 
2731:Drivers/STM32F4xx_HAL_Driver/Src/stm32f4xx_hal_spi.c ****     hspi->RxXferCount = 0U;
 5636              		.loc 1 2731 23
 5637 007e FB68     		ldr	r3, [r7, #12]
 5638 0080 0022     		movs	r2, #0
 5639 0082 DA87     		strh	r2, [r3, #62]	@ movhi
2732:Drivers/STM32F4xx_HAL_Driver/Src/stm32f4xx_hal_spi.c ****     hspi->State = HAL_SPI_STATE_READY;
 5640              		.loc 1 2732 17
 5641 0084 FB68     		ldr	r3, [r7, #12]
 5642 0086 0122     		movs	r2, #1
 5643 0088 83F85120 		strb	r2, [r3, #81]
2733:Drivers/STM32F4xx_HAL_Driver/Src/stm32f4xx_hal_spi.c **** 
2734:Drivers/STM32F4xx_HAL_Driver/Src/stm32f4xx_hal_spi.c **** #if (USE_SPI_CRC != 0U)
2735:Drivers/STM32F4xx_HAL_Driver/Src/stm32f4xx_hal_spi.c ****     /* Check if CRC error occurred */
2736:Drivers/STM32F4xx_HAL_Driver/Src/stm32f4xx_hal_spi.c ****     if (__HAL_SPI_GET_FLAG(hspi, SPI_FLAG_CRCERR))
2737:Drivers/STM32F4xx_HAL_Driver/Src/stm32f4xx_hal_spi.c ****     {
2738:Drivers/STM32F4xx_HAL_Driver/Src/stm32f4xx_hal_spi.c ****       SET_BIT(hspi->ErrorCode, HAL_SPI_ERROR_CRC);
2739:Drivers/STM32F4xx_HAL_Driver/Src/stm32f4xx_hal_spi.c ****       __HAL_SPI_CLEAR_CRCERRFLAG(hspi);
2740:Drivers/STM32F4xx_HAL_Driver/Src/stm32f4xx_hal_spi.c ****     }
2741:Drivers/STM32F4xx_HAL_Driver/Src/stm32f4xx_hal_spi.c **** #endif /* USE_SPI_CRC */
2742:Drivers/STM32F4xx_HAL_Driver/Src/stm32f4xx_hal_spi.c **** 
2743:Drivers/STM32F4xx_HAL_Driver/Src/stm32f4xx_hal_spi.c ****     if (hspi->ErrorCode != HAL_SPI_ERROR_NONE)
 5644              		.loc 1 2743 13
 5645 008c FB68     		ldr	r3, [r7, #12]
 5646 008e 5B6D     		ldr	r3, [r3, #84]
 5647              		.loc 1 2743 8
 5648 0090 002B     		cmp	r3, #0
 5649 0092 03D0     		beq	.L291
2744:Drivers/STM32F4xx_HAL_Driver/Src/stm32f4xx_hal_spi.c ****     {
2745:Drivers/STM32F4xx_HAL_Driver/Src/stm32f4xx_hal_spi.c ****       /* Call user error callback */
2746:Drivers/STM32F4xx_HAL_Driver/Src/stm32f4xx_hal_spi.c **** #if (USE_HAL_SPI_REGISTER_CALLBACKS == 1U)
2747:Drivers/STM32F4xx_HAL_Driver/Src/stm32f4xx_hal_spi.c ****       hspi->ErrorCallback(hspi);
2748:Drivers/STM32F4xx_HAL_Driver/Src/stm32f4xx_hal_spi.c **** #else
2749:Drivers/STM32F4xx_HAL_Driver/Src/stm32f4xx_hal_spi.c ****       HAL_SPI_ErrorCallback(hspi);
 5650              		.loc 1 2749 7
 5651 0094 F868     		ldr	r0, [r7, #12]
 5652 0096 FFF7FEFF 		bl	HAL_SPI_ErrorCallback
2750:Drivers/STM32F4xx_HAL_Driver/Src/stm32f4xx_hal_spi.c **** #endif /* USE_HAL_SPI_REGISTER_CALLBACKS */
2751:Drivers/STM32F4xx_HAL_Driver/Src/stm32f4xx_hal_spi.c ****       return;
 5653              		.loc 1 2751 7
 5654 009a 02E0     		b	.L290
 5655              	.L291:
2752:Drivers/STM32F4xx_HAL_Driver/Src/stm32f4xx_hal_spi.c ****     }
2753:Drivers/STM32F4xx_HAL_Driver/Src/stm32f4xx_hal_spi.c ****   }
2754:Drivers/STM32F4xx_HAL_Driver/Src/stm32f4xx_hal_spi.c ****   /* Call user Rx complete callback */
ARM GAS  /tmp/cc9N7Buw.s 			page 148


2755:Drivers/STM32F4xx_HAL_Driver/Src/stm32f4xx_hal_spi.c **** #if (USE_HAL_SPI_REGISTER_CALLBACKS == 1U)
2756:Drivers/STM32F4xx_HAL_Driver/Src/stm32f4xx_hal_spi.c ****   hspi->RxCpltCallback(hspi);
2757:Drivers/STM32F4xx_HAL_Driver/Src/stm32f4xx_hal_spi.c **** #else
2758:Drivers/STM32F4xx_HAL_Driver/Src/stm32f4xx_hal_spi.c ****   HAL_SPI_RxCpltCallback(hspi);
 5656              		.loc 1 2758 3
 5657 009c F868     		ldr	r0, [r7, #12]
 5658 009e FFF7FEFF 		bl	HAL_SPI_RxCpltCallback
 5659              	.L290:
2759:Drivers/STM32F4xx_HAL_Driver/Src/stm32f4xx_hal_spi.c **** #endif /* USE_HAL_SPI_REGISTER_CALLBACKS */
2760:Drivers/STM32F4xx_HAL_Driver/Src/stm32f4xx_hal_spi.c **** }
 5660              		.loc 1 2760 1
 5661 00a2 1037     		adds	r7, r7, #16
 5662              	.LCFI167:
 5663              		.cfi_def_cfa_offset 8
 5664 00a4 BD46     		mov	sp, r7
 5665              	.LCFI168:
 5666              		.cfi_def_cfa_register 13
 5667              		@ sp needed
 5668 00a6 80BD     		pop	{r7, pc}
 5669              		.cfi_endproc
 5670              	.LFE160:
 5672              		.section	.text.SPI_DMATransmitReceiveCplt,"ax",%progbits
 5673              		.align	1
 5674              		.syntax unified
 5675              		.thumb
 5676              		.thumb_func
 5677              		.fpu fpv4-sp-d16
 5679              	SPI_DMATransmitReceiveCplt:
 5680              	.LFB161:
2761:Drivers/STM32F4xx_HAL_Driver/Src/stm32f4xx_hal_spi.c **** 
2762:Drivers/STM32F4xx_HAL_Driver/Src/stm32f4xx_hal_spi.c **** /**
2763:Drivers/STM32F4xx_HAL_Driver/Src/stm32f4xx_hal_spi.c ****   * @brief  DMA SPI transmit receive process complete callback.
2764:Drivers/STM32F4xx_HAL_Driver/Src/stm32f4xx_hal_spi.c ****   * @param  hdma pointer to a DMA_HandleTypeDef structure that contains
2765:Drivers/STM32F4xx_HAL_Driver/Src/stm32f4xx_hal_spi.c ****   *               the configuration information for the specified DMA module.
2766:Drivers/STM32F4xx_HAL_Driver/Src/stm32f4xx_hal_spi.c ****   * @retval None
2767:Drivers/STM32F4xx_HAL_Driver/Src/stm32f4xx_hal_spi.c ****   */
2768:Drivers/STM32F4xx_HAL_Driver/Src/stm32f4xx_hal_spi.c **** static void SPI_DMATransmitReceiveCplt(DMA_HandleTypeDef *hdma)
2769:Drivers/STM32F4xx_HAL_Driver/Src/stm32f4xx_hal_spi.c **** {
 5681              		.loc 1 2769 1
 5682              		.cfi_startproc
 5683              		@ args = 0, pretend = 0, frame = 16
 5684              		@ frame_needed = 1, uses_anonymous_args = 0
 5685 0000 80B5     		push	{r7, lr}
 5686              	.LCFI169:
 5687              		.cfi_def_cfa_offset 8
 5688              		.cfi_offset 7, -8
 5689              		.cfi_offset 14, -4
 5690 0002 84B0     		sub	sp, sp, #16
 5691              	.LCFI170:
 5692              		.cfi_def_cfa_offset 24
 5693 0004 00AF     		add	r7, sp, #0
 5694              	.LCFI171:
 5695              		.cfi_def_cfa_register 7
 5696 0006 7860     		str	r0, [r7, #4]
2770:Drivers/STM32F4xx_HAL_Driver/Src/stm32f4xx_hal_spi.c ****   SPI_HandleTypeDef *hspi = (SPI_HandleTypeDef *)(((DMA_HandleTypeDef *)hdma)->Parent); /* Derogati
 5697              		.loc 1 2770 22
 5698 0008 7B68     		ldr	r3, [r7, #4]
ARM GAS  /tmp/cc9N7Buw.s 			page 149


 5699 000a 9B6B     		ldr	r3, [r3, #56]
 5700 000c FB60     		str	r3, [r7, #12]
2771:Drivers/STM32F4xx_HAL_Driver/Src/stm32f4xx_hal_spi.c ****   uint32_t tickstart;
2772:Drivers/STM32F4xx_HAL_Driver/Src/stm32f4xx_hal_spi.c **** 
2773:Drivers/STM32F4xx_HAL_Driver/Src/stm32f4xx_hal_spi.c ****   /* Init tickstart for timeout management*/
2774:Drivers/STM32F4xx_HAL_Driver/Src/stm32f4xx_hal_spi.c ****   tickstart = HAL_GetTick();
 5701              		.loc 1 2774 15
 5702 000e FFF7FEFF 		bl	HAL_GetTick
 5703 0012 B860     		str	r0, [r7, #8]
2775:Drivers/STM32F4xx_HAL_Driver/Src/stm32f4xx_hal_spi.c **** 
2776:Drivers/STM32F4xx_HAL_Driver/Src/stm32f4xx_hal_spi.c ****   /* DMA Normal Mode */
2777:Drivers/STM32F4xx_HAL_Driver/Src/stm32f4xx_hal_spi.c ****   if ((hdma->Instance->CR & DMA_SxCR_CIRC) != DMA_SxCR_CIRC)
 5704              		.loc 1 2777 12
 5705 0014 7B68     		ldr	r3, [r7, #4]
 5706 0016 1B68     		ldr	r3, [r3]
 5707              		.loc 1 2777 22
 5708 0018 1B68     		ldr	r3, [r3]
 5709              		.loc 1 2777 27
 5710 001a 03F48073 		and	r3, r3, #256
 5711              		.loc 1 2777 6
 5712 001e B3F5807F 		cmp	r3, #256
 5713 0022 2FD0     		beq	.L297
2778:Drivers/STM32F4xx_HAL_Driver/Src/stm32f4xx_hal_spi.c ****   {
2779:Drivers/STM32F4xx_HAL_Driver/Src/stm32f4xx_hal_spi.c ****     /* Disable ERR interrupt */
2780:Drivers/STM32F4xx_HAL_Driver/Src/stm32f4xx_hal_spi.c ****     __HAL_SPI_DISABLE_IT(hspi, SPI_IT_ERR);
 5714              		.loc 1 2780 5
 5715 0024 FB68     		ldr	r3, [r7, #12]
 5716 0026 1B68     		ldr	r3, [r3]
 5717 0028 5A68     		ldr	r2, [r3, #4]
 5718 002a FB68     		ldr	r3, [r7, #12]
 5719 002c 1B68     		ldr	r3, [r3]
 5720 002e 22F02002 		bic	r2, r2, #32
 5721 0032 5A60     		str	r2, [r3, #4]
2781:Drivers/STM32F4xx_HAL_Driver/Src/stm32f4xx_hal_spi.c **** 
2782:Drivers/STM32F4xx_HAL_Driver/Src/stm32f4xx_hal_spi.c **** #if (USE_SPI_CRC != 0U)
2783:Drivers/STM32F4xx_HAL_Driver/Src/stm32f4xx_hal_spi.c ****     /* CRC handling */
2784:Drivers/STM32F4xx_HAL_Driver/Src/stm32f4xx_hal_spi.c ****     if (hspi->Init.CRCCalculation == SPI_CRCCALCULATION_ENABLE)
2785:Drivers/STM32F4xx_HAL_Driver/Src/stm32f4xx_hal_spi.c ****     {
2786:Drivers/STM32F4xx_HAL_Driver/Src/stm32f4xx_hal_spi.c ****       /* Wait the CRC data */
2787:Drivers/STM32F4xx_HAL_Driver/Src/stm32f4xx_hal_spi.c ****       if (SPI_WaitFlagStateUntilTimeout(hspi, SPI_FLAG_RXNE, SET, SPI_DEFAULT_TIMEOUT, tickstart) !
2788:Drivers/STM32F4xx_HAL_Driver/Src/stm32f4xx_hal_spi.c ****       {
2789:Drivers/STM32F4xx_HAL_Driver/Src/stm32f4xx_hal_spi.c ****         SET_BIT(hspi->ErrorCode, HAL_SPI_ERROR_CRC);
2790:Drivers/STM32F4xx_HAL_Driver/Src/stm32f4xx_hal_spi.c ****       }
2791:Drivers/STM32F4xx_HAL_Driver/Src/stm32f4xx_hal_spi.c ****       /* Read CRC to Flush DR and RXNE flag */
2792:Drivers/STM32F4xx_HAL_Driver/Src/stm32f4xx_hal_spi.c ****       READ_REG(hspi->Instance->DR);
2793:Drivers/STM32F4xx_HAL_Driver/Src/stm32f4xx_hal_spi.c ****     }
2794:Drivers/STM32F4xx_HAL_Driver/Src/stm32f4xx_hal_spi.c **** #endif /* USE_SPI_CRC */
2795:Drivers/STM32F4xx_HAL_Driver/Src/stm32f4xx_hal_spi.c **** 
2796:Drivers/STM32F4xx_HAL_Driver/Src/stm32f4xx_hal_spi.c ****     /* Check the end of the transaction */
2797:Drivers/STM32F4xx_HAL_Driver/Src/stm32f4xx_hal_spi.c ****     if (SPI_EndRxTxTransaction(hspi, SPI_DEFAULT_TIMEOUT, tickstart) != HAL_OK)
 5722              		.loc 1 2797 9
 5723 0034 BA68     		ldr	r2, [r7, #8]
 5724 0036 6421     		movs	r1, #100
 5725 0038 F868     		ldr	r0, [r7, #12]
 5726 003a FFF7FEFF 		bl	SPI_EndRxTxTransaction
 5727 003e 0346     		mov	r3, r0
 5728              		.loc 1 2797 8
ARM GAS  /tmp/cc9N7Buw.s 			page 150


 5729 0040 002B     		cmp	r3, #0
 5730 0042 05D0     		beq	.L298
2798:Drivers/STM32F4xx_HAL_Driver/Src/stm32f4xx_hal_spi.c ****     {
2799:Drivers/STM32F4xx_HAL_Driver/Src/stm32f4xx_hal_spi.c ****       SET_BIT(hspi->ErrorCode, HAL_SPI_ERROR_FLAG);
 5731              		.loc 1 2799 7
 5732 0044 FB68     		ldr	r3, [r7, #12]
 5733 0046 5B6D     		ldr	r3, [r3, #84]
 5734 0048 43F02002 		orr	r2, r3, #32
 5735 004c FB68     		ldr	r3, [r7, #12]
 5736 004e 5A65     		str	r2, [r3, #84]
 5737              	.L298:
2800:Drivers/STM32F4xx_HAL_Driver/Src/stm32f4xx_hal_spi.c ****     }
2801:Drivers/STM32F4xx_HAL_Driver/Src/stm32f4xx_hal_spi.c **** 
2802:Drivers/STM32F4xx_HAL_Driver/Src/stm32f4xx_hal_spi.c ****     /* Disable Rx/Tx DMA Request */
2803:Drivers/STM32F4xx_HAL_Driver/Src/stm32f4xx_hal_spi.c ****     CLEAR_BIT(hspi->Instance->CR2, SPI_CR2_TXDMAEN | SPI_CR2_RXDMAEN);
 5738              		.loc 1 2803 5
 5739 0050 FB68     		ldr	r3, [r7, #12]
 5740 0052 1B68     		ldr	r3, [r3]
 5741 0054 5A68     		ldr	r2, [r3, #4]
 5742 0056 FB68     		ldr	r3, [r7, #12]
 5743 0058 1B68     		ldr	r3, [r3]
 5744 005a 22F00302 		bic	r2, r2, #3
 5745 005e 5A60     		str	r2, [r3, #4]
2804:Drivers/STM32F4xx_HAL_Driver/Src/stm32f4xx_hal_spi.c **** 
2805:Drivers/STM32F4xx_HAL_Driver/Src/stm32f4xx_hal_spi.c ****     hspi->TxXferCount = 0U;
 5746              		.loc 1 2805 23
 5747 0060 FB68     		ldr	r3, [r7, #12]
 5748 0062 0022     		movs	r2, #0
 5749 0064 DA86     		strh	r2, [r3, #54]	@ movhi
2806:Drivers/STM32F4xx_HAL_Driver/Src/stm32f4xx_hal_spi.c ****     hspi->RxXferCount = 0U;
 5750              		.loc 1 2806 23
 5751 0066 FB68     		ldr	r3, [r7, #12]
 5752 0068 0022     		movs	r2, #0
 5753 006a DA87     		strh	r2, [r3, #62]	@ movhi
2807:Drivers/STM32F4xx_HAL_Driver/Src/stm32f4xx_hal_spi.c ****     hspi->State = HAL_SPI_STATE_READY;
 5754              		.loc 1 2807 17
 5755 006c FB68     		ldr	r3, [r7, #12]
 5756 006e 0122     		movs	r2, #1
 5757 0070 83F85120 		strb	r2, [r3, #81]
2808:Drivers/STM32F4xx_HAL_Driver/Src/stm32f4xx_hal_spi.c **** 
2809:Drivers/STM32F4xx_HAL_Driver/Src/stm32f4xx_hal_spi.c **** #if (USE_SPI_CRC != 0U)
2810:Drivers/STM32F4xx_HAL_Driver/Src/stm32f4xx_hal_spi.c ****     /* Check if CRC error occurred */
2811:Drivers/STM32F4xx_HAL_Driver/Src/stm32f4xx_hal_spi.c ****     if (__HAL_SPI_GET_FLAG(hspi, SPI_FLAG_CRCERR))
2812:Drivers/STM32F4xx_HAL_Driver/Src/stm32f4xx_hal_spi.c ****     {
2813:Drivers/STM32F4xx_HAL_Driver/Src/stm32f4xx_hal_spi.c ****       SET_BIT(hspi->ErrorCode, HAL_SPI_ERROR_CRC);
2814:Drivers/STM32F4xx_HAL_Driver/Src/stm32f4xx_hal_spi.c ****       __HAL_SPI_CLEAR_CRCERRFLAG(hspi);
2815:Drivers/STM32F4xx_HAL_Driver/Src/stm32f4xx_hal_spi.c ****     }
2816:Drivers/STM32F4xx_HAL_Driver/Src/stm32f4xx_hal_spi.c **** #endif /* USE_SPI_CRC */
2817:Drivers/STM32F4xx_HAL_Driver/Src/stm32f4xx_hal_spi.c **** 
2818:Drivers/STM32F4xx_HAL_Driver/Src/stm32f4xx_hal_spi.c ****     if (hspi->ErrorCode != HAL_SPI_ERROR_NONE)
 5758              		.loc 1 2818 13
 5759 0074 FB68     		ldr	r3, [r7, #12]
 5760 0076 5B6D     		ldr	r3, [r3, #84]
 5761              		.loc 1 2818 8
 5762 0078 002B     		cmp	r3, #0
 5763 007a 03D0     		beq	.L297
2819:Drivers/STM32F4xx_HAL_Driver/Src/stm32f4xx_hal_spi.c ****     {
ARM GAS  /tmp/cc9N7Buw.s 			page 151


2820:Drivers/STM32F4xx_HAL_Driver/Src/stm32f4xx_hal_spi.c ****       /* Call user error callback */
2821:Drivers/STM32F4xx_HAL_Driver/Src/stm32f4xx_hal_spi.c **** #if (USE_HAL_SPI_REGISTER_CALLBACKS == 1U)
2822:Drivers/STM32F4xx_HAL_Driver/Src/stm32f4xx_hal_spi.c ****       hspi->ErrorCallback(hspi);
2823:Drivers/STM32F4xx_HAL_Driver/Src/stm32f4xx_hal_spi.c **** #else
2824:Drivers/STM32F4xx_HAL_Driver/Src/stm32f4xx_hal_spi.c ****       HAL_SPI_ErrorCallback(hspi);
 5764              		.loc 1 2824 7
 5765 007c F868     		ldr	r0, [r7, #12]
 5766 007e FFF7FEFF 		bl	HAL_SPI_ErrorCallback
2825:Drivers/STM32F4xx_HAL_Driver/Src/stm32f4xx_hal_spi.c **** #endif /* USE_HAL_SPI_REGISTER_CALLBACKS */
2826:Drivers/STM32F4xx_HAL_Driver/Src/stm32f4xx_hal_spi.c ****       return;
 5767              		.loc 1 2826 7
 5768 0082 02E0     		b	.L296
 5769              	.L297:
2827:Drivers/STM32F4xx_HAL_Driver/Src/stm32f4xx_hal_spi.c ****     }
2828:Drivers/STM32F4xx_HAL_Driver/Src/stm32f4xx_hal_spi.c ****   }
2829:Drivers/STM32F4xx_HAL_Driver/Src/stm32f4xx_hal_spi.c ****   /* Call user TxRx complete callback */
2830:Drivers/STM32F4xx_HAL_Driver/Src/stm32f4xx_hal_spi.c **** #if (USE_HAL_SPI_REGISTER_CALLBACKS == 1U)
2831:Drivers/STM32F4xx_HAL_Driver/Src/stm32f4xx_hal_spi.c ****   hspi->TxRxCpltCallback(hspi);
2832:Drivers/STM32F4xx_HAL_Driver/Src/stm32f4xx_hal_spi.c **** #else
2833:Drivers/STM32F4xx_HAL_Driver/Src/stm32f4xx_hal_spi.c ****   HAL_SPI_TxRxCpltCallback(hspi);
 5770              		.loc 1 2833 3
 5771 0084 F868     		ldr	r0, [r7, #12]
 5772 0086 FFF7FEFF 		bl	HAL_SPI_TxRxCpltCallback
 5773              	.L296:
2834:Drivers/STM32F4xx_HAL_Driver/Src/stm32f4xx_hal_spi.c **** #endif /* USE_HAL_SPI_REGISTER_CALLBACKS */
2835:Drivers/STM32F4xx_HAL_Driver/Src/stm32f4xx_hal_spi.c **** }
 5774              		.loc 1 2835 1
 5775 008a 1037     		adds	r7, r7, #16
 5776              	.LCFI172:
 5777              		.cfi_def_cfa_offset 8
 5778 008c BD46     		mov	sp, r7
 5779              	.LCFI173:
 5780              		.cfi_def_cfa_register 13
 5781              		@ sp needed
 5782 008e 80BD     		pop	{r7, pc}
 5783              		.cfi_endproc
 5784              	.LFE161:
 5786              		.section	.text.SPI_DMAHalfTransmitCplt,"ax",%progbits
 5787              		.align	1
 5788              		.syntax unified
 5789              		.thumb
 5790              		.thumb_func
 5791              		.fpu fpv4-sp-d16
 5793              	SPI_DMAHalfTransmitCplt:
 5794              	.LFB162:
2836:Drivers/STM32F4xx_HAL_Driver/Src/stm32f4xx_hal_spi.c **** 
2837:Drivers/STM32F4xx_HAL_Driver/Src/stm32f4xx_hal_spi.c **** /**
2838:Drivers/STM32F4xx_HAL_Driver/Src/stm32f4xx_hal_spi.c ****   * @brief  DMA SPI half transmit process complete callback.
2839:Drivers/STM32F4xx_HAL_Driver/Src/stm32f4xx_hal_spi.c ****   * @param  hdma pointer to a DMA_HandleTypeDef structure that contains
2840:Drivers/STM32F4xx_HAL_Driver/Src/stm32f4xx_hal_spi.c ****   *               the configuration information for the specified DMA module.
2841:Drivers/STM32F4xx_HAL_Driver/Src/stm32f4xx_hal_spi.c ****   * @retval None
2842:Drivers/STM32F4xx_HAL_Driver/Src/stm32f4xx_hal_spi.c ****   */
2843:Drivers/STM32F4xx_HAL_Driver/Src/stm32f4xx_hal_spi.c **** static void SPI_DMAHalfTransmitCplt(DMA_HandleTypeDef *hdma)
2844:Drivers/STM32F4xx_HAL_Driver/Src/stm32f4xx_hal_spi.c **** {
 5795              		.loc 1 2844 1
 5796              		.cfi_startproc
 5797              		@ args = 0, pretend = 0, frame = 16
ARM GAS  /tmp/cc9N7Buw.s 			page 152


 5798              		@ frame_needed = 1, uses_anonymous_args = 0
 5799 0000 80B5     		push	{r7, lr}
 5800              	.LCFI174:
 5801              		.cfi_def_cfa_offset 8
 5802              		.cfi_offset 7, -8
 5803              		.cfi_offset 14, -4
 5804 0002 84B0     		sub	sp, sp, #16
 5805              	.LCFI175:
 5806              		.cfi_def_cfa_offset 24
 5807 0004 00AF     		add	r7, sp, #0
 5808              	.LCFI176:
 5809              		.cfi_def_cfa_register 7
 5810 0006 7860     		str	r0, [r7, #4]
2845:Drivers/STM32F4xx_HAL_Driver/Src/stm32f4xx_hal_spi.c ****   SPI_HandleTypeDef *hspi = (SPI_HandleTypeDef *)(((DMA_HandleTypeDef *)hdma)->Parent); /* Derogati
 5811              		.loc 1 2845 22
 5812 0008 7B68     		ldr	r3, [r7, #4]
 5813 000a 9B6B     		ldr	r3, [r3, #56]
 5814 000c FB60     		str	r3, [r7, #12]
2846:Drivers/STM32F4xx_HAL_Driver/Src/stm32f4xx_hal_spi.c **** 
2847:Drivers/STM32F4xx_HAL_Driver/Src/stm32f4xx_hal_spi.c ****   /* Call user Tx half complete callback */
2848:Drivers/STM32F4xx_HAL_Driver/Src/stm32f4xx_hal_spi.c **** #if (USE_HAL_SPI_REGISTER_CALLBACKS == 1U)
2849:Drivers/STM32F4xx_HAL_Driver/Src/stm32f4xx_hal_spi.c ****   hspi->TxHalfCpltCallback(hspi);
2850:Drivers/STM32F4xx_HAL_Driver/Src/stm32f4xx_hal_spi.c **** #else
2851:Drivers/STM32F4xx_HAL_Driver/Src/stm32f4xx_hal_spi.c ****   HAL_SPI_TxHalfCpltCallback(hspi);
 5815              		.loc 1 2851 3
 5816 000e F868     		ldr	r0, [r7, #12]
 5817 0010 FFF7FEFF 		bl	HAL_SPI_TxHalfCpltCallback
2852:Drivers/STM32F4xx_HAL_Driver/Src/stm32f4xx_hal_spi.c **** #endif /* USE_HAL_SPI_REGISTER_CALLBACKS */
2853:Drivers/STM32F4xx_HAL_Driver/Src/stm32f4xx_hal_spi.c **** }
 5818              		.loc 1 2853 1
 5819 0014 00BF     		nop
 5820 0016 1037     		adds	r7, r7, #16
 5821              	.LCFI177:
 5822              		.cfi_def_cfa_offset 8
 5823 0018 BD46     		mov	sp, r7
 5824              	.LCFI178:
 5825              		.cfi_def_cfa_register 13
 5826              		@ sp needed
 5827 001a 80BD     		pop	{r7, pc}
 5828              		.cfi_endproc
 5829              	.LFE162:
 5831              		.section	.text.SPI_DMAHalfReceiveCplt,"ax",%progbits
 5832              		.align	1
 5833              		.syntax unified
 5834              		.thumb
 5835              		.thumb_func
 5836              		.fpu fpv4-sp-d16
 5838              	SPI_DMAHalfReceiveCplt:
 5839              	.LFB163:
2854:Drivers/STM32F4xx_HAL_Driver/Src/stm32f4xx_hal_spi.c **** 
2855:Drivers/STM32F4xx_HAL_Driver/Src/stm32f4xx_hal_spi.c **** /**
2856:Drivers/STM32F4xx_HAL_Driver/Src/stm32f4xx_hal_spi.c ****   * @brief  DMA SPI half receive process complete callback
2857:Drivers/STM32F4xx_HAL_Driver/Src/stm32f4xx_hal_spi.c ****   * @param  hdma pointer to a DMA_HandleTypeDef structure that contains
2858:Drivers/STM32F4xx_HAL_Driver/Src/stm32f4xx_hal_spi.c ****   *               the configuration information for the specified DMA module.
2859:Drivers/STM32F4xx_HAL_Driver/Src/stm32f4xx_hal_spi.c ****   * @retval None
2860:Drivers/STM32F4xx_HAL_Driver/Src/stm32f4xx_hal_spi.c ****   */
2861:Drivers/STM32F4xx_HAL_Driver/Src/stm32f4xx_hal_spi.c **** static void SPI_DMAHalfReceiveCplt(DMA_HandleTypeDef *hdma)
ARM GAS  /tmp/cc9N7Buw.s 			page 153


2862:Drivers/STM32F4xx_HAL_Driver/Src/stm32f4xx_hal_spi.c **** {
 5840              		.loc 1 2862 1
 5841              		.cfi_startproc
 5842              		@ args = 0, pretend = 0, frame = 16
 5843              		@ frame_needed = 1, uses_anonymous_args = 0
 5844 0000 80B5     		push	{r7, lr}
 5845              	.LCFI179:
 5846              		.cfi_def_cfa_offset 8
 5847              		.cfi_offset 7, -8
 5848              		.cfi_offset 14, -4
 5849 0002 84B0     		sub	sp, sp, #16
 5850              	.LCFI180:
 5851              		.cfi_def_cfa_offset 24
 5852 0004 00AF     		add	r7, sp, #0
 5853              	.LCFI181:
 5854              		.cfi_def_cfa_register 7
 5855 0006 7860     		str	r0, [r7, #4]
2863:Drivers/STM32F4xx_HAL_Driver/Src/stm32f4xx_hal_spi.c ****   SPI_HandleTypeDef *hspi = (SPI_HandleTypeDef *)(((DMA_HandleTypeDef *)hdma)->Parent); /* Derogati
 5856              		.loc 1 2863 22
 5857 0008 7B68     		ldr	r3, [r7, #4]
 5858 000a 9B6B     		ldr	r3, [r3, #56]
 5859 000c FB60     		str	r3, [r7, #12]
2864:Drivers/STM32F4xx_HAL_Driver/Src/stm32f4xx_hal_spi.c **** 
2865:Drivers/STM32F4xx_HAL_Driver/Src/stm32f4xx_hal_spi.c ****   /* Call user Rx half complete callback */
2866:Drivers/STM32F4xx_HAL_Driver/Src/stm32f4xx_hal_spi.c **** #if (USE_HAL_SPI_REGISTER_CALLBACKS == 1U)
2867:Drivers/STM32F4xx_HAL_Driver/Src/stm32f4xx_hal_spi.c ****   hspi->RxHalfCpltCallback(hspi);
2868:Drivers/STM32F4xx_HAL_Driver/Src/stm32f4xx_hal_spi.c **** #else
2869:Drivers/STM32F4xx_HAL_Driver/Src/stm32f4xx_hal_spi.c ****   HAL_SPI_RxHalfCpltCallback(hspi);
 5860              		.loc 1 2869 3
 5861 000e F868     		ldr	r0, [r7, #12]
 5862 0010 FFF7FEFF 		bl	HAL_SPI_RxHalfCpltCallback
2870:Drivers/STM32F4xx_HAL_Driver/Src/stm32f4xx_hal_spi.c **** #endif /* USE_HAL_SPI_REGISTER_CALLBACKS */
2871:Drivers/STM32F4xx_HAL_Driver/Src/stm32f4xx_hal_spi.c **** }
 5863              		.loc 1 2871 1
 5864 0014 00BF     		nop
 5865 0016 1037     		adds	r7, r7, #16
 5866              	.LCFI182:
 5867              		.cfi_def_cfa_offset 8
 5868 0018 BD46     		mov	sp, r7
 5869              	.LCFI183:
 5870              		.cfi_def_cfa_register 13
 5871              		@ sp needed
 5872 001a 80BD     		pop	{r7, pc}
 5873              		.cfi_endproc
 5874              	.LFE163:
 5876              		.section	.text.SPI_DMAHalfTransmitReceiveCplt,"ax",%progbits
 5877              		.align	1
 5878              		.syntax unified
 5879              		.thumb
 5880              		.thumb_func
 5881              		.fpu fpv4-sp-d16
 5883              	SPI_DMAHalfTransmitReceiveCplt:
 5884              	.LFB164:
2872:Drivers/STM32F4xx_HAL_Driver/Src/stm32f4xx_hal_spi.c **** 
2873:Drivers/STM32F4xx_HAL_Driver/Src/stm32f4xx_hal_spi.c **** /**
2874:Drivers/STM32F4xx_HAL_Driver/Src/stm32f4xx_hal_spi.c ****   * @brief  DMA SPI half transmit receive process complete callback.
2875:Drivers/STM32F4xx_HAL_Driver/Src/stm32f4xx_hal_spi.c ****   * @param  hdma pointer to a DMA_HandleTypeDef structure that contains
ARM GAS  /tmp/cc9N7Buw.s 			page 154


2876:Drivers/STM32F4xx_HAL_Driver/Src/stm32f4xx_hal_spi.c ****   *               the configuration information for the specified DMA module.
2877:Drivers/STM32F4xx_HAL_Driver/Src/stm32f4xx_hal_spi.c ****   * @retval None
2878:Drivers/STM32F4xx_HAL_Driver/Src/stm32f4xx_hal_spi.c ****   */
2879:Drivers/STM32F4xx_HAL_Driver/Src/stm32f4xx_hal_spi.c **** static void SPI_DMAHalfTransmitReceiveCplt(DMA_HandleTypeDef *hdma)
2880:Drivers/STM32F4xx_HAL_Driver/Src/stm32f4xx_hal_spi.c **** {
 5885              		.loc 1 2880 1
 5886              		.cfi_startproc
 5887              		@ args = 0, pretend = 0, frame = 16
 5888              		@ frame_needed = 1, uses_anonymous_args = 0
 5889 0000 80B5     		push	{r7, lr}
 5890              	.LCFI184:
 5891              		.cfi_def_cfa_offset 8
 5892              		.cfi_offset 7, -8
 5893              		.cfi_offset 14, -4
 5894 0002 84B0     		sub	sp, sp, #16
 5895              	.LCFI185:
 5896              		.cfi_def_cfa_offset 24
 5897 0004 00AF     		add	r7, sp, #0
 5898              	.LCFI186:
 5899              		.cfi_def_cfa_register 7
 5900 0006 7860     		str	r0, [r7, #4]
2881:Drivers/STM32F4xx_HAL_Driver/Src/stm32f4xx_hal_spi.c ****   SPI_HandleTypeDef *hspi = (SPI_HandleTypeDef *)(((DMA_HandleTypeDef *)hdma)->Parent); /* Derogati
 5901              		.loc 1 2881 22
 5902 0008 7B68     		ldr	r3, [r7, #4]
 5903 000a 9B6B     		ldr	r3, [r3, #56]
 5904 000c FB60     		str	r3, [r7, #12]
2882:Drivers/STM32F4xx_HAL_Driver/Src/stm32f4xx_hal_spi.c **** 
2883:Drivers/STM32F4xx_HAL_Driver/Src/stm32f4xx_hal_spi.c ****   /* Call user TxRx half complete callback */
2884:Drivers/STM32F4xx_HAL_Driver/Src/stm32f4xx_hal_spi.c **** #if (USE_HAL_SPI_REGISTER_CALLBACKS == 1U)
2885:Drivers/STM32F4xx_HAL_Driver/Src/stm32f4xx_hal_spi.c ****   hspi->TxRxHalfCpltCallback(hspi);
2886:Drivers/STM32F4xx_HAL_Driver/Src/stm32f4xx_hal_spi.c **** #else
2887:Drivers/STM32F4xx_HAL_Driver/Src/stm32f4xx_hal_spi.c ****   HAL_SPI_TxRxHalfCpltCallback(hspi);
 5905              		.loc 1 2887 3
 5906 000e F868     		ldr	r0, [r7, #12]
 5907 0010 FFF7FEFF 		bl	HAL_SPI_TxRxHalfCpltCallback
2888:Drivers/STM32F4xx_HAL_Driver/Src/stm32f4xx_hal_spi.c **** #endif /* USE_HAL_SPI_REGISTER_CALLBACKS */
2889:Drivers/STM32F4xx_HAL_Driver/Src/stm32f4xx_hal_spi.c **** }
 5908              		.loc 1 2889 1
 5909 0014 00BF     		nop
 5910 0016 1037     		adds	r7, r7, #16
 5911              	.LCFI187:
 5912              		.cfi_def_cfa_offset 8
 5913 0018 BD46     		mov	sp, r7
 5914              	.LCFI188:
 5915              		.cfi_def_cfa_register 13
 5916              		@ sp needed
 5917 001a 80BD     		pop	{r7, pc}
 5918              		.cfi_endproc
 5919              	.LFE164:
 5921              		.section	.text.SPI_DMAError,"ax",%progbits
 5922              		.align	1
 5923              		.syntax unified
 5924              		.thumb
 5925              		.thumb_func
 5926              		.fpu fpv4-sp-d16
 5928              	SPI_DMAError:
 5929              	.LFB165:
ARM GAS  /tmp/cc9N7Buw.s 			page 155


2890:Drivers/STM32F4xx_HAL_Driver/Src/stm32f4xx_hal_spi.c **** 
2891:Drivers/STM32F4xx_HAL_Driver/Src/stm32f4xx_hal_spi.c **** /**
2892:Drivers/STM32F4xx_HAL_Driver/Src/stm32f4xx_hal_spi.c ****   * @brief  DMA SPI communication error callback.
2893:Drivers/STM32F4xx_HAL_Driver/Src/stm32f4xx_hal_spi.c ****   * @param  hdma pointer to a DMA_HandleTypeDef structure that contains
2894:Drivers/STM32F4xx_HAL_Driver/Src/stm32f4xx_hal_spi.c ****   *               the configuration information for the specified DMA module.
2895:Drivers/STM32F4xx_HAL_Driver/Src/stm32f4xx_hal_spi.c ****   * @retval None
2896:Drivers/STM32F4xx_HAL_Driver/Src/stm32f4xx_hal_spi.c ****   */
2897:Drivers/STM32F4xx_HAL_Driver/Src/stm32f4xx_hal_spi.c **** static void SPI_DMAError(DMA_HandleTypeDef *hdma)
2898:Drivers/STM32F4xx_HAL_Driver/Src/stm32f4xx_hal_spi.c **** {
 5930              		.loc 1 2898 1
 5931              		.cfi_startproc
 5932              		@ args = 0, pretend = 0, frame = 16
 5933              		@ frame_needed = 1, uses_anonymous_args = 0
 5934 0000 80B5     		push	{r7, lr}
 5935              	.LCFI189:
 5936              		.cfi_def_cfa_offset 8
 5937              		.cfi_offset 7, -8
 5938              		.cfi_offset 14, -4
 5939 0002 84B0     		sub	sp, sp, #16
 5940              	.LCFI190:
 5941              		.cfi_def_cfa_offset 24
 5942 0004 00AF     		add	r7, sp, #0
 5943              	.LCFI191:
 5944              		.cfi_def_cfa_register 7
 5945 0006 7860     		str	r0, [r7, #4]
2899:Drivers/STM32F4xx_HAL_Driver/Src/stm32f4xx_hal_spi.c ****   SPI_HandleTypeDef *hspi = (SPI_HandleTypeDef *)(((DMA_HandleTypeDef *)hdma)->Parent); /* Derogati
 5946              		.loc 1 2899 22
 5947 0008 7B68     		ldr	r3, [r7, #4]
 5948 000a 9B6B     		ldr	r3, [r3, #56]
 5949 000c FB60     		str	r3, [r7, #12]
2900:Drivers/STM32F4xx_HAL_Driver/Src/stm32f4xx_hal_spi.c **** 
2901:Drivers/STM32F4xx_HAL_Driver/Src/stm32f4xx_hal_spi.c ****   /* Stop the disable DMA transfer on SPI side */
2902:Drivers/STM32F4xx_HAL_Driver/Src/stm32f4xx_hal_spi.c ****   CLEAR_BIT(hspi->Instance->CR2, SPI_CR2_TXDMAEN | SPI_CR2_RXDMAEN);
 5950              		.loc 1 2902 3
 5951 000e FB68     		ldr	r3, [r7, #12]
 5952 0010 1B68     		ldr	r3, [r3]
 5953 0012 5A68     		ldr	r2, [r3, #4]
 5954 0014 FB68     		ldr	r3, [r7, #12]
 5955 0016 1B68     		ldr	r3, [r3]
 5956 0018 22F00302 		bic	r2, r2, #3
 5957 001c 5A60     		str	r2, [r3, #4]
2903:Drivers/STM32F4xx_HAL_Driver/Src/stm32f4xx_hal_spi.c **** 
2904:Drivers/STM32F4xx_HAL_Driver/Src/stm32f4xx_hal_spi.c ****   SET_BIT(hspi->ErrorCode, HAL_SPI_ERROR_DMA);
 5958              		.loc 1 2904 3
 5959 001e FB68     		ldr	r3, [r7, #12]
 5960 0020 5B6D     		ldr	r3, [r3, #84]
 5961 0022 43F01002 		orr	r2, r3, #16
 5962 0026 FB68     		ldr	r3, [r7, #12]
 5963 0028 5A65     		str	r2, [r3, #84]
2905:Drivers/STM32F4xx_HAL_Driver/Src/stm32f4xx_hal_spi.c ****   hspi->State = HAL_SPI_STATE_READY;
 5964              		.loc 1 2905 15
 5965 002a FB68     		ldr	r3, [r7, #12]
 5966 002c 0122     		movs	r2, #1
 5967 002e 83F85120 		strb	r2, [r3, #81]
2906:Drivers/STM32F4xx_HAL_Driver/Src/stm32f4xx_hal_spi.c ****   /* Call user error callback */
2907:Drivers/STM32F4xx_HAL_Driver/Src/stm32f4xx_hal_spi.c **** #if (USE_HAL_SPI_REGISTER_CALLBACKS == 1U)
2908:Drivers/STM32F4xx_HAL_Driver/Src/stm32f4xx_hal_spi.c ****   hspi->ErrorCallback(hspi);
ARM GAS  /tmp/cc9N7Buw.s 			page 156


2909:Drivers/STM32F4xx_HAL_Driver/Src/stm32f4xx_hal_spi.c **** #else
2910:Drivers/STM32F4xx_HAL_Driver/Src/stm32f4xx_hal_spi.c ****   HAL_SPI_ErrorCallback(hspi);
 5968              		.loc 1 2910 3
 5969 0032 F868     		ldr	r0, [r7, #12]
 5970 0034 FFF7FEFF 		bl	HAL_SPI_ErrorCallback
2911:Drivers/STM32F4xx_HAL_Driver/Src/stm32f4xx_hal_spi.c **** #endif /* USE_HAL_SPI_REGISTER_CALLBACKS */
2912:Drivers/STM32F4xx_HAL_Driver/Src/stm32f4xx_hal_spi.c **** }
 5971              		.loc 1 2912 1
 5972 0038 00BF     		nop
 5973 003a 1037     		adds	r7, r7, #16
 5974              	.LCFI192:
 5975              		.cfi_def_cfa_offset 8
 5976 003c BD46     		mov	sp, r7
 5977              	.LCFI193:
 5978              		.cfi_def_cfa_register 13
 5979              		@ sp needed
 5980 003e 80BD     		pop	{r7, pc}
 5981              		.cfi_endproc
 5982              	.LFE165:
 5984              		.section	.text.SPI_DMAAbortOnError,"ax",%progbits
 5985              		.align	1
 5986              		.syntax unified
 5987              		.thumb
 5988              		.thumb_func
 5989              		.fpu fpv4-sp-d16
 5991              	SPI_DMAAbortOnError:
 5992              	.LFB166:
2913:Drivers/STM32F4xx_HAL_Driver/Src/stm32f4xx_hal_spi.c **** 
2914:Drivers/STM32F4xx_HAL_Driver/Src/stm32f4xx_hal_spi.c **** /**
2915:Drivers/STM32F4xx_HAL_Driver/Src/stm32f4xx_hal_spi.c ****   * @brief  DMA SPI communication abort callback, when initiated by HAL services on Error
2916:Drivers/STM32F4xx_HAL_Driver/Src/stm32f4xx_hal_spi.c ****   *         (To be called at end of DMA Abort procedure following error occurrence).
2917:Drivers/STM32F4xx_HAL_Driver/Src/stm32f4xx_hal_spi.c ****   * @param  hdma DMA handle.
2918:Drivers/STM32F4xx_HAL_Driver/Src/stm32f4xx_hal_spi.c ****   * @retval None
2919:Drivers/STM32F4xx_HAL_Driver/Src/stm32f4xx_hal_spi.c ****   */
2920:Drivers/STM32F4xx_HAL_Driver/Src/stm32f4xx_hal_spi.c **** static void SPI_DMAAbortOnError(DMA_HandleTypeDef *hdma)
2921:Drivers/STM32F4xx_HAL_Driver/Src/stm32f4xx_hal_spi.c **** {
 5993              		.loc 1 2921 1
 5994              		.cfi_startproc
 5995              		@ args = 0, pretend = 0, frame = 16
 5996              		@ frame_needed = 1, uses_anonymous_args = 0
 5997 0000 80B5     		push	{r7, lr}
 5998              	.LCFI194:
 5999              		.cfi_def_cfa_offset 8
 6000              		.cfi_offset 7, -8
 6001              		.cfi_offset 14, -4
 6002 0002 84B0     		sub	sp, sp, #16
 6003              	.LCFI195:
 6004              		.cfi_def_cfa_offset 24
 6005 0004 00AF     		add	r7, sp, #0
 6006              	.LCFI196:
 6007              		.cfi_def_cfa_register 7
 6008 0006 7860     		str	r0, [r7, #4]
2922:Drivers/STM32F4xx_HAL_Driver/Src/stm32f4xx_hal_spi.c ****   SPI_HandleTypeDef *hspi = (SPI_HandleTypeDef *)(((DMA_HandleTypeDef *)hdma)->Parent); /* Derogati
 6009              		.loc 1 2922 22
 6010 0008 7B68     		ldr	r3, [r7, #4]
 6011 000a 9B6B     		ldr	r3, [r3, #56]
 6012 000c FB60     		str	r3, [r7, #12]
ARM GAS  /tmp/cc9N7Buw.s 			page 157


2923:Drivers/STM32F4xx_HAL_Driver/Src/stm32f4xx_hal_spi.c ****   hspi->RxXferCount = 0U;
 6013              		.loc 1 2923 21
 6014 000e FB68     		ldr	r3, [r7, #12]
 6015 0010 0022     		movs	r2, #0
 6016 0012 DA87     		strh	r2, [r3, #62]	@ movhi
2924:Drivers/STM32F4xx_HAL_Driver/Src/stm32f4xx_hal_spi.c ****   hspi->TxXferCount = 0U;
 6017              		.loc 1 2924 21
 6018 0014 FB68     		ldr	r3, [r7, #12]
 6019 0016 0022     		movs	r2, #0
 6020 0018 DA86     		strh	r2, [r3, #54]	@ movhi
2925:Drivers/STM32F4xx_HAL_Driver/Src/stm32f4xx_hal_spi.c **** 
2926:Drivers/STM32F4xx_HAL_Driver/Src/stm32f4xx_hal_spi.c ****   /* Call user error callback */
2927:Drivers/STM32F4xx_HAL_Driver/Src/stm32f4xx_hal_spi.c **** #if (USE_HAL_SPI_REGISTER_CALLBACKS == 1U)
2928:Drivers/STM32F4xx_HAL_Driver/Src/stm32f4xx_hal_spi.c ****   hspi->ErrorCallback(hspi);
2929:Drivers/STM32F4xx_HAL_Driver/Src/stm32f4xx_hal_spi.c **** #else
2930:Drivers/STM32F4xx_HAL_Driver/Src/stm32f4xx_hal_spi.c ****   HAL_SPI_ErrorCallback(hspi);
 6021              		.loc 1 2930 3
 6022 001a F868     		ldr	r0, [r7, #12]
 6023 001c FFF7FEFF 		bl	HAL_SPI_ErrorCallback
2931:Drivers/STM32F4xx_HAL_Driver/Src/stm32f4xx_hal_spi.c **** #endif /* USE_HAL_SPI_REGISTER_CALLBACKS */
2932:Drivers/STM32F4xx_HAL_Driver/Src/stm32f4xx_hal_spi.c **** }
 6024              		.loc 1 2932 1
 6025 0020 00BF     		nop
 6026 0022 1037     		adds	r7, r7, #16
 6027              	.LCFI197:
 6028              		.cfi_def_cfa_offset 8
 6029 0024 BD46     		mov	sp, r7
 6030              	.LCFI198:
 6031              		.cfi_def_cfa_register 13
 6032              		@ sp needed
 6033 0026 80BD     		pop	{r7, pc}
 6034              		.cfi_endproc
 6035              	.LFE166:
 6037              		.section	.text.SPI_DMATxAbortCallback,"ax",%progbits
 6038              		.align	1
 6039              		.syntax unified
 6040              		.thumb
 6041              		.thumb_func
 6042              		.fpu fpv4-sp-d16
 6044              	SPI_DMATxAbortCallback:
 6045              	.LFB167:
2933:Drivers/STM32F4xx_HAL_Driver/Src/stm32f4xx_hal_spi.c **** 
2934:Drivers/STM32F4xx_HAL_Driver/Src/stm32f4xx_hal_spi.c **** /**
2935:Drivers/STM32F4xx_HAL_Driver/Src/stm32f4xx_hal_spi.c ****   * @brief  DMA SPI Tx communication abort callback, when initiated by user
2936:Drivers/STM32F4xx_HAL_Driver/Src/stm32f4xx_hal_spi.c ****   *         (To be called at end of DMA Tx Abort procedure following user abort request).
2937:Drivers/STM32F4xx_HAL_Driver/Src/stm32f4xx_hal_spi.c ****   * @note   When this callback is executed, User Abort complete call back is called only if no
2938:Drivers/STM32F4xx_HAL_Driver/Src/stm32f4xx_hal_spi.c ****   *         Abort still ongoing for Rx DMA Handle.
2939:Drivers/STM32F4xx_HAL_Driver/Src/stm32f4xx_hal_spi.c ****   * @param  hdma DMA handle.
2940:Drivers/STM32F4xx_HAL_Driver/Src/stm32f4xx_hal_spi.c ****   * @retval None
2941:Drivers/STM32F4xx_HAL_Driver/Src/stm32f4xx_hal_spi.c ****   */
2942:Drivers/STM32F4xx_HAL_Driver/Src/stm32f4xx_hal_spi.c **** static void SPI_DMATxAbortCallback(DMA_HandleTypeDef *hdma)
2943:Drivers/STM32F4xx_HAL_Driver/Src/stm32f4xx_hal_spi.c **** {
 6046              		.loc 1 2943 1
 6047              		.cfi_startproc
 6048              		@ args = 0, pretend = 0, frame = 24
 6049              		@ frame_needed = 1, uses_anonymous_args = 0
 6050 0000 80B5     		push	{r7, lr}
ARM GAS  /tmp/cc9N7Buw.s 			page 158


 6051              	.LCFI199:
 6052              		.cfi_def_cfa_offset 8
 6053              		.cfi_offset 7, -8
 6054              		.cfi_offset 14, -4
 6055 0002 86B0     		sub	sp, sp, #24
 6056              	.LCFI200:
 6057              		.cfi_def_cfa_offset 32
 6058 0004 00AF     		add	r7, sp, #0
 6059              	.LCFI201:
 6060              		.cfi_def_cfa_register 7
 6061 0006 7860     		str	r0, [r7, #4]
2944:Drivers/STM32F4xx_HAL_Driver/Src/stm32f4xx_hal_spi.c ****   SPI_HandleTypeDef *hspi = (SPI_HandleTypeDef *)(((DMA_HandleTypeDef *)hdma)->Parent); /* Derogati
 6062              		.loc 1 2944 22
 6063 0008 7B68     		ldr	r3, [r7, #4]
 6064 000a 9B6B     		ldr	r3, [r3, #56]
 6065 000c 7B61     		str	r3, [r7, #20]
2945:Drivers/STM32F4xx_HAL_Driver/Src/stm32f4xx_hal_spi.c ****   __IO uint32_t count;
2946:Drivers/STM32F4xx_HAL_Driver/Src/stm32f4xx_hal_spi.c **** 
2947:Drivers/STM32F4xx_HAL_Driver/Src/stm32f4xx_hal_spi.c ****   hspi->hdmatx->XferAbortCallback = NULL;
 6066              		.loc 1 2947 7
 6067 000e 7B69     		ldr	r3, [r7, #20]
 6068 0010 9B6C     		ldr	r3, [r3, #72]
 6069              		.loc 1 2947 35
 6070 0012 0022     		movs	r2, #0
 6071 0014 1A65     		str	r2, [r3, #80]
2948:Drivers/STM32F4xx_HAL_Driver/Src/stm32f4xx_hal_spi.c ****   count = SPI_DEFAULT_TIMEOUT * (SystemCoreClock / 24U / 1000U);
 6072              		.loc 1 2948 56
 6073 0016 2D4B     		ldr	r3, .L313
 6074 0018 1B68     		ldr	r3, [r3]
 6075 001a 2D4A     		ldr	r2, .L313+4
 6076 001c A2FB0323 		umull	r2, r3, r2, r3
 6077 0020 5B0A     		lsrs	r3, r3, #9
 6078              		.loc 1 2948 31
 6079 0022 6422     		movs	r2, #100
 6080 0024 02FB03F3 		mul	r3, r2, r3
 6081              		.loc 1 2948 9
 6082 0028 3B61     		str	r3, [r7, #16]
2949:Drivers/STM32F4xx_HAL_Driver/Src/stm32f4xx_hal_spi.c **** 
2950:Drivers/STM32F4xx_HAL_Driver/Src/stm32f4xx_hal_spi.c ****   /* Disable Tx DMA Request */
2951:Drivers/STM32F4xx_HAL_Driver/Src/stm32f4xx_hal_spi.c ****   CLEAR_BIT(hspi->Instance->CR2, SPI_CR2_TXDMAEN);
 6083              		.loc 1 2951 3
 6084 002a 7B69     		ldr	r3, [r7, #20]
 6085 002c 1B68     		ldr	r3, [r3]
 6086 002e 5A68     		ldr	r2, [r3, #4]
 6087 0030 7B69     		ldr	r3, [r7, #20]
 6088 0032 1B68     		ldr	r3, [r3]
 6089 0034 22F00202 		bic	r2, r2, #2
 6090 0038 5A60     		str	r2, [r3, #4]
 6091              	.L308:
2952:Drivers/STM32F4xx_HAL_Driver/Src/stm32f4xx_hal_spi.c **** 
2953:Drivers/STM32F4xx_HAL_Driver/Src/stm32f4xx_hal_spi.c ****   /* Wait until TXE flag is set */
2954:Drivers/STM32F4xx_HAL_Driver/Src/stm32f4xx_hal_spi.c ****   do
2955:Drivers/STM32F4xx_HAL_Driver/Src/stm32f4xx_hal_spi.c ****   {
2956:Drivers/STM32F4xx_HAL_Driver/Src/stm32f4xx_hal_spi.c ****     if (count == 0U)
 6092              		.loc 1 2956 15
 6093 003a 3B69     		ldr	r3, [r7, #16]
 6094              		.loc 1 2956 8
ARM GAS  /tmp/cc9N7Buw.s 			page 159


 6095 003c 002B     		cmp	r3, #0
 6096 003e 06D1     		bne	.L306
2957:Drivers/STM32F4xx_HAL_Driver/Src/stm32f4xx_hal_spi.c ****     {
2958:Drivers/STM32F4xx_HAL_Driver/Src/stm32f4xx_hal_spi.c ****       SET_BIT(hspi->ErrorCode, HAL_SPI_ERROR_ABORT);
 6097              		.loc 1 2958 7
 6098 0040 7B69     		ldr	r3, [r7, #20]
 6099 0042 5B6D     		ldr	r3, [r3, #84]
 6100 0044 43F04002 		orr	r2, r3, #64
 6101 0048 7B69     		ldr	r3, [r7, #20]
 6102 004a 5A65     		str	r2, [r3, #84]
2959:Drivers/STM32F4xx_HAL_Driver/Src/stm32f4xx_hal_spi.c ****       break;
 6103              		.loc 1 2959 7
 6104 004c 09E0     		b	.L307
 6105              	.L306:
2960:Drivers/STM32F4xx_HAL_Driver/Src/stm32f4xx_hal_spi.c ****     }
2961:Drivers/STM32F4xx_HAL_Driver/Src/stm32f4xx_hal_spi.c ****     count--;
 6106              		.loc 1 2961 10
 6107 004e 3B69     		ldr	r3, [r7, #16]
 6108 0050 013B     		subs	r3, r3, #1
 6109 0052 3B61     		str	r3, [r7, #16]
2962:Drivers/STM32F4xx_HAL_Driver/Src/stm32f4xx_hal_spi.c ****   } while ((hspi->Instance->SR & SPI_FLAG_TXE) == RESET);
 6110              		.loc 1 2962 17
 6111 0054 7B69     		ldr	r3, [r7, #20]
 6112 0056 1B68     		ldr	r3, [r3]
 6113              		.loc 1 2962 27
 6114 0058 9B68     		ldr	r3, [r3, #8]
 6115              		.loc 1 2962 32
 6116 005a 03F00203 		and	r3, r3, #2
 6117              		.loc 1 2962 3
 6118 005e 002B     		cmp	r3, #0
 6119 0060 EBD0     		beq	.L308
 6120              	.L307:
2963:Drivers/STM32F4xx_HAL_Driver/Src/stm32f4xx_hal_spi.c **** 
2964:Drivers/STM32F4xx_HAL_Driver/Src/stm32f4xx_hal_spi.c ****   /* Check if an Abort process is still ongoing */
2965:Drivers/STM32F4xx_HAL_Driver/Src/stm32f4xx_hal_spi.c ****   if (hspi->hdmarx != NULL)
 6121              		.loc 1 2965 11
 6122 0062 7B69     		ldr	r3, [r7, #20]
 6123 0064 DB6C     		ldr	r3, [r3, #76]
 6124              		.loc 1 2965 6
 6125 0066 002B     		cmp	r3, #0
 6126 0068 04D0     		beq	.L309
2966:Drivers/STM32F4xx_HAL_Driver/Src/stm32f4xx_hal_spi.c ****   {
2967:Drivers/STM32F4xx_HAL_Driver/Src/stm32f4xx_hal_spi.c ****     if (hspi->hdmarx->XferAbortCallback != NULL)
 6127              		.loc 1 2967 13
 6128 006a 7B69     		ldr	r3, [r7, #20]
 6129 006c DB6C     		ldr	r3, [r3, #76]
 6130              		.loc 1 2967 21
 6131 006e 1B6D     		ldr	r3, [r3, #80]
 6132              		.loc 1 2967 8
 6133 0070 002B     		cmp	r3, #0
 6134 0072 26D1     		bne	.L312
 6135              	.L309:
2968:Drivers/STM32F4xx_HAL_Driver/Src/stm32f4xx_hal_spi.c ****     {
2969:Drivers/STM32F4xx_HAL_Driver/Src/stm32f4xx_hal_spi.c ****       return;
2970:Drivers/STM32F4xx_HAL_Driver/Src/stm32f4xx_hal_spi.c ****     }
2971:Drivers/STM32F4xx_HAL_Driver/Src/stm32f4xx_hal_spi.c ****   }
2972:Drivers/STM32F4xx_HAL_Driver/Src/stm32f4xx_hal_spi.c **** 
ARM GAS  /tmp/cc9N7Buw.s 			page 160


2973:Drivers/STM32F4xx_HAL_Driver/Src/stm32f4xx_hal_spi.c ****   /* No Abort process still ongoing : All DMA Stream/Channel are aborted, call user Abort Complete 
2974:Drivers/STM32F4xx_HAL_Driver/Src/stm32f4xx_hal_spi.c ****   hspi->RxXferCount = 0U;
 6136              		.loc 1 2974 21
 6137 0074 7B69     		ldr	r3, [r7, #20]
 6138 0076 0022     		movs	r2, #0
 6139 0078 DA87     		strh	r2, [r3, #62]	@ movhi
2975:Drivers/STM32F4xx_HAL_Driver/Src/stm32f4xx_hal_spi.c ****   hspi->TxXferCount = 0U;
 6140              		.loc 1 2975 21
 6141 007a 7B69     		ldr	r3, [r7, #20]
 6142 007c 0022     		movs	r2, #0
 6143 007e DA86     		strh	r2, [r3, #54]	@ movhi
2976:Drivers/STM32F4xx_HAL_Driver/Src/stm32f4xx_hal_spi.c **** 
2977:Drivers/STM32F4xx_HAL_Driver/Src/stm32f4xx_hal_spi.c ****   /* Check no error during Abort procedure */
2978:Drivers/STM32F4xx_HAL_Driver/Src/stm32f4xx_hal_spi.c ****   if (hspi->ErrorCode != HAL_SPI_ERROR_ABORT)
 6144              		.loc 1 2978 11
 6145 0080 7B69     		ldr	r3, [r7, #20]
 6146 0082 5B6D     		ldr	r3, [r3, #84]
 6147              		.loc 1 2978 6
 6148 0084 402B     		cmp	r3, #64
 6149 0086 02D0     		beq	.L311
2979:Drivers/STM32F4xx_HAL_Driver/Src/stm32f4xx_hal_spi.c ****   {
2980:Drivers/STM32F4xx_HAL_Driver/Src/stm32f4xx_hal_spi.c ****     /* Reset errorCode */
2981:Drivers/STM32F4xx_HAL_Driver/Src/stm32f4xx_hal_spi.c ****     hspi->ErrorCode = HAL_SPI_ERROR_NONE;
 6150              		.loc 1 2981 21
 6151 0088 7B69     		ldr	r3, [r7, #20]
 6152 008a 0022     		movs	r2, #0
 6153 008c 5A65     		str	r2, [r3, #84]
 6154              	.L311:
 6155              	.LBB13:
2982:Drivers/STM32F4xx_HAL_Driver/Src/stm32f4xx_hal_spi.c ****   }
2983:Drivers/STM32F4xx_HAL_Driver/Src/stm32f4xx_hal_spi.c **** 
2984:Drivers/STM32F4xx_HAL_Driver/Src/stm32f4xx_hal_spi.c ****   /* Clear the Error flags in the SR register */
2985:Drivers/STM32F4xx_HAL_Driver/Src/stm32f4xx_hal_spi.c ****   __HAL_SPI_CLEAR_OVRFLAG(hspi);
 6156              		.loc 1 2985 3
 6157 008e 0023     		movs	r3, #0
 6158 0090 FB60     		str	r3, [r7, #12]
 6159 0092 7B69     		ldr	r3, [r7, #20]
 6160 0094 1B68     		ldr	r3, [r3]
 6161 0096 DB68     		ldr	r3, [r3, #12]
 6162 0098 FB60     		str	r3, [r7, #12]
 6163 009a 7B69     		ldr	r3, [r7, #20]
 6164 009c 1B68     		ldr	r3, [r3]
 6165 009e 9B68     		ldr	r3, [r3, #8]
 6166 00a0 FB60     		str	r3, [r7, #12]
 6167 00a2 FB68     		ldr	r3, [r7, #12]
 6168              	.LBE13:
 6169              	.LBB14:
2986:Drivers/STM32F4xx_HAL_Driver/Src/stm32f4xx_hal_spi.c ****   __HAL_SPI_CLEAR_FREFLAG(hspi);
 6170              		.loc 1 2986 3
 6171 00a4 0023     		movs	r3, #0
 6172 00a6 BB60     		str	r3, [r7, #8]
 6173 00a8 7B69     		ldr	r3, [r7, #20]
 6174 00aa 1B68     		ldr	r3, [r3]
 6175 00ac 9B68     		ldr	r3, [r3, #8]
 6176 00ae BB60     		str	r3, [r7, #8]
 6177 00b0 BB68     		ldr	r3, [r7, #8]
 6178              	.LBE14:
ARM GAS  /tmp/cc9N7Buw.s 			page 161


2987:Drivers/STM32F4xx_HAL_Driver/Src/stm32f4xx_hal_spi.c **** 
2988:Drivers/STM32F4xx_HAL_Driver/Src/stm32f4xx_hal_spi.c ****   /* Restore hspi->State to Ready */
2989:Drivers/STM32F4xx_HAL_Driver/Src/stm32f4xx_hal_spi.c ****   hspi->State  = HAL_SPI_STATE_READY;
 6179              		.loc 1 2989 16
 6180 00b2 7B69     		ldr	r3, [r7, #20]
 6181 00b4 0122     		movs	r2, #1
 6182 00b6 83F85120 		strb	r2, [r3, #81]
2990:Drivers/STM32F4xx_HAL_Driver/Src/stm32f4xx_hal_spi.c **** 
2991:Drivers/STM32F4xx_HAL_Driver/Src/stm32f4xx_hal_spi.c ****   /* Call user Abort complete callback */
2992:Drivers/STM32F4xx_HAL_Driver/Src/stm32f4xx_hal_spi.c **** #if (USE_HAL_SPI_REGISTER_CALLBACKS == 1U)
2993:Drivers/STM32F4xx_HAL_Driver/Src/stm32f4xx_hal_spi.c ****   hspi->AbortCpltCallback(hspi);
2994:Drivers/STM32F4xx_HAL_Driver/Src/stm32f4xx_hal_spi.c **** #else
2995:Drivers/STM32F4xx_HAL_Driver/Src/stm32f4xx_hal_spi.c ****   HAL_SPI_AbortCpltCallback(hspi);
 6183              		.loc 1 2995 3
 6184 00ba 7869     		ldr	r0, [r7, #20]
 6185 00bc FFF7FEFF 		bl	HAL_SPI_AbortCpltCallback
 6186 00c0 00E0     		b	.L305
 6187              	.L312:
2969:Drivers/STM32F4xx_HAL_Driver/Src/stm32f4xx_hal_spi.c ****     }
 6188              		.loc 1 2969 7
 6189 00c2 00BF     		nop
 6190              	.L305:
2996:Drivers/STM32F4xx_HAL_Driver/Src/stm32f4xx_hal_spi.c **** #endif /* USE_HAL_SPI_REGISTER_CALLBACKS */
2997:Drivers/STM32F4xx_HAL_Driver/Src/stm32f4xx_hal_spi.c **** }
 6191              		.loc 1 2997 1
 6192 00c4 1837     		adds	r7, r7, #24
 6193              	.LCFI202:
 6194              		.cfi_def_cfa_offset 8
 6195 00c6 BD46     		mov	sp, r7
 6196              	.LCFI203:
 6197              		.cfi_def_cfa_register 13
 6198              		@ sp needed
 6199 00c8 80BD     		pop	{r7, pc}
 6200              	.L314:
 6201 00ca 00BF     		.align	2
 6202              	.L313:
 6203 00cc 00000000 		.word	SystemCoreClock
 6204 00d0 F1197605 		.word	91625969
 6205              		.cfi_endproc
 6206              	.LFE167:
 6208              		.section	.text.SPI_DMARxAbortCallback,"ax",%progbits
 6209              		.align	1
 6210              		.syntax unified
 6211              		.thumb
 6212              		.thumb_func
 6213              		.fpu fpv4-sp-d16
 6215              	SPI_DMARxAbortCallback:
 6216              	.LFB168:
2998:Drivers/STM32F4xx_HAL_Driver/Src/stm32f4xx_hal_spi.c **** 
2999:Drivers/STM32F4xx_HAL_Driver/Src/stm32f4xx_hal_spi.c **** /**
3000:Drivers/STM32F4xx_HAL_Driver/Src/stm32f4xx_hal_spi.c ****   * @brief  DMA SPI Rx communication abort callback, when initiated by user
3001:Drivers/STM32F4xx_HAL_Driver/Src/stm32f4xx_hal_spi.c ****   *         (To be called at end of DMA Rx Abort procedure following user abort request).
3002:Drivers/STM32F4xx_HAL_Driver/Src/stm32f4xx_hal_spi.c ****   * @note   When this callback is executed, User Abort complete call back is called only if no
3003:Drivers/STM32F4xx_HAL_Driver/Src/stm32f4xx_hal_spi.c ****   *         Abort still ongoing for Tx DMA Handle.
3004:Drivers/STM32F4xx_HAL_Driver/Src/stm32f4xx_hal_spi.c ****   * @param  hdma DMA handle.
3005:Drivers/STM32F4xx_HAL_Driver/Src/stm32f4xx_hal_spi.c ****   * @retval None
3006:Drivers/STM32F4xx_HAL_Driver/Src/stm32f4xx_hal_spi.c ****   */
ARM GAS  /tmp/cc9N7Buw.s 			page 162


3007:Drivers/STM32F4xx_HAL_Driver/Src/stm32f4xx_hal_spi.c **** static void SPI_DMARxAbortCallback(DMA_HandleTypeDef *hdma)
3008:Drivers/STM32F4xx_HAL_Driver/Src/stm32f4xx_hal_spi.c **** {
 6217              		.loc 1 3008 1
 6218              		.cfi_startproc
 6219              		@ args = 0, pretend = 0, frame = 24
 6220              		@ frame_needed = 1, uses_anonymous_args = 0
 6221 0000 80B5     		push	{r7, lr}
 6222              	.LCFI204:
 6223              		.cfi_def_cfa_offset 8
 6224              		.cfi_offset 7, -8
 6225              		.cfi_offset 14, -4
 6226 0002 86B0     		sub	sp, sp, #24
 6227              	.LCFI205:
 6228              		.cfi_def_cfa_offset 32
 6229 0004 00AF     		add	r7, sp, #0
 6230              	.LCFI206:
 6231              		.cfi_def_cfa_register 7
 6232 0006 7860     		str	r0, [r7, #4]
3009:Drivers/STM32F4xx_HAL_Driver/Src/stm32f4xx_hal_spi.c ****   SPI_HandleTypeDef *hspi = (SPI_HandleTypeDef *)(((DMA_HandleTypeDef *)hdma)->Parent); /* Derogati
 6233              		.loc 1 3009 22
 6234 0008 7B68     		ldr	r3, [r7, #4]
 6235 000a 9B6B     		ldr	r3, [r3, #56]
 6236 000c 7B61     		str	r3, [r7, #20]
3010:Drivers/STM32F4xx_HAL_Driver/Src/stm32f4xx_hal_spi.c **** 
3011:Drivers/STM32F4xx_HAL_Driver/Src/stm32f4xx_hal_spi.c ****   /* Disable SPI Peripheral */
3012:Drivers/STM32F4xx_HAL_Driver/Src/stm32f4xx_hal_spi.c ****   __HAL_SPI_DISABLE(hspi);
 6237              		.loc 1 3012 3
 6238 000e 7B69     		ldr	r3, [r7, #20]
 6239 0010 1B68     		ldr	r3, [r3]
 6240 0012 1A68     		ldr	r2, [r3]
 6241 0014 7B69     		ldr	r3, [r7, #20]
 6242 0016 1B68     		ldr	r3, [r3]
 6243 0018 22F04002 		bic	r2, r2, #64
 6244 001c 1A60     		str	r2, [r3]
3013:Drivers/STM32F4xx_HAL_Driver/Src/stm32f4xx_hal_spi.c **** 
3014:Drivers/STM32F4xx_HAL_Driver/Src/stm32f4xx_hal_spi.c ****   hspi->hdmarx->XferAbortCallback = NULL;
 6245              		.loc 1 3014 7
 6246 001e 7B69     		ldr	r3, [r7, #20]
 6247 0020 DB6C     		ldr	r3, [r3, #76]
 6248              		.loc 1 3014 35
 6249 0022 0022     		movs	r2, #0
 6250 0024 1A65     		str	r2, [r3, #80]
3015:Drivers/STM32F4xx_HAL_Driver/Src/stm32f4xx_hal_spi.c **** 
3016:Drivers/STM32F4xx_HAL_Driver/Src/stm32f4xx_hal_spi.c ****   /* Disable Rx DMA Request */
3017:Drivers/STM32F4xx_HAL_Driver/Src/stm32f4xx_hal_spi.c ****   CLEAR_BIT(hspi->Instance->CR2, SPI_CR2_RXDMAEN);
 6251              		.loc 1 3017 3
 6252 0026 7B69     		ldr	r3, [r7, #20]
 6253 0028 1B68     		ldr	r3, [r3]
 6254 002a 5A68     		ldr	r2, [r3, #4]
 6255 002c 7B69     		ldr	r3, [r7, #20]
 6256 002e 1B68     		ldr	r3, [r3]
 6257 0030 22F00102 		bic	r2, r2, #1
 6258 0034 5A60     		str	r2, [r3, #4]
3018:Drivers/STM32F4xx_HAL_Driver/Src/stm32f4xx_hal_spi.c **** 
3019:Drivers/STM32F4xx_HAL_Driver/Src/stm32f4xx_hal_spi.c ****   /* Check Busy flag */
3020:Drivers/STM32F4xx_HAL_Driver/Src/stm32f4xx_hal_spi.c ****   if (SPI_EndRxTxTransaction(hspi, SPI_DEFAULT_TIMEOUT, HAL_GetTick()) != HAL_OK)
 6259              		.loc 1 3020 7
ARM GAS  /tmp/cc9N7Buw.s 			page 163


 6260 0036 FFF7FEFF 		bl	HAL_GetTick
 6261 003a 0346     		mov	r3, r0
 6262 003c 1A46     		mov	r2, r3
 6263 003e 6421     		movs	r1, #100
 6264 0040 7869     		ldr	r0, [r7, #20]
 6265 0042 FFF7FEFF 		bl	SPI_EndRxTxTransaction
 6266 0046 0346     		mov	r3, r0
 6267              		.loc 1 3020 6
 6268 0048 002B     		cmp	r3, #0
 6269 004a 05D0     		beq	.L316
3021:Drivers/STM32F4xx_HAL_Driver/Src/stm32f4xx_hal_spi.c ****   {
3022:Drivers/STM32F4xx_HAL_Driver/Src/stm32f4xx_hal_spi.c ****     SET_BIT(hspi->ErrorCode, HAL_SPI_ERROR_ABORT);
 6270              		.loc 1 3022 5
 6271 004c 7B69     		ldr	r3, [r7, #20]
 6272 004e 5B6D     		ldr	r3, [r3, #84]
 6273 0050 43F04002 		orr	r2, r3, #64
 6274 0054 7B69     		ldr	r3, [r7, #20]
 6275 0056 5A65     		str	r2, [r3, #84]
 6276              	.L316:
3023:Drivers/STM32F4xx_HAL_Driver/Src/stm32f4xx_hal_spi.c ****   }
3024:Drivers/STM32F4xx_HAL_Driver/Src/stm32f4xx_hal_spi.c **** 
3025:Drivers/STM32F4xx_HAL_Driver/Src/stm32f4xx_hal_spi.c ****   /* Check if an Abort process is still ongoing */
3026:Drivers/STM32F4xx_HAL_Driver/Src/stm32f4xx_hal_spi.c ****   if (hspi->hdmatx != NULL)
 6277              		.loc 1 3026 11
 6278 0058 7B69     		ldr	r3, [r7, #20]
 6279 005a 9B6C     		ldr	r3, [r3, #72]
 6280              		.loc 1 3026 6
 6281 005c 002B     		cmp	r3, #0
 6282 005e 04D0     		beq	.L317
3027:Drivers/STM32F4xx_HAL_Driver/Src/stm32f4xx_hal_spi.c ****   {
3028:Drivers/STM32F4xx_HAL_Driver/Src/stm32f4xx_hal_spi.c ****     if (hspi->hdmatx->XferAbortCallback != NULL)
 6283              		.loc 1 3028 13
 6284 0060 7B69     		ldr	r3, [r7, #20]
 6285 0062 9B6C     		ldr	r3, [r3, #72]
 6286              		.loc 1 3028 21
 6287 0064 1B6D     		ldr	r3, [r3, #80]
 6288              		.loc 1 3028 8
 6289 0066 002B     		cmp	r3, #0
 6290 0068 26D1     		bne	.L320
 6291              	.L317:
3029:Drivers/STM32F4xx_HAL_Driver/Src/stm32f4xx_hal_spi.c ****     {
3030:Drivers/STM32F4xx_HAL_Driver/Src/stm32f4xx_hal_spi.c ****       return;
3031:Drivers/STM32F4xx_HAL_Driver/Src/stm32f4xx_hal_spi.c ****     }
3032:Drivers/STM32F4xx_HAL_Driver/Src/stm32f4xx_hal_spi.c ****   }
3033:Drivers/STM32F4xx_HAL_Driver/Src/stm32f4xx_hal_spi.c **** 
3034:Drivers/STM32F4xx_HAL_Driver/Src/stm32f4xx_hal_spi.c ****   /* No Abort process still ongoing : All DMA Stream/Channel are aborted, call user Abort Complete 
3035:Drivers/STM32F4xx_HAL_Driver/Src/stm32f4xx_hal_spi.c ****   hspi->RxXferCount = 0U;
 6292              		.loc 1 3035 21
 6293 006a 7B69     		ldr	r3, [r7, #20]
 6294 006c 0022     		movs	r2, #0
 6295 006e DA87     		strh	r2, [r3, #62]	@ movhi
3036:Drivers/STM32F4xx_HAL_Driver/Src/stm32f4xx_hal_spi.c ****   hspi->TxXferCount = 0U;
 6296              		.loc 1 3036 21
 6297 0070 7B69     		ldr	r3, [r7, #20]
 6298 0072 0022     		movs	r2, #0
 6299 0074 DA86     		strh	r2, [r3, #54]	@ movhi
3037:Drivers/STM32F4xx_HAL_Driver/Src/stm32f4xx_hal_spi.c **** 
ARM GAS  /tmp/cc9N7Buw.s 			page 164


3038:Drivers/STM32F4xx_HAL_Driver/Src/stm32f4xx_hal_spi.c ****   /* Check no error during Abort procedure */
3039:Drivers/STM32F4xx_HAL_Driver/Src/stm32f4xx_hal_spi.c ****   if (hspi->ErrorCode != HAL_SPI_ERROR_ABORT)
 6300              		.loc 1 3039 11
 6301 0076 7B69     		ldr	r3, [r7, #20]
 6302 0078 5B6D     		ldr	r3, [r3, #84]
 6303              		.loc 1 3039 6
 6304 007a 402B     		cmp	r3, #64
 6305 007c 02D0     		beq	.L319
3040:Drivers/STM32F4xx_HAL_Driver/Src/stm32f4xx_hal_spi.c ****   {
3041:Drivers/STM32F4xx_HAL_Driver/Src/stm32f4xx_hal_spi.c ****     /* Reset errorCode */
3042:Drivers/STM32F4xx_HAL_Driver/Src/stm32f4xx_hal_spi.c ****     hspi->ErrorCode = HAL_SPI_ERROR_NONE;
 6306              		.loc 1 3042 21
 6307 007e 7B69     		ldr	r3, [r7, #20]
 6308 0080 0022     		movs	r2, #0
 6309 0082 5A65     		str	r2, [r3, #84]
 6310              	.L319:
 6311              	.LBB15:
3043:Drivers/STM32F4xx_HAL_Driver/Src/stm32f4xx_hal_spi.c ****   }
3044:Drivers/STM32F4xx_HAL_Driver/Src/stm32f4xx_hal_spi.c **** 
3045:Drivers/STM32F4xx_HAL_Driver/Src/stm32f4xx_hal_spi.c ****   /* Clear the Error flags in the SR register */
3046:Drivers/STM32F4xx_HAL_Driver/Src/stm32f4xx_hal_spi.c ****   __HAL_SPI_CLEAR_OVRFLAG(hspi);
 6312              		.loc 1 3046 3
 6313 0084 0023     		movs	r3, #0
 6314 0086 3B61     		str	r3, [r7, #16]
 6315 0088 7B69     		ldr	r3, [r7, #20]
 6316 008a 1B68     		ldr	r3, [r3]
 6317 008c DB68     		ldr	r3, [r3, #12]
 6318 008e 3B61     		str	r3, [r7, #16]
 6319 0090 7B69     		ldr	r3, [r7, #20]
 6320 0092 1B68     		ldr	r3, [r3]
 6321 0094 9B68     		ldr	r3, [r3, #8]
 6322 0096 3B61     		str	r3, [r7, #16]
 6323 0098 3B69     		ldr	r3, [r7, #16]
 6324              	.LBE15:
 6325              	.LBB16:
3047:Drivers/STM32F4xx_HAL_Driver/Src/stm32f4xx_hal_spi.c ****   __HAL_SPI_CLEAR_FREFLAG(hspi);
 6326              		.loc 1 3047 3
 6327 009a 0023     		movs	r3, #0
 6328 009c FB60     		str	r3, [r7, #12]
 6329 009e 7B69     		ldr	r3, [r7, #20]
 6330 00a0 1B68     		ldr	r3, [r3]
 6331 00a2 9B68     		ldr	r3, [r3, #8]
 6332 00a4 FB60     		str	r3, [r7, #12]
 6333 00a6 FB68     		ldr	r3, [r7, #12]
 6334              	.LBE16:
3048:Drivers/STM32F4xx_HAL_Driver/Src/stm32f4xx_hal_spi.c **** 
3049:Drivers/STM32F4xx_HAL_Driver/Src/stm32f4xx_hal_spi.c ****   /* Restore hspi->State to Ready */
3050:Drivers/STM32F4xx_HAL_Driver/Src/stm32f4xx_hal_spi.c ****   hspi->State  = HAL_SPI_STATE_READY;
 6335              		.loc 1 3050 16
 6336 00a8 7B69     		ldr	r3, [r7, #20]
 6337 00aa 0122     		movs	r2, #1
 6338 00ac 83F85120 		strb	r2, [r3, #81]
3051:Drivers/STM32F4xx_HAL_Driver/Src/stm32f4xx_hal_spi.c **** 
3052:Drivers/STM32F4xx_HAL_Driver/Src/stm32f4xx_hal_spi.c ****   /* Call user Abort complete callback */
3053:Drivers/STM32F4xx_HAL_Driver/Src/stm32f4xx_hal_spi.c **** #if (USE_HAL_SPI_REGISTER_CALLBACKS == 1U)
3054:Drivers/STM32F4xx_HAL_Driver/Src/stm32f4xx_hal_spi.c ****   hspi->AbortCpltCallback(hspi);
3055:Drivers/STM32F4xx_HAL_Driver/Src/stm32f4xx_hal_spi.c **** #else
ARM GAS  /tmp/cc9N7Buw.s 			page 165


3056:Drivers/STM32F4xx_HAL_Driver/Src/stm32f4xx_hal_spi.c ****   HAL_SPI_AbortCpltCallback(hspi);
 6339              		.loc 1 3056 3
 6340 00b0 7869     		ldr	r0, [r7, #20]
 6341 00b2 FFF7FEFF 		bl	HAL_SPI_AbortCpltCallback
 6342 00b6 00E0     		b	.L315
 6343              	.L320:
3030:Drivers/STM32F4xx_HAL_Driver/Src/stm32f4xx_hal_spi.c ****     }
 6344              		.loc 1 3030 7
 6345 00b8 00BF     		nop
 6346              	.L315:
3057:Drivers/STM32F4xx_HAL_Driver/Src/stm32f4xx_hal_spi.c **** #endif /* USE_HAL_SPI_REGISTER_CALLBACKS */
3058:Drivers/STM32F4xx_HAL_Driver/Src/stm32f4xx_hal_spi.c **** }
 6347              		.loc 1 3058 1
 6348 00ba 1837     		adds	r7, r7, #24
 6349              	.LCFI207:
 6350              		.cfi_def_cfa_offset 8
 6351 00bc BD46     		mov	sp, r7
 6352              	.LCFI208:
 6353              		.cfi_def_cfa_register 13
 6354              		@ sp needed
 6355 00be 80BD     		pop	{r7, pc}
 6356              		.cfi_endproc
 6357              	.LFE168:
 6359              		.section	.text.SPI_2linesRxISR_8BIT,"ax",%progbits
 6360              		.align	1
 6361              		.syntax unified
 6362              		.thumb
 6363              		.thumb_func
 6364              		.fpu fpv4-sp-d16
 6366              	SPI_2linesRxISR_8BIT:
 6367              	.LFB169:
3059:Drivers/STM32F4xx_HAL_Driver/Src/stm32f4xx_hal_spi.c **** 
3060:Drivers/STM32F4xx_HAL_Driver/Src/stm32f4xx_hal_spi.c **** /**
3061:Drivers/STM32F4xx_HAL_Driver/Src/stm32f4xx_hal_spi.c ****   * @brief  Rx 8-bit handler for Transmit and Receive in Interrupt mode.
3062:Drivers/STM32F4xx_HAL_Driver/Src/stm32f4xx_hal_spi.c ****   * @param  hspi pointer to a SPI_HandleTypeDef structure that contains
3063:Drivers/STM32F4xx_HAL_Driver/Src/stm32f4xx_hal_spi.c ****   *               the configuration information for SPI module.
3064:Drivers/STM32F4xx_HAL_Driver/Src/stm32f4xx_hal_spi.c ****   * @retval None
3065:Drivers/STM32F4xx_HAL_Driver/Src/stm32f4xx_hal_spi.c ****   */
3066:Drivers/STM32F4xx_HAL_Driver/Src/stm32f4xx_hal_spi.c **** static void SPI_2linesRxISR_8BIT(struct __SPI_HandleTypeDef *hspi)
3067:Drivers/STM32F4xx_HAL_Driver/Src/stm32f4xx_hal_spi.c **** {
 6368              		.loc 1 3067 1
 6369              		.cfi_startproc
 6370              		@ args = 0, pretend = 0, frame = 8
 6371              		@ frame_needed = 1, uses_anonymous_args = 0
 6372 0000 80B5     		push	{r7, lr}
 6373              	.LCFI209:
 6374              		.cfi_def_cfa_offset 8
 6375              		.cfi_offset 7, -8
 6376              		.cfi_offset 14, -4
 6377 0002 82B0     		sub	sp, sp, #8
 6378              	.LCFI210:
 6379              		.cfi_def_cfa_offset 16
 6380 0004 00AF     		add	r7, sp, #0
 6381              	.LCFI211:
 6382              		.cfi_def_cfa_register 7
 6383 0006 7860     		str	r0, [r7, #4]
3068:Drivers/STM32F4xx_HAL_Driver/Src/stm32f4xx_hal_spi.c ****   /* Receive data in 8bit mode */
ARM GAS  /tmp/cc9N7Buw.s 			page 166


3069:Drivers/STM32F4xx_HAL_Driver/Src/stm32f4xx_hal_spi.c ****   *hspi->pRxBuffPtr = *((__IO uint8_t *)&hspi->Instance->DR);
 6384              		.loc 1 3069 46
 6385 0008 7B68     		ldr	r3, [r7, #4]
 6386 000a 1B68     		ldr	r3, [r3]
 6387              		.loc 1 3069 41
 6388 000c 03F10C02 		add	r2, r3, #12
 6389              		.loc 1 3069 8
 6390 0010 7B68     		ldr	r3, [r7, #4]
 6391 0012 9B6B     		ldr	r3, [r3, #56]
 6392              		.loc 1 3069 23
 6393 0014 1278     		ldrb	r2, [r2]
 6394 0016 D2B2     		uxtb	r2, r2
 6395              		.loc 1 3069 21
 6396 0018 1A70     		strb	r2, [r3]
3070:Drivers/STM32F4xx_HAL_Driver/Src/stm32f4xx_hal_spi.c ****   hspi->pRxBuffPtr++;
 6397              		.loc 1 3070 7
 6398 001a 7B68     		ldr	r3, [r7, #4]
 6399 001c 9B6B     		ldr	r3, [r3, #56]
 6400              		.loc 1 3070 19
 6401 001e 5A1C     		adds	r2, r3, #1
 6402 0020 7B68     		ldr	r3, [r7, #4]
 6403 0022 9A63     		str	r2, [r3, #56]
3071:Drivers/STM32F4xx_HAL_Driver/Src/stm32f4xx_hal_spi.c ****   hspi->RxXferCount--;
 6404              		.loc 1 3071 7
 6405 0024 7B68     		ldr	r3, [r7, #4]
 6406 0026 DB8F     		ldrh	r3, [r3, #62]	@ movhi
 6407 0028 9BB2     		uxth	r3, r3
 6408              		.loc 1 3071 20
 6409 002a 013B     		subs	r3, r3, #1
 6410 002c 9AB2     		uxth	r2, r3
 6411 002e 7B68     		ldr	r3, [r7, #4]
 6412 0030 DA87     		strh	r2, [r3, #62]	@ movhi
3072:Drivers/STM32F4xx_HAL_Driver/Src/stm32f4xx_hal_spi.c **** 
3073:Drivers/STM32F4xx_HAL_Driver/Src/stm32f4xx_hal_spi.c ****   /* Check end of the reception */
3074:Drivers/STM32F4xx_HAL_Driver/Src/stm32f4xx_hal_spi.c ****   if (hspi->RxXferCount == 0U)
 6413              		.loc 1 3074 11
 6414 0032 7B68     		ldr	r3, [r7, #4]
 6415 0034 DB8F     		ldrh	r3, [r3, #62]	@ movhi
 6416 0036 9BB2     		uxth	r3, r3
 6417              		.loc 1 3074 6
 6418 0038 002B     		cmp	r3, #0
 6419 003a 0FD1     		bne	.L323
3075:Drivers/STM32F4xx_HAL_Driver/Src/stm32f4xx_hal_spi.c ****   {
3076:Drivers/STM32F4xx_HAL_Driver/Src/stm32f4xx_hal_spi.c **** #if (USE_SPI_CRC != 0U)
3077:Drivers/STM32F4xx_HAL_Driver/Src/stm32f4xx_hal_spi.c ****     if (hspi->Init.CRCCalculation == SPI_CRCCALCULATION_ENABLE)
3078:Drivers/STM32F4xx_HAL_Driver/Src/stm32f4xx_hal_spi.c ****     {
3079:Drivers/STM32F4xx_HAL_Driver/Src/stm32f4xx_hal_spi.c ****       hspi->RxISR =  SPI_2linesRxISR_8BITCRC;
3080:Drivers/STM32F4xx_HAL_Driver/Src/stm32f4xx_hal_spi.c ****       return;
3081:Drivers/STM32F4xx_HAL_Driver/Src/stm32f4xx_hal_spi.c ****     }
3082:Drivers/STM32F4xx_HAL_Driver/Src/stm32f4xx_hal_spi.c **** #endif /* USE_SPI_CRC */
3083:Drivers/STM32F4xx_HAL_Driver/Src/stm32f4xx_hal_spi.c **** 
3084:Drivers/STM32F4xx_HAL_Driver/Src/stm32f4xx_hal_spi.c ****     /* Disable RXNE  and ERR interrupt */
3085:Drivers/STM32F4xx_HAL_Driver/Src/stm32f4xx_hal_spi.c ****     __HAL_SPI_DISABLE_IT(hspi, (SPI_IT_RXNE | SPI_IT_ERR));
 6420              		.loc 1 3085 5
 6421 003c 7B68     		ldr	r3, [r7, #4]
 6422 003e 1B68     		ldr	r3, [r3]
 6423 0040 5A68     		ldr	r2, [r3, #4]
ARM GAS  /tmp/cc9N7Buw.s 			page 167


 6424 0042 7B68     		ldr	r3, [r7, #4]
 6425 0044 1B68     		ldr	r3, [r3]
 6426 0046 22F06002 		bic	r2, r2, #96
 6427 004a 5A60     		str	r2, [r3, #4]
3086:Drivers/STM32F4xx_HAL_Driver/Src/stm32f4xx_hal_spi.c **** 
3087:Drivers/STM32F4xx_HAL_Driver/Src/stm32f4xx_hal_spi.c ****     if (hspi->TxXferCount == 0U)
 6428              		.loc 1 3087 13
 6429 004c 7B68     		ldr	r3, [r7, #4]
 6430 004e DB8E     		ldrh	r3, [r3, #54]	@ movhi
 6431 0050 9BB2     		uxth	r3, r3
 6432              		.loc 1 3087 8
 6433 0052 002B     		cmp	r3, #0
 6434 0054 02D1     		bne	.L323
3088:Drivers/STM32F4xx_HAL_Driver/Src/stm32f4xx_hal_spi.c ****     {
3089:Drivers/STM32F4xx_HAL_Driver/Src/stm32f4xx_hal_spi.c ****       SPI_CloseRxTx_ISR(hspi);
 6435              		.loc 1 3089 7
 6436 0056 7868     		ldr	r0, [r7, #4]
 6437 0058 FFF7FEFF 		bl	SPI_CloseRxTx_ISR
 6438              	.L323:
3090:Drivers/STM32F4xx_HAL_Driver/Src/stm32f4xx_hal_spi.c ****     }
3091:Drivers/STM32F4xx_HAL_Driver/Src/stm32f4xx_hal_spi.c ****   }
3092:Drivers/STM32F4xx_HAL_Driver/Src/stm32f4xx_hal_spi.c **** }
 6439              		.loc 1 3092 1
 6440 005c 00BF     		nop
 6441 005e 0837     		adds	r7, r7, #8
 6442              	.LCFI212:
 6443              		.cfi_def_cfa_offset 8
 6444 0060 BD46     		mov	sp, r7
 6445              	.LCFI213:
 6446              		.cfi_def_cfa_register 13
 6447              		@ sp needed
 6448 0062 80BD     		pop	{r7, pc}
 6449              		.cfi_endproc
 6450              	.LFE169:
 6452              		.section	.text.SPI_2linesTxISR_8BIT,"ax",%progbits
 6453              		.align	1
 6454              		.syntax unified
 6455              		.thumb
 6456              		.thumb_func
 6457              		.fpu fpv4-sp-d16
 6459              	SPI_2linesTxISR_8BIT:
 6460              	.LFB170:
3093:Drivers/STM32F4xx_HAL_Driver/Src/stm32f4xx_hal_spi.c **** 
3094:Drivers/STM32F4xx_HAL_Driver/Src/stm32f4xx_hal_spi.c **** #if (USE_SPI_CRC != 0U)
3095:Drivers/STM32F4xx_HAL_Driver/Src/stm32f4xx_hal_spi.c **** /**
3096:Drivers/STM32F4xx_HAL_Driver/Src/stm32f4xx_hal_spi.c ****   * @brief  Rx 8-bit handler for Transmit and Receive in Interrupt mode.
3097:Drivers/STM32F4xx_HAL_Driver/Src/stm32f4xx_hal_spi.c ****   * @param  hspi pointer to a SPI_HandleTypeDef structure that contains
3098:Drivers/STM32F4xx_HAL_Driver/Src/stm32f4xx_hal_spi.c ****   *               the configuration information for SPI module.
3099:Drivers/STM32F4xx_HAL_Driver/Src/stm32f4xx_hal_spi.c ****   * @retval None
3100:Drivers/STM32F4xx_HAL_Driver/Src/stm32f4xx_hal_spi.c ****   */
3101:Drivers/STM32F4xx_HAL_Driver/Src/stm32f4xx_hal_spi.c **** static void SPI_2linesRxISR_8BITCRC(struct __SPI_HandleTypeDef *hspi)
3102:Drivers/STM32F4xx_HAL_Driver/Src/stm32f4xx_hal_spi.c **** {
3103:Drivers/STM32F4xx_HAL_Driver/Src/stm32f4xx_hal_spi.c ****   /* Read 8bit CRC to flush Data Regsiter */
3104:Drivers/STM32F4xx_HAL_Driver/Src/stm32f4xx_hal_spi.c ****   READ_REG(*(__IO uint8_t *)&hspi->Instance->DR);
3105:Drivers/STM32F4xx_HAL_Driver/Src/stm32f4xx_hal_spi.c **** 
3106:Drivers/STM32F4xx_HAL_Driver/Src/stm32f4xx_hal_spi.c ****   /* Disable RXNE and ERR interrupt */
3107:Drivers/STM32F4xx_HAL_Driver/Src/stm32f4xx_hal_spi.c ****   __HAL_SPI_DISABLE_IT(hspi, (SPI_IT_RXNE | SPI_IT_ERR));
ARM GAS  /tmp/cc9N7Buw.s 			page 168


3108:Drivers/STM32F4xx_HAL_Driver/Src/stm32f4xx_hal_spi.c **** 
3109:Drivers/STM32F4xx_HAL_Driver/Src/stm32f4xx_hal_spi.c ****   if (hspi->TxXferCount == 0U)
3110:Drivers/STM32F4xx_HAL_Driver/Src/stm32f4xx_hal_spi.c ****   {
3111:Drivers/STM32F4xx_HAL_Driver/Src/stm32f4xx_hal_spi.c ****     SPI_CloseRxTx_ISR(hspi);
3112:Drivers/STM32F4xx_HAL_Driver/Src/stm32f4xx_hal_spi.c ****   }
3113:Drivers/STM32F4xx_HAL_Driver/Src/stm32f4xx_hal_spi.c **** }
3114:Drivers/STM32F4xx_HAL_Driver/Src/stm32f4xx_hal_spi.c **** #endif /* USE_SPI_CRC */
3115:Drivers/STM32F4xx_HAL_Driver/Src/stm32f4xx_hal_spi.c **** 
3116:Drivers/STM32F4xx_HAL_Driver/Src/stm32f4xx_hal_spi.c **** /**
3117:Drivers/STM32F4xx_HAL_Driver/Src/stm32f4xx_hal_spi.c ****   * @brief  Tx 8-bit handler for Transmit and Receive in Interrupt mode.
3118:Drivers/STM32F4xx_HAL_Driver/Src/stm32f4xx_hal_spi.c ****   * @param  hspi pointer to a SPI_HandleTypeDef structure that contains
3119:Drivers/STM32F4xx_HAL_Driver/Src/stm32f4xx_hal_spi.c ****   *               the configuration information for SPI module.
3120:Drivers/STM32F4xx_HAL_Driver/Src/stm32f4xx_hal_spi.c ****   * @retval None
3121:Drivers/STM32F4xx_HAL_Driver/Src/stm32f4xx_hal_spi.c ****   */
3122:Drivers/STM32F4xx_HAL_Driver/Src/stm32f4xx_hal_spi.c **** static void SPI_2linesTxISR_8BIT(struct __SPI_HandleTypeDef *hspi)
3123:Drivers/STM32F4xx_HAL_Driver/Src/stm32f4xx_hal_spi.c **** {
 6461              		.loc 1 3123 1
 6462              		.cfi_startproc
 6463              		@ args = 0, pretend = 0, frame = 8
 6464              		@ frame_needed = 1, uses_anonymous_args = 0
 6465 0000 80B5     		push	{r7, lr}
 6466              	.LCFI214:
 6467              		.cfi_def_cfa_offset 8
 6468              		.cfi_offset 7, -8
 6469              		.cfi_offset 14, -4
 6470 0002 82B0     		sub	sp, sp, #8
 6471              	.LCFI215:
 6472              		.cfi_def_cfa_offset 16
 6473 0004 00AF     		add	r7, sp, #0
 6474              	.LCFI216:
 6475              		.cfi_def_cfa_register 7
 6476 0006 7860     		str	r0, [r7, #4]
3124:Drivers/STM32F4xx_HAL_Driver/Src/stm32f4xx_hal_spi.c ****   *(__IO uint8_t *)&hspi->Instance->DR = (*hspi->pTxBuffPtr);
 6477              		.loc 1 3124 48
 6478 0008 7B68     		ldr	r3, [r7, #4]
 6479 000a 1A6B     		ldr	r2, [r3, #48]
 6480              		.loc 1 3124 25
 6481 000c 7B68     		ldr	r3, [r7, #4]
 6482 000e 1B68     		ldr	r3, [r3]
 6483              		.loc 1 3124 20
 6484 0010 0C33     		adds	r3, r3, #12
 6485              		.loc 1 3124 43
 6486 0012 1278     		ldrb	r2, [r2]	@ zero_extendqisi2
 6487              		.loc 1 3124 40
 6488 0014 1A70     		strb	r2, [r3]
3125:Drivers/STM32F4xx_HAL_Driver/Src/stm32f4xx_hal_spi.c ****   hspi->pTxBuffPtr++;
 6489              		.loc 1 3125 7
 6490 0016 7B68     		ldr	r3, [r7, #4]
 6491 0018 1B6B     		ldr	r3, [r3, #48]
 6492              		.loc 1 3125 19
 6493 001a 5A1C     		adds	r2, r3, #1
 6494 001c 7B68     		ldr	r3, [r7, #4]
 6495 001e 1A63     		str	r2, [r3, #48]
3126:Drivers/STM32F4xx_HAL_Driver/Src/stm32f4xx_hal_spi.c ****   hspi->TxXferCount--;
 6496              		.loc 1 3126 7
 6497 0020 7B68     		ldr	r3, [r7, #4]
 6498 0022 DB8E     		ldrh	r3, [r3, #54]	@ movhi
ARM GAS  /tmp/cc9N7Buw.s 			page 169


 6499 0024 9BB2     		uxth	r3, r3
 6500              		.loc 1 3126 20
 6501 0026 013B     		subs	r3, r3, #1
 6502 0028 9AB2     		uxth	r2, r3
 6503 002a 7B68     		ldr	r3, [r7, #4]
 6504 002c DA86     		strh	r2, [r3, #54]	@ movhi
3127:Drivers/STM32F4xx_HAL_Driver/Src/stm32f4xx_hal_spi.c **** 
3128:Drivers/STM32F4xx_HAL_Driver/Src/stm32f4xx_hal_spi.c ****   /* Check the end of the transmission */
3129:Drivers/STM32F4xx_HAL_Driver/Src/stm32f4xx_hal_spi.c ****   if (hspi->TxXferCount == 0U)
 6505              		.loc 1 3129 11
 6506 002e 7B68     		ldr	r3, [r7, #4]
 6507 0030 DB8E     		ldrh	r3, [r3, #54]	@ movhi
 6508 0032 9BB2     		uxth	r3, r3
 6509              		.loc 1 3129 6
 6510 0034 002B     		cmp	r3, #0
 6511 0036 0FD1     		bne	.L326
3130:Drivers/STM32F4xx_HAL_Driver/Src/stm32f4xx_hal_spi.c ****   {
3131:Drivers/STM32F4xx_HAL_Driver/Src/stm32f4xx_hal_spi.c **** #if (USE_SPI_CRC != 0U)
3132:Drivers/STM32F4xx_HAL_Driver/Src/stm32f4xx_hal_spi.c ****     if (hspi->Init.CRCCalculation == SPI_CRCCALCULATION_ENABLE)
3133:Drivers/STM32F4xx_HAL_Driver/Src/stm32f4xx_hal_spi.c ****     {
3134:Drivers/STM32F4xx_HAL_Driver/Src/stm32f4xx_hal_spi.c ****       /* Set CRC Next Bit to send CRC */
3135:Drivers/STM32F4xx_HAL_Driver/Src/stm32f4xx_hal_spi.c ****       SET_BIT(hspi->Instance->CR1, SPI_CR1_CRCNEXT);
3136:Drivers/STM32F4xx_HAL_Driver/Src/stm32f4xx_hal_spi.c ****       /* Disable TXE interrupt */
3137:Drivers/STM32F4xx_HAL_Driver/Src/stm32f4xx_hal_spi.c ****       __HAL_SPI_DISABLE_IT(hspi, SPI_IT_TXE);
3138:Drivers/STM32F4xx_HAL_Driver/Src/stm32f4xx_hal_spi.c ****       return;
3139:Drivers/STM32F4xx_HAL_Driver/Src/stm32f4xx_hal_spi.c ****     }
3140:Drivers/STM32F4xx_HAL_Driver/Src/stm32f4xx_hal_spi.c **** #endif /* USE_SPI_CRC */
3141:Drivers/STM32F4xx_HAL_Driver/Src/stm32f4xx_hal_spi.c **** 
3142:Drivers/STM32F4xx_HAL_Driver/Src/stm32f4xx_hal_spi.c ****     /* Disable TXE interrupt */
3143:Drivers/STM32F4xx_HAL_Driver/Src/stm32f4xx_hal_spi.c ****     __HAL_SPI_DISABLE_IT(hspi, SPI_IT_TXE);
 6512              		.loc 1 3143 5
 6513 0038 7B68     		ldr	r3, [r7, #4]
 6514 003a 1B68     		ldr	r3, [r3]
 6515 003c 5A68     		ldr	r2, [r3, #4]
 6516 003e 7B68     		ldr	r3, [r7, #4]
 6517 0040 1B68     		ldr	r3, [r3]
 6518 0042 22F08002 		bic	r2, r2, #128
 6519 0046 5A60     		str	r2, [r3, #4]
3144:Drivers/STM32F4xx_HAL_Driver/Src/stm32f4xx_hal_spi.c **** 
3145:Drivers/STM32F4xx_HAL_Driver/Src/stm32f4xx_hal_spi.c ****     if (hspi->RxXferCount == 0U)
 6520              		.loc 1 3145 13
 6521 0048 7B68     		ldr	r3, [r7, #4]
 6522 004a DB8F     		ldrh	r3, [r3, #62]	@ movhi
 6523 004c 9BB2     		uxth	r3, r3
 6524              		.loc 1 3145 8
 6525 004e 002B     		cmp	r3, #0
 6526 0050 02D1     		bne	.L326
3146:Drivers/STM32F4xx_HAL_Driver/Src/stm32f4xx_hal_spi.c ****     {
3147:Drivers/STM32F4xx_HAL_Driver/Src/stm32f4xx_hal_spi.c ****       SPI_CloseRxTx_ISR(hspi);
 6527              		.loc 1 3147 7
 6528 0052 7868     		ldr	r0, [r7, #4]
 6529 0054 FFF7FEFF 		bl	SPI_CloseRxTx_ISR
 6530              	.L326:
3148:Drivers/STM32F4xx_HAL_Driver/Src/stm32f4xx_hal_spi.c ****     }
3149:Drivers/STM32F4xx_HAL_Driver/Src/stm32f4xx_hal_spi.c ****   }
3150:Drivers/STM32F4xx_HAL_Driver/Src/stm32f4xx_hal_spi.c **** }
 6531              		.loc 1 3150 1
ARM GAS  /tmp/cc9N7Buw.s 			page 170


 6532 0058 00BF     		nop
 6533 005a 0837     		adds	r7, r7, #8
 6534              	.LCFI217:
 6535              		.cfi_def_cfa_offset 8
 6536 005c BD46     		mov	sp, r7
 6537              	.LCFI218:
 6538              		.cfi_def_cfa_register 13
 6539              		@ sp needed
 6540 005e 80BD     		pop	{r7, pc}
 6541              		.cfi_endproc
 6542              	.LFE170:
 6544              		.section	.text.SPI_2linesRxISR_16BIT,"ax",%progbits
 6545              		.align	1
 6546              		.syntax unified
 6547              		.thumb
 6548              		.thumb_func
 6549              		.fpu fpv4-sp-d16
 6551              	SPI_2linesRxISR_16BIT:
 6552              	.LFB171:
3151:Drivers/STM32F4xx_HAL_Driver/Src/stm32f4xx_hal_spi.c **** 
3152:Drivers/STM32F4xx_HAL_Driver/Src/stm32f4xx_hal_spi.c **** /**
3153:Drivers/STM32F4xx_HAL_Driver/Src/stm32f4xx_hal_spi.c ****   * @brief  Rx 16-bit handler for Transmit and Receive in Interrupt mode.
3154:Drivers/STM32F4xx_HAL_Driver/Src/stm32f4xx_hal_spi.c ****   * @param  hspi pointer to a SPI_HandleTypeDef structure that contains
3155:Drivers/STM32F4xx_HAL_Driver/Src/stm32f4xx_hal_spi.c ****   *               the configuration information for SPI module.
3156:Drivers/STM32F4xx_HAL_Driver/Src/stm32f4xx_hal_spi.c ****   * @retval None
3157:Drivers/STM32F4xx_HAL_Driver/Src/stm32f4xx_hal_spi.c ****   */
3158:Drivers/STM32F4xx_HAL_Driver/Src/stm32f4xx_hal_spi.c **** static void SPI_2linesRxISR_16BIT(struct __SPI_HandleTypeDef *hspi)
3159:Drivers/STM32F4xx_HAL_Driver/Src/stm32f4xx_hal_spi.c **** {
 6553              		.loc 1 3159 1
 6554              		.cfi_startproc
 6555              		@ args = 0, pretend = 0, frame = 8
 6556              		@ frame_needed = 1, uses_anonymous_args = 0
 6557 0000 80B5     		push	{r7, lr}
 6558              	.LCFI219:
 6559              		.cfi_def_cfa_offset 8
 6560              		.cfi_offset 7, -8
 6561              		.cfi_offset 14, -4
 6562 0002 82B0     		sub	sp, sp, #8
 6563              	.LCFI220:
 6564              		.cfi_def_cfa_offset 16
 6565 0004 00AF     		add	r7, sp, #0
 6566              	.LCFI221:
 6567              		.cfi_def_cfa_register 7
 6568 0006 7860     		str	r0, [r7, #4]
3160:Drivers/STM32F4xx_HAL_Driver/Src/stm32f4xx_hal_spi.c ****   /* Receive data in 16 Bit mode */
3161:Drivers/STM32F4xx_HAL_Driver/Src/stm32f4xx_hal_spi.c ****   *((uint16_t *)hspi->pRxBuffPtr) = (uint16_t)(hspi->Instance->DR);
 6569              		.loc 1 3161 52
 6570 0008 7B68     		ldr	r3, [r7, #4]
 6571 000a 1B68     		ldr	r3, [r3]
 6572              		.loc 1 3161 62
 6573 000c DA68     		ldr	r2, [r3, #12]
 6574              		.loc 1 3161 21
 6575 000e 7B68     		ldr	r3, [r7, #4]
 6576 0010 9B6B     		ldr	r3, [r3, #56]
 6577              		.loc 1 3161 37
 6578 0012 92B2     		uxth	r2, r2
 6579              		.loc 1 3161 35
ARM GAS  /tmp/cc9N7Buw.s 			page 171


 6580 0014 1A80     		strh	r2, [r3]	@ movhi
3162:Drivers/STM32F4xx_HAL_Driver/Src/stm32f4xx_hal_spi.c ****   hspi->pRxBuffPtr += sizeof(uint16_t);
 6581              		.loc 1 3162 20
 6582 0016 7B68     		ldr	r3, [r7, #4]
 6583 0018 9B6B     		ldr	r3, [r3, #56]
 6584 001a 9A1C     		adds	r2, r3, #2
 6585 001c 7B68     		ldr	r3, [r7, #4]
 6586 001e 9A63     		str	r2, [r3, #56]
3163:Drivers/STM32F4xx_HAL_Driver/Src/stm32f4xx_hal_spi.c ****   hspi->RxXferCount--;
 6587              		.loc 1 3163 7
 6588 0020 7B68     		ldr	r3, [r7, #4]
 6589 0022 DB8F     		ldrh	r3, [r3, #62]	@ movhi
 6590 0024 9BB2     		uxth	r3, r3
 6591              		.loc 1 3163 20
 6592 0026 013B     		subs	r3, r3, #1
 6593 0028 9AB2     		uxth	r2, r3
 6594 002a 7B68     		ldr	r3, [r7, #4]
 6595 002c DA87     		strh	r2, [r3, #62]	@ movhi
3164:Drivers/STM32F4xx_HAL_Driver/Src/stm32f4xx_hal_spi.c **** 
3165:Drivers/STM32F4xx_HAL_Driver/Src/stm32f4xx_hal_spi.c ****   if (hspi->RxXferCount == 0U)
 6596              		.loc 1 3165 11
 6597 002e 7B68     		ldr	r3, [r7, #4]
 6598 0030 DB8F     		ldrh	r3, [r3, #62]	@ movhi
 6599 0032 9BB2     		uxth	r3, r3
 6600              		.loc 1 3165 6
 6601 0034 002B     		cmp	r3, #0
 6602 0036 0FD1     		bne	.L329
3166:Drivers/STM32F4xx_HAL_Driver/Src/stm32f4xx_hal_spi.c ****   {
3167:Drivers/STM32F4xx_HAL_Driver/Src/stm32f4xx_hal_spi.c **** #if (USE_SPI_CRC != 0U)
3168:Drivers/STM32F4xx_HAL_Driver/Src/stm32f4xx_hal_spi.c ****     if (hspi->Init.CRCCalculation == SPI_CRCCALCULATION_ENABLE)
3169:Drivers/STM32F4xx_HAL_Driver/Src/stm32f4xx_hal_spi.c ****     {
3170:Drivers/STM32F4xx_HAL_Driver/Src/stm32f4xx_hal_spi.c ****       hspi->RxISR =  SPI_2linesRxISR_16BITCRC;
3171:Drivers/STM32F4xx_HAL_Driver/Src/stm32f4xx_hal_spi.c ****       return;
3172:Drivers/STM32F4xx_HAL_Driver/Src/stm32f4xx_hal_spi.c ****     }
3173:Drivers/STM32F4xx_HAL_Driver/Src/stm32f4xx_hal_spi.c **** #endif /* USE_SPI_CRC */
3174:Drivers/STM32F4xx_HAL_Driver/Src/stm32f4xx_hal_spi.c **** 
3175:Drivers/STM32F4xx_HAL_Driver/Src/stm32f4xx_hal_spi.c ****     /* Disable RXNE interrupt */
3176:Drivers/STM32F4xx_HAL_Driver/Src/stm32f4xx_hal_spi.c ****     __HAL_SPI_DISABLE_IT(hspi, SPI_IT_RXNE);
 6603              		.loc 1 3176 5
 6604 0038 7B68     		ldr	r3, [r7, #4]
 6605 003a 1B68     		ldr	r3, [r3]
 6606 003c 5A68     		ldr	r2, [r3, #4]
 6607 003e 7B68     		ldr	r3, [r7, #4]
 6608 0040 1B68     		ldr	r3, [r3]
 6609 0042 22F04002 		bic	r2, r2, #64
 6610 0046 5A60     		str	r2, [r3, #4]
3177:Drivers/STM32F4xx_HAL_Driver/Src/stm32f4xx_hal_spi.c **** 
3178:Drivers/STM32F4xx_HAL_Driver/Src/stm32f4xx_hal_spi.c ****     if (hspi->TxXferCount == 0U)
 6611              		.loc 1 3178 13
 6612 0048 7B68     		ldr	r3, [r7, #4]
 6613 004a DB8E     		ldrh	r3, [r3, #54]	@ movhi
 6614 004c 9BB2     		uxth	r3, r3
 6615              		.loc 1 3178 8
 6616 004e 002B     		cmp	r3, #0
 6617 0050 02D1     		bne	.L329
3179:Drivers/STM32F4xx_HAL_Driver/Src/stm32f4xx_hal_spi.c ****     {
3180:Drivers/STM32F4xx_HAL_Driver/Src/stm32f4xx_hal_spi.c ****       SPI_CloseRxTx_ISR(hspi);
ARM GAS  /tmp/cc9N7Buw.s 			page 172


 6618              		.loc 1 3180 7
 6619 0052 7868     		ldr	r0, [r7, #4]
 6620 0054 FFF7FEFF 		bl	SPI_CloseRxTx_ISR
 6621              	.L329:
3181:Drivers/STM32F4xx_HAL_Driver/Src/stm32f4xx_hal_spi.c ****     }
3182:Drivers/STM32F4xx_HAL_Driver/Src/stm32f4xx_hal_spi.c ****   }
3183:Drivers/STM32F4xx_HAL_Driver/Src/stm32f4xx_hal_spi.c **** }
 6622              		.loc 1 3183 1
 6623 0058 00BF     		nop
 6624 005a 0837     		adds	r7, r7, #8
 6625              	.LCFI222:
 6626              		.cfi_def_cfa_offset 8
 6627 005c BD46     		mov	sp, r7
 6628              	.LCFI223:
 6629              		.cfi_def_cfa_register 13
 6630              		@ sp needed
 6631 005e 80BD     		pop	{r7, pc}
 6632              		.cfi_endproc
 6633              	.LFE171:
 6635              		.section	.text.SPI_2linesTxISR_16BIT,"ax",%progbits
 6636              		.align	1
 6637              		.syntax unified
 6638              		.thumb
 6639              		.thumb_func
 6640              		.fpu fpv4-sp-d16
 6642              	SPI_2linesTxISR_16BIT:
 6643              	.LFB172:
3184:Drivers/STM32F4xx_HAL_Driver/Src/stm32f4xx_hal_spi.c **** 
3185:Drivers/STM32F4xx_HAL_Driver/Src/stm32f4xx_hal_spi.c **** #if (USE_SPI_CRC != 0U)
3186:Drivers/STM32F4xx_HAL_Driver/Src/stm32f4xx_hal_spi.c **** /**
3187:Drivers/STM32F4xx_HAL_Driver/Src/stm32f4xx_hal_spi.c ****   * @brief  Manage the CRC 16-bit receive for Transmit and Receive in Interrupt mode.
3188:Drivers/STM32F4xx_HAL_Driver/Src/stm32f4xx_hal_spi.c ****   * @param  hspi pointer to a SPI_HandleTypeDef structure that contains
3189:Drivers/STM32F4xx_HAL_Driver/Src/stm32f4xx_hal_spi.c ****   *               the configuration information for SPI module.
3190:Drivers/STM32F4xx_HAL_Driver/Src/stm32f4xx_hal_spi.c ****   * @retval None
3191:Drivers/STM32F4xx_HAL_Driver/Src/stm32f4xx_hal_spi.c ****   */
3192:Drivers/STM32F4xx_HAL_Driver/Src/stm32f4xx_hal_spi.c **** static void SPI_2linesRxISR_16BITCRC(struct __SPI_HandleTypeDef *hspi)
3193:Drivers/STM32F4xx_HAL_Driver/Src/stm32f4xx_hal_spi.c **** {
3194:Drivers/STM32F4xx_HAL_Driver/Src/stm32f4xx_hal_spi.c ****   /* Read 16bit CRC to flush Data Regsiter */
3195:Drivers/STM32F4xx_HAL_Driver/Src/stm32f4xx_hal_spi.c ****   READ_REG(hspi->Instance->DR);
3196:Drivers/STM32F4xx_HAL_Driver/Src/stm32f4xx_hal_spi.c **** 
3197:Drivers/STM32F4xx_HAL_Driver/Src/stm32f4xx_hal_spi.c ****   /* Disable RXNE interrupt */
3198:Drivers/STM32F4xx_HAL_Driver/Src/stm32f4xx_hal_spi.c ****   __HAL_SPI_DISABLE_IT(hspi, SPI_IT_RXNE);
3199:Drivers/STM32F4xx_HAL_Driver/Src/stm32f4xx_hal_spi.c **** 
3200:Drivers/STM32F4xx_HAL_Driver/Src/stm32f4xx_hal_spi.c ****   SPI_CloseRxTx_ISR(hspi);
3201:Drivers/STM32F4xx_HAL_Driver/Src/stm32f4xx_hal_spi.c **** }
3202:Drivers/STM32F4xx_HAL_Driver/Src/stm32f4xx_hal_spi.c **** #endif /* USE_SPI_CRC */
3203:Drivers/STM32F4xx_HAL_Driver/Src/stm32f4xx_hal_spi.c **** 
3204:Drivers/STM32F4xx_HAL_Driver/Src/stm32f4xx_hal_spi.c **** /**
3205:Drivers/STM32F4xx_HAL_Driver/Src/stm32f4xx_hal_spi.c ****   * @brief  Tx 16-bit handler for Transmit and Receive in Interrupt mode.
3206:Drivers/STM32F4xx_HAL_Driver/Src/stm32f4xx_hal_spi.c ****   * @param  hspi pointer to a SPI_HandleTypeDef structure that contains
3207:Drivers/STM32F4xx_HAL_Driver/Src/stm32f4xx_hal_spi.c ****   *               the configuration information for SPI module.
3208:Drivers/STM32F4xx_HAL_Driver/Src/stm32f4xx_hal_spi.c ****   * @retval None
3209:Drivers/STM32F4xx_HAL_Driver/Src/stm32f4xx_hal_spi.c ****   */
3210:Drivers/STM32F4xx_HAL_Driver/Src/stm32f4xx_hal_spi.c **** static void SPI_2linesTxISR_16BIT(struct __SPI_HandleTypeDef *hspi)
3211:Drivers/STM32F4xx_HAL_Driver/Src/stm32f4xx_hal_spi.c **** {
 6644              		.loc 1 3211 1
 6645              		.cfi_startproc
ARM GAS  /tmp/cc9N7Buw.s 			page 173


 6646              		@ args = 0, pretend = 0, frame = 8
 6647              		@ frame_needed = 1, uses_anonymous_args = 0
 6648 0000 80B5     		push	{r7, lr}
 6649              	.LCFI224:
 6650              		.cfi_def_cfa_offset 8
 6651              		.cfi_offset 7, -8
 6652              		.cfi_offset 14, -4
 6653 0002 82B0     		sub	sp, sp, #8
 6654              	.LCFI225:
 6655              		.cfi_def_cfa_offset 16
 6656 0004 00AF     		add	r7, sp, #0
 6657              	.LCFI226:
 6658              		.cfi_def_cfa_register 7
 6659 0006 7860     		str	r0, [r7, #4]
3212:Drivers/STM32F4xx_HAL_Driver/Src/stm32f4xx_hal_spi.c ****   /* Transmit data in 16 Bit mode */
3213:Drivers/STM32F4xx_HAL_Driver/Src/stm32f4xx_hal_spi.c ****   hspi->Instance->DR = *((uint16_t *)hspi->pTxBuffPtr);
 6660              		.loc 1 3213 42
 6661 0008 7B68     		ldr	r3, [r7, #4]
 6662 000a 1B6B     		ldr	r3, [r3, #48]
 6663              		.loc 1 3213 24
 6664 000c 1A88     		ldrh	r2, [r3]
 6665              		.loc 1 3213 7
 6666 000e 7B68     		ldr	r3, [r7, #4]
 6667 0010 1B68     		ldr	r3, [r3]
 6668              		.loc 1 3213 22
 6669 0012 DA60     		str	r2, [r3, #12]
3214:Drivers/STM32F4xx_HAL_Driver/Src/stm32f4xx_hal_spi.c ****   hspi->pTxBuffPtr += sizeof(uint16_t);
 6670              		.loc 1 3214 20
 6671 0014 7B68     		ldr	r3, [r7, #4]
 6672 0016 1B6B     		ldr	r3, [r3, #48]
 6673 0018 9A1C     		adds	r2, r3, #2
 6674 001a 7B68     		ldr	r3, [r7, #4]
 6675 001c 1A63     		str	r2, [r3, #48]
3215:Drivers/STM32F4xx_HAL_Driver/Src/stm32f4xx_hal_spi.c ****   hspi->TxXferCount--;
 6676              		.loc 1 3215 7
 6677 001e 7B68     		ldr	r3, [r7, #4]
 6678 0020 DB8E     		ldrh	r3, [r3, #54]	@ movhi
 6679 0022 9BB2     		uxth	r3, r3
 6680              		.loc 1 3215 20
 6681 0024 013B     		subs	r3, r3, #1
 6682 0026 9AB2     		uxth	r2, r3
 6683 0028 7B68     		ldr	r3, [r7, #4]
 6684 002a DA86     		strh	r2, [r3, #54]	@ movhi
3216:Drivers/STM32F4xx_HAL_Driver/Src/stm32f4xx_hal_spi.c **** 
3217:Drivers/STM32F4xx_HAL_Driver/Src/stm32f4xx_hal_spi.c ****   /* Enable CRC Transmission */
3218:Drivers/STM32F4xx_HAL_Driver/Src/stm32f4xx_hal_spi.c ****   if (hspi->TxXferCount == 0U)
 6685              		.loc 1 3218 11
 6686 002c 7B68     		ldr	r3, [r7, #4]
 6687 002e DB8E     		ldrh	r3, [r3, #54]	@ movhi
 6688 0030 9BB2     		uxth	r3, r3
 6689              		.loc 1 3218 6
 6690 0032 002B     		cmp	r3, #0
 6691 0034 0FD1     		bne	.L332
3219:Drivers/STM32F4xx_HAL_Driver/Src/stm32f4xx_hal_spi.c ****   {
3220:Drivers/STM32F4xx_HAL_Driver/Src/stm32f4xx_hal_spi.c **** #if (USE_SPI_CRC != 0U)
3221:Drivers/STM32F4xx_HAL_Driver/Src/stm32f4xx_hal_spi.c ****     if (hspi->Init.CRCCalculation == SPI_CRCCALCULATION_ENABLE)
3222:Drivers/STM32F4xx_HAL_Driver/Src/stm32f4xx_hal_spi.c ****     {
ARM GAS  /tmp/cc9N7Buw.s 			page 174


3223:Drivers/STM32F4xx_HAL_Driver/Src/stm32f4xx_hal_spi.c ****       /* Set CRC Next Bit to send CRC */
3224:Drivers/STM32F4xx_HAL_Driver/Src/stm32f4xx_hal_spi.c ****       SET_BIT(hspi->Instance->CR1, SPI_CR1_CRCNEXT);
3225:Drivers/STM32F4xx_HAL_Driver/Src/stm32f4xx_hal_spi.c ****       /* Disable TXE interrupt */
3226:Drivers/STM32F4xx_HAL_Driver/Src/stm32f4xx_hal_spi.c ****       __HAL_SPI_DISABLE_IT(hspi, SPI_IT_TXE);
3227:Drivers/STM32F4xx_HAL_Driver/Src/stm32f4xx_hal_spi.c ****       return;
3228:Drivers/STM32F4xx_HAL_Driver/Src/stm32f4xx_hal_spi.c ****     }
3229:Drivers/STM32F4xx_HAL_Driver/Src/stm32f4xx_hal_spi.c **** #endif /* USE_SPI_CRC */
3230:Drivers/STM32F4xx_HAL_Driver/Src/stm32f4xx_hal_spi.c **** 
3231:Drivers/STM32F4xx_HAL_Driver/Src/stm32f4xx_hal_spi.c ****     /* Disable TXE interrupt */
3232:Drivers/STM32F4xx_HAL_Driver/Src/stm32f4xx_hal_spi.c ****     __HAL_SPI_DISABLE_IT(hspi, SPI_IT_TXE);
 6692              		.loc 1 3232 5
 6693 0036 7B68     		ldr	r3, [r7, #4]
 6694 0038 1B68     		ldr	r3, [r3]
 6695 003a 5A68     		ldr	r2, [r3, #4]
 6696 003c 7B68     		ldr	r3, [r7, #4]
 6697 003e 1B68     		ldr	r3, [r3]
 6698 0040 22F08002 		bic	r2, r2, #128
 6699 0044 5A60     		str	r2, [r3, #4]
3233:Drivers/STM32F4xx_HAL_Driver/Src/stm32f4xx_hal_spi.c **** 
3234:Drivers/STM32F4xx_HAL_Driver/Src/stm32f4xx_hal_spi.c ****     if (hspi->RxXferCount == 0U)
 6700              		.loc 1 3234 13
 6701 0046 7B68     		ldr	r3, [r7, #4]
 6702 0048 DB8F     		ldrh	r3, [r3, #62]	@ movhi
 6703 004a 9BB2     		uxth	r3, r3
 6704              		.loc 1 3234 8
 6705 004c 002B     		cmp	r3, #0
 6706 004e 02D1     		bne	.L332
3235:Drivers/STM32F4xx_HAL_Driver/Src/stm32f4xx_hal_spi.c ****     {
3236:Drivers/STM32F4xx_HAL_Driver/Src/stm32f4xx_hal_spi.c ****       SPI_CloseRxTx_ISR(hspi);
 6707              		.loc 1 3236 7
 6708 0050 7868     		ldr	r0, [r7, #4]
 6709 0052 FFF7FEFF 		bl	SPI_CloseRxTx_ISR
 6710              	.L332:
3237:Drivers/STM32F4xx_HAL_Driver/Src/stm32f4xx_hal_spi.c ****     }
3238:Drivers/STM32F4xx_HAL_Driver/Src/stm32f4xx_hal_spi.c ****   }
3239:Drivers/STM32F4xx_HAL_Driver/Src/stm32f4xx_hal_spi.c **** }
 6711              		.loc 1 3239 1
 6712 0056 00BF     		nop
 6713 0058 0837     		adds	r7, r7, #8
 6714              	.LCFI227:
 6715              		.cfi_def_cfa_offset 8
 6716 005a BD46     		mov	sp, r7
 6717              	.LCFI228:
 6718              		.cfi_def_cfa_register 13
 6719              		@ sp needed
 6720 005c 80BD     		pop	{r7, pc}
 6721              		.cfi_endproc
 6722              	.LFE172:
 6724              		.section	.text.SPI_RxISR_8BIT,"ax",%progbits
 6725              		.align	1
 6726              		.syntax unified
 6727              		.thumb
 6728              		.thumb_func
 6729              		.fpu fpv4-sp-d16
 6731              	SPI_RxISR_8BIT:
 6732              	.LFB173:
3240:Drivers/STM32F4xx_HAL_Driver/Src/stm32f4xx_hal_spi.c **** 
ARM GAS  /tmp/cc9N7Buw.s 			page 175


3241:Drivers/STM32F4xx_HAL_Driver/Src/stm32f4xx_hal_spi.c **** #if (USE_SPI_CRC != 0U)
3242:Drivers/STM32F4xx_HAL_Driver/Src/stm32f4xx_hal_spi.c **** /**
3243:Drivers/STM32F4xx_HAL_Driver/Src/stm32f4xx_hal_spi.c ****   * @brief  Manage the CRC 8-bit receive in Interrupt context.
3244:Drivers/STM32F4xx_HAL_Driver/Src/stm32f4xx_hal_spi.c ****   * @param  hspi pointer to a SPI_HandleTypeDef structure that contains
3245:Drivers/STM32F4xx_HAL_Driver/Src/stm32f4xx_hal_spi.c ****   *               the configuration information for SPI module.
3246:Drivers/STM32F4xx_HAL_Driver/Src/stm32f4xx_hal_spi.c ****   * @retval None
3247:Drivers/STM32F4xx_HAL_Driver/Src/stm32f4xx_hal_spi.c ****   */
3248:Drivers/STM32F4xx_HAL_Driver/Src/stm32f4xx_hal_spi.c **** static void SPI_RxISR_8BITCRC(struct __SPI_HandleTypeDef *hspi)
3249:Drivers/STM32F4xx_HAL_Driver/Src/stm32f4xx_hal_spi.c **** {
3250:Drivers/STM32F4xx_HAL_Driver/Src/stm32f4xx_hal_spi.c ****   /* Read 8bit CRC to flush Data Register */
3251:Drivers/STM32F4xx_HAL_Driver/Src/stm32f4xx_hal_spi.c ****   READ_REG(*(__IO uint8_t *)&hspi->Instance->DR);
3252:Drivers/STM32F4xx_HAL_Driver/Src/stm32f4xx_hal_spi.c **** 
3253:Drivers/STM32F4xx_HAL_Driver/Src/stm32f4xx_hal_spi.c ****   SPI_CloseRx_ISR(hspi);
3254:Drivers/STM32F4xx_HAL_Driver/Src/stm32f4xx_hal_spi.c **** }
3255:Drivers/STM32F4xx_HAL_Driver/Src/stm32f4xx_hal_spi.c **** #endif /* USE_SPI_CRC */
3256:Drivers/STM32F4xx_HAL_Driver/Src/stm32f4xx_hal_spi.c **** 
3257:Drivers/STM32F4xx_HAL_Driver/Src/stm32f4xx_hal_spi.c **** /**
3258:Drivers/STM32F4xx_HAL_Driver/Src/stm32f4xx_hal_spi.c ****   * @brief  Manage the receive 8-bit in Interrupt context.
3259:Drivers/STM32F4xx_HAL_Driver/Src/stm32f4xx_hal_spi.c ****   * @param  hspi pointer to a SPI_HandleTypeDef structure that contains
3260:Drivers/STM32F4xx_HAL_Driver/Src/stm32f4xx_hal_spi.c ****   *               the configuration information for SPI module.
3261:Drivers/STM32F4xx_HAL_Driver/Src/stm32f4xx_hal_spi.c ****   * @retval None
3262:Drivers/STM32F4xx_HAL_Driver/Src/stm32f4xx_hal_spi.c ****   */
3263:Drivers/STM32F4xx_HAL_Driver/Src/stm32f4xx_hal_spi.c **** static void SPI_RxISR_8BIT(struct __SPI_HandleTypeDef *hspi)
3264:Drivers/STM32F4xx_HAL_Driver/Src/stm32f4xx_hal_spi.c **** {
 6733              		.loc 1 3264 1
 6734              		.cfi_startproc
 6735              		@ args = 0, pretend = 0, frame = 8
 6736              		@ frame_needed = 1, uses_anonymous_args = 0
 6737 0000 80B5     		push	{r7, lr}
 6738              	.LCFI229:
 6739              		.cfi_def_cfa_offset 8
 6740              		.cfi_offset 7, -8
 6741              		.cfi_offset 14, -4
 6742 0002 82B0     		sub	sp, sp, #8
 6743              	.LCFI230:
 6744              		.cfi_def_cfa_offset 16
 6745 0004 00AF     		add	r7, sp, #0
 6746              	.LCFI231:
 6747              		.cfi_def_cfa_register 7
 6748 0006 7860     		str	r0, [r7, #4]
3265:Drivers/STM32F4xx_HAL_Driver/Src/stm32f4xx_hal_spi.c ****   *hspi->pRxBuffPtr = (*(__IO uint8_t *)&hspi->Instance->DR);
 6749              		.loc 1 3265 46
 6750 0008 7B68     		ldr	r3, [r7, #4]
 6751 000a 1B68     		ldr	r3, [r3]
 6752              		.loc 1 3265 41
 6753 000c 03F10C02 		add	r2, r3, #12
 6754              		.loc 1 3265 8
 6755 0010 7B68     		ldr	r3, [r7, #4]
 6756 0012 9B6B     		ldr	r3, [r3, #56]
 6757              		.loc 1 3265 24
 6758 0014 1278     		ldrb	r2, [r2]
 6759 0016 D2B2     		uxtb	r2, r2
 6760              		.loc 1 3265 21
 6761 0018 1A70     		strb	r2, [r3]
3266:Drivers/STM32F4xx_HAL_Driver/Src/stm32f4xx_hal_spi.c ****   hspi->pRxBuffPtr++;
 6762              		.loc 1 3266 7
 6763 001a 7B68     		ldr	r3, [r7, #4]
ARM GAS  /tmp/cc9N7Buw.s 			page 176


 6764 001c 9B6B     		ldr	r3, [r3, #56]
 6765              		.loc 1 3266 19
 6766 001e 5A1C     		adds	r2, r3, #1
 6767 0020 7B68     		ldr	r3, [r7, #4]
 6768 0022 9A63     		str	r2, [r3, #56]
3267:Drivers/STM32F4xx_HAL_Driver/Src/stm32f4xx_hal_spi.c ****   hspi->RxXferCount--;
 6769              		.loc 1 3267 7
 6770 0024 7B68     		ldr	r3, [r7, #4]
 6771 0026 DB8F     		ldrh	r3, [r3, #62]	@ movhi
 6772 0028 9BB2     		uxth	r3, r3
 6773              		.loc 1 3267 20
 6774 002a 013B     		subs	r3, r3, #1
 6775 002c 9AB2     		uxth	r2, r3
 6776 002e 7B68     		ldr	r3, [r7, #4]
 6777 0030 DA87     		strh	r2, [r3, #62]	@ movhi
3268:Drivers/STM32F4xx_HAL_Driver/Src/stm32f4xx_hal_spi.c **** 
3269:Drivers/STM32F4xx_HAL_Driver/Src/stm32f4xx_hal_spi.c **** #if (USE_SPI_CRC != 0U)
3270:Drivers/STM32F4xx_HAL_Driver/Src/stm32f4xx_hal_spi.c ****   /* Enable CRC Transmission */
3271:Drivers/STM32F4xx_HAL_Driver/Src/stm32f4xx_hal_spi.c ****   if ((hspi->RxXferCount == 1U) && (hspi->Init.CRCCalculation == SPI_CRCCALCULATION_ENABLE))
3272:Drivers/STM32F4xx_HAL_Driver/Src/stm32f4xx_hal_spi.c ****   {
3273:Drivers/STM32F4xx_HAL_Driver/Src/stm32f4xx_hal_spi.c ****     SET_BIT(hspi->Instance->CR1, SPI_CR1_CRCNEXT);
3274:Drivers/STM32F4xx_HAL_Driver/Src/stm32f4xx_hal_spi.c ****   }
3275:Drivers/STM32F4xx_HAL_Driver/Src/stm32f4xx_hal_spi.c **** #endif /* USE_SPI_CRC */
3276:Drivers/STM32F4xx_HAL_Driver/Src/stm32f4xx_hal_spi.c **** 
3277:Drivers/STM32F4xx_HAL_Driver/Src/stm32f4xx_hal_spi.c ****   if (hspi->RxXferCount == 0U)
 6778              		.loc 1 3277 11
 6779 0032 7B68     		ldr	r3, [r7, #4]
 6780 0034 DB8F     		ldrh	r3, [r3, #62]	@ movhi
 6781 0036 9BB2     		uxth	r3, r3
 6782              		.loc 1 3277 6
 6783 0038 002B     		cmp	r3, #0
 6784 003a 02D1     		bne	.L335
3278:Drivers/STM32F4xx_HAL_Driver/Src/stm32f4xx_hal_spi.c ****   {
3279:Drivers/STM32F4xx_HAL_Driver/Src/stm32f4xx_hal_spi.c **** #if (USE_SPI_CRC != 0U)
3280:Drivers/STM32F4xx_HAL_Driver/Src/stm32f4xx_hal_spi.c ****     if (hspi->Init.CRCCalculation == SPI_CRCCALCULATION_ENABLE)
3281:Drivers/STM32F4xx_HAL_Driver/Src/stm32f4xx_hal_spi.c ****     {
3282:Drivers/STM32F4xx_HAL_Driver/Src/stm32f4xx_hal_spi.c ****       hspi->RxISR =  SPI_RxISR_8BITCRC;
3283:Drivers/STM32F4xx_HAL_Driver/Src/stm32f4xx_hal_spi.c ****       return;
3284:Drivers/STM32F4xx_HAL_Driver/Src/stm32f4xx_hal_spi.c ****     }
3285:Drivers/STM32F4xx_HAL_Driver/Src/stm32f4xx_hal_spi.c **** #endif /* USE_SPI_CRC */
3286:Drivers/STM32F4xx_HAL_Driver/Src/stm32f4xx_hal_spi.c ****     SPI_CloseRx_ISR(hspi);
 6785              		.loc 1 3286 5
 6786 003c 7868     		ldr	r0, [r7, #4]
 6787 003e FFF7FEFF 		bl	SPI_CloseRx_ISR
 6788              	.L335:
3287:Drivers/STM32F4xx_HAL_Driver/Src/stm32f4xx_hal_spi.c ****   }
3288:Drivers/STM32F4xx_HAL_Driver/Src/stm32f4xx_hal_spi.c **** }
 6789              		.loc 1 3288 1
 6790 0042 00BF     		nop
 6791 0044 0837     		adds	r7, r7, #8
 6792              	.LCFI232:
 6793              		.cfi_def_cfa_offset 8
 6794 0046 BD46     		mov	sp, r7
 6795              	.LCFI233:
 6796              		.cfi_def_cfa_register 13
 6797              		@ sp needed
 6798 0048 80BD     		pop	{r7, pc}
ARM GAS  /tmp/cc9N7Buw.s 			page 177


 6799              		.cfi_endproc
 6800              	.LFE173:
 6802              		.section	.text.SPI_RxISR_16BIT,"ax",%progbits
 6803              		.align	1
 6804              		.syntax unified
 6805              		.thumb
 6806              		.thumb_func
 6807              		.fpu fpv4-sp-d16
 6809              	SPI_RxISR_16BIT:
 6810              	.LFB174:
3289:Drivers/STM32F4xx_HAL_Driver/Src/stm32f4xx_hal_spi.c **** 
3290:Drivers/STM32F4xx_HAL_Driver/Src/stm32f4xx_hal_spi.c **** #if (USE_SPI_CRC != 0U)
3291:Drivers/STM32F4xx_HAL_Driver/Src/stm32f4xx_hal_spi.c **** /**
3292:Drivers/STM32F4xx_HAL_Driver/Src/stm32f4xx_hal_spi.c ****   * @brief  Manage the CRC 16-bit receive in Interrupt context.
3293:Drivers/STM32F4xx_HAL_Driver/Src/stm32f4xx_hal_spi.c ****   * @param  hspi pointer to a SPI_HandleTypeDef structure that contains
3294:Drivers/STM32F4xx_HAL_Driver/Src/stm32f4xx_hal_spi.c ****   *               the configuration information for SPI module.
3295:Drivers/STM32F4xx_HAL_Driver/Src/stm32f4xx_hal_spi.c ****   * @retval None
3296:Drivers/STM32F4xx_HAL_Driver/Src/stm32f4xx_hal_spi.c ****   */
3297:Drivers/STM32F4xx_HAL_Driver/Src/stm32f4xx_hal_spi.c **** static void SPI_RxISR_16BITCRC(struct __SPI_HandleTypeDef *hspi)
3298:Drivers/STM32F4xx_HAL_Driver/Src/stm32f4xx_hal_spi.c **** {
3299:Drivers/STM32F4xx_HAL_Driver/Src/stm32f4xx_hal_spi.c ****   /* Read 16bit CRC to flush Data Register */
3300:Drivers/STM32F4xx_HAL_Driver/Src/stm32f4xx_hal_spi.c ****   READ_REG(hspi->Instance->DR);
3301:Drivers/STM32F4xx_HAL_Driver/Src/stm32f4xx_hal_spi.c **** 
3302:Drivers/STM32F4xx_HAL_Driver/Src/stm32f4xx_hal_spi.c ****   /* Disable RXNE and ERR interrupt */
3303:Drivers/STM32F4xx_HAL_Driver/Src/stm32f4xx_hal_spi.c ****   __HAL_SPI_DISABLE_IT(hspi, (SPI_IT_RXNE | SPI_IT_ERR));
3304:Drivers/STM32F4xx_HAL_Driver/Src/stm32f4xx_hal_spi.c **** 
3305:Drivers/STM32F4xx_HAL_Driver/Src/stm32f4xx_hal_spi.c ****   SPI_CloseRx_ISR(hspi);
3306:Drivers/STM32F4xx_HAL_Driver/Src/stm32f4xx_hal_spi.c **** }
3307:Drivers/STM32F4xx_HAL_Driver/Src/stm32f4xx_hal_spi.c **** #endif /* USE_SPI_CRC */
3308:Drivers/STM32F4xx_HAL_Driver/Src/stm32f4xx_hal_spi.c **** 
3309:Drivers/STM32F4xx_HAL_Driver/Src/stm32f4xx_hal_spi.c **** /**
3310:Drivers/STM32F4xx_HAL_Driver/Src/stm32f4xx_hal_spi.c ****   * @brief  Manage the 16-bit receive in Interrupt context.
3311:Drivers/STM32F4xx_HAL_Driver/Src/stm32f4xx_hal_spi.c ****   * @param  hspi pointer to a SPI_HandleTypeDef structure that contains
3312:Drivers/STM32F4xx_HAL_Driver/Src/stm32f4xx_hal_spi.c ****   *               the configuration information for SPI module.
3313:Drivers/STM32F4xx_HAL_Driver/Src/stm32f4xx_hal_spi.c ****   * @retval None
3314:Drivers/STM32F4xx_HAL_Driver/Src/stm32f4xx_hal_spi.c ****   */
3315:Drivers/STM32F4xx_HAL_Driver/Src/stm32f4xx_hal_spi.c **** static void SPI_RxISR_16BIT(struct __SPI_HandleTypeDef *hspi)
3316:Drivers/STM32F4xx_HAL_Driver/Src/stm32f4xx_hal_spi.c **** {
 6811              		.loc 1 3316 1
 6812              		.cfi_startproc
 6813              		@ args = 0, pretend = 0, frame = 8
 6814              		@ frame_needed = 1, uses_anonymous_args = 0
 6815 0000 80B5     		push	{r7, lr}
 6816              	.LCFI234:
 6817              		.cfi_def_cfa_offset 8
 6818              		.cfi_offset 7, -8
 6819              		.cfi_offset 14, -4
 6820 0002 82B0     		sub	sp, sp, #8
 6821              	.LCFI235:
 6822              		.cfi_def_cfa_offset 16
 6823 0004 00AF     		add	r7, sp, #0
 6824              	.LCFI236:
 6825              		.cfi_def_cfa_register 7
 6826 0006 7860     		str	r0, [r7, #4]
3317:Drivers/STM32F4xx_HAL_Driver/Src/stm32f4xx_hal_spi.c ****   *((uint16_t *)hspi->pRxBuffPtr) = (uint16_t)(hspi->Instance->DR);
 6827              		.loc 1 3317 52
 6828 0008 7B68     		ldr	r3, [r7, #4]
ARM GAS  /tmp/cc9N7Buw.s 			page 178


 6829 000a 1B68     		ldr	r3, [r3]
 6830              		.loc 1 3317 62
 6831 000c DA68     		ldr	r2, [r3, #12]
 6832              		.loc 1 3317 21
 6833 000e 7B68     		ldr	r3, [r7, #4]
 6834 0010 9B6B     		ldr	r3, [r3, #56]
 6835              		.loc 1 3317 37
 6836 0012 92B2     		uxth	r2, r2
 6837              		.loc 1 3317 35
 6838 0014 1A80     		strh	r2, [r3]	@ movhi
3318:Drivers/STM32F4xx_HAL_Driver/Src/stm32f4xx_hal_spi.c ****   hspi->pRxBuffPtr += sizeof(uint16_t);
 6839              		.loc 1 3318 20
 6840 0016 7B68     		ldr	r3, [r7, #4]
 6841 0018 9B6B     		ldr	r3, [r3, #56]
 6842 001a 9A1C     		adds	r2, r3, #2
 6843 001c 7B68     		ldr	r3, [r7, #4]
 6844 001e 9A63     		str	r2, [r3, #56]
3319:Drivers/STM32F4xx_HAL_Driver/Src/stm32f4xx_hal_spi.c ****   hspi->RxXferCount--;
 6845              		.loc 1 3319 7
 6846 0020 7B68     		ldr	r3, [r7, #4]
 6847 0022 DB8F     		ldrh	r3, [r3, #62]	@ movhi
 6848 0024 9BB2     		uxth	r3, r3
 6849              		.loc 1 3319 20
 6850 0026 013B     		subs	r3, r3, #1
 6851 0028 9AB2     		uxth	r2, r3
 6852 002a 7B68     		ldr	r3, [r7, #4]
 6853 002c DA87     		strh	r2, [r3, #62]	@ movhi
3320:Drivers/STM32F4xx_HAL_Driver/Src/stm32f4xx_hal_spi.c **** 
3321:Drivers/STM32F4xx_HAL_Driver/Src/stm32f4xx_hal_spi.c **** #if (USE_SPI_CRC != 0U)
3322:Drivers/STM32F4xx_HAL_Driver/Src/stm32f4xx_hal_spi.c ****   /* Enable CRC Transmission */
3323:Drivers/STM32F4xx_HAL_Driver/Src/stm32f4xx_hal_spi.c ****   if ((hspi->RxXferCount == 1U) && (hspi->Init.CRCCalculation == SPI_CRCCALCULATION_ENABLE))
3324:Drivers/STM32F4xx_HAL_Driver/Src/stm32f4xx_hal_spi.c ****   {
3325:Drivers/STM32F4xx_HAL_Driver/Src/stm32f4xx_hal_spi.c ****     SET_BIT(hspi->Instance->CR1, SPI_CR1_CRCNEXT);
3326:Drivers/STM32F4xx_HAL_Driver/Src/stm32f4xx_hal_spi.c ****   }
3327:Drivers/STM32F4xx_HAL_Driver/Src/stm32f4xx_hal_spi.c **** #endif /* USE_SPI_CRC */
3328:Drivers/STM32F4xx_HAL_Driver/Src/stm32f4xx_hal_spi.c **** 
3329:Drivers/STM32F4xx_HAL_Driver/Src/stm32f4xx_hal_spi.c ****   if (hspi->RxXferCount == 0U)
 6854              		.loc 1 3329 11
 6855 002e 7B68     		ldr	r3, [r7, #4]
 6856 0030 DB8F     		ldrh	r3, [r3, #62]	@ movhi
 6857 0032 9BB2     		uxth	r3, r3
 6858              		.loc 1 3329 6
 6859 0034 002B     		cmp	r3, #0
 6860 0036 02D1     		bne	.L338
3330:Drivers/STM32F4xx_HAL_Driver/Src/stm32f4xx_hal_spi.c ****   {
3331:Drivers/STM32F4xx_HAL_Driver/Src/stm32f4xx_hal_spi.c **** #if (USE_SPI_CRC != 0U)
3332:Drivers/STM32F4xx_HAL_Driver/Src/stm32f4xx_hal_spi.c ****     if (hspi->Init.CRCCalculation == SPI_CRCCALCULATION_ENABLE)
3333:Drivers/STM32F4xx_HAL_Driver/Src/stm32f4xx_hal_spi.c ****     {
3334:Drivers/STM32F4xx_HAL_Driver/Src/stm32f4xx_hal_spi.c ****       hspi->RxISR = SPI_RxISR_16BITCRC;
3335:Drivers/STM32F4xx_HAL_Driver/Src/stm32f4xx_hal_spi.c ****       return;
3336:Drivers/STM32F4xx_HAL_Driver/Src/stm32f4xx_hal_spi.c ****     }
3337:Drivers/STM32F4xx_HAL_Driver/Src/stm32f4xx_hal_spi.c **** #endif /* USE_SPI_CRC */
3338:Drivers/STM32F4xx_HAL_Driver/Src/stm32f4xx_hal_spi.c ****     SPI_CloseRx_ISR(hspi);
 6861              		.loc 1 3338 5
 6862 0038 7868     		ldr	r0, [r7, #4]
 6863 003a FFF7FEFF 		bl	SPI_CloseRx_ISR
 6864              	.L338:
ARM GAS  /tmp/cc9N7Buw.s 			page 179


3339:Drivers/STM32F4xx_HAL_Driver/Src/stm32f4xx_hal_spi.c ****   }
3340:Drivers/STM32F4xx_HAL_Driver/Src/stm32f4xx_hal_spi.c **** }
 6865              		.loc 1 3340 1
 6866 003e 00BF     		nop
 6867 0040 0837     		adds	r7, r7, #8
 6868              	.LCFI237:
 6869              		.cfi_def_cfa_offset 8
 6870 0042 BD46     		mov	sp, r7
 6871              	.LCFI238:
 6872              		.cfi_def_cfa_register 13
 6873              		@ sp needed
 6874 0044 80BD     		pop	{r7, pc}
 6875              		.cfi_endproc
 6876              	.LFE174:
 6878              		.section	.text.SPI_TxISR_8BIT,"ax",%progbits
 6879              		.align	1
 6880              		.syntax unified
 6881              		.thumb
 6882              		.thumb_func
 6883              		.fpu fpv4-sp-d16
 6885              	SPI_TxISR_8BIT:
 6886              	.LFB175:
3341:Drivers/STM32F4xx_HAL_Driver/Src/stm32f4xx_hal_spi.c **** 
3342:Drivers/STM32F4xx_HAL_Driver/Src/stm32f4xx_hal_spi.c **** /**
3343:Drivers/STM32F4xx_HAL_Driver/Src/stm32f4xx_hal_spi.c ****   * @brief  Handle the data 8-bit transmit in Interrupt mode.
3344:Drivers/STM32F4xx_HAL_Driver/Src/stm32f4xx_hal_spi.c ****   * @param  hspi pointer to a SPI_HandleTypeDef structure that contains
3345:Drivers/STM32F4xx_HAL_Driver/Src/stm32f4xx_hal_spi.c ****   *               the configuration information for SPI module.
3346:Drivers/STM32F4xx_HAL_Driver/Src/stm32f4xx_hal_spi.c ****   * @retval None
3347:Drivers/STM32F4xx_HAL_Driver/Src/stm32f4xx_hal_spi.c ****   */
3348:Drivers/STM32F4xx_HAL_Driver/Src/stm32f4xx_hal_spi.c **** static void SPI_TxISR_8BIT(struct __SPI_HandleTypeDef *hspi)
3349:Drivers/STM32F4xx_HAL_Driver/Src/stm32f4xx_hal_spi.c **** {
 6887              		.loc 1 3349 1
 6888              		.cfi_startproc
 6889              		@ args = 0, pretend = 0, frame = 8
 6890              		@ frame_needed = 1, uses_anonymous_args = 0
 6891 0000 80B5     		push	{r7, lr}
 6892              	.LCFI239:
 6893              		.cfi_def_cfa_offset 8
 6894              		.cfi_offset 7, -8
 6895              		.cfi_offset 14, -4
 6896 0002 82B0     		sub	sp, sp, #8
 6897              	.LCFI240:
 6898              		.cfi_def_cfa_offset 16
 6899 0004 00AF     		add	r7, sp, #0
 6900              	.LCFI241:
 6901              		.cfi_def_cfa_register 7
 6902 0006 7860     		str	r0, [r7, #4]
3350:Drivers/STM32F4xx_HAL_Driver/Src/stm32f4xx_hal_spi.c ****   *(__IO uint8_t *)&hspi->Instance->DR = (*hspi->pTxBuffPtr);
 6903              		.loc 1 3350 48
 6904 0008 7B68     		ldr	r3, [r7, #4]
 6905 000a 1A6B     		ldr	r2, [r3, #48]
 6906              		.loc 1 3350 25
 6907 000c 7B68     		ldr	r3, [r7, #4]
 6908 000e 1B68     		ldr	r3, [r3]
 6909              		.loc 1 3350 20
 6910 0010 0C33     		adds	r3, r3, #12
 6911              		.loc 1 3350 43
ARM GAS  /tmp/cc9N7Buw.s 			page 180


 6912 0012 1278     		ldrb	r2, [r2]	@ zero_extendqisi2
 6913              		.loc 1 3350 40
 6914 0014 1A70     		strb	r2, [r3]
3351:Drivers/STM32F4xx_HAL_Driver/Src/stm32f4xx_hal_spi.c ****   hspi->pTxBuffPtr++;
 6915              		.loc 1 3351 7
 6916 0016 7B68     		ldr	r3, [r7, #4]
 6917 0018 1B6B     		ldr	r3, [r3, #48]
 6918              		.loc 1 3351 19
 6919 001a 5A1C     		adds	r2, r3, #1
 6920 001c 7B68     		ldr	r3, [r7, #4]
 6921 001e 1A63     		str	r2, [r3, #48]
3352:Drivers/STM32F4xx_HAL_Driver/Src/stm32f4xx_hal_spi.c ****   hspi->TxXferCount--;
 6922              		.loc 1 3352 7
 6923 0020 7B68     		ldr	r3, [r7, #4]
 6924 0022 DB8E     		ldrh	r3, [r3, #54]	@ movhi
 6925 0024 9BB2     		uxth	r3, r3
 6926              		.loc 1 3352 20
 6927 0026 013B     		subs	r3, r3, #1
 6928 0028 9AB2     		uxth	r2, r3
 6929 002a 7B68     		ldr	r3, [r7, #4]
 6930 002c DA86     		strh	r2, [r3, #54]	@ movhi
3353:Drivers/STM32F4xx_HAL_Driver/Src/stm32f4xx_hal_spi.c **** 
3354:Drivers/STM32F4xx_HAL_Driver/Src/stm32f4xx_hal_spi.c ****   if (hspi->TxXferCount == 0U)
 6931              		.loc 1 3354 11
 6932 002e 7B68     		ldr	r3, [r7, #4]
 6933 0030 DB8E     		ldrh	r3, [r3, #54]	@ movhi
 6934 0032 9BB2     		uxth	r3, r3
 6935              		.loc 1 3354 6
 6936 0034 002B     		cmp	r3, #0
 6937 0036 02D1     		bne	.L341
3355:Drivers/STM32F4xx_HAL_Driver/Src/stm32f4xx_hal_spi.c ****   {
3356:Drivers/STM32F4xx_HAL_Driver/Src/stm32f4xx_hal_spi.c **** #if (USE_SPI_CRC != 0U)
3357:Drivers/STM32F4xx_HAL_Driver/Src/stm32f4xx_hal_spi.c ****     if (hspi->Init.CRCCalculation == SPI_CRCCALCULATION_ENABLE)
3358:Drivers/STM32F4xx_HAL_Driver/Src/stm32f4xx_hal_spi.c ****     {
3359:Drivers/STM32F4xx_HAL_Driver/Src/stm32f4xx_hal_spi.c ****       /* Enable CRC Transmission */
3360:Drivers/STM32F4xx_HAL_Driver/Src/stm32f4xx_hal_spi.c ****       SET_BIT(hspi->Instance->CR1, SPI_CR1_CRCNEXT);
3361:Drivers/STM32F4xx_HAL_Driver/Src/stm32f4xx_hal_spi.c ****     }
3362:Drivers/STM32F4xx_HAL_Driver/Src/stm32f4xx_hal_spi.c **** #endif /* USE_SPI_CRC */
3363:Drivers/STM32F4xx_HAL_Driver/Src/stm32f4xx_hal_spi.c ****     SPI_CloseTx_ISR(hspi);
 6938              		.loc 1 3363 5
 6939 0038 7868     		ldr	r0, [r7, #4]
 6940 003a FFF7FEFF 		bl	SPI_CloseTx_ISR
 6941              	.L341:
3364:Drivers/STM32F4xx_HAL_Driver/Src/stm32f4xx_hal_spi.c ****   }
3365:Drivers/STM32F4xx_HAL_Driver/Src/stm32f4xx_hal_spi.c **** }
 6942              		.loc 1 3365 1
 6943 003e 00BF     		nop
 6944 0040 0837     		adds	r7, r7, #8
 6945              	.LCFI242:
 6946              		.cfi_def_cfa_offset 8
 6947 0042 BD46     		mov	sp, r7
 6948              	.LCFI243:
 6949              		.cfi_def_cfa_register 13
 6950              		@ sp needed
 6951 0044 80BD     		pop	{r7, pc}
 6952              		.cfi_endproc
 6953              	.LFE175:
ARM GAS  /tmp/cc9N7Buw.s 			page 181


 6955              		.section	.text.SPI_TxISR_16BIT,"ax",%progbits
 6956              		.align	1
 6957              		.syntax unified
 6958              		.thumb
 6959              		.thumb_func
 6960              		.fpu fpv4-sp-d16
 6962              	SPI_TxISR_16BIT:
 6963              	.LFB176:
3366:Drivers/STM32F4xx_HAL_Driver/Src/stm32f4xx_hal_spi.c **** 
3367:Drivers/STM32F4xx_HAL_Driver/Src/stm32f4xx_hal_spi.c **** /**
3368:Drivers/STM32F4xx_HAL_Driver/Src/stm32f4xx_hal_spi.c ****   * @brief  Handle the data 16-bit transmit in Interrupt mode.
3369:Drivers/STM32F4xx_HAL_Driver/Src/stm32f4xx_hal_spi.c ****   * @param  hspi pointer to a SPI_HandleTypeDef structure that contains
3370:Drivers/STM32F4xx_HAL_Driver/Src/stm32f4xx_hal_spi.c ****   *               the configuration information for SPI module.
3371:Drivers/STM32F4xx_HAL_Driver/Src/stm32f4xx_hal_spi.c ****   * @retval None
3372:Drivers/STM32F4xx_HAL_Driver/Src/stm32f4xx_hal_spi.c ****   */
3373:Drivers/STM32F4xx_HAL_Driver/Src/stm32f4xx_hal_spi.c **** static void SPI_TxISR_16BIT(struct __SPI_HandleTypeDef *hspi)
3374:Drivers/STM32F4xx_HAL_Driver/Src/stm32f4xx_hal_spi.c **** {
 6964              		.loc 1 3374 1
 6965              		.cfi_startproc
 6966              		@ args = 0, pretend = 0, frame = 8
 6967              		@ frame_needed = 1, uses_anonymous_args = 0
 6968 0000 80B5     		push	{r7, lr}
 6969              	.LCFI244:
 6970              		.cfi_def_cfa_offset 8
 6971              		.cfi_offset 7, -8
 6972              		.cfi_offset 14, -4
 6973 0002 82B0     		sub	sp, sp, #8
 6974              	.LCFI245:
 6975              		.cfi_def_cfa_offset 16
 6976 0004 00AF     		add	r7, sp, #0
 6977              	.LCFI246:
 6978              		.cfi_def_cfa_register 7
 6979 0006 7860     		str	r0, [r7, #4]
3375:Drivers/STM32F4xx_HAL_Driver/Src/stm32f4xx_hal_spi.c ****   /* Transmit data in 16 Bit mode */
3376:Drivers/STM32F4xx_HAL_Driver/Src/stm32f4xx_hal_spi.c ****   hspi->Instance->DR = *((uint16_t *)hspi->pTxBuffPtr);
 6980              		.loc 1 3376 42
 6981 0008 7B68     		ldr	r3, [r7, #4]
 6982 000a 1B6B     		ldr	r3, [r3, #48]
 6983              		.loc 1 3376 24
 6984 000c 1A88     		ldrh	r2, [r3]
 6985              		.loc 1 3376 7
 6986 000e 7B68     		ldr	r3, [r7, #4]
 6987 0010 1B68     		ldr	r3, [r3]
 6988              		.loc 1 3376 22
 6989 0012 DA60     		str	r2, [r3, #12]
3377:Drivers/STM32F4xx_HAL_Driver/Src/stm32f4xx_hal_spi.c ****   hspi->pTxBuffPtr += sizeof(uint16_t);
 6990              		.loc 1 3377 20
 6991 0014 7B68     		ldr	r3, [r7, #4]
 6992 0016 1B6B     		ldr	r3, [r3, #48]
 6993 0018 9A1C     		adds	r2, r3, #2
 6994 001a 7B68     		ldr	r3, [r7, #4]
 6995 001c 1A63     		str	r2, [r3, #48]
3378:Drivers/STM32F4xx_HAL_Driver/Src/stm32f4xx_hal_spi.c ****   hspi->TxXferCount--;
 6996              		.loc 1 3378 7
 6997 001e 7B68     		ldr	r3, [r7, #4]
 6998 0020 DB8E     		ldrh	r3, [r3, #54]	@ movhi
 6999 0022 9BB2     		uxth	r3, r3
ARM GAS  /tmp/cc9N7Buw.s 			page 182


 7000              		.loc 1 3378 20
 7001 0024 013B     		subs	r3, r3, #1
 7002 0026 9AB2     		uxth	r2, r3
 7003 0028 7B68     		ldr	r3, [r7, #4]
 7004 002a DA86     		strh	r2, [r3, #54]	@ movhi
3379:Drivers/STM32F4xx_HAL_Driver/Src/stm32f4xx_hal_spi.c **** 
3380:Drivers/STM32F4xx_HAL_Driver/Src/stm32f4xx_hal_spi.c ****   if (hspi->TxXferCount == 0U)
 7005              		.loc 1 3380 11
 7006 002c 7B68     		ldr	r3, [r7, #4]
 7007 002e DB8E     		ldrh	r3, [r3, #54]	@ movhi
 7008 0030 9BB2     		uxth	r3, r3
 7009              		.loc 1 3380 6
 7010 0032 002B     		cmp	r3, #0
 7011 0034 02D1     		bne	.L344
3381:Drivers/STM32F4xx_HAL_Driver/Src/stm32f4xx_hal_spi.c ****   {
3382:Drivers/STM32F4xx_HAL_Driver/Src/stm32f4xx_hal_spi.c **** #if (USE_SPI_CRC != 0U)
3383:Drivers/STM32F4xx_HAL_Driver/Src/stm32f4xx_hal_spi.c ****     if (hspi->Init.CRCCalculation == SPI_CRCCALCULATION_ENABLE)
3384:Drivers/STM32F4xx_HAL_Driver/Src/stm32f4xx_hal_spi.c ****     {
3385:Drivers/STM32F4xx_HAL_Driver/Src/stm32f4xx_hal_spi.c ****       /* Enable CRC Transmission */
3386:Drivers/STM32F4xx_HAL_Driver/Src/stm32f4xx_hal_spi.c ****       SET_BIT(hspi->Instance->CR1, SPI_CR1_CRCNEXT);
3387:Drivers/STM32F4xx_HAL_Driver/Src/stm32f4xx_hal_spi.c ****     }
3388:Drivers/STM32F4xx_HAL_Driver/Src/stm32f4xx_hal_spi.c **** #endif /* USE_SPI_CRC */
3389:Drivers/STM32F4xx_HAL_Driver/Src/stm32f4xx_hal_spi.c ****     SPI_CloseTx_ISR(hspi);
 7012              		.loc 1 3389 5
 7013 0036 7868     		ldr	r0, [r7, #4]
 7014 0038 FFF7FEFF 		bl	SPI_CloseTx_ISR
 7015              	.L344:
3390:Drivers/STM32F4xx_HAL_Driver/Src/stm32f4xx_hal_spi.c ****   }
3391:Drivers/STM32F4xx_HAL_Driver/Src/stm32f4xx_hal_spi.c **** }
 7016              		.loc 1 3391 1
 7017 003c 00BF     		nop
 7018 003e 0837     		adds	r7, r7, #8
 7019              	.LCFI247:
 7020              		.cfi_def_cfa_offset 8
 7021 0040 BD46     		mov	sp, r7
 7022              	.LCFI248:
 7023              		.cfi_def_cfa_register 13
 7024              		@ sp needed
 7025 0042 80BD     		pop	{r7, pc}
 7026              		.cfi_endproc
 7027              	.LFE176:
 7029              		.section	.text.SPI_WaitFlagStateUntilTimeout,"ax",%progbits
 7030              		.align	1
 7031              		.syntax unified
 7032              		.thumb
 7033              		.thumb_func
 7034              		.fpu fpv4-sp-d16
 7036              	SPI_WaitFlagStateUntilTimeout:
 7037              	.LFB177:
3392:Drivers/STM32F4xx_HAL_Driver/Src/stm32f4xx_hal_spi.c **** 
3393:Drivers/STM32F4xx_HAL_Driver/Src/stm32f4xx_hal_spi.c **** /**
3394:Drivers/STM32F4xx_HAL_Driver/Src/stm32f4xx_hal_spi.c ****   * @brief  Handle SPI Communication Timeout.
3395:Drivers/STM32F4xx_HAL_Driver/Src/stm32f4xx_hal_spi.c ****   * @param  hspi pointer to a SPI_HandleTypeDef structure that contains
3396:Drivers/STM32F4xx_HAL_Driver/Src/stm32f4xx_hal_spi.c ****   *              the configuration information for SPI module.
3397:Drivers/STM32F4xx_HAL_Driver/Src/stm32f4xx_hal_spi.c ****   * @param  Flag SPI flag to check
3398:Drivers/STM32F4xx_HAL_Driver/Src/stm32f4xx_hal_spi.c ****   * @param  State flag state to check
3399:Drivers/STM32F4xx_HAL_Driver/Src/stm32f4xx_hal_spi.c ****   * @param  Timeout Timeout duration
ARM GAS  /tmp/cc9N7Buw.s 			page 183


3400:Drivers/STM32F4xx_HAL_Driver/Src/stm32f4xx_hal_spi.c ****   * @param  Tickstart tick start value
3401:Drivers/STM32F4xx_HAL_Driver/Src/stm32f4xx_hal_spi.c ****   * @retval HAL status
3402:Drivers/STM32F4xx_HAL_Driver/Src/stm32f4xx_hal_spi.c ****   */
3403:Drivers/STM32F4xx_HAL_Driver/Src/stm32f4xx_hal_spi.c **** static HAL_StatusTypeDef SPI_WaitFlagStateUntilTimeout(SPI_HandleTypeDef *hspi, uint32_t Flag, Flag
3404:Drivers/STM32F4xx_HAL_Driver/Src/stm32f4xx_hal_spi.c ****                                                        uint32_t Timeout, uint32_t Tickstart)
3405:Drivers/STM32F4xx_HAL_Driver/Src/stm32f4xx_hal_spi.c **** {
 7038              		.loc 1 3405 1
 7039              		.cfi_startproc
 7040              		@ args = 4, pretend = 0, frame = 16
 7041              		@ frame_needed = 1, uses_anonymous_args = 0
 7042 0000 80B5     		push	{r7, lr}
 7043              	.LCFI249:
 7044              		.cfi_def_cfa_offset 8
 7045              		.cfi_offset 7, -8
 7046              		.cfi_offset 14, -4
 7047 0002 84B0     		sub	sp, sp, #16
 7048              	.LCFI250:
 7049              		.cfi_def_cfa_offset 24
 7050 0004 00AF     		add	r7, sp, #0
 7051              	.LCFI251:
 7052              		.cfi_def_cfa_register 7
 7053 0006 F860     		str	r0, [r7, #12]
 7054 0008 B960     		str	r1, [r7, #8]
 7055 000a 3B60     		str	r3, [r7]
 7056 000c 1346     		mov	r3, r2
 7057 000e FB71     		strb	r3, [r7, #7]
3406:Drivers/STM32F4xx_HAL_Driver/Src/stm32f4xx_hal_spi.c ****   while ((__HAL_SPI_GET_FLAG(hspi, Flag) ? SET : RESET) != State)
 7058              		.loc 1 3406 9
 7059 0010 4CE0     		b	.L346
 7060              	.L352:
3407:Drivers/STM32F4xx_HAL_Driver/Src/stm32f4xx_hal_spi.c ****   {
3408:Drivers/STM32F4xx_HAL_Driver/Src/stm32f4xx_hal_spi.c ****     if (Timeout != HAL_MAX_DELAY)
 7061              		.loc 1 3408 8
 7062 0012 3B68     		ldr	r3, [r7]
 7063 0014 B3F1FF3F 		cmp	r3, #-1
 7064 0018 48D0     		beq	.L346
3409:Drivers/STM32F4xx_HAL_Driver/Src/stm32f4xx_hal_spi.c ****     {
3410:Drivers/STM32F4xx_HAL_Driver/Src/stm32f4xx_hal_spi.c ****       if (((HAL_GetTick() - Tickstart) >= Timeout) || (Timeout == 0U))
 7065              		.loc 1 3410 13
 7066 001a FFF7FEFF 		bl	HAL_GetTick
 7067 001e 0246     		mov	r2, r0
 7068              		.loc 1 3410 27
 7069 0020 BB69     		ldr	r3, [r7, #24]
 7070 0022 D31A     		subs	r3, r2, r3
 7071              		.loc 1 3410 10
 7072 0024 3A68     		ldr	r2, [r7]
 7073 0026 9A42     		cmp	r2, r3
 7074 0028 02D9     		bls	.L347
 7075              		.loc 1 3410 52 discriminator 1
 7076 002a 3B68     		ldr	r3, [r7]
 7077 002c 002B     		cmp	r3, #0
 7078 002e 3DD1     		bne	.L346
 7079              	.L347:
3411:Drivers/STM32F4xx_HAL_Driver/Src/stm32f4xx_hal_spi.c ****       {
3412:Drivers/STM32F4xx_HAL_Driver/Src/stm32f4xx_hal_spi.c ****         /* Disable the SPI and reset the CRC: the CRC value should be cleared
3413:Drivers/STM32F4xx_HAL_Driver/Src/stm32f4xx_hal_spi.c ****         on both master and slave sides in order to resynchronize the master
3414:Drivers/STM32F4xx_HAL_Driver/Src/stm32f4xx_hal_spi.c ****         and slave for their respective CRC calculation */
ARM GAS  /tmp/cc9N7Buw.s 			page 184


3415:Drivers/STM32F4xx_HAL_Driver/Src/stm32f4xx_hal_spi.c **** 
3416:Drivers/STM32F4xx_HAL_Driver/Src/stm32f4xx_hal_spi.c ****         /* Disable TXE, RXNE and ERR interrupts for the interrupt process */
3417:Drivers/STM32F4xx_HAL_Driver/Src/stm32f4xx_hal_spi.c ****         __HAL_SPI_DISABLE_IT(hspi, (SPI_IT_TXE | SPI_IT_RXNE | SPI_IT_ERR));
 7080              		.loc 1 3417 9
 7081 0030 FB68     		ldr	r3, [r7, #12]
 7082 0032 1B68     		ldr	r3, [r3]
 7083 0034 5A68     		ldr	r2, [r3, #4]
 7084 0036 FB68     		ldr	r3, [r7, #12]
 7085 0038 1B68     		ldr	r3, [r3]
 7086 003a 22F0E002 		bic	r2, r2, #224
 7087 003e 5A60     		str	r2, [r3, #4]
3418:Drivers/STM32F4xx_HAL_Driver/Src/stm32f4xx_hal_spi.c **** 
3419:Drivers/STM32F4xx_HAL_Driver/Src/stm32f4xx_hal_spi.c ****         if ((hspi->Init.Mode == SPI_MODE_MASTER) && ((hspi->Init.Direction == SPI_DIRECTION_1LINE)
 7088              		.loc 1 3419 24
 7089 0040 FB68     		ldr	r3, [r7, #12]
 7090 0042 5B68     		ldr	r3, [r3, #4]
 7091              		.loc 1 3419 12
 7092 0044 B3F5827F 		cmp	r3, #260
 7093 0048 11D1     		bne	.L348
 7094              		.loc 1 3419 65 discriminator 1
 7095 004a FB68     		ldr	r3, [r7, #12]
 7096 004c 9B68     		ldr	r3, [r3, #8]
 7097              		.loc 1 3419 50 discriminator 1
 7098 004e B3F5004F 		cmp	r3, #32768
 7099 0052 04D0     		beq	.L349
3420:Drivers/STM32F4xx_HAL_Driver/Src/stm32f4xx_hal_spi.c ****                                                      || (hspi->Init.Direction == SPI_DIRECTION_2LIN
 7100              		.loc 1 3420 68
 7101 0054 FB68     		ldr	r3, [r7, #12]
 7102 0056 9B68     		ldr	r3, [r3, #8]
 7103              		.loc 1 3420 54
 7104 0058 B3F5806F 		cmp	r3, #1024
 7105 005c 07D1     		bne	.L348
 7106              	.L349:
3421:Drivers/STM32F4xx_HAL_Driver/Src/stm32f4xx_hal_spi.c ****         {
3422:Drivers/STM32F4xx_HAL_Driver/Src/stm32f4xx_hal_spi.c ****           /* Disable SPI peripheral */
3423:Drivers/STM32F4xx_HAL_Driver/Src/stm32f4xx_hal_spi.c ****           __HAL_SPI_DISABLE(hspi);
 7107              		.loc 1 3423 11
 7108 005e FB68     		ldr	r3, [r7, #12]
 7109 0060 1B68     		ldr	r3, [r3]
 7110 0062 1A68     		ldr	r2, [r3]
 7111 0064 FB68     		ldr	r3, [r7, #12]
 7112 0066 1B68     		ldr	r3, [r3]
 7113 0068 22F04002 		bic	r2, r2, #64
 7114 006c 1A60     		str	r2, [r3]
 7115              	.L348:
3424:Drivers/STM32F4xx_HAL_Driver/Src/stm32f4xx_hal_spi.c ****         }
3425:Drivers/STM32F4xx_HAL_Driver/Src/stm32f4xx_hal_spi.c **** 
3426:Drivers/STM32F4xx_HAL_Driver/Src/stm32f4xx_hal_spi.c ****         /* Reset CRC Calculation */
3427:Drivers/STM32F4xx_HAL_Driver/Src/stm32f4xx_hal_spi.c ****         if (hspi->Init.CRCCalculation == SPI_CRCCALCULATION_ENABLE)
 7116              		.loc 1 3427 23
 7117 006e FB68     		ldr	r3, [r7, #12]
 7118 0070 9B6A     		ldr	r3, [r3, #40]
 7119              		.loc 1 3427 12
 7120 0072 B3F5005F 		cmp	r3, #8192
 7121 0076 0FD1     		bne	.L350
3428:Drivers/STM32F4xx_HAL_Driver/Src/stm32f4xx_hal_spi.c ****         {
3429:Drivers/STM32F4xx_HAL_Driver/Src/stm32f4xx_hal_spi.c ****           SPI_RESET_CRC(hspi);
ARM GAS  /tmp/cc9N7Buw.s 			page 185


 7122              		.loc 1 3429 11
 7123 0078 FB68     		ldr	r3, [r7, #12]
 7124 007a 1B68     		ldr	r3, [r3]
 7125 007c 1A68     		ldr	r2, [r3]
 7126 007e FB68     		ldr	r3, [r7, #12]
 7127 0080 1B68     		ldr	r3, [r3]
 7128 0082 22F40052 		bic	r2, r2, #8192
 7129 0086 1A60     		str	r2, [r3]
 7130 0088 FB68     		ldr	r3, [r7, #12]
 7131 008a 1B68     		ldr	r3, [r3]
 7132 008c 1A68     		ldr	r2, [r3]
 7133 008e FB68     		ldr	r3, [r7, #12]
 7134 0090 1B68     		ldr	r3, [r3]
 7135 0092 42F40052 		orr	r2, r2, #8192
 7136 0096 1A60     		str	r2, [r3]
 7137              	.L350:
3430:Drivers/STM32F4xx_HAL_Driver/Src/stm32f4xx_hal_spi.c ****         }
3431:Drivers/STM32F4xx_HAL_Driver/Src/stm32f4xx_hal_spi.c **** 
3432:Drivers/STM32F4xx_HAL_Driver/Src/stm32f4xx_hal_spi.c ****         hspi->State = HAL_SPI_STATE_READY;
 7138              		.loc 1 3432 21
 7139 0098 FB68     		ldr	r3, [r7, #12]
 7140 009a 0122     		movs	r2, #1
 7141 009c 83F85120 		strb	r2, [r3, #81]
3433:Drivers/STM32F4xx_HAL_Driver/Src/stm32f4xx_hal_spi.c **** 
3434:Drivers/STM32F4xx_HAL_Driver/Src/stm32f4xx_hal_spi.c ****         /* Process Unlocked */
3435:Drivers/STM32F4xx_HAL_Driver/Src/stm32f4xx_hal_spi.c ****         __HAL_UNLOCK(hspi);
 7142              		.loc 1 3435 9
 7143 00a0 FB68     		ldr	r3, [r7, #12]
 7144 00a2 0022     		movs	r2, #0
 7145 00a4 83F85020 		strb	r2, [r3, #80]
3436:Drivers/STM32F4xx_HAL_Driver/Src/stm32f4xx_hal_spi.c **** 
3437:Drivers/STM32F4xx_HAL_Driver/Src/stm32f4xx_hal_spi.c ****         return HAL_TIMEOUT;
 7146              		.loc 1 3437 16
 7147 00a8 0323     		movs	r3, #3
 7148 00aa 0FE0     		b	.L351
 7149              	.L346:
3406:Drivers/STM32F4xx_HAL_Driver/Src/stm32f4xx_hal_spi.c ****   {
 7150              		.loc 1 3406 11
 7151 00ac FB68     		ldr	r3, [r7, #12]
 7152 00ae 1B68     		ldr	r3, [r3]
 7153 00b0 9A68     		ldr	r2, [r3, #8]
 7154 00b2 BB68     		ldr	r3, [r7, #8]
 7155 00b4 1340     		ands	r3, r3, r2
3406:Drivers/STM32F4xx_HAL_Driver/Src/stm32f4xx_hal_spi.c ****   {
 7156              		.loc 1 3406 48
 7157 00b6 BA68     		ldr	r2, [r7, #8]
 7158 00b8 9A42     		cmp	r2, r3
 7159 00ba 0CBF     		ite	eq
 7160 00bc 0123     		moveq	r3, #1
 7161 00be 0023     		movne	r3, #0
 7162 00c0 DBB2     		uxtb	r3, r3
 7163 00c2 1A46     		mov	r2, r3
3406:Drivers/STM32F4xx_HAL_Driver/Src/stm32f4xx_hal_spi.c ****   {
 7164              		.loc 1 3406 57
 7165 00c4 FB79     		ldrb	r3, [r7, #7]	@ zero_extendqisi2
3406:Drivers/STM32F4xx_HAL_Driver/Src/stm32f4xx_hal_spi.c ****   {
 7166              		.loc 1 3406 9
ARM GAS  /tmp/cc9N7Buw.s 			page 186


 7167 00c6 9A42     		cmp	r2, r3
 7168 00c8 A3D1     		bne	.L352
3438:Drivers/STM32F4xx_HAL_Driver/Src/stm32f4xx_hal_spi.c ****       }
3439:Drivers/STM32F4xx_HAL_Driver/Src/stm32f4xx_hal_spi.c ****     }
3440:Drivers/STM32F4xx_HAL_Driver/Src/stm32f4xx_hal_spi.c ****   }
3441:Drivers/STM32F4xx_HAL_Driver/Src/stm32f4xx_hal_spi.c **** 
3442:Drivers/STM32F4xx_HAL_Driver/Src/stm32f4xx_hal_spi.c ****   return HAL_OK;
 7169              		.loc 1 3442 10
 7170 00ca 0023     		movs	r3, #0
 7171              	.L351:
3443:Drivers/STM32F4xx_HAL_Driver/Src/stm32f4xx_hal_spi.c **** }
 7172              		.loc 1 3443 1
 7173 00cc 1846     		mov	r0, r3
 7174 00ce 1037     		adds	r7, r7, #16
 7175              	.LCFI252:
 7176              		.cfi_def_cfa_offset 8
 7177 00d0 BD46     		mov	sp, r7
 7178              	.LCFI253:
 7179              		.cfi_def_cfa_register 13
 7180              		@ sp needed
 7181 00d2 80BD     		pop	{r7, pc}
 7182              		.cfi_endproc
 7183              	.LFE177:
 7185              		.section	.text.SPI_EndRxTransaction,"ax",%progbits
 7186              		.align	1
 7187              		.syntax unified
 7188              		.thumb
 7189              		.thumb_func
 7190              		.fpu fpv4-sp-d16
 7192              	SPI_EndRxTransaction:
 7193              	.LFB178:
3444:Drivers/STM32F4xx_HAL_Driver/Src/stm32f4xx_hal_spi.c **** 
3445:Drivers/STM32F4xx_HAL_Driver/Src/stm32f4xx_hal_spi.c **** /**
3446:Drivers/STM32F4xx_HAL_Driver/Src/stm32f4xx_hal_spi.c ****   * @brief  Handle the check of the RX transaction complete.
3447:Drivers/STM32F4xx_HAL_Driver/Src/stm32f4xx_hal_spi.c ****   * @param  hspi pointer to a SPI_HandleTypeDef structure that contains
3448:Drivers/STM32F4xx_HAL_Driver/Src/stm32f4xx_hal_spi.c ****   *               the configuration information for SPI module.
3449:Drivers/STM32F4xx_HAL_Driver/Src/stm32f4xx_hal_spi.c ****   * @param  Timeout Timeout duration
3450:Drivers/STM32F4xx_HAL_Driver/Src/stm32f4xx_hal_spi.c ****   * @param  Tickstart tick start value
3451:Drivers/STM32F4xx_HAL_Driver/Src/stm32f4xx_hal_spi.c ****   * @retval HAL status
3452:Drivers/STM32F4xx_HAL_Driver/Src/stm32f4xx_hal_spi.c ****   */
3453:Drivers/STM32F4xx_HAL_Driver/Src/stm32f4xx_hal_spi.c **** static HAL_StatusTypeDef SPI_EndRxTransaction(SPI_HandleTypeDef *hspi,  uint32_t Timeout, uint32_t 
3454:Drivers/STM32F4xx_HAL_Driver/Src/stm32f4xx_hal_spi.c **** {
 7194              		.loc 1 3454 1
 7195              		.cfi_startproc
 7196              		@ args = 0, pretend = 0, frame = 16
 7197              		@ frame_needed = 1, uses_anonymous_args = 0
 7198 0000 80B5     		push	{r7, lr}
 7199              	.LCFI254:
 7200              		.cfi_def_cfa_offset 8
 7201              		.cfi_offset 7, -8
 7202              		.cfi_offset 14, -4
 7203 0002 86B0     		sub	sp, sp, #24
 7204              	.LCFI255:
 7205              		.cfi_def_cfa_offset 32
 7206 0004 02AF     		add	r7, sp, #8
 7207              	.LCFI256:
 7208              		.cfi_def_cfa 7, 24
ARM GAS  /tmp/cc9N7Buw.s 			page 187


 7209 0006 F860     		str	r0, [r7, #12]
 7210 0008 B960     		str	r1, [r7, #8]
 7211 000a 7A60     		str	r2, [r7, #4]
3455:Drivers/STM32F4xx_HAL_Driver/Src/stm32f4xx_hal_spi.c ****   if ((hspi->Init.Mode == SPI_MODE_MASTER) && ((hspi->Init.Direction == SPI_DIRECTION_1LINE)
 7212              		.loc 1 3455 18
 7213 000c FB68     		ldr	r3, [r7, #12]
 7214 000e 5B68     		ldr	r3, [r3, #4]
 7215              		.loc 1 3455 6
 7216 0010 B3F5827F 		cmp	r3, #260
 7217 0014 11D1     		bne	.L354
 7218              		.loc 1 3455 59 discriminator 1
 7219 0016 FB68     		ldr	r3, [r7, #12]
 7220 0018 9B68     		ldr	r3, [r3, #8]
 7221              		.loc 1 3455 44 discriminator 1
 7222 001a B3F5004F 		cmp	r3, #32768
 7223 001e 04D0     		beq	.L355
3456:Drivers/STM32F4xx_HAL_Driver/Src/stm32f4xx_hal_spi.c ****                                                || (hspi->Init.Direction == SPI_DIRECTION_2LINES_RXO
 7224              		.loc 1 3456 62
 7225 0020 FB68     		ldr	r3, [r7, #12]
 7226 0022 9B68     		ldr	r3, [r3, #8]
 7227              		.loc 1 3456 48
 7228 0024 B3F5806F 		cmp	r3, #1024
 7229 0028 07D1     		bne	.L354
 7230              	.L355:
3457:Drivers/STM32F4xx_HAL_Driver/Src/stm32f4xx_hal_spi.c ****   {
3458:Drivers/STM32F4xx_HAL_Driver/Src/stm32f4xx_hal_spi.c ****     /* Disable SPI peripheral */
3459:Drivers/STM32F4xx_HAL_Driver/Src/stm32f4xx_hal_spi.c ****     __HAL_SPI_DISABLE(hspi);
 7231              		.loc 1 3459 5
 7232 002a FB68     		ldr	r3, [r7, #12]
 7233 002c 1B68     		ldr	r3, [r3]
 7234 002e 1A68     		ldr	r2, [r3]
 7235 0030 FB68     		ldr	r3, [r7, #12]
 7236 0032 1B68     		ldr	r3, [r3]
 7237 0034 22F04002 		bic	r2, r2, #64
 7238 0038 1A60     		str	r2, [r3]
 7239              	.L354:
3460:Drivers/STM32F4xx_HAL_Driver/Src/stm32f4xx_hal_spi.c ****   }
3461:Drivers/STM32F4xx_HAL_Driver/Src/stm32f4xx_hal_spi.c **** 
3462:Drivers/STM32F4xx_HAL_Driver/Src/stm32f4xx_hal_spi.c ****   /* Erratasheet: BSY bit may stay high at the end of a data transfer in Slave mode */
3463:Drivers/STM32F4xx_HAL_Driver/Src/stm32f4xx_hal_spi.c ****   if (hspi->Init.Mode == SPI_MODE_MASTER)
 7240              		.loc 1 3463 17
 7241 003a FB68     		ldr	r3, [r7, #12]
 7242 003c 5B68     		ldr	r3, [r3, #4]
 7243              		.loc 1 3463 6
 7244 003e B3F5827F 		cmp	r3, #260
 7245 0042 2AD1     		bne	.L356
3464:Drivers/STM32F4xx_HAL_Driver/Src/stm32f4xx_hal_spi.c ****   {
3465:Drivers/STM32F4xx_HAL_Driver/Src/stm32f4xx_hal_spi.c ****     if (hspi->Init.Direction != SPI_DIRECTION_2LINES_RXONLY)
 7246              		.loc 1 3465 19
 7247 0044 FB68     		ldr	r3, [r7, #12]
 7248 0046 9B68     		ldr	r3, [r3, #8]
 7249              		.loc 1 3465 8
 7250 0048 B3F5806F 		cmp	r3, #1024
 7251 004c 12D0     		beq	.L357
3466:Drivers/STM32F4xx_HAL_Driver/Src/stm32f4xx_hal_spi.c ****     {
3467:Drivers/STM32F4xx_HAL_Driver/Src/stm32f4xx_hal_spi.c ****       /* Control the BSY flag */
3468:Drivers/STM32F4xx_HAL_Driver/Src/stm32f4xx_hal_spi.c ****       if (SPI_WaitFlagStateUntilTimeout(hspi, SPI_FLAG_BSY, RESET, Timeout, Tickstart) != HAL_OK)
ARM GAS  /tmp/cc9N7Buw.s 			page 188


 7252              		.loc 1 3468 11
 7253 004e 7B68     		ldr	r3, [r7, #4]
 7254 0050 0093     		str	r3, [sp]
 7255 0052 BB68     		ldr	r3, [r7, #8]
 7256 0054 0022     		movs	r2, #0
 7257 0056 8021     		movs	r1, #128
 7258 0058 F868     		ldr	r0, [r7, #12]
 7259 005a FFF7FEFF 		bl	SPI_WaitFlagStateUntilTimeout
 7260 005e 0346     		mov	r3, r0
 7261              		.loc 1 3468 10
 7262 0060 002B     		cmp	r3, #0
 7263 0062 2DD0     		beq	.L358
3469:Drivers/STM32F4xx_HAL_Driver/Src/stm32f4xx_hal_spi.c ****       {
3470:Drivers/STM32F4xx_HAL_Driver/Src/stm32f4xx_hal_spi.c ****         SET_BIT(hspi->ErrorCode, HAL_SPI_ERROR_FLAG);
 7264              		.loc 1 3470 9
 7265 0064 FB68     		ldr	r3, [r7, #12]
 7266 0066 5B6D     		ldr	r3, [r3, #84]
 7267 0068 43F02002 		orr	r2, r3, #32
 7268 006c FB68     		ldr	r3, [r7, #12]
 7269 006e 5A65     		str	r2, [r3, #84]
3471:Drivers/STM32F4xx_HAL_Driver/Src/stm32f4xx_hal_spi.c ****         return HAL_TIMEOUT;
 7270              		.loc 1 3471 16
 7271 0070 0323     		movs	r3, #3
 7272 0072 26E0     		b	.L359
 7273              	.L357:
3472:Drivers/STM32F4xx_HAL_Driver/Src/stm32f4xx_hal_spi.c ****       }
3473:Drivers/STM32F4xx_HAL_Driver/Src/stm32f4xx_hal_spi.c ****     }
3474:Drivers/STM32F4xx_HAL_Driver/Src/stm32f4xx_hal_spi.c ****     else
3475:Drivers/STM32F4xx_HAL_Driver/Src/stm32f4xx_hal_spi.c ****     {
3476:Drivers/STM32F4xx_HAL_Driver/Src/stm32f4xx_hal_spi.c ****       /* Wait the RXNE reset */
3477:Drivers/STM32F4xx_HAL_Driver/Src/stm32f4xx_hal_spi.c ****       if (SPI_WaitFlagStateUntilTimeout(hspi, SPI_FLAG_RXNE, RESET, Timeout, Tickstart) != HAL_OK)
 7274              		.loc 1 3477 11
 7275 0074 7B68     		ldr	r3, [r7, #4]
 7276 0076 0093     		str	r3, [sp]
 7277 0078 BB68     		ldr	r3, [r7, #8]
 7278 007a 0022     		movs	r2, #0
 7279 007c 0121     		movs	r1, #1
 7280 007e F868     		ldr	r0, [r7, #12]
 7281 0080 FFF7FEFF 		bl	SPI_WaitFlagStateUntilTimeout
 7282 0084 0346     		mov	r3, r0
 7283              		.loc 1 3477 10
 7284 0086 002B     		cmp	r3, #0
 7285 0088 1AD0     		beq	.L358
3478:Drivers/STM32F4xx_HAL_Driver/Src/stm32f4xx_hal_spi.c ****       {
3479:Drivers/STM32F4xx_HAL_Driver/Src/stm32f4xx_hal_spi.c ****         SET_BIT(hspi->ErrorCode, HAL_SPI_ERROR_FLAG);
 7286              		.loc 1 3479 9
 7287 008a FB68     		ldr	r3, [r7, #12]
 7288 008c 5B6D     		ldr	r3, [r3, #84]
 7289 008e 43F02002 		orr	r2, r3, #32
 7290 0092 FB68     		ldr	r3, [r7, #12]
 7291 0094 5A65     		str	r2, [r3, #84]
3480:Drivers/STM32F4xx_HAL_Driver/Src/stm32f4xx_hal_spi.c ****         return HAL_TIMEOUT;
 7292              		.loc 1 3480 16
 7293 0096 0323     		movs	r3, #3
 7294 0098 13E0     		b	.L359
 7295              	.L356:
3481:Drivers/STM32F4xx_HAL_Driver/Src/stm32f4xx_hal_spi.c ****       }
ARM GAS  /tmp/cc9N7Buw.s 			page 189


3482:Drivers/STM32F4xx_HAL_Driver/Src/stm32f4xx_hal_spi.c ****     }
3483:Drivers/STM32F4xx_HAL_Driver/Src/stm32f4xx_hal_spi.c ****   }
3484:Drivers/STM32F4xx_HAL_Driver/Src/stm32f4xx_hal_spi.c ****   else
3485:Drivers/STM32F4xx_HAL_Driver/Src/stm32f4xx_hal_spi.c ****   {
3486:Drivers/STM32F4xx_HAL_Driver/Src/stm32f4xx_hal_spi.c ****     /* Wait the RXNE reset */
3487:Drivers/STM32F4xx_HAL_Driver/Src/stm32f4xx_hal_spi.c ****     if (SPI_WaitFlagStateUntilTimeout(hspi, SPI_FLAG_RXNE, RESET, Timeout, Tickstart) != HAL_OK)
 7296              		.loc 1 3487 9
 7297 009a 7B68     		ldr	r3, [r7, #4]
 7298 009c 0093     		str	r3, [sp]
 7299 009e BB68     		ldr	r3, [r7, #8]
 7300 00a0 0022     		movs	r2, #0
 7301 00a2 0121     		movs	r1, #1
 7302 00a4 F868     		ldr	r0, [r7, #12]
 7303 00a6 FFF7FEFF 		bl	SPI_WaitFlagStateUntilTimeout
 7304 00aa 0346     		mov	r3, r0
 7305              		.loc 1 3487 8
 7306 00ac 002B     		cmp	r3, #0
 7307 00ae 07D0     		beq	.L358
3488:Drivers/STM32F4xx_HAL_Driver/Src/stm32f4xx_hal_spi.c ****     {
3489:Drivers/STM32F4xx_HAL_Driver/Src/stm32f4xx_hal_spi.c ****       SET_BIT(hspi->ErrorCode, HAL_SPI_ERROR_FLAG);
 7308              		.loc 1 3489 7
 7309 00b0 FB68     		ldr	r3, [r7, #12]
 7310 00b2 5B6D     		ldr	r3, [r3, #84]
 7311 00b4 43F02002 		orr	r2, r3, #32
 7312 00b8 FB68     		ldr	r3, [r7, #12]
 7313 00ba 5A65     		str	r2, [r3, #84]
3490:Drivers/STM32F4xx_HAL_Driver/Src/stm32f4xx_hal_spi.c ****       return HAL_TIMEOUT;
 7314              		.loc 1 3490 14
 7315 00bc 0323     		movs	r3, #3
 7316 00be 00E0     		b	.L359
 7317              	.L358:
3491:Drivers/STM32F4xx_HAL_Driver/Src/stm32f4xx_hal_spi.c ****     }
3492:Drivers/STM32F4xx_HAL_Driver/Src/stm32f4xx_hal_spi.c ****   }
3493:Drivers/STM32F4xx_HAL_Driver/Src/stm32f4xx_hal_spi.c ****   return HAL_OK;
 7318              		.loc 1 3493 10
 7319 00c0 0023     		movs	r3, #0
 7320              	.L359:
3494:Drivers/STM32F4xx_HAL_Driver/Src/stm32f4xx_hal_spi.c **** }
 7321              		.loc 1 3494 1
 7322 00c2 1846     		mov	r0, r3
 7323 00c4 1037     		adds	r7, r7, #16
 7324              	.LCFI257:
 7325              		.cfi_def_cfa_offset 8
 7326 00c6 BD46     		mov	sp, r7
 7327              	.LCFI258:
 7328              		.cfi_def_cfa_register 13
 7329              		@ sp needed
 7330 00c8 80BD     		pop	{r7, pc}
 7331              		.cfi_endproc
 7332              	.LFE178:
 7334              		.section	.text.SPI_EndRxTxTransaction,"ax",%progbits
 7335              		.align	1
 7336              		.syntax unified
 7337              		.thumb
 7338              		.thumb_func
 7339              		.fpu fpv4-sp-d16
 7341              	SPI_EndRxTxTransaction:
ARM GAS  /tmp/cc9N7Buw.s 			page 190


 7342              	.LFB179:
3495:Drivers/STM32F4xx_HAL_Driver/Src/stm32f4xx_hal_spi.c **** 
3496:Drivers/STM32F4xx_HAL_Driver/Src/stm32f4xx_hal_spi.c **** /**
3497:Drivers/STM32F4xx_HAL_Driver/Src/stm32f4xx_hal_spi.c ****   * @brief  Handle the check of the RXTX or TX transaction complete.
3498:Drivers/STM32F4xx_HAL_Driver/Src/stm32f4xx_hal_spi.c ****   * @param  hspi SPI handle
3499:Drivers/STM32F4xx_HAL_Driver/Src/stm32f4xx_hal_spi.c ****   * @param  Timeout Timeout duration
3500:Drivers/STM32F4xx_HAL_Driver/Src/stm32f4xx_hal_spi.c ****   * @param  Tickstart tick start value
3501:Drivers/STM32F4xx_HAL_Driver/Src/stm32f4xx_hal_spi.c ****   * @retval HAL status
3502:Drivers/STM32F4xx_HAL_Driver/Src/stm32f4xx_hal_spi.c ****   */
3503:Drivers/STM32F4xx_HAL_Driver/Src/stm32f4xx_hal_spi.c **** static HAL_StatusTypeDef SPI_EndRxTxTransaction(SPI_HandleTypeDef *hspi, uint32_t Timeout, uint32_t
3504:Drivers/STM32F4xx_HAL_Driver/Src/stm32f4xx_hal_spi.c **** {
 7343              		.loc 1 3504 1
 7344              		.cfi_startproc
 7345              		@ args = 0, pretend = 0, frame = 24
 7346              		@ frame_needed = 1, uses_anonymous_args = 0
 7347 0000 80B5     		push	{r7, lr}
 7348              	.LCFI259:
 7349              		.cfi_def_cfa_offset 8
 7350              		.cfi_offset 7, -8
 7351              		.cfi_offset 14, -4
 7352 0002 88B0     		sub	sp, sp, #32
 7353              	.LCFI260:
 7354              		.cfi_def_cfa_offset 40
 7355 0004 02AF     		add	r7, sp, #8
 7356              	.LCFI261:
 7357              		.cfi_def_cfa 7, 32
 7358 0006 F860     		str	r0, [r7, #12]
 7359 0008 B960     		str	r1, [r7, #8]
 7360 000a 7A60     		str	r2, [r7, #4]
3505:Drivers/STM32F4xx_HAL_Driver/Src/stm32f4xx_hal_spi.c ****   /* Timeout in µs */
3506:Drivers/STM32F4xx_HAL_Driver/Src/stm32f4xx_hal_spi.c ****   __IO uint32_t count = SPI_BSY_FLAG_WORKAROUND_TIMEOUT * (SystemCoreClock / 24U / 1000000U);
 7361              		.loc 1 3506 82
 7362 000c 1B4B     		ldr	r3, .L366
 7363 000e 1B68     		ldr	r3, [r3]
 7364 0010 1B4A     		ldr	r2, .L366+4
 7365 0012 A2FB0323 		umull	r2, r3, r2, r3
 7366 0016 5B0D     		lsrs	r3, r3, #21
 7367              		.loc 1 3506 57
 7368 0018 4FF47A72 		mov	r2, #1000
 7369 001c 02FB03F3 		mul	r3, r2, r3
 7370              		.loc 1 3506 17
 7371 0020 7B61     		str	r3, [r7, #20]
3507:Drivers/STM32F4xx_HAL_Driver/Src/stm32f4xx_hal_spi.c ****   /* Erratasheet: BSY bit may stay high at the end of a data transfer in Slave mode */
3508:Drivers/STM32F4xx_HAL_Driver/Src/stm32f4xx_hal_spi.c ****   if (hspi->Init.Mode == SPI_MODE_MASTER)
 7372              		.loc 1 3508 17
 7373 0022 FB68     		ldr	r3, [r7, #12]
 7374 0024 5B68     		ldr	r3, [r3, #4]
 7375              		.loc 1 3508 6
 7376 0026 B3F5827F 		cmp	r3, #260
 7377 002a 12D1     		bne	.L361
3509:Drivers/STM32F4xx_HAL_Driver/Src/stm32f4xx_hal_spi.c ****   {
3510:Drivers/STM32F4xx_HAL_Driver/Src/stm32f4xx_hal_spi.c ****     /* Control the BSY flag */
3511:Drivers/STM32F4xx_HAL_Driver/Src/stm32f4xx_hal_spi.c ****     if (SPI_WaitFlagStateUntilTimeout(hspi, SPI_FLAG_BSY, RESET, Timeout, Tickstart) != HAL_OK)
 7378              		.loc 1 3511 9
 7379 002c 7B68     		ldr	r3, [r7, #4]
 7380 002e 0093     		str	r3, [sp]
 7381 0030 BB68     		ldr	r3, [r7, #8]
ARM GAS  /tmp/cc9N7Buw.s 			page 191


 7382 0032 0022     		movs	r2, #0
 7383 0034 8021     		movs	r1, #128
 7384 0036 F868     		ldr	r0, [r7, #12]
 7385 0038 FFF7FEFF 		bl	SPI_WaitFlagStateUntilTimeout
 7386 003c 0346     		mov	r3, r0
 7387              		.loc 1 3511 8
 7388 003e 002B     		cmp	r3, #0
 7389 0040 16D0     		beq	.L362
3512:Drivers/STM32F4xx_HAL_Driver/Src/stm32f4xx_hal_spi.c ****     {
3513:Drivers/STM32F4xx_HAL_Driver/Src/stm32f4xx_hal_spi.c ****       SET_BIT(hspi->ErrorCode, HAL_SPI_ERROR_FLAG);
 7390              		.loc 1 3513 7
 7391 0042 FB68     		ldr	r3, [r7, #12]
 7392 0044 5B6D     		ldr	r3, [r3, #84]
 7393 0046 43F02002 		orr	r2, r3, #32
 7394 004a FB68     		ldr	r3, [r7, #12]
 7395 004c 5A65     		str	r2, [r3, #84]
3514:Drivers/STM32F4xx_HAL_Driver/Src/stm32f4xx_hal_spi.c ****       return HAL_TIMEOUT;
 7396              		.loc 1 3514 14
 7397 004e 0323     		movs	r3, #3
 7398 0050 0FE0     		b	.L363
 7399              	.L361:
3515:Drivers/STM32F4xx_HAL_Driver/Src/stm32f4xx_hal_spi.c ****     }
3516:Drivers/STM32F4xx_HAL_Driver/Src/stm32f4xx_hal_spi.c ****   }
3517:Drivers/STM32F4xx_HAL_Driver/Src/stm32f4xx_hal_spi.c ****   else
3518:Drivers/STM32F4xx_HAL_Driver/Src/stm32f4xx_hal_spi.c ****   {
3519:Drivers/STM32F4xx_HAL_Driver/Src/stm32f4xx_hal_spi.c ****     /* Wait BSY flag during 1 Byte time transfer in case of Full-Duplex and Tx transfer
3520:Drivers/STM32F4xx_HAL_Driver/Src/stm32f4xx_hal_spi.c ****     * If Timeout is reached, the transfer is considered as finish.
3521:Drivers/STM32F4xx_HAL_Driver/Src/stm32f4xx_hal_spi.c ****     * User have to calculate the timeout value to fit with the time of 1 byte transfer.
3522:Drivers/STM32F4xx_HAL_Driver/Src/stm32f4xx_hal_spi.c ****     * This time is directly link with the SPI clock from Master device.
3523:Drivers/STM32F4xx_HAL_Driver/Src/stm32f4xx_hal_spi.c ****     */
3524:Drivers/STM32F4xx_HAL_Driver/Src/stm32f4xx_hal_spi.c ****     do
3525:Drivers/STM32F4xx_HAL_Driver/Src/stm32f4xx_hal_spi.c ****     {
3526:Drivers/STM32F4xx_HAL_Driver/Src/stm32f4xx_hal_spi.c ****       if (count == 0U)
 7400              		.loc 1 3526 17
 7401 0052 7B69     		ldr	r3, [r7, #20]
 7402              		.loc 1 3526 10
 7403 0054 002B     		cmp	r3, #0
 7404 0056 0AD0     		beq	.L365
3527:Drivers/STM32F4xx_HAL_Driver/Src/stm32f4xx_hal_spi.c ****       {
3528:Drivers/STM32F4xx_HAL_Driver/Src/stm32f4xx_hal_spi.c ****         break;
3529:Drivers/STM32F4xx_HAL_Driver/Src/stm32f4xx_hal_spi.c ****       }
3530:Drivers/STM32F4xx_HAL_Driver/Src/stm32f4xx_hal_spi.c ****       count--;
 7405              		.loc 1 3530 12
 7406 0058 7B69     		ldr	r3, [r7, #20]
 7407 005a 013B     		subs	r3, r3, #1
 7408 005c 7B61     		str	r3, [r7, #20]
3531:Drivers/STM32F4xx_HAL_Driver/Src/stm32f4xx_hal_spi.c ****     } while (__HAL_SPI_GET_FLAG(hspi, SPI_FLAG_BSY) != RESET);
 7409              		.loc 1 3531 14
 7410 005e FB68     		ldr	r3, [r7, #12]
 7411 0060 1B68     		ldr	r3, [r3]
 7412 0062 9B68     		ldr	r3, [r3, #8]
 7413 0064 03F08003 		and	r3, r3, #128
 7414              		.loc 1 3531 5
 7415 0068 802B     		cmp	r3, #128
 7416 006a F2D0     		beq	.L361
 7417 006c 00E0     		b	.L362
 7418              	.L365:
ARM GAS  /tmp/cc9N7Buw.s 			page 192


3528:Drivers/STM32F4xx_HAL_Driver/Src/stm32f4xx_hal_spi.c ****       }
 7419              		.loc 1 3528 9
 7420 006e 00BF     		nop
 7421              	.L362:
3532:Drivers/STM32F4xx_HAL_Driver/Src/stm32f4xx_hal_spi.c ****   }
3533:Drivers/STM32F4xx_HAL_Driver/Src/stm32f4xx_hal_spi.c **** 
3534:Drivers/STM32F4xx_HAL_Driver/Src/stm32f4xx_hal_spi.c ****   return HAL_OK;
 7422              		.loc 1 3534 10
 7423 0070 0023     		movs	r3, #0
 7424              	.L363:
3535:Drivers/STM32F4xx_HAL_Driver/Src/stm32f4xx_hal_spi.c **** }
 7425              		.loc 1 3535 1
 7426 0072 1846     		mov	r0, r3
 7427 0074 1837     		adds	r7, r7, #24
 7428              	.LCFI262:
 7429              		.cfi_def_cfa_offset 8
 7430 0076 BD46     		mov	sp, r7
 7431              	.LCFI263:
 7432              		.cfi_def_cfa_register 13
 7433              		@ sp needed
 7434 0078 80BD     		pop	{r7, pc}
 7435              	.L367:
 7436 007a 00BF     		.align	2
 7437              	.L366:
 7438 007c 00000000 		.word	SystemCoreClock
 7439 0080 819F5E16 		.word	375299969
 7440              		.cfi_endproc
 7441              	.LFE179:
 7443              		.section	.text.SPI_CloseRxTx_ISR,"ax",%progbits
 7444              		.align	1
 7445              		.syntax unified
 7446              		.thumb
 7447              		.thumb_func
 7448              		.fpu fpv4-sp-d16
 7450              	SPI_CloseRxTx_ISR:
 7451              	.LFB180:
3536:Drivers/STM32F4xx_HAL_Driver/Src/stm32f4xx_hal_spi.c **** 
3537:Drivers/STM32F4xx_HAL_Driver/Src/stm32f4xx_hal_spi.c **** /**
3538:Drivers/STM32F4xx_HAL_Driver/Src/stm32f4xx_hal_spi.c ****   * @brief  Handle the end of the RXTX transaction.
3539:Drivers/STM32F4xx_HAL_Driver/Src/stm32f4xx_hal_spi.c ****   * @param  hspi pointer to a SPI_HandleTypeDef structure that contains
3540:Drivers/STM32F4xx_HAL_Driver/Src/stm32f4xx_hal_spi.c ****   *               the configuration information for SPI module.
3541:Drivers/STM32F4xx_HAL_Driver/Src/stm32f4xx_hal_spi.c ****   * @retval None
3542:Drivers/STM32F4xx_HAL_Driver/Src/stm32f4xx_hal_spi.c ****   */
3543:Drivers/STM32F4xx_HAL_Driver/Src/stm32f4xx_hal_spi.c **** static void SPI_CloseRxTx_ISR(SPI_HandleTypeDef *hspi)
3544:Drivers/STM32F4xx_HAL_Driver/Src/stm32f4xx_hal_spi.c **** {
 7452              		.loc 1 3544 1
 7453              		.cfi_startproc
 7454              		@ args = 0, pretend = 0, frame = 24
 7455              		@ frame_needed = 1, uses_anonymous_args = 0
 7456 0000 80B5     		push	{r7, lr}
 7457              	.LCFI264:
 7458              		.cfi_def_cfa_offset 8
 7459              		.cfi_offset 7, -8
 7460              		.cfi_offset 14, -4
 7461 0002 86B0     		sub	sp, sp, #24
 7462              	.LCFI265:
 7463              		.cfi_def_cfa_offset 32
ARM GAS  /tmp/cc9N7Buw.s 			page 193


 7464 0004 00AF     		add	r7, sp, #0
 7465              	.LCFI266:
 7466              		.cfi_def_cfa_register 7
 7467 0006 7860     		str	r0, [r7, #4]
3545:Drivers/STM32F4xx_HAL_Driver/Src/stm32f4xx_hal_spi.c ****   uint32_t tickstart;
3546:Drivers/STM32F4xx_HAL_Driver/Src/stm32f4xx_hal_spi.c ****   __IO uint32_t count = SPI_DEFAULT_TIMEOUT * (SystemCoreClock / 24U / 1000U);
 7468              		.loc 1 3546 70
 7469 0008 354B     		ldr	r3, .L378
 7470 000a 1B68     		ldr	r3, [r3]
 7471 000c 354A     		ldr	r2, .L378+4
 7472 000e A2FB0323 		umull	r2, r3, r2, r3
 7473 0012 5B0A     		lsrs	r3, r3, #9
 7474              		.loc 1 3546 45
 7475 0014 6422     		movs	r2, #100
 7476 0016 02FB03F3 		mul	r3, r2, r3
 7477              		.loc 1 3546 17
 7478 001a 3B61     		str	r3, [r7, #16]
3547:Drivers/STM32F4xx_HAL_Driver/Src/stm32f4xx_hal_spi.c **** 
3548:Drivers/STM32F4xx_HAL_Driver/Src/stm32f4xx_hal_spi.c ****   /* Init tickstart for timeout managment*/
3549:Drivers/STM32F4xx_HAL_Driver/Src/stm32f4xx_hal_spi.c ****   tickstart = HAL_GetTick();
 7479              		.loc 1 3549 15
 7480 001c FFF7FEFF 		bl	HAL_GetTick
 7481 0020 7861     		str	r0, [r7, #20]
3550:Drivers/STM32F4xx_HAL_Driver/Src/stm32f4xx_hal_spi.c **** 
3551:Drivers/STM32F4xx_HAL_Driver/Src/stm32f4xx_hal_spi.c ****   /* Disable ERR interrupt */
3552:Drivers/STM32F4xx_HAL_Driver/Src/stm32f4xx_hal_spi.c ****   __HAL_SPI_DISABLE_IT(hspi, SPI_IT_ERR);
 7482              		.loc 1 3552 3
 7483 0022 7B68     		ldr	r3, [r7, #4]
 7484 0024 1B68     		ldr	r3, [r3]
 7485 0026 5A68     		ldr	r2, [r3, #4]
 7486 0028 7B68     		ldr	r3, [r7, #4]
 7487 002a 1B68     		ldr	r3, [r3]
 7488 002c 22F02002 		bic	r2, r2, #32
 7489 0030 5A60     		str	r2, [r3, #4]
 7490              	.L371:
3553:Drivers/STM32F4xx_HAL_Driver/Src/stm32f4xx_hal_spi.c **** 
3554:Drivers/STM32F4xx_HAL_Driver/Src/stm32f4xx_hal_spi.c ****   /* Wait until TXE flag is set */
3555:Drivers/STM32F4xx_HAL_Driver/Src/stm32f4xx_hal_spi.c ****   do
3556:Drivers/STM32F4xx_HAL_Driver/Src/stm32f4xx_hal_spi.c ****   {
3557:Drivers/STM32F4xx_HAL_Driver/Src/stm32f4xx_hal_spi.c ****     if (count == 0U)
 7491              		.loc 1 3557 15
 7492 0032 3B69     		ldr	r3, [r7, #16]
 7493              		.loc 1 3557 8
 7494 0034 002B     		cmp	r3, #0
 7495 0036 06D1     		bne	.L369
3558:Drivers/STM32F4xx_HAL_Driver/Src/stm32f4xx_hal_spi.c ****     {
3559:Drivers/STM32F4xx_HAL_Driver/Src/stm32f4xx_hal_spi.c ****       SET_BIT(hspi->ErrorCode, HAL_SPI_ERROR_FLAG);
 7496              		.loc 1 3559 7
 7497 0038 7B68     		ldr	r3, [r7, #4]
 7498 003a 5B6D     		ldr	r3, [r3, #84]
 7499 003c 43F02002 		orr	r2, r3, #32
 7500 0040 7B68     		ldr	r3, [r7, #4]
 7501 0042 5A65     		str	r2, [r3, #84]
3560:Drivers/STM32F4xx_HAL_Driver/Src/stm32f4xx_hal_spi.c ****       break;
 7502              		.loc 1 3560 7
 7503 0044 09E0     		b	.L370
 7504              	.L369:
ARM GAS  /tmp/cc9N7Buw.s 			page 194


3561:Drivers/STM32F4xx_HAL_Driver/Src/stm32f4xx_hal_spi.c ****     }
3562:Drivers/STM32F4xx_HAL_Driver/Src/stm32f4xx_hal_spi.c ****     count--;
 7505              		.loc 1 3562 10
 7506 0046 3B69     		ldr	r3, [r7, #16]
 7507 0048 013B     		subs	r3, r3, #1
 7508 004a 3B61     		str	r3, [r7, #16]
3563:Drivers/STM32F4xx_HAL_Driver/Src/stm32f4xx_hal_spi.c ****   } while ((hspi->Instance->SR & SPI_FLAG_TXE) == RESET);
 7509              		.loc 1 3563 17
 7510 004c 7B68     		ldr	r3, [r7, #4]
 7511 004e 1B68     		ldr	r3, [r3]
 7512              		.loc 1 3563 27
 7513 0050 9B68     		ldr	r3, [r3, #8]
 7514              		.loc 1 3563 32
 7515 0052 03F00203 		and	r3, r3, #2
 7516              		.loc 1 3563 3
 7517 0056 002B     		cmp	r3, #0
 7518 0058 EBD0     		beq	.L371
 7519              	.L370:
3564:Drivers/STM32F4xx_HAL_Driver/Src/stm32f4xx_hal_spi.c **** 
3565:Drivers/STM32F4xx_HAL_Driver/Src/stm32f4xx_hal_spi.c ****   /* Check the end of the transaction */
3566:Drivers/STM32F4xx_HAL_Driver/Src/stm32f4xx_hal_spi.c ****   if (SPI_EndRxTxTransaction(hspi, SPI_DEFAULT_TIMEOUT, tickstart) != HAL_OK)
 7520              		.loc 1 3566 7
 7521 005a 7A69     		ldr	r2, [r7, #20]
 7522 005c 6421     		movs	r1, #100
 7523 005e 7868     		ldr	r0, [r7, #4]
 7524 0060 FFF7FEFF 		bl	SPI_EndRxTxTransaction
 7525 0064 0346     		mov	r3, r0
 7526              		.loc 1 3566 6
 7527 0066 002B     		cmp	r3, #0
 7528 0068 05D0     		beq	.L372
3567:Drivers/STM32F4xx_HAL_Driver/Src/stm32f4xx_hal_spi.c ****   {
3568:Drivers/STM32F4xx_HAL_Driver/Src/stm32f4xx_hal_spi.c ****     SET_BIT(hspi->ErrorCode, HAL_SPI_ERROR_FLAG);
 7529              		.loc 1 3568 5
 7530 006a 7B68     		ldr	r3, [r7, #4]
 7531 006c 5B6D     		ldr	r3, [r3, #84]
 7532 006e 43F02002 		orr	r2, r3, #32
 7533 0072 7B68     		ldr	r3, [r7, #4]
 7534 0074 5A65     		str	r2, [r3, #84]
 7535              	.L372:
3569:Drivers/STM32F4xx_HAL_Driver/Src/stm32f4xx_hal_spi.c ****   }
3570:Drivers/STM32F4xx_HAL_Driver/Src/stm32f4xx_hal_spi.c **** 
3571:Drivers/STM32F4xx_HAL_Driver/Src/stm32f4xx_hal_spi.c ****   /* Clear overrun flag in 2 Lines communication mode because received is not read */
3572:Drivers/STM32F4xx_HAL_Driver/Src/stm32f4xx_hal_spi.c ****   if (hspi->Init.Direction == SPI_DIRECTION_2LINES)
 7536              		.loc 1 3572 17
 7537 0076 7B68     		ldr	r3, [r7, #4]
 7538 0078 9B68     		ldr	r3, [r3, #8]
 7539              		.loc 1 3572 6
 7540 007a 002B     		cmp	r3, #0
 7541 007c 0AD1     		bne	.L373
 7542              	.LBB17:
3573:Drivers/STM32F4xx_HAL_Driver/Src/stm32f4xx_hal_spi.c ****   {
3574:Drivers/STM32F4xx_HAL_Driver/Src/stm32f4xx_hal_spi.c ****     __HAL_SPI_CLEAR_OVRFLAG(hspi);
 7543              		.loc 1 3574 5
 7544 007e 0023     		movs	r3, #0
 7545 0080 FB60     		str	r3, [r7, #12]
 7546 0082 7B68     		ldr	r3, [r7, #4]
 7547 0084 1B68     		ldr	r3, [r3]
ARM GAS  /tmp/cc9N7Buw.s 			page 195


 7548 0086 DB68     		ldr	r3, [r3, #12]
 7549 0088 FB60     		str	r3, [r7, #12]
 7550 008a 7B68     		ldr	r3, [r7, #4]
 7551 008c 1B68     		ldr	r3, [r3]
 7552 008e 9B68     		ldr	r3, [r3, #8]
 7553 0090 FB60     		str	r3, [r7, #12]
 7554 0092 FB68     		ldr	r3, [r7, #12]
 7555              	.L373:
 7556              	.LBE17:
3575:Drivers/STM32F4xx_HAL_Driver/Src/stm32f4xx_hal_spi.c ****   }
3576:Drivers/STM32F4xx_HAL_Driver/Src/stm32f4xx_hal_spi.c **** 
3577:Drivers/STM32F4xx_HAL_Driver/Src/stm32f4xx_hal_spi.c **** #if (USE_SPI_CRC != 0U)
3578:Drivers/STM32F4xx_HAL_Driver/Src/stm32f4xx_hal_spi.c ****   /* Check if CRC error occurred */
3579:Drivers/STM32F4xx_HAL_Driver/Src/stm32f4xx_hal_spi.c ****   if (__HAL_SPI_GET_FLAG(hspi, SPI_FLAG_CRCERR) != RESET)
3580:Drivers/STM32F4xx_HAL_Driver/Src/stm32f4xx_hal_spi.c ****   {
3581:Drivers/STM32F4xx_HAL_Driver/Src/stm32f4xx_hal_spi.c ****     hspi->State = HAL_SPI_STATE_READY;
3582:Drivers/STM32F4xx_HAL_Driver/Src/stm32f4xx_hal_spi.c ****     SET_BIT(hspi->ErrorCode, HAL_SPI_ERROR_CRC);
3583:Drivers/STM32F4xx_HAL_Driver/Src/stm32f4xx_hal_spi.c ****     __HAL_SPI_CLEAR_CRCERRFLAG(hspi);
3584:Drivers/STM32F4xx_HAL_Driver/Src/stm32f4xx_hal_spi.c ****     /* Call user error callback */
3585:Drivers/STM32F4xx_HAL_Driver/Src/stm32f4xx_hal_spi.c **** #if (USE_HAL_SPI_REGISTER_CALLBACKS == 1U)
3586:Drivers/STM32F4xx_HAL_Driver/Src/stm32f4xx_hal_spi.c ****     hspi->ErrorCallback(hspi);
3587:Drivers/STM32F4xx_HAL_Driver/Src/stm32f4xx_hal_spi.c **** #else
3588:Drivers/STM32F4xx_HAL_Driver/Src/stm32f4xx_hal_spi.c ****     HAL_SPI_ErrorCallback(hspi);
3589:Drivers/STM32F4xx_HAL_Driver/Src/stm32f4xx_hal_spi.c **** #endif /* USE_HAL_SPI_REGISTER_CALLBACKS */
3590:Drivers/STM32F4xx_HAL_Driver/Src/stm32f4xx_hal_spi.c ****   }
3591:Drivers/STM32F4xx_HAL_Driver/Src/stm32f4xx_hal_spi.c ****   else
3592:Drivers/STM32F4xx_HAL_Driver/Src/stm32f4xx_hal_spi.c ****   {
3593:Drivers/STM32F4xx_HAL_Driver/Src/stm32f4xx_hal_spi.c **** #endif /* USE_SPI_CRC */
3594:Drivers/STM32F4xx_HAL_Driver/Src/stm32f4xx_hal_spi.c ****     if (hspi->ErrorCode == HAL_SPI_ERROR_NONE)
 7557              		.loc 1 3594 13
 7558 0094 7B68     		ldr	r3, [r7, #4]
 7559 0096 5B6D     		ldr	r3, [r3, #84]
 7560              		.loc 1 3594 8
 7561 0098 002B     		cmp	r3, #0
 7562 009a 15D1     		bne	.L374
3595:Drivers/STM32F4xx_HAL_Driver/Src/stm32f4xx_hal_spi.c ****     {
3596:Drivers/STM32F4xx_HAL_Driver/Src/stm32f4xx_hal_spi.c ****       if (hspi->State == HAL_SPI_STATE_BUSY_RX)
 7563              		.loc 1 3596 15
 7564 009c 7B68     		ldr	r3, [r7, #4]
 7565 009e 93F85130 		ldrb	r3, [r3, #81]
 7566 00a2 DBB2     		uxtb	r3, r3
 7567              		.loc 1 3596 10
 7568 00a4 042B     		cmp	r3, #4
 7569 00a6 07D1     		bne	.L375
3597:Drivers/STM32F4xx_HAL_Driver/Src/stm32f4xx_hal_spi.c ****       {
3598:Drivers/STM32F4xx_HAL_Driver/Src/stm32f4xx_hal_spi.c ****         hspi->State = HAL_SPI_STATE_READY;
 7570              		.loc 1 3598 21
 7571 00a8 7B68     		ldr	r3, [r7, #4]
 7572 00aa 0122     		movs	r2, #1
 7573 00ac 83F85120 		strb	r2, [r3, #81]
3599:Drivers/STM32F4xx_HAL_Driver/Src/stm32f4xx_hal_spi.c ****         /* Call user Rx complete callback */
3600:Drivers/STM32F4xx_HAL_Driver/Src/stm32f4xx_hal_spi.c **** #if (USE_HAL_SPI_REGISTER_CALLBACKS == 1U)
3601:Drivers/STM32F4xx_HAL_Driver/Src/stm32f4xx_hal_spi.c ****         hspi->RxCpltCallback(hspi);
3602:Drivers/STM32F4xx_HAL_Driver/Src/stm32f4xx_hal_spi.c **** #else
3603:Drivers/STM32F4xx_HAL_Driver/Src/stm32f4xx_hal_spi.c ****         HAL_SPI_RxCpltCallback(hspi);
 7574              		.loc 1 3603 9
 7575 00b0 7868     		ldr	r0, [r7, #4]
ARM GAS  /tmp/cc9N7Buw.s 			page 196


 7576 00b2 FFF7FEFF 		bl	HAL_SPI_RxCpltCallback
3604:Drivers/STM32F4xx_HAL_Driver/Src/stm32f4xx_hal_spi.c **** #endif /* USE_HAL_SPI_REGISTER_CALLBACKS */
3605:Drivers/STM32F4xx_HAL_Driver/Src/stm32f4xx_hal_spi.c ****       }
3606:Drivers/STM32F4xx_HAL_Driver/Src/stm32f4xx_hal_spi.c ****       else
3607:Drivers/STM32F4xx_HAL_Driver/Src/stm32f4xx_hal_spi.c ****       {
3608:Drivers/STM32F4xx_HAL_Driver/Src/stm32f4xx_hal_spi.c ****         hspi->State = HAL_SPI_STATE_READY;
3609:Drivers/STM32F4xx_HAL_Driver/Src/stm32f4xx_hal_spi.c ****         /* Call user TxRx complete callback */
3610:Drivers/STM32F4xx_HAL_Driver/Src/stm32f4xx_hal_spi.c **** #if (USE_HAL_SPI_REGISTER_CALLBACKS == 1U)
3611:Drivers/STM32F4xx_HAL_Driver/Src/stm32f4xx_hal_spi.c ****         hspi->TxRxCpltCallback(hspi);
3612:Drivers/STM32F4xx_HAL_Driver/Src/stm32f4xx_hal_spi.c **** #else
3613:Drivers/STM32F4xx_HAL_Driver/Src/stm32f4xx_hal_spi.c ****         HAL_SPI_TxRxCpltCallback(hspi);
3614:Drivers/STM32F4xx_HAL_Driver/Src/stm32f4xx_hal_spi.c **** #endif /* USE_HAL_SPI_REGISTER_CALLBACKS */
3615:Drivers/STM32F4xx_HAL_Driver/Src/stm32f4xx_hal_spi.c ****       }
3616:Drivers/STM32F4xx_HAL_Driver/Src/stm32f4xx_hal_spi.c ****     }
3617:Drivers/STM32F4xx_HAL_Driver/Src/stm32f4xx_hal_spi.c ****     else
3618:Drivers/STM32F4xx_HAL_Driver/Src/stm32f4xx_hal_spi.c ****     {
3619:Drivers/STM32F4xx_HAL_Driver/Src/stm32f4xx_hal_spi.c ****       hspi->State = HAL_SPI_STATE_READY;
3620:Drivers/STM32F4xx_HAL_Driver/Src/stm32f4xx_hal_spi.c ****       /* Call user error callback */
3621:Drivers/STM32F4xx_HAL_Driver/Src/stm32f4xx_hal_spi.c **** #if (USE_HAL_SPI_REGISTER_CALLBACKS == 1U)
3622:Drivers/STM32F4xx_HAL_Driver/Src/stm32f4xx_hal_spi.c ****       hspi->ErrorCallback(hspi);
3623:Drivers/STM32F4xx_HAL_Driver/Src/stm32f4xx_hal_spi.c **** #else
3624:Drivers/STM32F4xx_HAL_Driver/Src/stm32f4xx_hal_spi.c ****       HAL_SPI_ErrorCallback(hspi);
3625:Drivers/STM32F4xx_HAL_Driver/Src/stm32f4xx_hal_spi.c **** #endif /* USE_HAL_SPI_REGISTER_CALLBACKS */
3626:Drivers/STM32F4xx_HAL_Driver/Src/stm32f4xx_hal_spi.c ****     }
3627:Drivers/STM32F4xx_HAL_Driver/Src/stm32f4xx_hal_spi.c **** #if (USE_SPI_CRC != 0U)
3628:Drivers/STM32F4xx_HAL_Driver/Src/stm32f4xx_hal_spi.c ****   }
3629:Drivers/STM32F4xx_HAL_Driver/Src/stm32f4xx_hal_spi.c **** #endif /* USE_SPI_CRC */
3630:Drivers/STM32F4xx_HAL_Driver/Src/stm32f4xx_hal_spi.c **** }
 7577              		.loc 1 3630 1
 7578 00b6 0EE0     		b	.L377
 7579              	.L375:
3608:Drivers/STM32F4xx_HAL_Driver/Src/stm32f4xx_hal_spi.c ****         /* Call user TxRx complete callback */
 7580              		.loc 1 3608 21
 7581 00b8 7B68     		ldr	r3, [r7, #4]
 7582 00ba 0122     		movs	r2, #1
 7583 00bc 83F85120 		strb	r2, [r3, #81]
3613:Drivers/STM32F4xx_HAL_Driver/Src/stm32f4xx_hal_spi.c **** #endif /* USE_HAL_SPI_REGISTER_CALLBACKS */
 7584              		.loc 1 3613 9
 7585 00c0 7868     		ldr	r0, [r7, #4]
 7586 00c2 FFF7FEFF 		bl	HAL_SPI_TxRxCpltCallback
 7587              		.loc 1 3630 1
 7588 00c6 06E0     		b	.L377
 7589              	.L374:
3619:Drivers/STM32F4xx_HAL_Driver/Src/stm32f4xx_hal_spi.c ****       /* Call user error callback */
 7590              		.loc 1 3619 19
 7591 00c8 7B68     		ldr	r3, [r7, #4]
 7592 00ca 0122     		movs	r2, #1
 7593 00cc 83F85120 		strb	r2, [r3, #81]
3624:Drivers/STM32F4xx_HAL_Driver/Src/stm32f4xx_hal_spi.c **** #endif /* USE_HAL_SPI_REGISTER_CALLBACKS */
 7594              		.loc 1 3624 7
 7595 00d0 7868     		ldr	r0, [r7, #4]
 7596 00d2 FFF7FEFF 		bl	HAL_SPI_ErrorCallback
 7597              	.L377:
 7598              		.loc 1 3630 1
 7599 00d6 00BF     		nop
 7600 00d8 1837     		adds	r7, r7, #24
 7601              	.LCFI267:
ARM GAS  /tmp/cc9N7Buw.s 			page 197


 7602              		.cfi_def_cfa_offset 8
 7603 00da BD46     		mov	sp, r7
 7604              	.LCFI268:
 7605              		.cfi_def_cfa_register 13
 7606              		@ sp needed
 7607 00dc 80BD     		pop	{r7, pc}
 7608              	.L379:
 7609 00de 00BF     		.align	2
 7610              	.L378:
 7611 00e0 00000000 		.word	SystemCoreClock
 7612 00e4 F1197605 		.word	91625969
 7613              		.cfi_endproc
 7614              	.LFE180:
 7616              		.section	.text.SPI_CloseRx_ISR,"ax",%progbits
 7617              		.align	1
 7618              		.syntax unified
 7619              		.thumb
 7620              		.thumb_func
 7621              		.fpu fpv4-sp-d16
 7623              	SPI_CloseRx_ISR:
 7624              	.LFB181:
3631:Drivers/STM32F4xx_HAL_Driver/Src/stm32f4xx_hal_spi.c **** 
3632:Drivers/STM32F4xx_HAL_Driver/Src/stm32f4xx_hal_spi.c **** /**
3633:Drivers/STM32F4xx_HAL_Driver/Src/stm32f4xx_hal_spi.c ****   * @brief  Handle the end of the RX transaction.
3634:Drivers/STM32F4xx_HAL_Driver/Src/stm32f4xx_hal_spi.c ****   * @param  hspi pointer to a SPI_HandleTypeDef structure that contains
3635:Drivers/STM32F4xx_HAL_Driver/Src/stm32f4xx_hal_spi.c ****   *               the configuration information for SPI module.
3636:Drivers/STM32F4xx_HAL_Driver/Src/stm32f4xx_hal_spi.c ****   * @retval None
3637:Drivers/STM32F4xx_HAL_Driver/Src/stm32f4xx_hal_spi.c ****   */
3638:Drivers/STM32F4xx_HAL_Driver/Src/stm32f4xx_hal_spi.c **** static void SPI_CloseRx_ISR(SPI_HandleTypeDef *hspi)
3639:Drivers/STM32F4xx_HAL_Driver/Src/stm32f4xx_hal_spi.c **** {
 7625              		.loc 1 3639 1
 7626              		.cfi_startproc
 7627              		@ args = 0, pretend = 0, frame = 16
 7628              		@ frame_needed = 1, uses_anonymous_args = 0
 7629 0000 80B5     		push	{r7, lr}
 7630              	.LCFI269:
 7631              		.cfi_def_cfa_offset 8
 7632              		.cfi_offset 7, -8
 7633              		.cfi_offset 14, -4
 7634 0002 84B0     		sub	sp, sp, #16
 7635              	.LCFI270:
 7636              		.cfi_def_cfa_offset 24
 7637 0004 00AF     		add	r7, sp, #0
 7638              	.LCFI271:
 7639              		.cfi_def_cfa_register 7
 7640 0006 7860     		str	r0, [r7, #4]
3640:Drivers/STM32F4xx_HAL_Driver/Src/stm32f4xx_hal_spi.c ****   /* Disable RXNE and ERR interrupt */
3641:Drivers/STM32F4xx_HAL_Driver/Src/stm32f4xx_hal_spi.c ****   __HAL_SPI_DISABLE_IT(hspi, (SPI_IT_RXNE | SPI_IT_ERR));
 7641              		.loc 1 3641 3
 7642 0008 7B68     		ldr	r3, [r7, #4]
 7643 000a 1B68     		ldr	r3, [r3]
 7644 000c 5A68     		ldr	r2, [r3, #4]
 7645 000e 7B68     		ldr	r3, [r7, #4]
 7646 0010 1B68     		ldr	r3, [r3]
 7647 0012 22F06002 		bic	r2, r2, #96
 7648 0016 5A60     		str	r2, [r3, #4]
3642:Drivers/STM32F4xx_HAL_Driver/Src/stm32f4xx_hal_spi.c **** 
ARM GAS  /tmp/cc9N7Buw.s 			page 198


3643:Drivers/STM32F4xx_HAL_Driver/Src/stm32f4xx_hal_spi.c ****   /* Check the end of the transaction */
3644:Drivers/STM32F4xx_HAL_Driver/Src/stm32f4xx_hal_spi.c ****   if (SPI_EndRxTransaction(hspi, SPI_DEFAULT_TIMEOUT, HAL_GetTick()) != HAL_OK)
 7649              		.loc 1 3644 7
 7650 0018 FFF7FEFF 		bl	HAL_GetTick
 7651 001c 0346     		mov	r3, r0
 7652 001e 1A46     		mov	r2, r3
 7653 0020 6421     		movs	r1, #100
 7654 0022 7868     		ldr	r0, [r7, #4]
 7655 0024 FFF7FEFF 		bl	SPI_EndRxTransaction
 7656 0028 0346     		mov	r3, r0
 7657              		.loc 1 3644 6
 7658 002a 002B     		cmp	r3, #0
 7659 002c 05D0     		beq	.L381
3645:Drivers/STM32F4xx_HAL_Driver/Src/stm32f4xx_hal_spi.c ****   {
3646:Drivers/STM32F4xx_HAL_Driver/Src/stm32f4xx_hal_spi.c ****     SET_BIT(hspi->ErrorCode, HAL_SPI_ERROR_FLAG);
 7660              		.loc 1 3646 5
 7661 002e 7B68     		ldr	r3, [r7, #4]
 7662 0030 5B6D     		ldr	r3, [r3, #84]
 7663 0032 43F02002 		orr	r2, r3, #32
 7664 0036 7B68     		ldr	r3, [r7, #4]
 7665 0038 5A65     		str	r2, [r3, #84]
 7666              	.L381:
3647:Drivers/STM32F4xx_HAL_Driver/Src/stm32f4xx_hal_spi.c ****   }
3648:Drivers/STM32F4xx_HAL_Driver/Src/stm32f4xx_hal_spi.c **** 
3649:Drivers/STM32F4xx_HAL_Driver/Src/stm32f4xx_hal_spi.c ****   /* Clear overrun flag in 2 Lines communication mode because received is not read */
3650:Drivers/STM32F4xx_HAL_Driver/Src/stm32f4xx_hal_spi.c ****   if (hspi->Init.Direction == SPI_DIRECTION_2LINES)
 7667              		.loc 1 3650 17
 7668 003a 7B68     		ldr	r3, [r7, #4]
 7669 003c 9B68     		ldr	r3, [r3, #8]
 7670              		.loc 1 3650 6
 7671 003e 002B     		cmp	r3, #0
 7672 0040 0AD1     		bne	.L382
 7673              	.LBB18:
3651:Drivers/STM32F4xx_HAL_Driver/Src/stm32f4xx_hal_spi.c ****   {
3652:Drivers/STM32F4xx_HAL_Driver/Src/stm32f4xx_hal_spi.c ****     __HAL_SPI_CLEAR_OVRFLAG(hspi);
 7674              		.loc 1 3652 5
 7675 0042 0023     		movs	r3, #0
 7676 0044 FB60     		str	r3, [r7, #12]
 7677 0046 7B68     		ldr	r3, [r7, #4]
 7678 0048 1B68     		ldr	r3, [r3]
 7679 004a DB68     		ldr	r3, [r3, #12]
 7680 004c FB60     		str	r3, [r7, #12]
 7681 004e 7B68     		ldr	r3, [r7, #4]
 7682 0050 1B68     		ldr	r3, [r3]
 7683 0052 9B68     		ldr	r3, [r3, #8]
 7684 0054 FB60     		str	r3, [r7, #12]
 7685 0056 FB68     		ldr	r3, [r7, #12]
 7686              	.L382:
 7687              	.LBE18:
3653:Drivers/STM32F4xx_HAL_Driver/Src/stm32f4xx_hal_spi.c ****   }
3654:Drivers/STM32F4xx_HAL_Driver/Src/stm32f4xx_hal_spi.c ****   hspi->State = HAL_SPI_STATE_READY;
 7688              		.loc 1 3654 15
 7689 0058 7B68     		ldr	r3, [r7, #4]
 7690 005a 0122     		movs	r2, #1
 7691 005c 83F85120 		strb	r2, [r3, #81]
3655:Drivers/STM32F4xx_HAL_Driver/Src/stm32f4xx_hal_spi.c **** 
3656:Drivers/STM32F4xx_HAL_Driver/Src/stm32f4xx_hal_spi.c **** #if (USE_SPI_CRC != 0U)
ARM GAS  /tmp/cc9N7Buw.s 			page 199


3657:Drivers/STM32F4xx_HAL_Driver/Src/stm32f4xx_hal_spi.c ****   /* Check if CRC error occurred */
3658:Drivers/STM32F4xx_HAL_Driver/Src/stm32f4xx_hal_spi.c ****   if (__HAL_SPI_GET_FLAG(hspi, SPI_FLAG_CRCERR) != RESET)
3659:Drivers/STM32F4xx_HAL_Driver/Src/stm32f4xx_hal_spi.c ****   {
3660:Drivers/STM32F4xx_HAL_Driver/Src/stm32f4xx_hal_spi.c ****     SET_BIT(hspi->ErrorCode, HAL_SPI_ERROR_CRC);
3661:Drivers/STM32F4xx_HAL_Driver/Src/stm32f4xx_hal_spi.c ****     __HAL_SPI_CLEAR_CRCERRFLAG(hspi);
3662:Drivers/STM32F4xx_HAL_Driver/Src/stm32f4xx_hal_spi.c ****     /* Call user error callback */
3663:Drivers/STM32F4xx_HAL_Driver/Src/stm32f4xx_hal_spi.c **** #if (USE_HAL_SPI_REGISTER_CALLBACKS == 1U)
3664:Drivers/STM32F4xx_HAL_Driver/Src/stm32f4xx_hal_spi.c ****     hspi->ErrorCallback(hspi);
3665:Drivers/STM32F4xx_HAL_Driver/Src/stm32f4xx_hal_spi.c **** #else
3666:Drivers/STM32F4xx_HAL_Driver/Src/stm32f4xx_hal_spi.c ****     HAL_SPI_ErrorCallback(hspi);
3667:Drivers/STM32F4xx_HAL_Driver/Src/stm32f4xx_hal_spi.c **** #endif /* USE_HAL_SPI_REGISTER_CALLBACKS */
3668:Drivers/STM32F4xx_HAL_Driver/Src/stm32f4xx_hal_spi.c ****   }
3669:Drivers/STM32F4xx_HAL_Driver/Src/stm32f4xx_hal_spi.c ****   else
3670:Drivers/STM32F4xx_HAL_Driver/Src/stm32f4xx_hal_spi.c ****   {
3671:Drivers/STM32F4xx_HAL_Driver/Src/stm32f4xx_hal_spi.c **** #endif /* USE_SPI_CRC */
3672:Drivers/STM32F4xx_HAL_Driver/Src/stm32f4xx_hal_spi.c ****     if (hspi->ErrorCode == HAL_SPI_ERROR_NONE)
 7692              		.loc 1 3672 13
 7693 0060 7B68     		ldr	r3, [r7, #4]
 7694 0062 5B6D     		ldr	r3, [r3, #84]
 7695              		.loc 1 3672 8
 7696 0064 002B     		cmp	r3, #0
 7697 0066 03D1     		bne	.L383
3673:Drivers/STM32F4xx_HAL_Driver/Src/stm32f4xx_hal_spi.c ****     {
3674:Drivers/STM32F4xx_HAL_Driver/Src/stm32f4xx_hal_spi.c ****       /* Call user Rx complete callback */
3675:Drivers/STM32F4xx_HAL_Driver/Src/stm32f4xx_hal_spi.c **** #if (USE_HAL_SPI_REGISTER_CALLBACKS == 1U)
3676:Drivers/STM32F4xx_HAL_Driver/Src/stm32f4xx_hal_spi.c ****       hspi->RxCpltCallback(hspi);
3677:Drivers/STM32F4xx_HAL_Driver/Src/stm32f4xx_hal_spi.c **** #else
3678:Drivers/STM32F4xx_HAL_Driver/Src/stm32f4xx_hal_spi.c ****       HAL_SPI_RxCpltCallback(hspi);
 7698              		.loc 1 3678 7
 7699 0068 7868     		ldr	r0, [r7, #4]
 7700 006a FFF7FEFF 		bl	HAL_SPI_RxCpltCallback
3679:Drivers/STM32F4xx_HAL_Driver/Src/stm32f4xx_hal_spi.c **** #endif /* USE_HAL_SPI_REGISTER_CALLBACKS */
3680:Drivers/STM32F4xx_HAL_Driver/Src/stm32f4xx_hal_spi.c ****     }
3681:Drivers/STM32F4xx_HAL_Driver/Src/stm32f4xx_hal_spi.c ****     else
3682:Drivers/STM32F4xx_HAL_Driver/Src/stm32f4xx_hal_spi.c ****     {
3683:Drivers/STM32F4xx_HAL_Driver/Src/stm32f4xx_hal_spi.c ****       /* Call user error callback */
3684:Drivers/STM32F4xx_HAL_Driver/Src/stm32f4xx_hal_spi.c **** #if (USE_HAL_SPI_REGISTER_CALLBACKS == 1U)
3685:Drivers/STM32F4xx_HAL_Driver/Src/stm32f4xx_hal_spi.c ****       hspi->ErrorCallback(hspi);
3686:Drivers/STM32F4xx_HAL_Driver/Src/stm32f4xx_hal_spi.c **** #else
3687:Drivers/STM32F4xx_HAL_Driver/Src/stm32f4xx_hal_spi.c ****       HAL_SPI_ErrorCallback(hspi);
3688:Drivers/STM32F4xx_HAL_Driver/Src/stm32f4xx_hal_spi.c **** #endif /* USE_HAL_SPI_REGISTER_CALLBACKS */
3689:Drivers/STM32F4xx_HAL_Driver/Src/stm32f4xx_hal_spi.c ****     }
3690:Drivers/STM32F4xx_HAL_Driver/Src/stm32f4xx_hal_spi.c **** #if (USE_SPI_CRC != 0U)
3691:Drivers/STM32F4xx_HAL_Driver/Src/stm32f4xx_hal_spi.c ****   }
3692:Drivers/STM32F4xx_HAL_Driver/Src/stm32f4xx_hal_spi.c **** #endif /* USE_SPI_CRC */
3693:Drivers/STM32F4xx_HAL_Driver/Src/stm32f4xx_hal_spi.c **** }
 7701              		.loc 1 3693 1
 7702 006e 02E0     		b	.L385
 7703              	.L383:
3687:Drivers/STM32F4xx_HAL_Driver/Src/stm32f4xx_hal_spi.c **** #endif /* USE_HAL_SPI_REGISTER_CALLBACKS */
 7704              		.loc 1 3687 7
 7705 0070 7868     		ldr	r0, [r7, #4]
 7706 0072 FFF7FEFF 		bl	HAL_SPI_ErrorCallback
 7707              	.L385:
 7708              		.loc 1 3693 1
 7709 0076 00BF     		nop
 7710 0078 1037     		adds	r7, r7, #16
ARM GAS  /tmp/cc9N7Buw.s 			page 200


 7711              	.LCFI272:
 7712              		.cfi_def_cfa_offset 8
 7713 007a BD46     		mov	sp, r7
 7714              	.LCFI273:
 7715              		.cfi_def_cfa_register 13
 7716              		@ sp needed
 7717 007c 80BD     		pop	{r7, pc}
 7718              		.cfi_endproc
 7719              	.LFE181:
 7721              		.section	.text.SPI_CloseTx_ISR,"ax",%progbits
 7722              		.align	1
 7723              		.syntax unified
 7724              		.thumb
 7725              		.thumb_func
 7726              		.fpu fpv4-sp-d16
 7728              	SPI_CloseTx_ISR:
 7729              	.LFB182:
3694:Drivers/STM32F4xx_HAL_Driver/Src/stm32f4xx_hal_spi.c **** 
3695:Drivers/STM32F4xx_HAL_Driver/Src/stm32f4xx_hal_spi.c **** /**
3696:Drivers/STM32F4xx_HAL_Driver/Src/stm32f4xx_hal_spi.c ****   * @brief  Handle the end of the TX transaction.
3697:Drivers/STM32F4xx_HAL_Driver/Src/stm32f4xx_hal_spi.c ****   * @param  hspi pointer to a SPI_HandleTypeDef structure that contains
3698:Drivers/STM32F4xx_HAL_Driver/Src/stm32f4xx_hal_spi.c ****   *               the configuration information for SPI module.
3699:Drivers/STM32F4xx_HAL_Driver/Src/stm32f4xx_hal_spi.c ****   * @retval None
3700:Drivers/STM32F4xx_HAL_Driver/Src/stm32f4xx_hal_spi.c ****   */
3701:Drivers/STM32F4xx_HAL_Driver/Src/stm32f4xx_hal_spi.c **** static void SPI_CloseTx_ISR(SPI_HandleTypeDef *hspi)
3702:Drivers/STM32F4xx_HAL_Driver/Src/stm32f4xx_hal_spi.c **** {
 7730              		.loc 1 3702 1
 7731              		.cfi_startproc
 7732              		@ args = 0, pretend = 0, frame = 24
 7733              		@ frame_needed = 1, uses_anonymous_args = 0
 7734 0000 80B5     		push	{r7, lr}
 7735              	.LCFI274:
 7736              		.cfi_def_cfa_offset 8
 7737              		.cfi_offset 7, -8
 7738              		.cfi_offset 14, -4
 7739 0002 86B0     		sub	sp, sp, #24
 7740              	.LCFI275:
 7741              		.cfi_def_cfa_offset 32
 7742 0004 00AF     		add	r7, sp, #0
 7743              	.LCFI276:
 7744              		.cfi_def_cfa_register 7
 7745 0006 7860     		str	r0, [r7, #4]
3703:Drivers/STM32F4xx_HAL_Driver/Src/stm32f4xx_hal_spi.c ****   uint32_t tickstart;
3704:Drivers/STM32F4xx_HAL_Driver/Src/stm32f4xx_hal_spi.c ****   __IO uint32_t count = SPI_DEFAULT_TIMEOUT * (SystemCoreClock / 24U / 1000U);
 7746              		.loc 1 3704 70
 7747 0008 2C4B     		ldr	r3, .L395
 7748 000a 1B68     		ldr	r3, [r3]
 7749 000c 2C4A     		ldr	r2, .L395+4
 7750 000e A2FB0323 		umull	r2, r3, r2, r3
 7751 0012 5B0A     		lsrs	r3, r3, #9
 7752              		.loc 1 3704 45
 7753 0014 6422     		movs	r2, #100
 7754 0016 02FB03F3 		mul	r3, r2, r3
 7755              		.loc 1 3704 17
 7756 001a 3B61     		str	r3, [r7, #16]
3705:Drivers/STM32F4xx_HAL_Driver/Src/stm32f4xx_hal_spi.c **** 
3706:Drivers/STM32F4xx_HAL_Driver/Src/stm32f4xx_hal_spi.c ****   /* Init tickstart for timeout management*/
ARM GAS  /tmp/cc9N7Buw.s 			page 201


3707:Drivers/STM32F4xx_HAL_Driver/Src/stm32f4xx_hal_spi.c ****   tickstart = HAL_GetTick();
 7757              		.loc 1 3707 15
 7758 001c FFF7FEFF 		bl	HAL_GetTick
 7759 0020 7861     		str	r0, [r7, #20]
 7760              	.L389:
3708:Drivers/STM32F4xx_HAL_Driver/Src/stm32f4xx_hal_spi.c **** 
3709:Drivers/STM32F4xx_HAL_Driver/Src/stm32f4xx_hal_spi.c ****   /* Wait until TXE flag is set */
3710:Drivers/STM32F4xx_HAL_Driver/Src/stm32f4xx_hal_spi.c ****   do
3711:Drivers/STM32F4xx_HAL_Driver/Src/stm32f4xx_hal_spi.c ****   {
3712:Drivers/STM32F4xx_HAL_Driver/Src/stm32f4xx_hal_spi.c ****     if (count == 0U)
 7761              		.loc 1 3712 15
 7762 0022 3B69     		ldr	r3, [r7, #16]
 7763              		.loc 1 3712 8
 7764 0024 002B     		cmp	r3, #0
 7765 0026 06D1     		bne	.L387
3713:Drivers/STM32F4xx_HAL_Driver/Src/stm32f4xx_hal_spi.c ****     {
3714:Drivers/STM32F4xx_HAL_Driver/Src/stm32f4xx_hal_spi.c ****       SET_BIT(hspi->ErrorCode, HAL_SPI_ERROR_FLAG);
 7766              		.loc 1 3714 7
 7767 0028 7B68     		ldr	r3, [r7, #4]
 7768 002a 5B6D     		ldr	r3, [r3, #84]
 7769 002c 43F02002 		orr	r2, r3, #32
 7770 0030 7B68     		ldr	r3, [r7, #4]
 7771 0032 5A65     		str	r2, [r3, #84]
3715:Drivers/STM32F4xx_HAL_Driver/Src/stm32f4xx_hal_spi.c ****       break;
 7772              		.loc 1 3715 7
 7773 0034 09E0     		b	.L388
 7774              	.L387:
3716:Drivers/STM32F4xx_HAL_Driver/Src/stm32f4xx_hal_spi.c ****     }
3717:Drivers/STM32F4xx_HAL_Driver/Src/stm32f4xx_hal_spi.c ****     count--;
 7775              		.loc 1 3717 10
 7776 0036 3B69     		ldr	r3, [r7, #16]
 7777 0038 013B     		subs	r3, r3, #1
 7778 003a 3B61     		str	r3, [r7, #16]
3718:Drivers/STM32F4xx_HAL_Driver/Src/stm32f4xx_hal_spi.c ****   } while ((hspi->Instance->SR & SPI_FLAG_TXE) == RESET);
 7779              		.loc 1 3718 17
 7780 003c 7B68     		ldr	r3, [r7, #4]
 7781 003e 1B68     		ldr	r3, [r3]
 7782              		.loc 1 3718 27
 7783 0040 9B68     		ldr	r3, [r3, #8]
 7784              		.loc 1 3718 32
 7785 0042 03F00203 		and	r3, r3, #2
 7786              		.loc 1 3718 3
 7787 0046 002B     		cmp	r3, #0
 7788 0048 EBD0     		beq	.L389
 7789              	.L388:
3719:Drivers/STM32F4xx_HAL_Driver/Src/stm32f4xx_hal_spi.c **** 
3720:Drivers/STM32F4xx_HAL_Driver/Src/stm32f4xx_hal_spi.c ****   /* Disable TXE and ERR interrupt */
3721:Drivers/STM32F4xx_HAL_Driver/Src/stm32f4xx_hal_spi.c ****   __HAL_SPI_DISABLE_IT(hspi, (SPI_IT_TXE | SPI_IT_ERR));
 7790              		.loc 1 3721 3
 7791 004a 7B68     		ldr	r3, [r7, #4]
 7792 004c 1B68     		ldr	r3, [r3]
 7793 004e 5A68     		ldr	r2, [r3, #4]
 7794 0050 7B68     		ldr	r3, [r7, #4]
 7795 0052 1B68     		ldr	r3, [r3]
 7796 0054 22F0A002 		bic	r2, r2, #160
 7797 0058 5A60     		str	r2, [r3, #4]
3722:Drivers/STM32F4xx_HAL_Driver/Src/stm32f4xx_hal_spi.c **** 
ARM GAS  /tmp/cc9N7Buw.s 			page 202


3723:Drivers/STM32F4xx_HAL_Driver/Src/stm32f4xx_hal_spi.c ****   /* Check the end of the transaction */
3724:Drivers/STM32F4xx_HAL_Driver/Src/stm32f4xx_hal_spi.c ****   if (SPI_EndRxTxTransaction(hspi, SPI_DEFAULT_TIMEOUT, tickstart) != HAL_OK)
 7798              		.loc 1 3724 7
 7799 005a 7A69     		ldr	r2, [r7, #20]
 7800 005c 6421     		movs	r1, #100
 7801 005e 7868     		ldr	r0, [r7, #4]
 7802 0060 FFF7FEFF 		bl	SPI_EndRxTxTransaction
 7803 0064 0346     		mov	r3, r0
 7804              		.loc 1 3724 6
 7805 0066 002B     		cmp	r3, #0
 7806 0068 05D0     		beq	.L390
3725:Drivers/STM32F4xx_HAL_Driver/Src/stm32f4xx_hal_spi.c ****   {
3726:Drivers/STM32F4xx_HAL_Driver/Src/stm32f4xx_hal_spi.c ****     SET_BIT(hspi->ErrorCode, HAL_SPI_ERROR_FLAG);
 7807              		.loc 1 3726 5
 7808 006a 7B68     		ldr	r3, [r7, #4]
 7809 006c 5B6D     		ldr	r3, [r3, #84]
 7810 006e 43F02002 		orr	r2, r3, #32
 7811 0072 7B68     		ldr	r3, [r7, #4]
 7812 0074 5A65     		str	r2, [r3, #84]
 7813              	.L390:
3727:Drivers/STM32F4xx_HAL_Driver/Src/stm32f4xx_hal_spi.c ****   }
3728:Drivers/STM32F4xx_HAL_Driver/Src/stm32f4xx_hal_spi.c **** 
3729:Drivers/STM32F4xx_HAL_Driver/Src/stm32f4xx_hal_spi.c ****   /* Clear overrun flag in 2 Lines communication mode because received is not read */
3730:Drivers/STM32F4xx_HAL_Driver/Src/stm32f4xx_hal_spi.c ****   if (hspi->Init.Direction == SPI_DIRECTION_2LINES)
 7814              		.loc 1 3730 17
 7815 0076 7B68     		ldr	r3, [r7, #4]
 7816 0078 9B68     		ldr	r3, [r3, #8]
 7817              		.loc 1 3730 6
 7818 007a 002B     		cmp	r3, #0
 7819 007c 0AD1     		bne	.L391
 7820              	.LBB19:
3731:Drivers/STM32F4xx_HAL_Driver/Src/stm32f4xx_hal_spi.c ****   {
3732:Drivers/STM32F4xx_HAL_Driver/Src/stm32f4xx_hal_spi.c ****     __HAL_SPI_CLEAR_OVRFLAG(hspi);
 7821              		.loc 1 3732 5
 7822 007e 0023     		movs	r3, #0
 7823 0080 FB60     		str	r3, [r7, #12]
 7824 0082 7B68     		ldr	r3, [r7, #4]
 7825 0084 1B68     		ldr	r3, [r3]
 7826 0086 DB68     		ldr	r3, [r3, #12]
 7827 0088 FB60     		str	r3, [r7, #12]
 7828 008a 7B68     		ldr	r3, [r7, #4]
 7829 008c 1B68     		ldr	r3, [r3]
 7830 008e 9B68     		ldr	r3, [r3, #8]
 7831 0090 FB60     		str	r3, [r7, #12]
 7832 0092 FB68     		ldr	r3, [r7, #12]
 7833              	.L391:
 7834              	.LBE19:
3733:Drivers/STM32F4xx_HAL_Driver/Src/stm32f4xx_hal_spi.c ****   }
3734:Drivers/STM32F4xx_HAL_Driver/Src/stm32f4xx_hal_spi.c **** 
3735:Drivers/STM32F4xx_HAL_Driver/Src/stm32f4xx_hal_spi.c ****   hspi->State = HAL_SPI_STATE_READY;
 7835              		.loc 1 3735 15
 7836 0094 7B68     		ldr	r3, [r7, #4]
 7837 0096 0122     		movs	r2, #1
 7838 0098 83F85120 		strb	r2, [r3, #81]
3736:Drivers/STM32F4xx_HAL_Driver/Src/stm32f4xx_hal_spi.c ****   if (hspi->ErrorCode != HAL_SPI_ERROR_NONE)
 7839              		.loc 1 3736 11
 7840 009c 7B68     		ldr	r3, [r7, #4]
ARM GAS  /tmp/cc9N7Buw.s 			page 203


 7841 009e 5B6D     		ldr	r3, [r3, #84]
 7842              		.loc 1 3736 6
 7843 00a0 002B     		cmp	r3, #0
 7844 00a2 03D0     		beq	.L392
3737:Drivers/STM32F4xx_HAL_Driver/Src/stm32f4xx_hal_spi.c ****   {
3738:Drivers/STM32F4xx_HAL_Driver/Src/stm32f4xx_hal_spi.c ****     /* Call user error callback */
3739:Drivers/STM32F4xx_HAL_Driver/Src/stm32f4xx_hal_spi.c **** #if (USE_HAL_SPI_REGISTER_CALLBACKS == 1U)
3740:Drivers/STM32F4xx_HAL_Driver/Src/stm32f4xx_hal_spi.c ****     hspi->ErrorCallback(hspi);
3741:Drivers/STM32F4xx_HAL_Driver/Src/stm32f4xx_hal_spi.c **** #else
3742:Drivers/STM32F4xx_HAL_Driver/Src/stm32f4xx_hal_spi.c ****     HAL_SPI_ErrorCallback(hspi);
 7845              		.loc 1 3742 5
 7846 00a4 7868     		ldr	r0, [r7, #4]
 7847 00a6 FFF7FEFF 		bl	HAL_SPI_ErrorCallback
3743:Drivers/STM32F4xx_HAL_Driver/Src/stm32f4xx_hal_spi.c **** #endif /* USE_HAL_SPI_REGISTER_CALLBACKS */
3744:Drivers/STM32F4xx_HAL_Driver/Src/stm32f4xx_hal_spi.c ****   }
3745:Drivers/STM32F4xx_HAL_Driver/Src/stm32f4xx_hal_spi.c ****   else
3746:Drivers/STM32F4xx_HAL_Driver/Src/stm32f4xx_hal_spi.c ****   {
3747:Drivers/STM32F4xx_HAL_Driver/Src/stm32f4xx_hal_spi.c ****     /* Call user Rx complete callback */
3748:Drivers/STM32F4xx_HAL_Driver/Src/stm32f4xx_hal_spi.c **** #if (USE_HAL_SPI_REGISTER_CALLBACKS == 1U)
3749:Drivers/STM32F4xx_HAL_Driver/Src/stm32f4xx_hal_spi.c ****     hspi->TxCpltCallback(hspi);
3750:Drivers/STM32F4xx_HAL_Driver/Src/stm32f4xx_hal_spi.c **** #else
3751:Drivers/STM32F4xx_HAL_Driver/Src/stm32f4xx_hal_spi.c ****     HAL_SPI_TxCpltCallback(hspi);
3752:Drivers/STM32F4xx_HAL_Driver/Src/stm32f4xx_hal_spi.c **** #endif /* USE_HAL_SPI_REGISTER_CALLBACKS */
3753:Drivers/STM32F4xx_HAL_Driver/Src/stm32f4xx_hal_spi.c ****   }
3754:Drivers/STM32F4xx_HAL_Driver/Src/stm32f4xx_hal_spi.c **** }
 7848              		.loc 1 3754 1
 7849 00aa 02E0     		b	.L394
 7850              	.L392:
3751:Drivers/STM32F4xx_HAL_Driver/Src/stm32f4xx_hal_spi.c **** #endif /* USE_HAL_SPI_REGISTER_CALLBACKS */
 7851              		.loc 1 3751 5
 7852 00ac 7868     		ldr	r0, [r7, #4]
 7853 00ae FFF7FEFF 		bl	HAL_SPI_TxCpltCallback
 7854              	.L394:
 7855              		.loc 1 3754 1
 7856 00b2 00BF     		nop
 7857 00b4 1837     		adds	r7, r7, #24
 7858              	.LCFI277:
 7859              		.cfi_def_cfa_offset 8
 7860 00b6 BD46     		mov	sp, r7
 7861              	.LCFI278:
 7862              		.cfi_def_cfa_register 13
 7863              		@ sp needed
 7864 00b8 80BD     		pop	{r7, pc}
 7865              	.L396:
 7866 00ba 00BF     		.align	2
 7867              	.L395:
 7868 00bc 00000000 		.word	SystemCoreClock
 7869 00c0 F1197605 		.word	91625969
 7870              		.cfi_endproc
 7871              	.LFE182:
 7873              		.section	.text.SPI_AbortRx_ISR,"ax",%progbits
 7874              		.align	1
 7875              		.syntax unified
 7876              		.thumb
 7877              		.thumb_func
 7878              		.fpu fpv4-sp-d16
 7880              	SPI_AbortRx_ISR:
ARM GAS  /tmp/cc9N7Buw.s 			page 204


 7881              	.LFB183:
3755:Drivers/STM32F4xx_HAL_Driver/Src/stm32f4xx_hal_spi.c **** 
3756:Drivers/STM32F4xx_HAL_Driver/Src/stm32f4xx_hal_spi.c **** /**
3757:Drivers/STM32F4xx_HAL_Driver/Src/stm32f4xx_hal_spi.c ****   * @brief  Handle abort a Rx transaction.
3758:Drivers/STM32F4xx_HAL_Driver/Src/stm32f4xx_hal_spi.c ****   * @param  hspi pointer to a SPI_HandleTypeDef structure that contains
3759:Drivers/STM32F4xx_HAL_Driver/Src/stm32f4xx_hal_spi.c ****   *               the configuration information for SPI module.
3760:Drivers/STM32F4xx_HAL_Driver/Src/stm32f4xx_hal_spi.c ****   * @retval None
3761:Drivers/STM32F4xx_HAL_Driver/Src/stm32f4xx_hal_spi.c ****   */
3762:Drivers/STM32F4xx_HAL_Driver/Src/stm32f4xx_hal_spi.c **** static void SPI_AbortRx_ISR(SPI_HandleTypeDef *hspi)
3763:Drivers/STM32F4xx_HAL_Driver/Src/stm32f4xx_hal_spi.c **** {
 7882              		.loc 1 3763 1
 7883              		.cfi_startproc
 7884              		@ args = 0, pretend = 0, frame = 16
 7885              		@ frame_needed = 1, uses_anonymous_args = 0
 7886              		@ link register save eliminated.
 7887 0000 80B4     		push	{r7}
 7888              	.LCFI279:
 7889              		.cfi_def_cfa_offset 4
 7890              		.cfi_offset 7, -4
 7891 0002 85B0     		sub	sp, sp, #20
 7892              	.LCFI280:
 7893              		.cfi_def_cfa_offset 24
 7894 0004 00AF     		add	r7, sp, #0
 7895              	.LCFI281:
 7896              		.cfi_def_cfa_register 7
 7897 0006 7860     		str	r0, [r7, #4]
3764:Drivers/STM32F4xx_HAL_Driver/Src/stm32f4xx_hal_spi.c ****   __IO uint32_t count = SPI_DEFAULT_TIMEOUT * (SystemCoreClock / 24U / 1000U);
 7898              		.loc 1 3764 70
 7899 0008 1D4B     		ldr	r3, .L401
 7900 000a 1B68     		ldr	r3, [r3]
 7901 000c 1D4A     		ldr	r2, .L401+4
 7902 000e A2FB0323 		umull	r2, r3, r2, r3
 7903 0012 5B0A     		lsrs	r3, r3, #9
 7904              		.loc 1 3764 45
 7905 0014 6422     		movs	r2, #100
 7906 0016 02FB03F3 		mul	r3, r2, r3
 7907              		.loc 1 3764 17
 7908 001a FB60     		str	r3, [r7, #12]
 7909              	.L400:
3765:Drivers/STM32F4xx_HAL_Driver/Src/stm32f4xx_hal_spi.c **** 
3766:Drivers/STM32F4xx_HAL_Driver/Src/stm32f4xx_hal_spi.c ****   /* Wait until TXE flag is set */
3767:Drivers/STM32F4xx_HAL_Driver/Src/stm32f4xx_hal_spi.c ****   do
3768:Drivers/STM32F4xx_HAL_Driver/Src/stm32f4xx_hal_spi.c ****   {
3769:Drivers/STM32F4xx_HAL_Driver/Src/stm32f4xx_hal_spi.c ****     if (count == 0U)
 7910              		.loc 1 3769 15
 7911 001c FB68     		ldr	r3, [r7, #12]
 7912              		.loc 1 3769 8
 7913 001e 002B     		cmp	r3, #0
 7914 0020 06D1     		bne	.L398
3770:Drivers/STM32F4xx_HAL_Driver/Src/stm32f4xx_hal_spi.c ****     {
3771:Drivers/STM32F4xx_HAL_Driver/Src/stm32f4xx_hal_spi.c ****       SET_BIT(hspi->ErrorCode, HAL_SPI_ERROR_ABORT);
 7915              		.loc 1 3771 7
 7916 0022 7B68     		ldr	r3, [r7, #4]
 7917 0024 5B6D     		ldr	r3, [r3, #84]
 7918 0026 43F04002 		orr	r2, r3, #64
 7919 002a 7B68     		ldr	r3, [r7, #4]
 7920 002c 5A65     		str	r2, [r3, #84]
ARM GAS  /tmp/cc9N7Buw.s 			page 205


3772:Drivers/STM32F4xx_HAL_Driver/Src/stm32f4xx_hal_spi.c ****       break;
 7921              		.loc 1 3772 7
 7922 002e 09E0     		b	.L399
 7923              	.L398:
3773:Drivers/STM32F4xx_HAL_Driver/Src/stm32f4xx_hal_spi.c ****     }
3774:Drivers/STM32F4xx_HAL_Driver/Src/stm32f4xx_hal_spi.c ****     count--;
 7924              		.loc 1 3774 10
 7925 0030 FB68     		ldr	r3, [r7, #12]
 7926 0032 013B     		subs	r3, r3, #1
 7927 0034 FB60     		str	r3, [r7, #12]
3775:Drivers/STM32F4xx_HAL_Driver/Src/stm32f4xx_hal_spi.c ****   } while ((hspi->Instance->SR & SPI_FLAG_TXE) == RESET);
 7928              		.loc 1 3775 17
 7929 0036 7B68     		ldr	r3, [r7, #4]
 7930 0038 1B68     		ldr	r3, [r3]
 7931              		.loc 1 3775 27
 7932 003a 9B68     		ldr	r3, [r3, #8]
 7933              		.loc 1 3775 32
 7934 003c 03F00203 		and	r3, r3, #2
 7935              		.loc 1 3775 3
 7936 0040 002B     		cmp	r3, #0
 7937 0042 EBD0     		beq	.L400
 7938              	.L399:
3776:Drivers/STM32F4xx_HAL_Driver/Src/stm32f4xx_hal_spi.c **** 
3777:Drivers/STM32F4xx_HAL_Driver/Src/stm32f4xx_hal_spi.c ****   /* Disable SPI Peripheral */
3778:Drivers/STM32F4xx_HAL_Driver/Src/stm32f4xx_hal_spi.c ****   __HAL_SPI_DISABLE(hspi);
 7939              		.loc 1 3778 3
 7940 0044 7B68     		ldr	r3, [r7, #4]
 7941 0046 1B68     		ldr	r3, [r3]
 7942 0048 1A68     		ldr	r2, [r3]
 7943 004a 7B68     		ldr	r3, [r7, #4]
 7944 004c 1B68     		ldr	r3, [r3]
 7945 004e 22F04002 		bic	r2, r2, #64
 7946 0052 1A60     		str	r2, [r3]
3779:Drivers/STM32F4xx_HAL_Driver/Src/stm32f4xx_hal_spi.c **** 
3780:Drivers/STM32F4xx_HAL_Driver/Src/stm32f4xx_hal_spi.c ****   /* Disable TXEIE, RXNEIE and ERRIE(mode fault event, overrun error, TI frame error) interrupts */
3781:Drivers/STM32F4xx_HAL_Driver/Src/stm32f4xx_hal_spi.c ****   CLEAR_BIT(hspi->Instance->CR2, (SPI_CR2_TXEIE | SPI_CR2_RXNEIE | SPI_CR2_ERRIE));
 7947              		.loc 1 3781 3
 7948 0054 7B68     		ldr	r3, [r7, #4]
 7949 0056 1B68     		ldr	r3, [r3]
 7950 0058 5A68     		ldr	r2, [r3, #4]
 7951 005a 7B68     		ldr	r3, [r7, #4]
 7952 005c 1B68     		ldr	r3, [r3]
 7953 005e 22F0E002 		bic	r2, r2, #224
 7954 0062 5A60     		str	r2, [r3, #4]
3782:Drivers/STM32F4xx_HAL_Driver/Src/stm32f4xx_hal_spi.c **** 
3783:Drivers/STM32F4xx_HAL_Driver/Src/stm32f4xx_hal_spi.c ****   /* Read CRC to flush Data Register */
3784:Drivers/STM32F4xx_HAL_Driver/Src/stm32f4xx_hal_spi.c ****   READ_REG(hspi->Instance->DR);
 7955              		.loc 1 3784 3
 7956 0064 7B68     		ldr	r3, [r7, #4]
 7957 0066 1B68     		ldr	r3, [r3]
 7958 0068 DB68     		ldr	r3, [r3, #12]
3785:Drivers/STM32F4xx_HAL_Driver/Src/stm32f4xx_hal_spi.c **** 
3786:Drivers/STM32F4xx_HAL_Driver/Src/stm32f4xx_hal_spi.c ****   hspi->State = HAL_SPI_STATE_ABORT;
 7959              		.loc 1 3786 15
 7960 006a 7B68     		ldr	r3, [r7, #4]
 7961 006c 0722     		movs	r2, #7
 7962 006e 83F85120 		strb	r2, [r3, #81]
ARM GAS  /tmp/cc9N7Buw.s 			page 206


3787:Drivers/STM32F4xx_HAL_Driver/Src/stm32f4xx_hal_spi.c **** }
 7963              		.loc 1 3787 1
 7964 0072 00BF     		nop
 7965 0074 1437     		adds	r7, r7, #20
 7966              	.LCFI282:
 7967              		.cfi_def_cfa_offset 4
 7968 0076 BD46     		mov	sp, r7
 7969              	.LCFI283:
 7970              		.cfi_def_cfa_register 13
 7971              		@ sp needed
 7972 0078 5DF8047B 		ldr	r7, [sp], #4
 7973              	.LCFI284:
 7974              		.cfi_restore 7
 7975              		.cfi_def_cfa_offset 0
 7976 007c 7047     		bx	lr
 7977              	.L402:
 7978 007e 00BF     		.align	2
 7979              	.L401:
 7980 0080 00000000 		.word	SystemCoreClock
 7981 0084 F1197605 		.word	91625969
 7982              		.cfi_endproc
 7983              	.LFE183:
 7985              		.section	.text.SPI_AbortTx_ISR,"ax",%progbits
 7986              		.align	1
 7987              		.syntax unified
 7988              		.thumb
 7989              		.thumb_func
 7990              		.fpu fpv4-sp-d16
 7992              	SPI_AbortTx_ISR:
 7993              	.LFB184:
3788:Drivers/STM32F4xx_HAL_Driver/Src/stm32f4xx_hal_spi.c **** 
3789:Drivers/STM32F4xx_HAL_Driver/Src/stm32f4xx_hal_spi.c **** /**
3790:Drivers/STM32F4xx_HAL_Driver/Src/stm32f4xx_hal_spi.c ****   * @brief  Handle abort a Tx or Rx/Tx transaction.
3791:Drivers/STM32F4xx_HAL_Driver/Src/stm32f4xx_hal_spi.c ****   * @param  hspi pointer to a SPI_HandleTypeDef structure that contains
3792:Drivers/STM32F4xx_HAL_Driver/Src/stm32f4xx_hal_spi.c ****   *               the configuration information for SPI module.
3793:Drivers/STM32F4xx_HAL_Driver/Src/stm32f4xx_hal_spi.c ****   * @retval None
3794:Drivers/STM32F4xx_HAL_Driver/Src/stm32f4xx_hal_spi.c ****   */
3795:Drivers/STM32F4xx_HAL_Driver/Src/stm32f4xx_hal_spi.c **** static void SPI_AbortTx_ISR(SPI_HandleTypeDef *hspi)
3796:Drivers/STM32F4xx_HAL_Driver/Src/stm32f4xx_hal_spi.c **** {
 7994              		.loc 1 3796 1
 7995              		.cfi_startproc
 7996              		@ args = 0, pretend = 0, frame = 8
 7997              		@ frame_needed = 1, uses_anonymous_args = 0
 7998              		@ link register save eliminated.
 7999 0000 80B4     		push	{r7}
 8000              	.LCFI285:
 8001              		.cfi_def_cfa_offset 4
 8002              		.cfi_offset 7, -4
 8003 0002 83B0     		sub	sp, sp, #12
 8004              	.LCFI286:
 8005              		.cfi_def_cfa_offset 16
 8006 0004 00AF     		add	r7, sp, #0
 8007              	.LCFI287:
 8008              		.cfi_def_cfa_register 7
 8009 0006 7860     		str	r0, [r7, #4]
3797:Drivers/STM32F4xx_HAL_Driver/Src/stm32f4xx_hal_spi.c ****   /* Disable TXEIE interrupt */
3798:Drivers/STM32F4xx_HAL_Driver/Src/stm32f4xx_hal_spi.c ****   CLEAR_BIT(hspi->Instance->CR2, (SPI_CR2_TXEIE));
ARM GAS  /tmp/cc9N7Buw.s 			page 207


 8010              		.loc 1 3798 3
 8011 0008 7B68     		ldr	r3, [r7, #4]
 8012 000a 1B68     		ldr	r3, [r3]
 8013 000c 5A68     		ldr	r2, [r3, #4]
 8014 000e 7B68     		ldr	r3, [r7, #4]
 8015 0010 1B68     		ldr	r3, [r3]
 8016 0012 22F08002 		bic	r2, r2, #128
 8017 0016 5A60     		str	r2, [r3, #4]
3799:Drivers/STM32F4xx_HAL_Driver/Src/stm32f4xx_hal_spi.c **** 
3800:Drivers/STM32F4xx_HAL_Driver/Src/stm32f4xx_hal_spi.c ****   /* Disable SPI Peripheral */
3801:Drivers/STM32F4xx_HAL_Driver/Src/stm32f4xx_hal_spi.c ****   __HAL_SPI_DISABLE(hspi);
 8018              		.loc 1 3801 3
 8019 0018 7B68     		ldr	r3, [r7, #4]
 8020 001a 1B68     		ldr	r3, [r3]
 8021 001c 1A68     		ldr	r2, [r3]
 8022 001e 7B68     		ldr	r3, [r7, #4]
 8023 0020 1B68     		ldr	r3, [r3]
 8024 0022 22F04002 		bic	r2, r2, #64
 8025 0026 1A60     		str	r2, [r3]
3802:Drivers/STM32F4xx_HAL_Driver/Src/stm32f4xx_hal_spi.c **** 
3803:Drivers/STM32F4xx_HAL_Driver/Src/stm32f4xx_hal_spi.c ****   hspi->State = HAL_SPI_STATE_ABORT;
 8026              		.loc 1 3803 15
 8027 0028 7B68     		ldr	r3, [r7, #4]
 8028 002a 0722     		movs	r2, #7
 8029 002c 83F85120 		strb	r2, [r3, #81]
3804:Drivers/STM32F4xx_HAL_Driver/Src/stm32f4xx_hal_spi.c **** }
 8030              		.loc 1 3804 1
 8031 0030 00BF     		nop
 8032 0032 0C37     		adds	r7, r7, #12
 8033              	.LCFI288:
 8034              		.cfi_def_cfa_offset 4
 8035 0034 BD46     		mov	sp, r7
 8036              	.LCFI289:
 8037              		.cfi_def_cfa_register 13
 8038              		@ sp needed
 8039 0036 5DF8047B 		ldr	r7, [sp], #4
 8040              	.LCFI290:
 8041              		.cfi_restore 7
 8042              		.cfi_def_cfa_offset 0
 8043 003a 7047     		bx	lr
 8044              		.cfi_endproc
 8045              	.LFE184:
 8047              		.text
 8048              	.Letext0:
 8049              		.file 2 "/usr/arm-none-eabi/include/machine/_default_types.h"
 8050              		.file 3 "/usr/arm-none-eabi/include/sys/_stdint.h"
 8051              		.file 4 "Drivers/CMSIS/Include/core_cm4.h"
 8052              		.file 5 "Drivers/CMSIS/Device/ST/STM32F4xx/Include/system_stm32f4xx.h"
 8053              		.file 6 "Drivers/CMSIS/Device/ST/STM32F4xx/Include/stm32f407xx.h"
 8054              		.file 7 "Drivers/CMSIS/Device/ST/STM32F4xx/Include/stm32f4xx.h"
 8055              		.file 8 "Drivers/STM32F4xx_HAL_Driver/Inc/stm32f4xx_hal_def.h"
 8056              		.file 9 "Drivers/STM32F4xx_HAL_Driver/Inc/stm32f4xx_hal_dma.h"
 8057              		.file 10 "Drivers/STM32F4xx_HAL_Driver/Inc/stm32f4xx_hal_spi.h"
 8058              		.file 11 "Drivers/STM32F4xx_HAL_Driver/Inc/stm32f4xx_hal.h"
ARM GAS  /tmp/cc9N7Buw.s 			page 208


DEFINED SYMBOLS
                            *ABS*:0000000000000000 stm32f4xx_hal_spi.c
     /tmp/cc9N7Buw.s:18     .rodata:0000000000000000 $d
     /tmp/cc9N7Buw.s:23     .text.HAL_SPI_Init:0000000000000000 $t
     /tmp/cc9N7Buw.s:31     .text.HAL_SPI_Init:0000000000000000 HAL_SPI_Init
     /tmp/cc9N7Buw.s:489    .text.HAL_SPI_MspInit:0000000000000000 HAL_SPI_MspInit
     /tmp/cc9N7Buw.s:367    .text.HAL_SPI_Init:0000000000000230 $d
     /tmp/cc9N7Buw.s:375    .text.HAL_SPI_DeInit:0000000000000000 $t
     /tmp/cc9N7Buw.s:382    .text.HAL_SPI_DeInit:0000000000000000 HAL_SPI_DeInit
     /tmp/cc9N7Buw.s:532    .text.HAL_SPI_MspDeInit:0000000000000000 HAL_SPI_MspDeInit
     /tmp/cc9N7Buw.s:474    .text.HAL_SPI_DeInit:0000000000000078 $d
     /tmp/cc9N7Buw.s:482    .text.HAL_SPI_MspInit:0000000000000000 $t
     /tmp/cc9N7Buw.s:525    .text.HAL_SPI_MspDeInit:0000000000000000 $t
     /tmp/cc9N7Buw.s:568    .text.HAL_SPI_Transmit:0000000000000000 $t
     /tmp/cc9N7Buw.s:575    .text.HAL_SPI_Transmit:0000000000000000 HAL_SPI_Transmit
     /tmp/cc9N7Buw.s:7341   .text.SPI_EndRxTxTransaction:0000000000000000 SPI_EndRxTxTransaction
     /tmp/cc9N7Buw.s:1036   .text.HAL_SPI_Transmit:0000000000000284 $d
     /tmp/cc9N7Buw.s:1041   .text.HAL_SPI_Receive:0000000000000000 $t
     /tmp/cc9N7Buw.s:1048   .text.HAL_SPI_Receive:0000000000000000 HAL_SPI_Receive
     /tmp/cc9N7Buw.s:1432   .text.HAL_SPI_TransmitReceive:0000000000000000 HAL_SPI_TransmitReceive
     /tmp/cc9N7Buw.s:7192   .text.SPI_EndRxTransaction:0000000000000000 SPI_EndRxTransaction
     /tmp/cc9N7Buw.s:1425   .text.HAL_SPI_TransmitReceive:0000000000000000 $t
     /tmp/cc9N7Buw.s:1825   .text.HAL_SPI_TransmitReceive:0000000000000238 $d
     /tmp/cc9N7Buw.s:1828   .text.HAL_SPI_TransmitReceive:000000000000023c $t
     /tmp/cc9N7Buw.s:2034   .text.HAL_SPI_Transmit_IT:0000000000000000 $t
     /tmp/cc9N7Buw.s:2041   .text.HAL_SPI_Transmit_IT:0000000000000000 HAL_SPI_Transmit_IT
     /tmp/cc9N7Buw.s:2240   .text.HAL_SPI_Transmit_IT:0000000000000114 $d
     /tmp/cc9N7Buw.s:6962   .text.SPI_TxISR_16BIT:0000000000000000 SPI_TxISR_16BIT
     /tmp/cc9N7Buw.s:6885   .text.SPI_TxISR_8BIT:0000000000000000 SPI_TxISR_8BIT
     /tmp/cc9N7Buw.s:2247   .text.HAL_SPI_Receive_IT:0000000000000000 $t
     /tmp/cc9N7Buw.s:2254   .text.HAL_SPI_Receive_IT:0000000000000000 HAL_SPI_Receive_IT
     /tmp/cc9N7Buw.s:2476   .text.HAL_SPI_TransmitReceive_IT:0000000000000000 HAL_SPI_TransmitReceive_IT
     /tmp/cc9N7Buw.s:2463   .text.HAL_SPI_Receive_IT:0000000000000124 $d
     /tmp/cc9N7Buw.s:6809   .text.SPI_RxISR_16BIT:0000000000000000 SPI_RxISR_16BIT
     /tmp/cc9N7Buw.s:6731   .text.SPI_RxISR_8BIT:0000000000000000 SPI_RxISR_8BIT
     /tmp/cc9N7Buw.s:2469   .text.HAL_SPI_TransmitReceive_IT:0000000000000000 $t
     /tmp/cc9N7Buw.s:2691   .text.HAL_SPI_TransmitReceive_IT:0000000000000128 $d
     /tmp/cc9N7Buw.s:6551   .text.SPI_2linesRxISR_16BIT:0000000000000000 SPI_2linesRxISR_16BIT
     /tmp/cc9N7Buw.s:6642   .text.SPI_2linesTxISR_16BIT:0000000000000000 SPI_2linesTxISR_16BIT
     /tmp/cc9N7Buw.s:6366   .text.SPI_2linesRxISR_8BIT:0000000000000000 SPI_2linesRxISR_8BIT
     /tmp/cc9N7Buw.s:6459   .text.SPI_2linesTxISR_8BIT:0000000000000000 SPI_2linesTxISR_8BIT
     /tmp/cc9N7Buw.s:2700   .text.HAL_SPI_Transmit_DMA:0000000000000000 $t
     /tmp/cc9N7Buw.s:2707   .text.HAL_SPI_Transmit_DMA:0000000000000000 HAL_SPI_Transmit_DMA
     /tmp/cc9N7Buw.s:2973   .text.HAL_SPI_Transmit_DMA:0000000000000180 $d
     /tmp/cc9N7Buw.s:5793   .text.SPI_DMAHalfTransmitCplt:0000000000000000 SPI_DMAHalfTransmitCplt
     /tmp/cc9N7Buw.s:5417   .text.SPI_DMATransmitCplt:0000000000000000 SPI_DMATransmitCplt
     /tmp/cc9N7Buw.s:5928   .text.SPI_DMAError:0000000000000000 SPI_DMAError
     /tmp/cc9N7Buw.s:2981   .text.HAL_SPI_Receive_DMA:0000000000000000 $t
     /tmp/cc9N7Buw.s:2988   .text.HAL_SPI_Receive_DMA:0000000000000000 HAL_SPI_Receive_DMA
     /tmp/cc9N7Buw.s:3285   .text.HAL_SPI_TransmitReceive_DMA:0000000000000000 HAL_SPI_TransmitReceive_DMA
     /tmp/cc9N7Buw.s:3270   .text.HAL_SPI_Receive_DMA:0000000000000198 $d
     /tmp/cc9N7Buw.s:5838   .text.SPI_DMAHalfReceiveCplt:0000000000000000 SPI_DMAHalfReceiveCplt
     /tmp/cc9N7Buw.s:5548   .text.SPI_DMAReceiveCplt:0000000000000000 SPI_DMAReceiveCplt
     /tmp/cc9N7Buw.s:3278   .text.HAL_SPI_TransmitReceive_DMA:0000000000000000 $t
     /tmp/cc9N7Buw.s:3668   .text.HAL_SPI_TransmitReceive_DMA:0000000000000228 $d
     /tmp/cc9N7Buw.s:5883   .text.SPI_DMAHalfTransmitReceiveCplt:0000000000000000 SPI_DMAHalfTransmitReceiveCplt
     /tmp/cc9N7Buw.s:5679   .text.SPI_DMATransmitReceiveCplt:0000000000000000 SPI_DMATransmitReceiveCplt
ARM GAS  /tmp/cc9N7Buw.s 			page 209


     /tmp/cc9N7Buw.s:3678   .text.HAL_SPI_Abort:0000000000000000 $t
     /tmp/cc9N7Buw.s:3685   .text.HAL_SPI_Abort:0000000000000000 HAL_SPI_Abort
     /tmp/cc9N7Buw.s:4004   .text.HAL_SPI_Abort:00000000000001c8 $d
     /tmp/cc9N7Buw.s:7992   .text.SPI_AbortTx_ISR:0000000000000000 SPI_AbortTx_ISR
     /tmp/cc9N7Buw.s:7880   .text.SPI_AbortRx_ISR:0000000000000000 SPI_AbortRx_ISR
     /tmp/cc9N7Buw.s:4012   .text.HAL_SPI_Abort_IT:0000000000000000 $t
     /tmp/cc9N7Buw.s:4019   .text.HAL_SPI_Abort_IT:0000000000000000 HAL_SPI_Abort_IT
     /tmp/cc9N7Buw.s:5282   .text.HAL_SPI_AbortCpltCallback:0000000000000000 HAL_SPI_AbortCpltCallback
     /tmp/cc9N7Buw.s:4362   .text.HAL_SPI_Abort_IT:00000000000001dc $d
     /tmp/cc9N7Buw.s:6044   .text.SPI_DMATxAbortCallback:0000000000000000 SPI_DMATxAbortCallback
     /tmp/cc9N7Buw.s:6215   .text.SPI_DMARxAbortCallback:0000000000000000 SPI_DMARxAbortCallback
     /tmp/cc9N7Buw.s:4372   .text.HAL_SPI_DMAPause:0000000000000000 $t
     /tmp/cc9N7Buw.s:4379   .text.HAL_SPI_DMAPause:0000000000000000 HAL_SPI_DMAPause
     /tmp/cc9N7Buw.s:4443   .text.HAL_SPI_DMAResume:0000000000000000 $t
     /tmp/cc9N7Buw.s:4450   .text.HAL_SPI_DMAResume:0000000000000000 HAL_SPI_DMAResume
     /tmp/cc9N7Buw.s:4514   .text.HAL_SPI_DMAStop:0000000000000000 $t
     /tmp/cc9N7Buw.s:4521   .text.HAL_SPI_DMAStop:0000000000000000 HAL_SPI_DMAStop
     /tmp/cc9N7Buw.s:4620   .text.HAL_SPI_IRQHandler:0000000000000000 $t
     /tmp/cc9N7Buw.s:4627   .text.HAL_SPI_IRQHandler:0000000000000000 HAL_SPI_IRQHandler
     /tmp/cc9N7Buw.s:5239   .text.HAL_SPI_ErrorCallback:0000000000000000 HAL_SPI_ErrorCallback
     /tmp/cc9N7Buw.s:4969   .text.HAL_SPI_IRQHandler:00000000000001fc $d
     /tmp/cc9N7Buw.s:5991   .text.SPI_DMAAbortOnError:0000000000000000 SPI_DMAAbortOnError
     /tmp/cc9N7Buw.s:4974   .text.HAL_SPI_TxCpltCallback:0000000000000000 $t
     /tmp/cc9N7Buw.s:4981   .text.HAL_SPI_TxCpltCallback:0000000000000000 HAL_SPI_TxCpltCallback
     /tmp/cc9N7Buw.s:5017   .text.HAL_SPI_RxCpltCallback:0000000000000000 $t
     /tmp/cc9N7Buw.s:5024   .text.HAL_SPI_RxCpltCallback:0000000000000000 HAL_SPI_RxCpltCallback
     /tmp/cc9N7Buw.s:5060   .text.HAL_SPI_TxRxCpltCallback:0000000000000000 $t
     /tmp/cc9N7Buw.s:5067   .text.HAL_SPI_TxRxCpltCallback:0000000000000000 HAL_SPI_TxRxCpltCallback
     /tmp/cc9N7Buw.s:5103   .text.HAL_SPI_TxHalfCpltCallback:0000000000000000 $t
     /tmp/cc9N7Buw.s:5110   .text.HAL_SPI_TxHalfCpltCallback:0000000000000000 HAL_SPI_TxHalfCpltCallback
     /tmp/cc9N7Buw.s:5146   .text.HAL_SPI_RxHalfCpltCallback:0000000000000000 $t
     /tmp/cc9N7Buw.s:5153   .text.HAL_SPI_RxHalfCpltCallback:0000000000000000 HAL_SPI_RxHalfCpltCallback
     /tmp/cc9N7Buw.s:5189   .text.HAL_SPI_TxRxHalfCpltCallback:0000000000000000 $t
     /tmp/cc9N7Buw.s:5196   .text.HAL_SPI_TxRxHalfCpltCallback:0000000000000000 HAL_SPI_TxRxHalfCpltCallback
     /tmp/cc9N7Buw.s:5232   .text.HAL_SPI_ErrorCallback:0000000000000000 $t
     /tmp/cc9N7Buw.s:5275   .text.HAL_SPI_AbortCpltCallback:0000000000000000 $t
     /tmp/cc9N7Buw.s:5318   .text.HAL_SPI_GetState:0000000000000000 $t
     /tmp/cc9N7Buw.s:5325   .text.HAL_SPI_GetState:0000000000000000 HAL_SPI_GetState
     /tmp/cc9N7Buw.s:5365   .text.HAL_SPI_GetError:0000000000000000 $t
     /tmp/cc9N7Buw.s:5372   .text.HAL_SPI_GetError:0000000000000000 HAL_SPI_GetError
     /tmp/cc9N7Buw.s:5411   .text.SPI_DMATransmitCplt:0000000000000000 $t
     /tmp/cc9N7Buw.s:5542   .text.SPI_DMAReceiveCplt:0000000000000000 $t
     /tmp/cc9N7Buw.s:5673   .text.SPI_DMATransmitReceiveCplt:0000000000000000 $t
     /tmp/cc9N7Buw.s:5787   .text.SPI_DMAHalfTransmitCplt:0000000000000000 $t
     /tmp/cc9N7Buw.s:5832   .text.SPI_DMAHalfReceiveCplt:0000000000000000 $t
     /tmp/cc9N7Buw.s:5877   .text.SPI_DMAHalfTransmitReceiveCplt:0000000000000000 $t
     /tmp/cc9N7Buw.s:5922   .text.SPI_DMAError:0000000000000000 $t
     /tmp/cc9N7Buw.s:5985   .text.SPI_DMAAbortOnError:0000000000000000 $t
     /tmp/cc9N7Buw.s:6038   .text.SPI_DMATxAbortCallback:0000000000000000 $t
     /tmp/cc9N7Buw.s:6203   .text.SPI_DMATxAbortCallback:00000000000000cc $d
     /tmp/cc9N7Buw.s:6209   .text.SPI_DMARxAbortCallback:0000000000000000 $t
     /tmp/cc9N7Buw.s:6360   .text.SPI_2linesRxISR_8BIT:0000000000000000 $t
     /tmp/cc9N7Buw.s:7450   .text.SPI_CloseRxTx_ISR:0000000000000000 SPI_CloseRxTx_ISR
     /tmp/cc9N7Buw.s:6453   .text.SPI_2linesTxISR_8BIT:0000000000000000 $t
     /tmp/cc9N7Buw.s:6545   .text.SPI_2linesRxISR_16BIT:0000000000000000 $t
     /tmp/cc9N7Buw.s:6636   .text.SPI_2linesTxISR_16BIT:0000000000000000 $t
     /tmp/cc9N7Buw.s:6725   .text.SPI_RxISR_8BIT:0000000000000000 $t
ARM GAS  /tmp/cc9N7Buw.s 			page 210


     /tmp/cc9N7Buw.s:7623   .text.SPI_CloseRx_ISR:0000000000000000 SPI_CloseRx_ISR
     /tmp/cc9N7Buw.s:6803   .text.SPI_RxISR_16BIT:0000000000000000 $t
     /tmp/cc9N7Buw.s:6879   .text.SPI_TxISR_8BIT:0000000000000000 $t
     /tmp/cc9N7Buw.s:7728   .text.SPI_CloseTx_ISR:0000000000000000 SPI_CloseTx_ISR
     /tmp/cc9N7Buw.s:6956   .text.SPI_TxISR_16BIT:0000000000000000 $t
     /tmp/cc9N7Buw.s:7030   .text.SPI_WaitFlagStateUntilTimeout:0000000000000000 $t
     /tmp/cc9N7Buw.s:7036   .text.SPI_WaitFlagStateUntilTimeout:0000000000000000 SPI_WaitFlagStateUntilTimeout
     /tmp/cc9N7Buw.s:7186   .text.SPI_EndRxTransaction:0000000000000000 $t
     /tmp/cc9N7Buw.s:7335   .text.SPI_EndRxTxTransaction:0000000000000000 $t
     /tmp/cc9N7Buw.s:7438   .text.SPI_EndRxTxTransaction:000000000000007c $d
     /tmp/cc9N7Buw.s:7444   .text.SPI_CloseRxTx_ISR:0000000000000000 $t
     /tmp/cc9N7Buw.s:7611   .text.SPI_CloseRxTx_ISR:00000000000000e0 $d
     /tmp/cc9N7Buw.s:7617   .text.SPI_CloseRx_ISR:0000000000000000 $t
     /tmp/cc9N7Buw.s:7722   .text.SPI_CloseTx_ISR:0000000000000000 $t
     /tmp/cc9N7Buw.s:7868   .text.SPI_CloseTx_ISR:00000000000000bc $d
     /tmp/cc9N7Buw.s:7874   .text.SPI_AbortRx_ISR:0000000000000000 $t
     /tmp/cc9N7Buw.s:7980   .text.SPI_AbortRx_ISR:0000000000000080 $d
     /tmp/cc9N7Buw.s:7986   .text.SPI_AbortTx_ISR:0000000000000000 $t

UNDEFINED SYMBOLS
assert_failed
HAL_GetTick
HAL_DMA_Start_IT
HAL_DMA_Abort
SystemCoreClock
HAL_DMA_Abort_IT
