ARM GAS  /tmp/cc9N7Buw.s 			page 1


   1              		.cpu cortex-m4
   2              		.eabi_attribute 27, 1
   3              		.eabi_attribute 28, 1
   4              		.eabi_attribute 20, 1
   5              		.eabi_attribute 21, 1
   6              		.eabi_attribute 23, 3
   7              		.eabi_attribute 24, 1
   8              		.eabi_attribute 25, 1
   9              		.eabi_attribute 26, 1
  10              		.eabi_attribute 30, 6
  11              		.eabi_attribute 34, 1
  12              		.eabi_attribute 18, 4
  13              		.file	"stm32f4xx_hal_spi.c"
  14              		.text
  15              	.Ltext0:
  16              		.cfi_sections	.debug_frame
  17              		.section	.rodata
  18              		.align	2
  19              	.LC0:
  20 0000 44726976 		.ascii	"Drivers/STM32F4xx_HAL_Driver/Src/stm32f4xx_hal_spi."
  20      6572732F 
  20      53544D33 
  20      32463478 
  20      785F4841 
  21 0033 6300     		.ascii	"c\000"
  22              		.section	.text.HAL_SPI_Init,"ax",%progbits
  23              		.align	1
  24              		.global	HAL_SPI_Init
  25              		.arch armv7e-m
  26              		.syntax unified
  27              		.thumb
  28              		.thumb_func
  29              		.fpu fpv4-sp-d16
  31              	HAL_SPI_Init:
  32              	.LFB130:
  33              		.file 1 "Drivers/STM32F4xx_HAL_Driver/Src/stm32f4xx_hal_spi.c"
   1:Drivers/STM32F4xx_HAL_Driver/Src/stm32f4xx_hal_spi.c **** /**
   2:Drivers/STM32F4xx_HAL_Driver/Src/stm32f4xx_hal_spi.c ****   ******************************************************************************
   3:Drivers/STM32F4xx_HAL_Driver/Src/stm32f4xx_hal_spi.c ****   * @file    stm32f4xx_hal_spi.c
   4:Drivers/STM32F4xx_HAL_Driver/Src/stm32f4xx_hal_spi.c ****   * @author  MCD Application Team
   5:Drivers/STM32F4xx_HAL_Driver/Src/stm32f4xx_hal_spi.c ****   * @brief   SPI HAL module driver.
   6:Drivers/STM32F4xx_HAL_Driver/Src/stm32f4xx_hal_spi.c ****   *          This file provides firmware functions to manage the following
   7:Drivers/STM32F4xx_HAL_Driver/Src/stm32f4xx_hal_spi.c ****   *          functionalities of the Serial Peripheral Interface (SPI) peripheral:
   8:Drivers/STM32F4xx_HAL_Driver/Src/stm32f4xx_hal_spi.c ****   *           + Initialization and de-initialization functions
   9:Drivers/STM32F4xx_HAL_Driver/Src/stm32f4xx_hal_spi.c ****   *           + IO operation functions
  10:Drivers/STM32F4xx_HAL_Driver/Src/stm32f4xx_hal_spi.c ****   *           + Peripheral Control functions
  11:Drivers/STM32F4xx_HAL_Driver/Src/stm32f4xx_hal_spi.c ****   *           + Peripheral State functions
  12:Drivers/STM32F4xx_HAL_Driver/Src/stm32f4xx_hal_spi.c ****   *
  13:Drivers/STM32F4xx_HAL_Driver/Src/stm32f4xx_hal_spi.c ****   @verbatim
  14:Drivers/STM32F4xx_HAL_Driver/Src/stm32f4xx_hal_spi.c ****   ==============================================================================
  15:Drivers/STM32F4xx_HAL_Driver/Src/stm32f4xx_hal_spi.c ****                         ##### How to use this driver #####
  16:Drivers/STM32F4xx_HAL_Driver/Src/stm32f4xx_hal_spi.c ****   ==============================================================================
  17:Drivers/STM32F4xx_HAL_Driver/Src/stm32f4xx_hal_spi.c ****     [..]
  18:Drivers/STM32F4xx_HAL_Driver/Src/stm32f4xx_hal_spi.c ****       The SPI HAL driver can be used as follows:
  19:Drivers/STM32F4xx_HAL_Driver/Src/stm32f4xx_hal_spi.c **** 
  20:Drivers/STM32F4xx_HAL_Driver/Src/stm32f4xx_hal_spi.c ****       (#) Declare a SPI_HandleTypeDef handle structure, for example:
  21:Drivers/STM32F4xx_HAL_Driver/Src/stm32f4xx_hal_spi.c ****           SPI_HandleTypeDef  hspi;
ARM GAS  /tmp/cc9N7Buw.s 			page 2


  22:Drivers/STM32F4xx_HAL_Driver/Src/stm32f4xx_hal_spi.c **** 
  23:Drivers/STM32F4xx_HAL_Driver/Src/stm32f4xx_hal_spi.c ****       (#)Initialize the SPI low level resources by implementing the HAL_SPI_MspInit() API:
  24:Drivers/STM32F4xx_HAL_Driver/Src/stm32f4xx_hal_spi.c ****           (##) Enable the SPIx interface clock
  25:Drivers/STM32F4xx_HAL_Driver/Src/stm32f4xx_hal_spi.c ****           (##) SPI pins configuration
  26:Drivers/STM32F4xx_HAL_Driver/Src/stm32f4xx_hal_spi.c ****               (+++) Enable the clock for the SPI GPIOs
  27:Drivers/STM32F4xx_HAL_Driver/Src/stm32f4xx_hal_spi.c ****               (+++) Configure these SPI pins as alternate function push-pull
  28:Drivers/STM32F4xx_HAL_Driver/Src/stm32f4xx_hal_spi.c ****           (##) NVIC configuration if you need to use interrupt process
  29:Drivers/STM32F4xx_HAL_Driver/Src/stm32f4xx_hal_spi.c ****               (+++) Configure the SPIx interrupt priority
  30:Drivers/STM32F4xx_HAL_Driver/Src/stm32f4xx_hal_spi.c ****               (+++) Enable the NVIC SPI IRQ handle
  31:Drivers/STM32F4xx_HAL_Driver/Src/stm32f4xx_hal_spi.c ****           (##) DMA Configuration if you need to use DMA process
  32:Drivers/STM32F4xx_HAL_Driver/Src/stm32f4xx_hal_spi.c ****               (+++) Declare a DMA_HandleTypeDef handle structure for the transmit or receive Stream
  33:Drivers/STM32F4xx_HAL_Driver/Src/stm32f4xx_hal_spi.c ****               (+++) Enable the DMAx clock
  34:Drivers/STM32F4xx_HAL_Driver/Src/stm32f4xx_hal_spi.c ****               (+++) Configure the DMA handle parameters
  35:Drivers/STM32F4xx_HAL_Driver/Src/stm32f4xx_hal_spi.c ****               (+++) Configure the DMA Tx or Rx Stream/Channel
  36:Drivers/STM32F4xx_HAL_Driver/Src/stm32f4xx_hal_spi.c ****               (+++) Associate the initialized hdma_tx(or _rx)  handle to the hspi DMA Tx or Rx hand
  37:Drivers/STM32F4xx_HAL_Driver/Src/stm32f4xx_hal_spi.c ****               (+++) Configure the priority and enable the NVIC for the transfer complete interrupt 
  38:Drivers/STM32F4xx_HAL_Driver/Src/stm32f4xx_hal_spi.c **** 
  39:Drivers/STM32F4xx_HAL_Driver/Src/stm32f4xx_hal_spi.c ****       (#) Program the Mode, BidirectionalMode , Data size, Baudrate Prescaler, NSS
  40:Drivers/STM32F4xx_HAL_Driver/Src/stm32f4xx_hal_spi.c ****           management, Clock polarity and phase, FirstBit and CRC configuration in the hspi Init str
  41:Drivers/STM32F4xx_HAL_Driver/Src/stm32f4xx_hal_spi.c **** 
  42:Drivers/STM32F4xx_HAL_Driver/Src/stm32f4xx_hal_spi.c ****       (#) Initialize the SPI registers by calling the HAL_SPI_Init() API:
  43:Drivers/STM32F4xx_HAL_Driver/Src/stm32f4xx_hal_spi.c ****           (++) This API configures also the low level Hardware GPIO, CLOCK, CORTEX...etc)
  44:Drivers/STM32F4xx_HAL_Driver/Src/stm32f4xx_hal_spi.c ****               by calling the customized HAL_SPI_MspInit() API.
  45:Drivers/STM32F4xx_HAL_Driver/Src/stm32f4xx_hal_spi.c ****      [..]
  46:Drivers/STM32F4xx_HAL_Driver/Src/stm32f4xx_hal_spi.c ****        Circular mode restriction:
  47:Drivers/STM32F4xx_HAL_Driver/Src/stm32f4xx_hal_spi.c ****       (#) The DMA circular mode cannot be used when the SPI is configured in these modes:
  48:Drivers/STM32F4xx_HAL_Driver/Src/stm32f4xx_hal_spi.c ****           (##) Master 2Lines RxOnly
  49:Drivers/STM32F4xx_HAL_Driver/Src/stm32f4xx_hal_spi.c ****           (##) Master 1Line Rx
  50:Drivers/STM32F4xx_HAL_Driver/Src/stm32f4xx_hal_spi.c ****       (#) The CRC feature is not managed when the DMA circular mode is enabled
  51:Drivers/STM32F4xx_HAL_Driver/Src/stm32f4xx_hal_spi.c ****       (#) When the SPI DMA Pause/Stop features are used, we must use the following APIs
  52:Drivers/STM32F4xx_HAL_Driver/Src/stm32f4xx_hal_spi.c ****           the HAL_SPI_DMAPause()/ HAL_SPI_DMAStop() only under the SPI callbacks
  53:Drivers/STM32F4xx_HAL_Driver/Src/stm32f4xx_hal_spi.c ****      [..]
  54:Drivers/STM32F4xx_HAL_Driver/Src/stm32f4xx_hal_spi.c ****        Master Receive mode restriction:
  55:Drivers/STM32F4xx_HAL_Driver/Src/stm32f4xx_hal_spi.c ****       (#) In Master unidirectional receive-only mode (MSTR =1, BIDIMODE=0, RXONLY=1) or
  56:Drivers/STM32F4xx_HAL_Driver/Src/stm32f4xx_hal_spi.c ****           bidirectional receive mode (MSTR=1, BIDIMODE=1, BIDIOE=0), to ensure that the SPI
  57:Drivers/STM32F4xx_HAL_Driver/Src/stm32f4xx_hal_spi.c ****           does not initiate a new transfer the following procedure has to be respected:
  58:Drivers/STM32F4xx_HAL_Driver/Src/stm32f4xx_hal_spi.c ****           (##) HAL_SPI_DeInit()
  59:Drivers/STM32F4xx_HAL_Driver/Src/stm32f4xx_hal_spi.c ****           (##) HAL_SPI_Init()
  60:Drivers/STM32F4xx_HAL_Driver/Src/stm32f4xx_hal_spi.c ****      [..]
  61:Drivers/STM32F4xx_HAL_Driver/Src/stm32f4xx_hal_spi.c ****        Callback registration:
  62:Drivers/STM32F4xx_HAL_Driver/Src/stm32f4xx_hal_spi.c **** 
  63:Drivers/STM32F4xx_HAL_Driver/Src/stm32f4xx_hal_spi.c ****       (#) The compilation flag USE_HAL_SPI_REGISTER_CALLBACKS when set to 1U
  64:Drivers/STM32F4xx_HAL_Driver/Src/stm32f4xx_hal_spi.c ****           allows the user to configure dynamically the driver callbacks.
  65:Drivers/STM32F4xx_HAL_Driver/Src/stm32f4xx_hal_spi.c ****           Use Functions HAL_SPI_RegisterCallback() to register an interrupt callback.
  66:Drivers/STM32F4xx_HAL_Driver/Src/stm32f4xx_hal_spi.c **** 
  67:Drivers/STM32F4xx_HAL_Driver/Src/stm32f4xx_hal_spi.c ****           Function HAL_SPI_RegisterCallback() allows to register following callbacks:
  68:Drivers/STM32F4xx_HAL_Driver/Src/stm32f4xx_hal_spi.c ****             (++) TxCpltCallback        : SPI Tx Completed callback
  69:Drivers/STM32F4xx_HAL_Driver/Src/stm32f4xx_hal_spi.c ****             (++) RxCpltCallback        : SPI Rx Completed callback
  70:Drivers/STM32F4xx_HAL_Driver/Src/stm32f4xx_hal_spi.c ****             (++) TxRxCpltCallback      : SPI TxRx Completed callback
  71:Drivers/STM32F4xx_HAL_Driver/Src/stm32f4xx_hal_spi.c ****             (++) TxHalfCpltCallback    : SPI Tx Half Completed callback
  72:Drivers/STM32F4xx_HAL_Driver/Src/stm32f4xx_hal_spi.c ****             (++) RxHalfCpltCallback    : SPI Rx Half Completed callback
  73:Drivers/STM32F4xx_HAL_Driver/Src/stm32f4xx_hal_spi.c ****             (++) TxRxHalfCpltCallback  : SPI TxRx Half Completed callback
  74:Drivers/STM32F4xx_HAL_Driver/Src/stm32f4xx_hal_spi.c ****             (++) ErrorCallback         : SPI Error callback
  75:Drivers/STM32F4xx_HAL_Driver/Src/stm32f4xx_hal_spi.c ****             (++) AbortCpltCallback     : SPI Abort callback
  76:Drivers/STM32F4xx_HAL_Driver/Src/stm32f4xx_hal_spi.c ****             (++) MspInitCallback       : SPI Msp Init callback
  77:Drivers/STM32F4xx_HAL_Driver/Src/stm32f4xx_hal_spi.c ****             (++) MspDeInitCallback     : SPI Msp DeInit callback
  78:Drivers/STM32F4xx_HAL_Driver/Src/stm32f4xx_hal_spi.c ****           This function takes as parameters the HAL peripheral handle, the Callback ID
ARM GAS  /tmp/cc9N7Buw.s 			page 3


  79:Drivers/STM32F4xx_HAL_Driver/Src/stm32f4xx_hal_spi.c ****           and a pointer to the user callback function.
  80:Drivers/STM32F4xx_HAL_Driver/Src/stm32f4xx_hal_spi.c **** 
  81:Drivers/STM32F4xx_HAL_Driver/Src/stm32f4xx_hal_spi.c **** 
  82:Drivers/STM32F4xx_HAL_Driver/Src/stm32f4xx_hal_spi.c ****       (#) Use function HAL_SPI_UnRegisterCallback to reset a callback to the default
  83:Drivers/STM32F4xx_HAL_Driver/Src/stm32f4xx_hal_spi.c ****           weak function.
  84:Drivers/STM32F4xx_HAL_Driver/Src/stm32f4xx_hal_spi.c ****           HAL_SPI_UnRegisterCallback takes as parameters the HAL peripheral handle,
  85:Drivers/STM32F4xx_HAL_Driver/Src/stm32f4xx_hal_spi.c ****           and the Callback ID.
  86:Drivers/STM32F4xx_HAL_Driver/Src/stm32f4xx_hal_spi.c ****           This function allows to reset following callbacks:
  87:Drivers/STM32F4xx_HAL_Driver/Src/stm32f4xx_hal_spi.c ****             (++) TxCpltCallback        : SPI Tx Completed callback
  88:Drivers/STM32F4xx_HAL_Driver/Src/stm32f4xx_hal_spi.c ****             (++) RxCpltCallback        : SPI Rx Completed callback
  89:Drivers/STM32F4xx_HAL_Driver/Src/stm32f4xx_hal_spi.c ****             (++) TxRxCpltCallback      : SPI TxRx Completed callback
  90:Drivers/STM32F4xx_HAL_Driver/Src/stm32f4xx_hal_spi.c ****             (++) TxHalfCpltCallback    : SPI Tx Half Completed callback
  91:Drivers/STM32F4xx_HAL_Driver/Src/stm32f4xx_hal_spi.c ****             (++) RxHalfCpltCallback    : SPI Rx Half Completed callback
  92:Drivers/STM32F4xx_HAL_Driver/Src/stm32f4xx_hal_spi.c ****             (++) TxRxHalfCpltCallback  : SPI TxRx Half Completed callback
  93:Drivers/STM32F4xx_HAL_Driver/Src/stm32f4xx_hal_spi.c ****             (++) ErrorCallback         : SPI Error callback
  94:Drivers/STM32F4xx_HAL_Driver/Src/stm32f4xx_hal_spi.c ****             (++) AbortCpltCallback     : SPI Abort callback
  95:Drivers/STM32F4xx_HAL_Driver/Src/stm32f4xx_hal_spi.c ****             (++) MspInitCallback       : SPI Msp Init callback
  96:Drivers/STM32F4xx_HAL_Driver/Src/stm32f4xx_hal_spi.c ****             (++) MspDeInitCallback     : SPI Msp DeInit callback
  97:Drivers/STM32F4xx_HAL_Driver/Src/stm32f4xx_hal_spi.c **** 
  98:Drivers/STM32F4xx_HAL_Driver/Src/stm32f4xx_hal_spi.c ****        [..]
  99:Drivers/STM32F4xx_HAL_Driver/Src/stm32f4xx_hal_spi.c ****        By default, after the HAL_SPI_Init() and when the state is HAL_SPI_STATE_RESET
 100:Drivers/STM32F4xx_HAL_Driver/Src/stm32f4xx_hal_spi.c ****        all callbacks are set to the corresponding weak functions:
 101:Drivers/STM32F4xx_HAL_Driver/Src/stm32f4xx_hal_spi.c ****        examples HAL_SPI_MasterTxCpltCallback(), HAL_SPI_MasterRxCpltCallback().
 102:Drivers/STM32F4xx_HAL_Driver/Src/stm32f4xx_hal_spi.c ****        Exception done for MspInit and MspDeInit functions that are
 103:Drivers/STM32F4xx_HAL_Driver/Src/stm32f4xx_hal_spi.c ****        reset to the legacy weak functions in the HAL_SPI_Init()/ HAL_SPI_DeInit() only when
 104:Drivers/STM32F4xx_HAL_Driver/Src/stm32f4xx_hal_spi.c ****        these callbacks are null (not registered beforehand).
 105:Drivers/STM32F4xx_HAL_Driver/Src/stm32f4xx_hal_spi.c ****        If MspInit or MspDeInit are not null, the HAL_SPI_Init()/ HAL_SPI_DeInit()
 106:Drivers/STM32F4xx_HAL_Driver/Src/stm32f4xx_hal_spi.c ****        keep and use the user MspInit/MspDeInit callbacks (registered beforehand) whatever the state
 107:Drivers/STM32F4xx_HAL_Driver/Src/stm32f4xx_hal_spi.c **** 
 108:Drivers/STM32F4xx_HAL_Driver/Src/stm32f4xx_hal_spi.c ****        [..]
 109:Drivers/STM32F4xx_HAL_Driver/Src/stm32f4xx_hal_spi.c ****        Callbacks can be registered/unregistered in HAL_SPI_STATE_READY state only.
 110:Drivers/STM32F4xx_HAL_Driver/Src/stm32f4xx_hal_spi.c ****        Exception done MspInit/MspDeInit functions that can be registered/unregistered
 111:Drivers/STM32F4xx_HAL_Driver/Src/stm32f4xx_hal_spi.c ****        in HAL_SPI_STATE_READY or HAL_SPI_STATE_RESET state,
 112:Drivers/STM32F4xx_HAL_Driver/Src/stm32f4xx_hal_spi.c ****        thus registered (user) MspInit/DeInit callbacks can be used during the Init/DeInit.
 113:Drivers/STM32F4xx_HAL_Driver/Src/stm32f4xx_hal_spi.c ****        Then, the user first registers the MspInit/MspDeInit user callbacks
 114:Drivers/STM32F4xx_HAL_Driver/Src/stm32f4xx_hal_spi.c ****        using HAL_SPI_RegisterCallback() before calling HAL_SPI_DeInit()
 115:Drivers/STM32F4xx_HAL_Driver/Src/stm32f4xx_hal_spi.c ****        or HAL_SPI_Init() function.
 116:Drivers/STM32F4xx_HAL_Driver/Src/stm32f4xx_hal_spi.c **** 
 117:Drivers/STM32F4xx_HAL_Driver/Src/stm32f4xx_hal_spi.c ****        [..]
 118:Drivers/STM32F4xx_HAL_Driver/Src/stm32f4xx_hal_spi.c ****        When the compilation define USE_HAL_PPP_REGISTER_CALLBACKS is set to 0 or
 119:Drivers/STM32F4xx_HAL_Driver/Src/stm32f4xx_hal_spi.c ****        not defined, the callback registering feature is not available
 120:Drivers/STM32F4xx_HAL_Driver/Src/stm32f4xx_hal_spi.c ****        and weak (surcharged) callbacks are used.
 121:Drivers/STM32F4xx_HAL_Driver/Src/stm32f4xx_hal_spi.c **** 
 122:Drivers/STM32F4xx_HAL_Driver/Src/stm32f4xx_hal_spi.c ****      [..]
 123:Drivers/STM32F4xx_HAL_Driver/Src/stm32f4xx_hal_spi.c ****        Using the HAL it is not possible to reach all supported SPI frequency with the different SPI
 124:Drivers/STM32F4xx_HAL_Driver/Src/stm32f4xx_hal_spi.c ****        the following table resume the max SPI frequency reached with data size 8bits/16bits,
 125:Drivers/STM32F4xx_HAL_Driver/Src/stm32f4xx_hal_spi.c ****          according to frequency of the APBx Peripheral Clock (fPCLK) used by the SPI instance.
 126:Drivers/STM32F4xx_HAL_Driver/Src/stm32f4xx_hal_spi.c **** 
 127:Drivers/STM32F4xx_HAL_Driver/Src/stm32f4xx_hal_spi.c ****   @endverbatim
 128:Drivers/STM32F4xx_HAL_Driver/Src/stm32f4xx_hal_spi.c **** 
 129:Drivers/STM32F4xx_HAL_Driver/Src/stm32f4xx_hal_spi.c ****   Additional table :
 130:Drivers/STM32F4xx_HAL_Driver/Src/stm32f4xx_hal_spi.c **** 
 131:Drivers/STM32F4xx_HAL_Driver/Src/stm32f4xx_hal_spi.c ****        DataSize = SPI_DATASIZE_8BIT:
 132:Drivers/STM32F4xx_HAL_Driver/Src/stm32f4xx_hal_spi.c ****        +-------------------------------------------------------------------------------------------
 133:Drivers/STM32F4xx_HAL_Driver/Src/stm32f4xx_hal_spi.c ****        |         |                | 2Lines Fullduplex   |     2Lines RxOnly    |         1Line     
 134:Drivers/STM32F4xx_HAL_Driver/Src/stm32f4xx_hal_spi.c ****        | Process | Tranfert mode  |---------------------|----------------------|-------------------
 135:Drivers/STM32F4xx_HAL_Driver/Src/stm32f4xx_hal_spi.c ****        |         |                |  Master  |  Slave   |  Master   |  Slave   |  Master   |  Slave
ARM GAS  /tmp/cc9N7Buw.s 			page 4


 136:Drivers/STM32F4xx_HAL_Driver/Src/stm32f4xx_hal_spi.c ****        |===========================================================================================
 137:Drivers/STM32F4xx_HAL_Driver/Src/stm32f4xx_hal_spi.c ****        |    T    |     Polling    | Fpclk/2  | Fpclk/2  |    NA     |    NA    |    NA     |   NA  
 138:Drivers/STM32F4xx_HAL_Driver/Src/stm32f4xx_hal_spi.c ****        |    X    |----------------|----------|----------|-----------|----------|-----------|-------
 139:Drivers/STM32F4xx_HAL_Driver/Src/stm32f4xx_hal_spi.c ****        |    /    |     Interrupt  | Fpclk/4  | Fpclk/8  |    NA     |    NA    |    NA     |   NA  
 140:Drivers/STM32F4xx_HAL_Driver/Src/stm32f4xx_hal_spi.c ****        |    R    |----------------|----------|----------|-----------|----------|-----------|-------
 141:Drivers/STM32F4xx_HAL_Driver/Src/stm32f4xx_hal_spi.c ****        |    X    |       DMA      | Fpclk/2  | Fpclk/2  |    NA     |    NA    |    NA     |   NA  
 142:Drivers/STM32F4xx_HAL_Driver/Src/stm32f4xx_hal_spi.c ****        |=========|================|==========|==========|===========|==========|===========|=======
 143:Drivers/STM32F4xx_HAL_Driver/Src/stm32f4xx_hal_spi.c ****        |         |     Polling    | Fpclk/2  | Fpclk/2  | Fpclk/64  | Fpclk/2  | Fpclk/64  | Fpclk/
 144:Drivers/STM32F4xx_HAL_Driver/Src/stm32f4xx_hal_spi.c ****        |         |----------------|----------|----------|-----------|----------|-----------|-------
 145:Drivers/STM32F4xx_HAL_Driver/Src/stm32f4xx_hal_spi.c ****        |    R    |     Interrupt  | Fpclk/8  | Fpclk/8  | Fpclk/64  | Fpclk/2  | Fpclk/64  | Fpclk/
 146:Drivers/STM32F4xx_HAL_Driver/Src/stm32f4xx_hal_spi.c ****        |    X    |----------------|----------|----------|-----------|----------|-----------|-------
 147:Drivers/STM32F4xx_HAL_Driver/Src/stm32f4xx_hal_spi.c ****        |         |       DMA      | Fpclk/2  | Fpclk/2  | Fpclk/64  | Fpclk/2  | Fpclk/128 | Fpclk/
 148:Drivers/STM32F4xx_HAL_Driver/Src/stm32f4xx_hal_spi.c ****        |=========|================|==========|==========|===========|==========|===========|=======
 149:Drivers/STM32F4xx_HAL_Driver/Src/stm32f4xx_hal_spi.c ****        |         |     Polling    | Fpclk/2  | Fpclk/4  |     NA    |    NA    | Fpclk/2   | Fpclk/
 150:Drivers/STM32F4xx_HAL_Driver/Src/stm32f4xx_hal_spi.c ****        |         |----------------|----------|----------|-----------|----------|-----------|-------
 151:Drivers/STM32F4xx_HAL_Driver/Src/stm32f4xx_hal_spi.c ****        |    T    |     Interrupt  | Fpclk/2  | Fpclk/4  |     NA    |    NA    | Fpclk/2   | Fpclk/
 152:Drivers/STM32F4xx_HAL_Driver/Src/stm32f4xx_hal_spi.c ****        |    X    |----------------|----------|----------|-----------|----------|-----------|-------
 153:Drivers/STM32F4xx_HAL_Driver/Src/stm32f4xx_hal_spi.c ****        |         |       DMA      | Fpclk/2  | Fpclk/2  |     NA    |    NA    | Fpclk/2   | Fpclk/
 154:Drivers/STM32F4xx_HAL_Driver/Src/stm32f4xx_hal_spi.c ****        +-------------------------------------------------------------------------------------------
 155:Drivers/STM32F4xx_HAL_Driver/Src/stm32f4xx_hal_spi.c **** 
 156:Drivers/STM32F4xx_HAL_Driver/Src/stm32f4xx_hal_spi.c ****        DataSize = SPI_DATASIZE_16BIT:
 157:Drivers/STM32F4xx_HAL_Driver/Src/stm32f4xx_hal_spi.c ****        +-------------------------------------------------------------------------------------------
 158:Drivers/STM32F4xx_HAL_Driver/Src/stm32f4xx_hal_spi.c ****        |         |                | 2Lines Fullduplex   |     2Lines RxOnly    |         1Line     
 159:Drivers/STM32F4xx_HAL_Driver/Src/stm32f4xx_hal_spi.c ****        | Process | Tranfert mode  |---------------------|----------------------|-------------------
 160:Drivers/STM32F4xx_HAL_Driver/Src/stm32f4xx_hal_spi.c ****        |         |                |  Master  |  Slave   |  Master   |  Slave   |  Master   |  Slave
 161:Drivers/STM32F4xx_HAL_Driver/Src/stm32f4xx_hal_spi.c ****        |===========================================================================================
 162:Drivers/STM32F4xx_HAL_Driver/Src/stm32f4xx_hal_spi.c ****        |    T    |     Polling    | Fpclk/2  | Fpclk/2  |    NA     |    NA    |    NA     |   NA  
 163:Drivers/STM32F4xx_HAL_Driver/Src/stm32f4xx_hal_spi.c ****        |    X    |----------------|----------|----------|-----------|----------|-----------|-------
 164:Drivers/STM32F4xx_HAL_Driver/Src/stm32f4xx_hal_spi.c ****        |    /    |     Interrupt  | Fpclk/4  | Fpclk/4  |    NA     |    NA    |    NA     |   NA  
 165:Drivers/STM32F4xx_HAL_Driver/Src/stm32f4xx_hal_spi.c ****        |    R    |----------------|----------|----------|-----------|----------|-----------|-------
 166:Drivers/STM32F4xx_HAL_Driver/Src/stm32f4xx_hal_spi.c ****        |    X    |       DMA      | Fpclk/2  | Fpclk/2  |    NA     |    NA    |    NA     |   NA  
 167:Drivers/STM32F4xx_HAL_Driver/Src/stm32f4xx_hal_spi.c ****        |=========|================|==========|==========|===========|==========|===========|=======
 168:Drivers/STM32F4xx_HAL_Driver/Src/stm32f4xx_hal_spi.c ****        |         |     Polling    | Fpclk/2  | Fpclk/2  | Fpclk/64  | Fpclk/2  | Fpclk/32  | Fpclk/
 169:Drivers/STM32F4xx_HAL_Driver/Src/stm32f4xx_hal_spi.c ****        |         |----------------|----------|----------|-----------|----------|-----------|-------
 170:Drivers/STM32F4xx_HAL_Driver/Src/stm32f4xx_hal_spi.c ****        |    R    |     Interrupt  | Fpclk/4  | Fpclk/4  | Fpclk/64  | Fpclk/2  | Fpclk/64  | Fpclk/
 171:Drivers/STM32F4xx_HAL_Driver/Src/stm32f4xx_hal_spi.c ****        |    X    |----------------|----------|----------|-----------|----------|-----------|-------
 172:Drivers/STM32F4xx_HAL_Driver/Src/stm32f4xx_hal_spi.c ****        |         |       DMA      | Fpclk/2  | Fpclk/2  | Fpclk/64  | Fpclk/2  | Fpclk/128 | Fpclk/
 173:Drivers/STM32F4xx_HAL_Driver/Src/stm32f4xx_hal_spi.c ****        |=========|================|==========|==========|===========|==========|===========|=======
 174:Drivers/STM32F4xx_HAL_Driver/Src/stm32f4xx_hal_spi.c ****        |         |     Polling    | Fpclk/2  | Fpclk/2  |     NA    |    NA    | Fpclk/2   | Fpclk/
 175:Drivers/STM32F4xx_HAL_Driver/Src/stm32f4xx_hal_spi.c ****        |         |----------------|----------|----------|-----------|----------|-----------|-------
 176:Drivers/STM32F4xx_HAL_Driver/Src/stm32f4xx_hal_spi.c ****        |    T    |     Interrupt  | Fpclk/2  | Fpclk/2  |     NA    |    NA    | Fpclk/2   | Fpclk/
 177:Drivers/STM32F4xx_HAL_Driver/Src/stm32f4xx_hal_spi.c ****        |    X    |----------------|----------|----------|-----------|----------|-----------|-------
 178:Drivers/STM32F4xx_HAL_Driver/Src/stm32f4xx_hal_spi.c ****        |         |       DMA      | Fpclk/2  | Fpclk/2  |     NA    |    NA    | Fpclk/2   | Fpclk/
 179:Drivers/STM32F4xx_HAL_Driver/Src/stm32f4xx_hal_spi.c ****        +-------------------------------------------------------------------------------------------
 180:Drivers/STM32F4xx_HAL_Driver/Src/stm32f4xx_hal_spi.c ****        @note The max SPI frequency depend on SPI data size (8bits, 16bits),
 181:Drivers/STM32F4xx_HAL_Driver/Src/stm32f4xx_hal_spi.c ****              SPI mode(2 Lines fullduplex, 2 lines RxOnly, 1 line TX/RX) and Process mode (Polling, 
 182:Drivers/STM32F4xx_HAL_Driver/Src/stm32f4xx_hal_spi.c ****        @note
 183:Drivers/STM32F4xx_HAL_Driver/Src/stm32f4xx_hal_spi.c ****             (#) TX/RX processes are HAL_SPI_TransmitReceive(), HAL_SPI_TransmitReceive_IT() and HAL
 184:Drivers/STM32F4xx_HAL_Driver/Src/stm32f4xx_hal_spi.c ****             (#) RX processes are HAL_SPI_Receive(), HAL_SPI_Receive_IT() and HAL_SPI_Receive_DMA()
 185:Drivers/STM32F4xx_HAL_Driver/Src/stm32f4xx_hal_spi.c ****             (#) TX processes are HAL_SPI_Transmit(), HAL_SPI_Transmit_IT() and HAL_SPI_Transmit_DMA
 186:Drivers/STM32F4xx_HAL_Driver/Src/stm32f4xx_hal_spi.c **** 
 187:Drivers/STM32F4xx_HAL_Driver/Src/stm32f4xx_hal_spi.c ****   ******************************************************************************
 188:Drivers/STM32F4xx_HAL_Driver/Src/stm32f4xx_hal_spi.c ****   * @attention
 189:Drivers/STM32F4xx_HAL_Driver/Src/stm32f4xx_hal_spi.c ****   *
 190:Drivers/STM32F4xx_HAL_Driver/Src/stm32f4xx_hal_spi.c ****   * <h2><center>&copy; Copyright (c) 2016 STMicroelectronics.
 191:Drivers/STM32F4xx_HAL_Driver/Src/stm32f4xx_hal_spi.c ****   * All rights reserved.</center></h2>
 192:Drivers/STM32F4xx_HAL_Driver/Src/stm32f4xx_hal_spi.c ****   *
ARM GAS  /tmp/cc9N7Buw.s 			page 5


 193:Drivers/STM32F4xx_HAL_Driver/Src/stm32f4xx_hal_spi.c ****   * This software component is licensed by ST under BSD 3-Clause license,
 194:Drivers/STM32F4xx_HAL_Driver/Src/stm32f4xx_hal_spi.c ****   * the "License"; You may not use this file except in compliance with the
 195:Drivers/STM32F4xx_HAL_Driver/Src/stm32f4xx_hal_spi.c ****   * License. You may obtain a copy of the License at:
 196:Drivers/STM32F4xx_HAL_Driver/Src/stm32f4xx_hal_spi.c ****   *                        opensource.org/licenses/BSD-3-Clause
 197:Drivers/STM32F4xx_HAL_Driver/Src/stm32f4xx_hal_spi.c ****   *
 198:Drivers/STM32F4xx_HAL_Driver/Src/stm32f4xx_hal_spi.c ****   ******************************************************************************
 199:Drivers/STM32F4xx_HAL_Driver/Src/stm32f4xx_hal_spi.c ****   */
 200:Drivers/STM32F4xx_HAL_Driver/Src/stm32f4xx_hal_spi.c **** 
 201:Drivers/STM32F4xx_HAL_Driver/Src/stm32f4xx_hal_spi.c **** /* Includes ------------------------------------------------------------------*/
 202:Drivers/STM32F4xx_HAL_Driver/Src/stm32f4xx_hal_spi.c **** #include "stm32f4xx_hal.h"
 203:Drivers/STM32F4xx_HAL_Driver/Src/stm32f4xx_hal_spi.c **** 
 204:Drivers/STM32F4xx_HAL_Driver/Src/stm32f4xx_hal_spi.c **** /** @addtogroup STM32F4xx_HAL_Driver
 205:Drivers/STM32F4xx_HAL_Driver/Src/stm32f4xx_hal_spi.c ****   * @{
 206:Drivers/STM32F4xx_HAL_Driver/Src/stm32f4xx_hal_spi.c ****   */
 207:Drivers/STM32F4xx_HAL_Driver/Src/stm32f4xx_hal_spi.c **** 
 208:Drivers/STM32F4xx_HAL_Driver/Src/stm32f4xx_hal_spi.c **** /** @defgroup SPI SPI
 209:Drivers/STM32F4xx_HAL_Driver/Src/stm32f4xx_hal_spi.c ****   * @brief SPI HAL module driver
 210:Drivers/STM32F4xx_HAL_Driver/Src/stm32f4xx_hal_spi.c ****   * @{
 211:Drivers/STM32F4xx_HAL_Driver/Src/stm32f4xx_hal_spi.c ****   */
 212:Drivers/STM32F4xx_HAL_Driver/Src/stm32f4xx_hal_spi.c **** #ifdef HAL_SPI_MODULE_ENABLED
 213:Drivers/STM32F4xx_HAL_Driver/Src/stm32f4xx_hal_spi.c **** 
 214:Drivers/STM32F4xx_HAL_Driver/Src/stm32f4xx_hal_spi.c **** /* Private typedef -----------------------------------------------------------*/
 215:Drivers/STM32F4xx_HAL_Driver/Src/stm32f4xx_hal_spi.c **** /* Private defines -----------------------------------------------------------*/
 216:Drivers/STM32F4xx_HAL_Driver/Src/stm32f4xx_hal_spi.c **** /** @defgroup SPI_Private_Constants SPI Private Constants
 217:Drivers/STM32F4xx_HAL_Driver/Src/stm32f4xx_hal_spi.c ****   * @{
 218:Drivers/STM32F4xx_HAL_Driver/Src/stm32f4xx_hal_spi.c ****   */
 219:Drivers/STM32F4xx_HAL_Driver/Src/stm32f4xx_hal_spi.c **** #define SPI_DEFAULT_TIMEOUT 100U
 220:Drivers/STM32F4xx_HAL_Driver/Src/stm32f4xx_hal_spi.c **** #define SPI_BSY_FLAG_WORKAROUND_TIMEOUT 1000U /*!< Timeout 1000 µs             */
 221:Drivers/STM32F4xx_HAL_Driver/Src/stm32f4xx_hal_spi.c **** /**
 222:Drivers/STM32F4xx_HAL_Driver/Src/stm32f4xx_hal_spi.c ****   * @}
 223:Drivers/STM32F4xx_HAL_Driver/Src/stm32f4xx_hal_spi.c ****   */
 224:Drivers/STM32F4xx_HAL_Driver/Src/stm32f4xx_hal_spi.c **** 
 225:Drivers/STM32F4xx_HAL_Driver/Src/stm32f4xx_hal_spi.c **** /* Private macros ------------------------------------------------------------*/
 226:Drivers/STM32F4xx_HAL_Driver/Src/stm32f4xx_hal_spi.c **** /* Private variables ---------------------------------------------------------*/
 227:Drivers/STM32F4xx_HAL_Driver/Src/stm32f4xx_hal_spi.c **** /* Private function prototypes -----------------------------------------------*/
 228:Drivers/STM32F4xx_HAL_Driver/Src/stm32f4xx_hal_spi.c **** /** @defgroup SPI_Private_Functions SPI Private Functions
 229:Drivers/STM32F4xx_HAL_Driver/Src/stm32f4xx_hal_spi.c ****   * @{
 230:Drivers/STM32F4xx_HAL_Driver/Src/stm32f4xx_hal_spi.c ****   */
 231:Drivers/STM32F4xx_HAL_Driver/Src/stm32f4xx_hal_spi.c **** static void SPI_DMATransmitCplt(DMA_HandleTypeDef *hdma);
 232:Drivers/STM32F4xx_HAL_Driver/Src/stm32f4xx_hal_spi.c **** static void SPI_DMAReceiveCplt(DMA_HandleTypeDef *hdma);
 233:Drivers/STM32F4xx_HAL_Driver/Src/stm32f4xx_hal_spi.c **** static void SPI_DMATransmitReceiveCplt(DMA_HandleTypeDef *hdma);
 234:Drivers/STM32F4xx_HAL_Driver/Src/stm32f4xx_hal_spi.c **** static void SPI_DMAHalfTransmitCplt(DMA_HandleTypeDef *hdma);
 235:Drivers/STM32F4xx_HAL_Driver/Src/stm32f4xx_hal_spi.c **** static void SPI_DMAHalfReceiveCplt(DMA_HandleTypeDef *hdma);
 236:Drivers/STM32F4xx_HAL_Driver/Src/stm32f4xx_hal_spi.c **** static void SPI_DMAHalfTransmitReceiveCplt(DMA_HandleTypeDef *hdma);
 237:Drivers/STM32F4xx_HAL_Driver/Src/stm32f4xx_hal_spi.c **** static void SPI_DMAError(DMA_HandleTypeDef *hdma);
 238:Drivers/STM32F4xx_HAL_Driver/Src/stm32f4xx_hal_spi.c **** static void SPI_DMAAbortOnError(DMA_HandleTypeDef *hdma);
 239:Drivers/STM32F4xx_HAL_Driver/Src/stm32f4xx_hal_spi.c **** static void SPI_DMATxAbortCallback(DMA_HandleTypeDef *hdma);
 240:Drivers/STM32F4xx_HAL_Driver/Src/stm32f4xx_hal_spi.c **** static void SPI_DMARxAbortCallback(DMA_HandleTypeDef *hdma);
 241:Drivers/STM32F4xx_HAL_Driver/Src/stm32f4xx_hal_spi.c **** static HAL_StatusTypeDef SPI_WaitFlagStateUntilTimeout(SPI_HandleTypeDef *hspi, uint32_t Flag, Flag
 242:Drivers/STM32F4xx_HAL_Driver/Src/stm32f4xx_hal_spi.c ****                                                        uint32_t Timeout, uint32_t Tickstart);
 243:Drivers/STM32F4xx_HAL_Driver/Src/stm32f4xx_hal_spi.c **** static void SPI_TxISR_8BIT(struct __SPI_HandleTypeDef *hspi);
 244:Drivers/STM32F4xx_HAL_Driver/Src/stm32f4xx_hal_spi.c **** static void SPI_TxISR_16BIT(struct __SPI_HandleTypeDef *hspi);
 245:Drivers/STM32F4xx_HAL_Driver/Src/stm32f4xx_hal_spi.c **** static void SPI_RxISR_8BIT(struct __SPI_HandleTypeDef *hspi);
 246:Drivers/STM32F4xx_HAL_Driver/Src/stm32f4xx_hal_spi.c **** static void SPI_RxISR_16BIT(struct __SPI_HandleTypeDef *hspi);
 247:Drivers/STM32F4xx_HAL_Driver/Src/stm32f4xx_hal_spi.c **** static void SPI_2linesRxISR_8BIT(struct __SPI_HandleTypeDef *hspi);
 248:Drivers/STM32F4xx_HAL_Driver/Src/stm32f4xx_hal_spi.c **** static void SPI_2linesTxISR_8BIT(struct __SPI_HandleTypeDef *hspi);
 249:Drivers/STM32F4xx_HAL_Driver/Src/stm32f4xx_hal_spi.c **** static void SPI_2linesTxISR_16BIT(struct __SPI_HandleTypeDef *hspi);
ARM GAS  /tmp/cc9N7Buw.s 			page 6


 250:Drivers/STM32F4xx_HAL_Driver/Src/stm32f4xx_hal_spi.c **** static void SPI_2linesRxISR_16BIT(struct __SPI_HandleTypeDef *hspi);
 251:Drivers/STM32F4xx_HAL_Driver/Src/stm32f4xx_hal_spi.c **** #if (USE_SPI_CRC != 0U)
 252:Drivers/STM32F4xx_HAL_Driver/Src/stm32f4xx_hal_spi.c **** static void SPI_RxISR_8BITCRC(struct __SPI_HandleTypeDef *hspi);
 253:Drivers/STM32F4xx_HAL_Driver/Src/stm32f4xx_hal_spi.c **** static void SPI_RxISR_16BITCRC(struct __SPI_HandleTypeDef *hspi);
 254:Drivers/STM32F4xx_HAL_Driver/Src/stm32f4xx_hal_spi.c **** static void SPI_2linesRxISR_8BITCRC(struct __SPI_HandleTypeDef *hspi);
 255:Drivers/STM32F4xx_HAL_Driver/Src/stm32f4xx_hal_spi.c **** static void SPI_2linesRxISR_16BITCRC(struct __SPI_HandleTypeDef *hspi);
 256:Drivers/STM32F4xx_HAL_Driver/Src/stm32f4xx_hal_spi.c **** #endif /* USE_SPI_CRC */
 257:Drivers/STM32F4xx_HAL_Driver/Src/stm32f4xx_hal_spi.c **** static void SPI_AbortRx_ISR(SPI_HandleTypeDef *hspi);
 258:Drivers/STM32F4xx_HAL_Driver/Src/stm32f4xx_hal_spi.c **** static void SPI_AbortTx_ISR(SPI_HandleTypeDef *hspi);
 259:Drivers/STM32F4xx_HAL_Driver/Src/stm32f4xx_hal_spi.c **** static void SPI_CloseRxTx_ISR(SPI_HandleTypeDef *hspi);
 260:Drivers/STM32F4xx_HAL_Driver/Src/stm32f4xx_hal_spi.c **** static void SPI_CloseRx_ISR(SPI_HandleTypeDef *hspi);
 261:Drivers/STM32F4xx_HAL_Driver/Src/stm32f4xx_hal_spi.c **** static void SPI_CloseTx_ISR(SPI_HandleTypeDef *hspi);
 262:Drivers/STM32F4xx_HAL_Driver/Src/stm32f4xx_hal_spi.c **** static HAL_StatusTypeDef SPI_EndRxTransaction(SPI_HandleTypeDef *hspi, uint32_t Timeout, uint32_t T
 263:Drivers/STM32F4xx_HAL_Driver/Src/stm32f4xx_hal_spi.c **** static HAL_StatusTypeDef SPI_EndRxTxTransaction(SPI_HandleTypeDef *hspi, uint32_t Timeout, uint32_t
 264:Drivers/STM32F4xx_HAL_Driver/Src/stm32f4xx_hal_spi.c **** /**
 265:Drivers/STM32F4xx_HAL_Driver/Src/stm32f4xx_hal_spi.c ****   * @}
 266:Drivers/STM32F4xx_HAL_Driver/Src/stm32f4xx_hal_spi.c ****   */
 267:Drivers/STM32F4xx_HAL_Driver/Src/stm32f4xx_hal_spi.c **** 
 268:Drivers/STM32F4xx_HAL_Driver/Src/stm32f4xx_hal_spi.c **** /* Exported functions --------------------------------------------------------*/
 269:Drivers/STM32F4xx_HAL_Driver/Src/stm32f4xx_hal_spi.c **** /** @defgroup SPI_Exported_Functions SPI Exported Functions
 270:Drivers/STM32F4xx_HAL_Driver/Src/stm32f4xx_hal_spi.c ****   * @{
 271:Drivers/STM32F4xx_HAL_Driver/Src/stm32f4xx_hal_spi.c ****   */
 272:Drivers/STM32F4xx_HAL_Driver/Src/stm32f4xx_hal_spi.c **** 
 273:Drivers/STM32F4xx_HAL_Driver/Src/stm32f4xx_hal_spi.c **** /** @defgroup SPI_Exported_Functions_Group1 Initialization and de-initialization functions
 274:Drivers/STM32F4xx_HAL_Driver/Src/stm32f4xx_hal_spi.c ****   *  @brief    Initialization and Configuration functions
 275:Drivers/STM32F4xx_HAL_Driver/Src/stm32f4xx_hal_spi.c ****   *
 276:Drivers/STM32F4xx_HAL_Driver/Src/stm32f4xx_hal_spi.c **** @verbatim
 277:Drivers/STM32F4xx_HAL_Driver/Src/stm32f4xx_hal_spi.c ****  ===============================================================================
 278:Drivers/STM32F4xx_HAL_Driver/Src/stm32f4xx_hal_spi.c ****               ##### Initialization and de-initialization functions #####
 279:Drivers/STM32F4xx_HAL_Driver/Src/stm32f4xx_hal_spi.c ****  ===============================================================================
 280:Drivers/STM32F4xx_HAL_Driver/Src/stm32f4xx_hal_spi.c ****     [..]  This subsection provides a set of functions allowing to initialize and
 281:Drivers/STM32F4xx_HAL_Driver/Src/stm32f4xx_hal_spi.c ****           de-initialize the SPIx peripheral:
 282:Drivers/STM32F4xx_HAL_Driver/Src/stm32f4xx_hal_spi.c **** 
 283:Drivers/STM32F4xx_HAL_Driver/Src/stm32f4xx_hal_spi.c ****       (+) User must implement HAL_SPI_MspInit() function in which he configures
 284:Drivers/STM32F4xx_HAL_Driver/Src/stm32f4xx_hal_spi.c ****           all related peripherals resources (CLOCK, GPIO, DMA, IT and NVIC ).
 285:Drivers/STM32F4xx_HAL_Driver/Src/stm32f4xx_hal_spi.c **** 
 286:Drivers/STM32F4xx_HAL_Driver/Src/stm32f4xx_hal_spi.c ****       (+) Call the function HAL_SPI_Init() to configure the selected device with
 287:Drivers/STM32F4xx_HAL_Driver/Src/stm32f4xx_hal_spi.c ****           the selected configuration:
 288:Drivers/STM32F4xx_HAL_Driver/Src/stm32f4xx_hal_spi.c ****         (++) Mode
 289:Drivers/STM32F4xx_HAL_Driver/Src/stm32f4xx_hal_spi.c ****         (++) Direction
 290:Drivers/STM32F4xx_HAL_Driver/Src/stm32f4xx_hal_spi.c ****         (++) Data Size
 291:Drivers/STM32F4xx_HAL_Driver/Src/stm32f4xx_hal_spi.c ****         (++) Clock Polarity and Phase
 292:Drivers/STM32F4xx_HAL_Driver/Src/stm32f4xx_hal_spi.c ****         (++) NSS Management
 293:Drivers/STM32F4xx_HAL_Driver/Src/stm32f4xx_hal_spi.c ****         (++) BaudRate Prescaler
 294:Drivers/STM32F4xx_HAL_Driver/Src/stm32f4xx_hal_spi.c ****         (++) FirstBit
 295:Drivers/STM32F4xx_HAL_Driver/Src/stm32f4xx_hal_spi.c ****         (++) TIMode
 296:Drivers/STM32F4xx_HAL_Driver/Src/stm32f4xx_hal_spi.c ****         (++) CRC Calculation
 297:Drivers/STM32F4xx_HAL_Driver/Src/stm32f4xx_hal_spi.c ****         (++) CRC Polynomial if CRC enabled
 298:Drivers/STM32F4xx_HAL_Driver/Src/stm32f4xx_hal_spi.c **** 
 299:Drivers/STM32F4xx_HAL_Driver/Src/stm32f4xx_hal_spi.c ****       (+) Call the function HAL_SPI_DeInit() to restore the default configuration
 300:Drivers/STM32F4xx_HAL_Driver/Src/stm32f4xx_hal_spi.c ****           of the selected SPIx peripheral.
 301:Drivers/STM32F4xx_HAL_Driver/Src/stm32f4xx_hal_spi.c **** 
 302:Drivers/STM32F4xx_HAL_Driver/Src/stm32f4xx_hal_spi.c **** @endverbatim
 303:Drivers/STM32F4xx_HAL_Driver/Src/stm32f4xx_hal_spi.c ****   * @{
 304:Drivers/STM32F4xx_HAL_Driver/Src/stm32f4xx_hal_spi.c ****   */
 305:Drivers/STM32F4xx_HAL_Driver/Src/stm32f4xx_hal_spi.c **** 
 306:Drivers/STM32F4xx_HAL_Driver/Src/stm32f4xx_hal_spi.c **** /**
ARM GAS  /tmp/cc9N7Buw.s 			page 7


 307:Drivers/STM32F4xx_HAL_Driver/Src/stm32f4xx_hal_spi.c ****   * @brief  Initialize the SPI according to the specified parameters
 308:Drivers/STM32F4xx_HAL_Driver/Src/stm32f4xx_hal_spi.c ****   *         in the SPI_InitTypeDef and initialize the associated handle.
 309:Drivers/STM32F4xx_HAL_Driver/Src/stm32f4xx_hal_spi.c ****   * @param  hspi pointer to a SPI_HandleTypeDef structure that contains
 310:Drivers/STM32F4xx_HAL_Driver/Src/stm32f4xx_hal_spi.c ****   *               the configuration information for SPI module.
 311:Drivers/STM32F4xx_HAL_Driver/Src/stm32f4xx_hal_spi.c ****   * @retval HAL status
 312:Drivers/STM32F4xx_HAL_Driver/Src/stm32f4xx_hal_spi.c ****   */
 313:Drivers/STM32F4xx_HAL_Driver/Src/stm32f4xx_hal_spi.c **** HAL_StatusTypeDef HAL_SPI_Init(SPI_HandleTypeDef *hspi)
 314:Drivers/STM32F4xx_HAL_Driver/Src/stm32f4xx_hal_spi.c **** {
  34              		.loc 1 314 1
  35              		.cfi_startproc
  36              		@ args = 0, pretend = 0, frame = 8
  37              		@ frame_needed = 1, uses_anonymous_args = 0
  38 0000 80B5     		push	{r7, lr}
  39              	.LCFI0:
  40              		.cfi_def_cfa_offset 8
  41              		.cfi_offset 7, -8
  42              		.cfi_offset 14, -4
  43 0002 82B0     		sub	sp, sp, #8
  44              	.LCFI1:
  45              		.cfi_def_cfa_offset 16
  46 0004 00AF     		add	r7, sp, #0
  47              	.LCFI2:
  48              		.cfi_def_cfa_register 7
  49 0006 7860     		str	r0, [r7, #4]
 315:Drivers/STM32F4xx_HAL_Driver/Src/stm32f4xx_hal_spi.c ****   /* Check the SPI handle allocation */
 316:Drivers/STM32F4xx_HAL_Driver/Src/stm32f4xx_hal_spi.c ****   if (hspi == NULL)
  50              		.loc 1 316 6
  51 0008 7B68     		ldr	r3, [r7, #4]
  52 000a 002B     		cmp	r3, #0
  53 000c 01D1     		bne	.L2
 317:Drivers/STM32F4xx_HAL_Driver/Src/stm32f4xx_hal_spi.c ****   {
 318:Drivers/STM32F4xx_HAL_Driver/Src/stm32f4xx_hal_spi.c ****     return HAL_ERROR;
  54              		.loc 1 318 12
  55 000e 0123     		movs	r3, #1
  56 0010 09E1     		b	.L3
  57              	.L2:
 319:Drivers/STM32F4xx_HAL_Driver/Src/stm32f4xx_hal_spi.c ****   }
 320:Drivers/STM32F4xx_HAL_Driver/Src/stm32f4xx_hal_spi.c **** 
 321:Drivers/STM32F4xx_HAL_Driver/Src/stm32f4xx_hal_spi.c ****   /* Check the parameters */
 322:Drivers/STM32F4xx_HAL_Driver/Src/stm32f4xx_hal_spi.c ****   assert_param(IS_SPI_ALL_INSTANCE(hspi->Instance));
  58              		.loc 1 322 3
  59 0012 7B68     		ldr	r3, [r7, #4]
  60 0014 1B68     		ldr	r3, [r3]
  61 0016 864A     		ldr	r2, .L15
  62 0018 9342     		cmp	r3, r2
  63 001a 0ED0     		beq	.L4
  64              		.loc 1 322 3 is_stmt 0 discriminator 1
  65 001c 7B68     		ldr	r3, [r7, #4]
  66 001e 1B68     		ldr	r3, [r3]
  67 0020 844A     		ldr	r2, .L15+4
  68 0022 9342     		cmp	r3, r2
  69 0024 09D0     		beq	.L4
  70              		.loc 1 322 3 discriminator 2
  71 0026 7B68     		ldr	r3, [r7, #4]
  72 0028 1B68     		ldr	r3, [r3]
  73 002a 834A     		ldr	r2, .L15+8
  74 002c 9342     		cmp	r3, r2
ARM GAS  /tmp/cc9N7Buw.s 			page 8


  75 002e 04D0     		beq	.L4
  76              		.loc 1 322 3 discriminator 3
  77 0030 4FF4A171 		mov	r1, #322
  78 0034 8148     		ldr	r0, .L15+12
  79 0036 FFF7FEFF 		bl	assert_failed
  80              	.L4:
 323:Drivers/STM32F4xx_HAL_Driver/Src/stm32f4xx_hal_spi.c ****   assert_param(IS_SPI_MODE(hspi->Init.Mode));
  81              		.loc 1 323 3 is_stmt 1
  82 003a 7B68     		ldr	r3, [r7, #4]
  83 003c 5B68     		ldr	r3, [r3, #4]
  84 003e 002B     		cmp	r3, #0
  85 0040 09D0     		beq	.L5
  86              		.loc 1 323 3 is_stmt 0 discriminator 1
  87 0042 7B68     		ldr	r3, [r7, #4]
  88 0044 5B68     		ldr	r3, [r3, #4]
  89 0046 B3F5827F 		cmp	r3, #260
  90 004a 04D0     		beq	.L5
  91              		.loc 1 323 3 discriminator 2
  92 004c 40F24311 		movw	r1, #323
  93 0050 7A48     		ldr	r0, .L15+12
  94 0052 FFF7FEFF 		bl	assert_failed
  95              	.L5:
 324:Drivers/STM32F4xx_HAL_Driver/Src/stm32f4xx_hal_spi.c ****   assert_param(IS_SPI_DIRECTION(hspi->Init.Direction));
  96              		.loc 1 324 3 is_stmt 1
  97 0056 7B68     		ldr	r3, [r7, #4]
  98 0058 9B68     		ldr	r3, [r3, #8]
  99 005a 002B     		cmp	r3, #0
 100 005c 0ED0     		beq	.L6
 101              		.loc 1 324 3 is_stmt 0 discriminator 1
 102 005e 7B68     		ldr	r3, [r7, #4]
 103 0060 9B68     		ldr	r3, [r3, #8]
 104 0062 B3F5806F 		cmp	r3, #1024
 105 0066 09D0     		beq	.L6
 106              		.loc 1 324 3 discriminator 2
 107 0068 7B68     		ldr	r3, [r7, #4]
 108 006a 9B68     		ldr	r3, [r3, #8]
 109 006c B3F5004F 		cmp	r3, #32768
 110 0070 04D0     		beq	.L6
 111              		.loc 1 324 3 discriminator 3
 112 0072 4FF4A271 		mov	r1, #324
 113 0076 7148     		ldr	r0, .L15+12
 114 0078 FFF7FEFF 		bl	assert_failed
 115              	.L6:
 325:Drivers/STM32F4xx_HAL_Driver/Src/stm32f4xx_hal_spi.c ****   assert_param(IS_SPI_DATASIZE(hspi->Init.DataSize));
 116              		.loc 1 325 3 is_stmt 1
 117 007c 7B68     		ldr	r3, [r7, #4]
 118 007e DB68     		ldr	r3, [r3, #12]
 119 0080 B3F5006F 		cmp	r3, #2048
 120 0084 08D0     		beq	.L7
 121              		.loc 1 325 3 is_stmt 0 discriminator 1
 122 0086 7B68     		ldr	r3, [r7, #4]
 123 0088 DB68     		ldr	r3, [r3, #12]
 124 008a 002B     		cmp	r3, #0
 125 008c 04D0     		beq	.L7
 126              		.loc 1 325 3 discriminator 2
 127 008e 40F24511 		movw	r1, #325
 128 0092 6A48     		ldr	r0, .L15+12
ARM GAS  /tmp/cc9N7Buw.s 			page 9


 129 0094 FFF7FEFF 		bl	assert_failed
 130              	.L7:
 326:Drivers/STM32F4xx_HAL_Driver/Src/stm32f4xx_hal_spi.c ****   assert_param(IS_SPI_NSS(hspi->Init.NSS));
 131              		.loc 1 326 3 is_stmt 1
 132 0098 7B68     		ldr	r3, [r7, #4]
 133 009a 9B69     		ldr	r3, [r3, #24]
 134 009c B3F5007F 		cmp	r3, #512
 135 00a0 0DD0     		beq	.L8
 136              		.loc 1 326 3 is_stmt 0 discriminator 1
 137 00a2 7B68     		ldr	r3, [r7, #4]
 138 00a4 9B69     		ldr	r3, [r3, #24]
 139 00a6 002B     		cmp	r3, #0
 140 00a8 09D0     		beq	.L8
 141              		.loc 1 326 3 discriminator 2
 142 00aa 7B68     		ldr	r3, [r7, #4]
 143 00ac 9B69     		ldr	r3, [r3, #24]
 144 00ae B3F5802F 		cmp	r3, #262144
 145 00b2 04D0     		beq	.L8
 146              		.loc 1 326 3 discriminator 3
 147 00b4 4FF4A371 		mov	r1, #326
 148 00b8 6048     		ldr	r0, .L15+12
 149 00ba FFF7FEFF 		bl	assert_failed
 150              	.L8:
 327:Drivers/STM32F4xx_HAL_Driver/Src/stm32f4xx_hal_spi.c ****   assert_param(IS_SPI_BAUDRATE_PRESCALER(hspi->Init.BaudRatePrescaler));
 151              		.loc 1 327 3 is_stmt 1
 152 00be 7B68     		ldr	r3, [r7, #4]
 153 00c0 DB69     		ldr	r3, [r3, #28]
 154 00c2 002B     		cmp	r3, #0
 155 00c4 20D0     		beq	.L9
 156              		.loc 1 327 3 is_stmt 0 discriminator 1
 157 00c6 7B68     		ldr	r3, [r7, #4]
 158 00c8 DB69     		ldr	r3, [r3, #28]
 159 00ca 082B     		cmp	r3, #8
 160 00cc 1CD0     		beq	.L9
 161              		.loc 1 327 3 discriminator 2
 162 00ce 7B68     		ldr	r3, [r7, #4]
 163 00d0 DB69     		ldr	r3, [r3, #28]
 164 00d2 102B     		cmp	r3, #16
 165 00d4 18D0     		beq	.L9
 166              		.loc 1 327 3 discriminator 3
 167 00d6 7B68     		ldr	r3, [r7, #4]
 168 00d8 DB69     		ldr	r3, [r3, #28]
 169 00da 182B     		cmp	r3, #24
 170 00dc 14D0     		beq	.L9
 171              		.loc 1 327 3 discriminator 4
 172 00de 7B68     		ldr	r3, [r7, #4]
 173 00e0 DB69     		ldr	r3, [r3, #28]
 174 00e2 202B     		cmp	r3, #32
 175 00e4 10D0     		beq	.L9
 176              		.loc 1 327 3 discriminator 5
 177 00e6 7B68     		ldr	r3, [r7, #4]
 178 00e8 DB69     		ldr	r3, [r3, #28]
 179 00ea 282B     		cmp	r3, #40
 180 00ec 0CD0     		beq	.L9
 181              		.loc 1 327 3 discriminator 6
 182 00ee 7B68     		ldr	r3, [r7, #4]
 183 00f0 DB69     		ldr	r3, [r3, #28]
ARM GAS  /tmp/cc9N7Buw.s 			page 10


 184 00f2 302B     		cmp	r3, #48
 185 00f4 08D0     		beq	.L9
 186              		.loc 1 327 3 discriminator 7
 187 00f6 7B68     		ldr	r3, [r7, #4]
 188 00f8 DB69     		ldr	r3, [r3, #28]
 189 00fa 382B     		cmp	r3, #56
 190 00fc 04D0     		beq	.L9
 191              		.loc 1 327 3 discriminator 8
 192 00fe 40F24711 		movw	r1, #327
 193 0102 4E48     		ldr	r0, .L15+12
 194 0104 FFF7FEFF 		bl	assert_failed
 195              	.L9:
 328:Drivers/STM32F4xx_HAL_Driver/Src/stm32f4xx_hal_spi.c ****   assert_param(IS_SPI_FIRST_BIT(hspi->Init.FirstBit));
 196              		.loc 1 328 3 is_stmt 1
 197 0108 7B68     		ldr	r3, [r7, #4]
 198 010a 1B6A     		ldr	r3, [r3, #32]
 199 010c 002B     		cmp	r3, #0
 200 010e 08D0     		beq	.L10
 201              		.loc 1 328 3 is_stmt 0 discriminator 1
 202 0110 7B68     		ldr	r3, [r7, #4]
 203 0112 1B6A     		ldr	r3, [r3, #32]
 204 0114 802B     		cmp	r3, #128
 205 0116 04D0     		beq	.L10
 206              		.loc 1 328 3 discriminator 2
 207 0118 4FF4A471 		mov	r1, #328
 208 011c 4748     		ldr	r0, .L15+12
 209 011e FFF7FEFF 		bl	assert_failed
 210              	.L10:
 329:Drivers/STM32F4xx_HAL_Driver/Src/stm32f4xx_hal_spi.c ****   assert_param(IS_SPI_TIMODE(hspi->Init.TIMode));
 211              		.loc 1 329 3 is_stmt 1
 212 0122 7B68     		ldr	r3, [r7, #4]
 213 0124 5B6A     		ldr	r3, [r3, #36]
 214 0126 002B     		cmp	r3, #0
 215 0128 08D0     		beq	.L11
 216              		.loc 1 329 3 is_stmt 0 discriminator 1
 217 012a 7B68     		ldr	r3, [r7, #4]
 218 012c 5B6A     		ldr	r3, [r3, #36]
 219 012e 102B     		cmp	r3, #16
 220 0130 04D0     		beq	.L11
 221              		.loc 1 329 3 discriminator 2
 222 0132 40F24911 		movw	r1, #329
 223 0136 4148     		ldr	r0, .L15+12
 224 0138 FFF7FEFF 		bl	assert_failed
 225              	.L11:
 330:Drivers/STM32F4xx_HAL_Driver/Src/stm32f4xx_hal_spi.c ****   if (hspi->Init.TIMode == SPI_TIMODE_DISABLE)
 226              		.loc 1 330 17 is_stmt 1
 227 013c 7B68     		ldr	r3, [r7, #4]
 228 013e 5B6A     		ldr	r3, [r3, #36]
 229              		.loc 1 330 6
 230 0140 002B     		cmp	r3, #0
 231 0142 19D1     		bne	.L12
 331:Drivers/STM32F4xx_HAL_Driver/Src/stm32f4xx_hal_spi.c ****   {
 332:Drivers/STM32F4xx_HAL_Driver/Src/stm32f4xx_hal_spi.c ****     assert_param(IS_SPI_CPOL(hspi->Init.CLKPolarity));
 232              		.loc 1 332 5
 233 0144 7B68     		ldr	r3, [r7, #4]
 234 0146 1B69     		ldr	r3, [r3, #16]
 235 0148 002B     		cmp	r3, #0
ARM GAS  /tmp/cc9N7Buw.s 			page 11


 236 014a 08D0     		beq	.L13
 237              		.loc 1 332 5 is_stmt 0 discriminator 1
 238 014c 7B68     		ldr	r3, [r7, #4]
 239 014e 1B69     		ldr	r3, [r3, #16]
 240 0150 022B     		cmp	r3, #2
 241 0152 04D0     		beq	.L13
 242              		.loc 1 332 5 discriminator 2
 243 0154 4FF4A671 		mov	r1, #332
 244 0158 3848     		ldr	r0, .L15+12
 245 015a FFF7FEFF 		bl	assert_failed
 246              	.L13:
 333:Drivers/STM32F4xx_HAL_Driver/Src/stm32f4xx_hal_spi.c ****     assert_param(IS_SPI_CPHA(hspi->Init.CLKPhase));
 247              		.loc 1 333 5 is_stmt 1
 248 015e 7B68     		ldr	r3, [r7, #4]
 249 0160 5B69     		ldr	r3, [r3, #20]
 250 0162 002B     		cmp	r3, #0
 251 0164 08D0     		beq	.L12
 252              		.loc 1 333 5 is_stmt 0 discriminator 1
 253 0166 7B68     		ldr	r3, [r7, #4]
 254 0168 5B69     		ldr	r3, [r3, #20]
 255 016a 012B     		cmp	r3, #1
 256 016c 04D0     		beq	.L12
 257              		.loc 1 333 5 discriminator 2
 258 016e 40F24D11 		movw	r1, #333
 259 0172 3248     		ldr	r0, .L15+12
 260 0174 FFF7FEFF 		bl	assert_failed
 261              	.L12:
 334:Drivers/STM32F4xx_HAL_Driver/Src/stm32f4xx_hal_spi.c ****   }
 335:Drivers/STM32F4xx_HAL_Driver/Src/stm32f4xx_hal_spi.c **** #if (USE_SPI_CRC != 0U)
 336:Drivers/STM32F4xx_HAL_Driver/Src/stm32f4xx_hal_spi.c ****   assert_param(IS_SPI_CRC_CALCULATION(hspi->Init.CRCCalculation));
 337:Drivers/STM32F4xx_HAL_Driver/Src/stm32f4xx_hal_spi.c ****   if (hspi->Init.CRCCalculation == SPI_CRCCALCULATION_ENABLE)
 338:Drivers/STM32F4xx_HAL_Driver/Src/stm32f4xx_hal_spi.c ****   {
 339:Drivers/STM32F4xx_HAL_Driver/Src/stm32f4xx_hal_spi.c ****     assert_param(IS_SPI_CRC_POLYNOMIAL(hspi->Init.CRCPolynomial));
 340:Drivers/STM32F4xx_HAL_Driver/Src/stm32f4xx_hal_spi.c ****   }
 341:Drivers/STM32F4xx_HAL_Driver/Src/stm32f4xx_hal_spi.c **** #else
 342:Drivers/STM32F4xx_HAL_Driver/Src/stm32f4xx_hal_spi.c ****   hspi->Init.CRCCalculation = SPI_CRCCALCULATION_DISABLE;
 262              		.loc 1 342 29 is_stmt 1
 263 0178 7B68     		ldr	r3, [r7, #4]
 264 017a 0022     		movs	r2, #0
 265 017c 9A62     		str	r2, [r3, #40]
 343:Drivers/STM32F4xx_HAL_Driver/Src/stm32f4xx_hal_spi.c **** #endif /* USE_SPI_CRC */
 344:Drivers/STM32F4xx_HAL_Driver/Src/stm32f4xx_hal_spi.c **** 
 345:Drivers/STM32F4xx_HAL_Driver/Src/stm32f4xx_hal_spi.c ****   if (hspi->State == HAL_SPI_STATE_RESET)
 266              		.loc 1 345 11
 267 017e 7B68     		ldr	r3, [r7, #4]
 268 0180 93F85130 		ldrb	r3, [r3, #81]
 269 0184 DBB2     		uxtb	r3, r3
 270              		.loc 1 345 6
 271 0186 002B     		cmp	r3, #0
 272 0188 06D1     		bne	.L14
 346:Drivers/STM32F4xx_HAL_Driver/Src/stm32f4xx_hal_spi.c ****   {
 347:Drivers/STM32F4xx_HAL_Driver/Src/stm32f4xx_hal_spi.c ****     /* Allocate lock resource and initialize it */
 348:Drivers/STM32F4xx_HAL_Driver/Src/stm32f4xx_hal_spi.c ****     hspi->Lock = HAL_UNLOCKED;
 273              		.loc 1 348 16
 274 018a 7B68     		ldr	r3, [r7, #4]
 275 018c 0022     		movs	r2, #0
 276 018e 83F85020 		strb	r2, [r3, #80]
ARM GAS  /tmp/cc9N7Buw.s 			page 12


 349:Drivers/STM32F4xx_HAL_Driver/Src/stm32f4xx_hal_spi.c **** 
 350:Drivers/STM32F4xx_HAL_Driver/Src/stm32f4xx_hal_spi.c **** #if (USE_HAL_SPI_REGISTER_CALLBACKS == 1U)
 351:Drivers/STM32F4xx_HAL_Driver/Src/stm32f4xx_hal_spi.c ****     /* Init the SPI Callback settings */
 352:Drivers/STM32F4xx_HAL_Driver/Src/stm32f4xx_hal_spi.c ****     hspi->TxCpltCallback       = HAL_SPI_TxCpltCallback;       /* Legacy weak TxCpltCallback       
 353:Drivers/STM32F4xx_HAL_Driver/Src/stm32f4xx_hal_spi.c ****     hspi->RxCpltCallback       = HAL_SPI_RxCpltCallback;       /* Legacy weak RxCpltCallback       
 354:Drivers/STM32F4xx_HAL_Driver/Src/stm32f4xx_hal_spi.c ****     hspi->TxRxCpltCallback     = HAL_SPI_TxRxCpltCallback;     /* Legacy weak TxRxCpltCallback     
 355:Drivers/STM32F4xx_HAL_Driver/Src/stm32f4xx_hal_spi.c ****     hspi->TxHalfCpltCallback   = HAL_SPI_TxHalfCpltCallback;   /* Legacy weak TxHalfCpltCallback   
 356:Drivers/STM32F4xx_HAL_Driver/Src/stm32f4xx_hal_spi.c ****     hspi->RxHalfCpltCallback   = HAL_SPI_RxHalfCpltCallback;   /* Legacy weak RxHalfCpltCallback   
 357:Drivers/STM32F4xx_HAL_Driver/Src/stm32f4xx_hal_spi.c ****     hspi->TxRxHalfCpltCallback = HAL_SPI_TxRxHalfCpltCallback; /* Legacy weak TxRxHalfCpltCallback 
 358:Drivers/STM32F4xx_HAL_Driver/Src/stm32f4xx_hal_spi.c ****     hspi->ErrorCallback        = HAL_SPI_ErrorCallback;        /* Legacy weak ErrorCallback        
 359:Drivers/STM32F4xx_HAL_Driver/Src/stm32f4xx_hal_spi.c ****     hspi->AbortCpltCallback    = HAL_SPI_AbortCpltCallback;    /* Legacy weak AbortCpltCallback    
 360:Drivers/STM32F4xx_HAL_Driver/Src/stm32f4xx_hal_spi.c **** 
 361:Drivers/STM32F4xx_HAL_Driver/Src/stm32f4xx_hal_spi.c ****     if (hspi->MspInitCallback == NULL)
 362:Drivers/STM32F4xx_HAL_Driver/Src/stm32f4xx_hal_spi.c ****     {
 363:Drivers/STM32F4xx_HAL_Driver/Src/stm32f4xx_hal_spi.c ****       hspi->MspInitCallback = HAL_SPI_MspInit; /* Legacy weak MspInit  */
 364:Drivers/STM32F4xx_HAL_Driver/Src/stm32f4xx_hal_spi.c ****     }
 365:Drivers/STM32F4xx_HAL_Driver/Src/stm32f4xx_hal_spi.c **** 
 366:Drivers/STM32F4xx_HAL_Driver/Src/stm32f4xx_hal_spi.c ****     /* Init the low level hardware : GPIO, CLOCK, NVIC... */
 367:Drivers/STM32F4xx_HAL_Driver/Src/stm32f4xx_hal_spi.c ****     hspi->MspInitCallback(hspi);
 368:Drivers/STM32F4xx_HAL_Driver/Src/stm32f4xx_hal_spi.c **** #else
 369:Drivers/STM32F4xx_HAL_Driver/Src/stm32f4xx_hal_spi.c ****     /* Init the low level hardware : GPIO, CLOCK, NVIC... */
 370:Drivers/STM32F4xx_HAL_Driver/Src/stm32f4xx_hal_spi.c ****     HAL_SPI_MspInit(hspi);
 277              		.loc 1 370 5
 278 0192 7868     		ldr	r0, [r7, #4]
 279 0194 FFF7FEFF 		bl	HAL_SPI_MspInit
 280              	.L14:
 371:Drivers/STM32F4xx_HAL_Driver/Src/stm32f4xx_hal_spi.c **** #endif /* USE_HAL_SPI_REGISTER_CALLBACKS */
 372:Drivers/STM32F4xx_HAL_Driver/Src/stm32f4xx_hal_spi.c ****   }
 373:Drivers/STM32F4xx_HAL_Driver/Src/stm32f4xx_hal_spi.c **** 
 374:Drivers/STM32F4xx_HAL_Driver/Src/stm32f4xx_hal_spi.c ****   hspi->State = HAL_SPI_STATE_BUSY;
 281              		.loc 1 374 15
 282 0198 7B68     		ldr	r3, [r7, #4]
 283 019a 0222     		movs	r2, #2
 284 019c 83F85120 		strb	r2, [r3, #81]
 375:Drivers/STM32F4xx_HAL_Driver/Src/stm32f4xx_hal_spi.c **** 
 376:Drivers/STM32F4xx_HAL_Driver/Src/stm32f4xx_hal_spi.c ****   /* Disable the selected SPI peripheral */
 377:Drivers/STM32F4xx_HAL_Driver/Src/stm32f4xx_hal_spi.c ****   __HAL_SPI_DISABLE(hspi);
 285              		.loc 1 377 3
 286 01a0 7B68     		ldr	r3, [r7, #4]
 287 01a2 1B68     		ldr	r3, [r3]
 288 01a4 1A68     		ldr	r2, [r3]
 289 01a6 7B68     		ldr	r3, [r7, #4]
 290 01a8 1B68     		ldr	r3, [r3]
 291 01aa 22F04002 		bic	r2, r2, #64
 292 01ae 1A60     		str	r2, [r3]
 378:Drivers/STM32F4xx_HAL_Driver/Src/stm32f4xx_hal_spi.c **** 
 379:Drivers/STM32F4xx_HAL_Driver/Src/stm32f4xx_hal_spi.c ****   /*----------------------- SPIx CR1 & CR2 Configuration ---------------------*/
 380:Drivers/STM32F4xx_HAL_Driver/Src/stm32f4xx_hal_spi.c ****   /* Configure : SPI Mode, Communication Mode, Data size, Clock polarity and phase, NSS management,
 381:Drivers/STM32F4xx_HAL_Driver/Src/stm32f4xx_hal_spi.c ****   Communication speed, First bit and CRC calculation state */
 382:Drivers/STM32F4xx_HAL_Driver/Src/stm32f4xx_hal_spi.c ****   WRITE_REG(hspi->Instance->CR1, (hspi->Init.Mode | hspi->Init.Direction | hspi->Init.DataSize |
 293              		.loc 1 382 3
 294 01b0 7B68     		ldr	r3, [r7, #4]
 295 01b2 5A68     		ldr	r2, [r3, #4]
 296 01b4 7B68     		ldr	r3, [r7, #4]
 297 01b6 9B68     		ldr	r3, [r3, #8]
 298 01b8 1A43     		orrs	r2, r2, r3
 299 01ba 7B68     		ldr	r3, [r7, #4]
ARM GAS  /tmp/cc9N7Buw.s 			page 13


 300 01bc DB68     		ldr	r3, [r3, #12]
 301 01be 1A43     		orrs	r2, r2, r3
 302 01c0 7B68     		ldr	r3, [r7, #4]
 303 01c2 1B69     		ldr	r3, [r3, #16]
 304 01c4 1A43     		orrs	r2, r2, r3
 305 01c6 7B68     		ldr	r3, [r7, #4]
 306 01c8 5B69     		ldr	r3, [r3, #20]
 307 01ca 1A43     		orrs	r2, r2, r3
 308 01cc 7B68     		ldr	r3, [r7, #4]
 309 01ce 9B69     		ldr	r3, [r3, #24]
 310 01d0 03F40073 		and	r3, r3, #512
 311 01d4 1A43     		orrs	r2, r2, r3
 312 01d6 7B68     		ldr	r3, [r7, #4]
 313 01d8 DB69     		ldr	r3, [r3, #28]
 314 01da 1A43     		orrs	r2, r2, r3
 315 01dc 7B68     		ldr	r3, [r7, #4]
 316 01de 1B6A     		ldr	r3, [r3, #32]
 317 01e0 42EA0301 		orr	r1, r2, r3
 318 01e4 7B68     		ldr	r3, [r7, #4]
 319 01e6 9A6A     		ldr	r2, [r3, #40]
 320 01e8 7B68     		ldr	r3, [r7, #4]
 321 01ea 1B68     		ldr	r3, [r3]
 322 01ec 0A43     		orrs	r2, r2, r1
 323 01ee 1A60     		str	r2, [r3]
 383:Drivers/STM32F4xx_HAL_Driver/Src/stm32f4xx_hal_spi.c ****                                   hspi->Init.CLKPolarity | hspi->Init.CLKPhase | (hspi->Init.NSS & 
 384:Drivers/STM32F4xx_HAL_Driver/Src/stm32f4xx_hal_spi.c ****                                   hspi->Init.BaudRatePrescaler | hspi->Init.FirstBit  | hspi->Init.
 385:Drivers/STM32F4xx_HAL_Driver/Src/stm32f4xx_hal_spi.c **** 
 386:Drivers/STM32F4xx_HAL_Driver/Src/stm32f4xx_hal_spi.c ****   /* Configure : NSS management, TI Mode */
 387:Drivers/STM32F4xx_HAL_Driver/Src/stm32f4xx_hal_spi.c ****   WRITE_REG(hspi->Instance->CR2, (((hspi->Init.NSS >> 16U) & SPI_CR2_SSOE) | hspi->Init.TIMode));
 324              		.loc 1 387 3
 325 01f0 7B68     		ldr	r3, [r7, #4]
 326 01f2 9B69     		ldr	r3, [r3, #24]
 327 01f4 1B0C     		lsrs	r3, r3, #16
 328 01f6 03F00401 		and	r1, r3, #4
 329 01fa 7B68     		ldr	r3, [r7, #4]
 330 01fc 5A6A     		ldr	r2, [r3, #36]
 331 01fe 7B68     		ldr	r3, [r7, #4]
 332 0200 1B68     		ldr	r3, [r3]
 333 0202 0A43     		orrs	r2, r2, r1
 334 0204 5A60     		str	r2, [r3, #4]
 388:Drivers/STM32F4xx_HAL_Driver/Src/stm32f4xx_hal_spi.c **** 
 389:Drivers/STM32F4xx_HAL_Driver/Src/stm32f4xx_hal_spi.c **** #if (USE_SPI_CRC != 0U)
 390:Drivers/STM32F4xx_HAL_Driver/Src/stm32f4xx_hal_spi.c ****   /*---------------------------- SPIx CRCPOLY Configuration ------------------*/
 391:Drivers/STM32F4xx_HAL_Driver/Src/stm32f4xx_hal_spi.c ****   /* Configure : CRC Polynomial */
 392:Drivers/STM32F4xx_HAL_Driver/Src/stm32f4xx_hal_spi.c ****   if (hspi->Init.CRCCalculation == SPI_CRCCALCULATION_ENABLE)
 393:Drivers/STM32F4xx_HAL_Driver/Src/stm32f4xx_hal_spi.c ****   {
 394:Drivers/STM32F4xx_HAL_Driver/Src/stm32f4xx_hal_spi.c ****     WRITE_REG(hspi->Instance->CRCPR, hspi->Init.CRCPolynomial);
 395:Drivers/STM32F4xx_HAL_Driver/Src/stm32f4xx_hal_spi.c ****   }
 396:Drivers/STM32F4xx_HAL_Driver/Src/stm32f4xx_hal_spi.c **** #endif /* USE_SPI_CRC */
 397:Drivers/STM32F4xx_HAL_Driver/Src/stm32f4xx_hal_spi.c **** 
 398:Drivers/STM32F4xx_HAL_Driver/Src/stm32f4xx_hal_spi.c **** #if defined(SPI_I2SCFGR_I2SMOD)
 399:Drivers/STM32F4xx_HAL_Driver/Src/stm32f4xx_hal_spi.c ****   /* Activate the SPI mode (Make sure that I2SMOD bit in I2SCFGR register is reset) */
 400:Drivers/STM32F4xx_HAL_Driver/Src/stm32f4xx_hal_spi.c ****   CLEAR_BIT(hspi->Instance->I2SCFGR, SPI_I2SCFGR_I2SMOD);
 335              		.loc 1 400 3
 336 0206 7B68     		ldr	r3, [r7, #4]
 337 0208 1B68     		ldr	r3, [r3]
 338 020a DA69     		ldr	r2, [r3, #28]
ARM GAS  /tmp/cc9N7Buw.s 			page 14


 339 020c 7B68     		ldr	r3, [r7, #4]
 340 020e 1B68     		ldr	r3, [r3]
 341 0210 22F40062 		bic	r2, r2, #2048
 342 0214 DA61     		str	r2, [r3, #28]
 401:Drivers/STM32F4xx_HAL_Driver/Src/stm32f4xx_hal_spi.c **** #endif /* SPI_I2SCFGR_I2SMOD */
 402:Drivers/STM32F4xx_HAL_Driver/Src/stm32f4xx_hal_spi.c **** 
 403:Drivers/STM32F4xx_HAL_Driver/Src/stm32f4xx_hal_spi.c ****   hspi->ErrorCode = HAL_SPI_ERROR_NONE;
 343              		.loc 1 403 19
 344 0216 7B68     		ldr	r3, [r7, #4]
 345 0218 0022     		movs	r2, #0
 346 021a 5A65     		str	r2, [r3, #84]
 404:Drivers/STM32F4xx_HAL_Driver/Src/stm32f4xx_hal_spi.c ****   hspi->State     = HAL_SPI_STATE_READY;
 347              		.loc 1 404 19
 348 021c 7B68     		ldr	r3, [r7, #4]
 349 021e 0122     		movs	r2, #1
 350 0220 83F85120 		strb	r2, [r3, #81]
 405:Drivers/STM32F4xx_HAL_Driver/Src/stm32f4xx_hal_spi.c **** 
 406:Drivers/STM32F4xx_HAL_Driver/Src/stm32f4xx_hal_spi.c ****   return HAL_OK;
 351              		.loc 1 406 10
 352 0224 0023     		movs	r3, #0
 353              	.L3:
 407:Drivers/STM32F4xx_HAL_Driver/Src/stm32f4xx_hal_spi.c **** }
 354              		.loc 1 407 1
 355 0226 1846     		mov	r0, r3
 356 0228 0837     		adds	r7, r7, #8
 357              	.LCFI3:
 358              		.cfi_def_cfa_offset 8
 359 022a BD46     		mov	sp, r7
 360              	.LCFI4:
 361              		.cfi_def_cfa_register 13
 362              		@ sp needed
 363 022c 80BD     		pop	{r7, pc}
 364              	.L16:
 365 022e 00BF     		.align	2
 366              	.L15:
 367 0230 00300140 		.word	1073819648
 368 0234 00380040 		.word	1073756160
 369 0238 003C0040 		.word	1073757184
 370 023c 00000000 		.word	.LC0
 371              		.cfi_endproc
 372              	.LFE130:
 374              		.section	.text.HAL_SPI_DeInit,"ax",%progbits
 375              		.align	1
 376              		.global	HAL_SPI_DeInit
 377              		.syntax unified
 378              		.thumb
 379              		.thumb_func
 380              		.fpu fpv4-sp-d16
 382              	HAL_SPI_DeInit:
 383              	.LFB131:
 408:Drivers/STM32F4xx_HAL_Driver/Src/stm32f4xx_hal_spi.c **** 
 409:Drivers/STM32F4xx_HAL_Driver/Src/stm32f4xx_hal_spi.c **** /**
 410:Drivers/STM32F4xx_HAL_Driver/Src/stm32f4xx_hal_spi.c ****   * @brief  De-Initialize the SPI peripheral.
 411:Drivers/STM32F4xx_HAL_Driver/Src/stm32f4xx_hal_spi.c ****   * @param  hspi pointer to a SPI_HandleTypeDef structure that contains
 412:Drivers/STM32F4xx_HAL_Driver/Src/stm32f4xx_hal_spi.c ****   *               the configuration information for SPI module.
 413:Drivers/STM32F4xx_HAL_Driver/Src/stm32f4xx_hal_spi.c ****   * @retval HAL status
 414:Drivers/STM32F4xx_HAL_Driver/Src/stm32f4xx_hal_spi.c ****   */
ARM GAS  /tmp/cc9N7Buw.s 			page 15


 415:Drivers/STM32F4xx_HAL_Driver/Src/stm32f4xx_hal_spi.c **** HAL_StatusTypeDef HAL_SPI_DeInit(SPI_HandleTypeDef *hspi)
 416:Drivers/STM32F4xx_HAL_Driver/Src/stm32f4xx_hal_spi.c **** {
 384              		.loc 1 416 1
 385              		.cfi_startproc
 386              		@ args = 0, pretend = 0, frame = 8
 387              		@ frame_needed = 1, uses_anonymous_args = 0
 388 0000 80B5     		push	{r7, lr}
 389              	.LCFI5:
 390              		.cfi_def_cfa_offset 8
 391              		.cfi_offset 7, -8
 392              		.cfi_offset 14, -4
 393 0002 82B0     		sub	sp, sp, #8
 394              	.LCFI6:
 395              		.cfi_def_cfa_offset 16
 396 0004 00AF     		add	r7, sp, #0
 397              	.LCFI7:
 398              		.cfi_def_cfa_register 7
 399 0006 7860     		str	r0, [r7, #4]
 417:Drivers/STM32F4xx_HAL_Driver/Src/stm32f4xx_hal_spi.c ****   /* Check the SPI handle allocation */
 418:Drivers/STM32F4xx_HAL_Driver/Src/stm32f4xx_hal_spi.c ****   if (hspi == NULL)
 400              		.loc 1 418 6
 401 0008 7B68     		ldr	r3, [r7, #4]
 402 000a 002B     		cmp	r3, #0
 403 000c 01D1     		bne	.L18
 419:Drivers/STM32F4xx_HAL_Driver/Src/stm32f4xx_hal_spi.c ****   {
 420:Drivers/STM32F4xx_HAL_Driver/Src/stm32f4xx_hal_spi.c ****     return HAL_ERROR;
 404              		.loc 1 420 12
 405 000e 0123     		movs	r3, #1
 406 0010 2EE0     		b	.L19
 407              	.L18:
 421:Drivers/STM32F4xx_HAL_Driver/Src/stm32f4xx_hal_spi.c ****   }
 422:Drivers/STM32F4xx_HAL_Driver/Src/stm32f4xx_hal_spi.c **** 
 423:Drivers/STM32F4xx_HAL_Driver/Src/stm32f4xx_hal_spi.c ****   /* Check SPI Instance parameter */
 424:Drivers/STM32F4xx_HAL_Driver/Src/stm32f4xx_hal_spi.c ****   assert_param(IS_SPI_ALL_INSTANCE(hspi->Instance));
 408              		.loc 1 424 3
 409 0012 7B68     		ldr	r3, [r7, #4]
 410 0014 1B68     		ldr	r3, [r3]
 411 0016 184A     		ldr	r2, .L21
 412 0018 9342     		cmp	r3, r2
 413 001a 0ED0     		beq	.L20
 414              		.loc 1 424 3 is_stmt 0 discriminator 1
 415 001c 7B68     		ldr	r3, [r7, #4]
 416 001e 1B68     		ldr	r3, [r3]
 417 0020 164A     		ldr	r2, .L21+4
 418 0022 9342     		cmp	r3, r2
 419 0024 09D0     		beq	.L20
 420              		.loc 1 424 3 discriminator 2
 421 0026 7B68     		ldr	r3, [r7, #4]
 422 0028 1B68     		ldr	r3, [r3]
 423 002a 154A     		ldr	r2, .L21+8
 424 002c 9342     		cmp	r3, r2
 425 002e 04D0     		beq	.L20
 426              		.loc 1 424 3 discriminator 3
 427 0030 4FF4D471 		mov	r1, #424
 428 0034 1348     		ldr	r0, .L21+12
 429 0036 FFF7FEFF 		bl	assert_failed
 430              	.L20:
ARM GAS  /tmp/cc9N7Buw.s 			page 16


 425:Drivers/STM32F4xx_HAL_Driver/Src/stm32f4xx_hal_spi.c **** 
 426:Drivers/STM32F4xx_HAL_Driver/Src/stm32f4xx_hal_spi.c ****   hspi->State = HAL_SPI_STATE_BUSY;
 431              		.loc 1 426 15 is_stmt 1
 432 003a 7B68     		ldr	r3, [r7, #4]
 433 003c 0222     		movs	r2, #2
 434 003e 83F85120 		strb	r2, [r3, #81]
 427:Drivers/STM32F4xx_HAL_Driver/Src/stm32f4xx_hal_spi.c **** 
 428:Drivers/STM32F4xx_HAL_Driver/Src/stm32f4xx_hal_spi.c ****   /* Disable the SPI Peripheral Clock */
 429:Drivers/STM32F4xx_HAL_Driver/Src/stm32f4xx_hal_spi.c ****   __HAL_SPI_DISABLE(hspi);
 435              		.loc 1 429 3
 436 0042 7B68     		ldr	r3, [r7, #4]
 437 0044 1B68     		ldr	r3, [r3]
 438 0046 1A68     		ldr	r2, [r3]
 439 0048 7B68     		ldr	r3, [r7, #4]
 440 004a 1B68     		ldr	r3, [r3]
 441 004c 22F04002 		bic	r2, r2, #64
 442 0050 1A60     		str	r2, [r3]
 430:Drivers/STM32F4xx_HAL_Driver/Src/stm32f4xx_hal_spi.c **** 
 431:Drivers/STM32F4xx_HAL_Driver/Src/stm32f4xx_hal_spi.c **** #if (USE_HAL_SPI_REGISTER_CALLBACKS == 1U)
 432:Drivers/STM32F4xx_HAL_Driver/Src/stm32f4xx_hal_spi.c ****   if (hspi->MspDeInitCallback == NULL)
 433:Drivers/STM32F4xx_HAL_Driver/Src/stm32f4xx_hal_spi.c ****   {
 434:Drivers/STM32F4xx_HAL_Driver/Src/stm32f4xx_hal_spi.c ****     hspi->MspDeInitCallback = HAL_SPI_MspDeInit; /* Legacy weak MspDeInit  */
 435:Drivers/STM32F4xx_HAL_Driver/Src/stm32f4xx_hal_spi.c ****   }
 436:Drivers/STM32F4xx_HAL_Driver/Src/stm32f4xx_hal_spi.c **** 
 437:Drivers/STM32F4xx_HAL_Driver/Src/stm32f4xx_hal_spi.c ****   /* DeInit the low level hardware: GPIO, CLOCK, NVIC... */
 438:Drivers/STM32F4xx_HAL_Driver/Src/stm32f4xx_hal_spi.c ****   hspi->MspDeInitCallback(hspi);
 439:Drivers/STM32F4xx_HAL_Driver/Src/stm32f4xx_hal_spi.c **** #else
 440:Drivers/STM32F4xx_HAL_Driver/Src/stm32f4xx_hal_spi.c ****   /* DeInit the low level hardware: GPIO, CLOCK, NVIC... */
 441:Drivers/STM32F4xx_HAL_Driver/Src/stm32f4xx_hal_spi.c ****   HAL_SPI_MspDeInit(hspi);
 443              		.loc 1 441 3
 444 0052 7868     		ldr	r0, [r7, #4]
 445 0054 FFF7FEFF 		bl	HAL_SPI_MspDeInit
 442:Drivers/STM32F4xx_HAL_Driver/Src/stm32f4xx_hal_spi.c **** #endif /* USE_HAL_SPI_REGISTER_CALLBACKS */
 443:Drivers/STM32F4xx_HAL_Driver/Src/stm32f4xx_hal_spi.c **** 
 444:Drivers/STM32F4xx_HAL_Driver/Src/stm32f4xx_hal_spi.c ****   hspi->ErrorCode = HAL_SPI_ERROR_NONE;
 446              		.loc 1 444 19
 447 0058 7B68     		ldr	r3, [r7, #4]
 448 005a 0022     		movs	r2, #0
 449 005c 5A65     		str	r2, [r3, #84]
 445:Drivers/STM32F4xx_HAL_Driver/Src/stm32f4xx_hal_spi.c ****   hspi->State = HAL_SPI_STATE_RESET;
 450              		.loc 1 445 15
 451 005e 7B68     		ldr	r3, [r7, #4]
 452 0060 0022     		movs	r2, #0
 453 0062 83F85120 		strb	r2, [r3, #81]
 446:Drivers/STM32F4xx_HAL_Driver/Src/stm32f4xx_hal_spi.c **** 
 447:Drivers/STM32F4xx_HAL_Driver/Src/stm32f4xx_hal_spi.c ****   /* Release Lock */
 448:Drivers/STM32F4xx_HAL_Driver/Src/stm32f4xx_hal_spi.c ****   __HAL_UNLOCK(hspi);
 454              		.loc 1 448 3
 455 0066 7B68     		ldr	r3, [r7, #4]
 456 0068 0022     		movs	r2, #0
 457 006a 83F85020 		strb	r2, [r3, #80]
 449:Drivers/STM32F4xx_HAL_Driver/Src/stm32f4xx_hal_spi.c **** 
 450:Drivers/STM32F4xx_HAL_Driver/Src/stm32f4xx_hal_spi.c ****   return HAL_OK;
 458              		.loc 1 450 10
 459 006e 0023     		movs	r3, #0
 460              	.L19:
 451:Drivers/STM32F4xx_HAL_Driver/Src/stm32f4xx_hal_spi.c **** }
ARM GAS  /tmp/cc9N7Buw.s 			page 17


 461              		.loc 1 451 1
 462 0070 1846     		mov	r0, r3
 463 0072 0837     		adds	r7, r7, #8
 464              	.LCFI8:
 465              		.cfi_def_cfa_offset 8
 466 0074 BD46     		mov	sp, r7
 467              	.LCFI9:
 468              		.cfi_def_cfa_register 13
 469              		@ sp needed
 470 0076 80BD     		pop	{r7, pc}
 471              	.L22:
 472              		.align	2
 473              	.L21:
 474 0078 00300140 		.word	1073819648
 475 007c 00380040 		.word	1073756160
 476 0080 003C0040 		.word	1073757184
 477 0084 00000000 		.word	.LC0
 478              		.cfi_endproc
 479              	.LFE131:
 481              		.section	.text.HAL_SPI_MspInit,"ax",%progbits
 482              		.align	1
 483              		.weak	HAL_SPI_MspInit
 484              		.syntax unified
 485              		.thumb
 486              		.thumb_func
 487              		.fpu fpv4-sp-d16
 489              	HAL_SPI_MspInit:
 490              	.LFB132:
 452:Drivers/STM32F4xx_HAL_Driver/Src/stm32f4xx_hal_spi.c **** 
 453:Drivers/STM32F4xx_HAL_Driver/Src/stm32f4xx_hal_spi.c **** /**
 454:Drivers/STM32F4xx_HAL_Driver/Src/stm32f4xx_hal_spi.c ****   * @brief  Initialize the SPI MSP.
 455:Drivers/STM32F4xx_HAL_Driver/Src/stm32f4xx_hal_spi.c ****   * @param  hspi pointer to a SPI_HandleTypeDef structure that contains
 456:Drivers/STM32F4xx_HAL_Driver/Src/stm32f4xx_hal_spi.c ****   *               the configuration information for SPI module.
 457:Drivers/STM32F4xx_HAL_Driver/Src/stm32f4xx_hal_spi.c ****   * @retval None
 458:Drivers/STM32F4xx_HAL_Driver/Src/stm32f4xx_hal_spi.c ****   */
 459:Drivers/STM32F4xx_HAL_Driver/Src/stm32f4xx_hal_spi.c **** __weak void HAL_SPI_MspInit(SPI_HandleTypeDef *hspi)
 460:Drivers/STM32F4xx_HAL_Driver/Src/stm32f4xx_hal_spi.c **** {
 491              		.loc 1 460 1
 492              		.cfi_startproc
 493              		@ args = 0, pretend = 0, frame = 8
 494              		@ frame_needed = 1, uses_anonymous_args = 0
 495              		@ link register save eliminated.
 496 0000 80B4     		push	{r7}
 497              	.LCFI10:
 498              		.cfi_def_cfa_offset 4
 499              		.cfi_offset 7, -4
 500 0002 83B0     		sub	sp, sp, #12
 501              	.LCFI11:
 502              		.cfi_def_cfa_offset 16
 503 0004 00AF     		add	r7, sp, #0
 504              	.LCFI12:
 505              		.cfi_def_cfa_register 7
 506 0006 7860     		str	r0, [r7, #4]
 461:Drivers/STM32F4xx_HAL_Driver/Src/stm32f4xx_hal_spi.c ****   /* Prevent unused argument(s) compilation warning */
 462:Drivers/STM32F4xx_HAL_Driver/Src/stm32f4xx_hal_spi.c ****   UNUSED(hspi);
 463:Drivers/STM32F4xx_HAL_Driver/Src/stm32f4xx_hal_spi.c **** 
 464:Drivers/STM32F4xx_HAL_Driver/Src/stm32f4xx_hal_spi.c ****   /* NOTE : This function should not be modified, when the callback is needed,
ARM GAS  /tmp/cc9N7Buw.s 			page 18


 465:Drivers/STM32F4xx_HAL_Driver/Src/stm32f4xx_hal_spi.c ****             the HAL_SPI_MspInit should be implemented in the user file
 466:Drivers/STM32F4xx_HAL_Driver/Src/stm32f4xx_hal_spi.c ****    */
 467:Drivers/STM32F4xx_HAL_Driver/Src/stm32f4xx_hal_spi.c **** }
 507              		.loc 1 467 1
 508 0008 00BF     		nop
 509 000a 0C37     		adds	r7, r7, #12
 510              	.LCFI13:
 511              		.cfi_def_cfa_offset 4
 512 000c BD46     		mov	sp, r7
 513              	.LCFI14:
 514              		.cfi_def_cfa_register 13
 515              		@ sp needed
 516 000e 5DF8047B 		ldr	r7, [sp], #4
 517              	.LCFI15:
 518              		.cfi_restore 7
 519              		.cfi_def_cfa_offset 0
 520 0012 7047     		bx	lr
 521              		.cfi_endproc
 522              	.LFE132:
 524              		.section	.text.HAL_SPI_MspDeInit,"ax",%progbits
 525              		.align	1
 526              		.weak	HAL_SPI_MspDeInit
 527              		.syntax unified
 528              		.thumb
 529              		.thumb_func
 530              		.fpu fpv4-sp-d16
 532              	HAL_SPI_MspDeInit:
 533              	.LFB133:
 468:Drivers/STM32F4xx_HAL_Driver/Src/stm32f4xx_hal_spi.c **** 
 469:Drivers/STM32F4xx_HAL_Driver/Src/stm32f4xx_hal_spi.c **** /**
 470:Drivers/STM32F4xx_HAL_Driver/Src/stm32f4xx_hal_spi.c ****   * @brief  De-Initialize the SPI MSP.
 471:Drivers/STM32F4xx_HAL_Driver/Src/stm32f4xx_hal_spi.c ****   * @param  hspi pointer to a SPI_HandleTypeDef structure that contains
 472:Drivers/STM32F4xx_HAL_Driver/Src/stm32f4xx_hal_spi.c ****   *               the configuration information for SPI module.
 473:Drivers/STM32F4xx_HAL_Driver/Src/stm32f4xx_hal_spi.c ****   * @retval None
 474:Drivers/STM32F4xx_HAL_Driver/Src/stm32f4xx_hal_spi.c ****   */
 475:Drivers/STM32F4xx_HAL_Driver/Src/stm32f4xx_hal_spi.c **** __weak void HAL_SPI_MspDeInit(SPI_HandleTypeDef *hspi)
 476:Drivers/STM32F4xx_HAL_Driver/Src/stm32f4xx_hal_spi.c **** {
 534              		.loc 1 476 1
 535              		.cfi_startproc
 536              		@ args = 0, pretend = 0, frame = 8
 537              		@ frame_needed = 1, uses_anonymous_args = 0
 538              		@ link register save eliminated.
 539 0000 80B4     		push	{r7}
 540              	.LCFI16:
 541              		.cfi_def_cfa_offset 4
 542              		.cfi_offset 7, -4
 543 0002 83B0     		sub	sp, sp, #12
 544              	.LCFI17:
 545              		.cfi_def_cfa_offset 16
 546 0004 00AF     		add	r7, sp, #0
 547              	.LCFI18:
 548              		.cfi_def_cfa_register 7
 549 0006 7860     		str	r0, [r7, #4]
 477:Drivers/STM32F4xx_HAL_Driver/Src/stm32f4xx_hal_spi.c ****   /* Prevent unused argument(s) compilation warning */
 478:Drivers/STM32F4xx_HAL_Driver/Src/stm32f4xx_hal_spi.c ****   UNUSED(hspi);
 479:Drivers/STM32F4xx_HAL_Driver/Src/stm32f4xx_hal_spi.c **** 
 480:Drivers/STM32F4xx_HAL_Driver/Src/stm32f4xx_hal_spi.c ****   /* NOTE : This function should not be modified, when the callback is needed,
ARM GAS  /tmp/cc9N7Buw.s 			page 19


 481:Drivers/STM32F4xx_HAL_Driver/Src/stm32f4xx_hal_spi.c ****             the HAL_SPI_MspDeInit should be implemented in the user file
 482:Drivers/STM32F4xx_HAL_Driver/Src/stm32f4xx_hal_spi.c ****    */
 483:Drivers/STM32F4xx_HAL_Driver/Src/stm32f4xx_hal_spi.c **** }
 550              		.loc 1 483 1
 551 0008 00BF     		nop
 552 000a 0C37     		adds	r7, r7, #12
 553              	.LCFI19:
 554              		.cfi_def_cfa_offset 4
 555 000c BD46     		mov	sp, r7
 556              	.LCFI20:
 557              		.cfi_def_cfa_register 13
 558              		@ sp needed
 559 000e 5DF8047B 		ldr	r7, [sp], #4
 560              	.LCFI21:
 561              		.cfi_restore 7
 562              		.cfi_def_cfa_offset 0
 563 0012 7047     		bx	lr
 564              		.cfi_endproc
 565              	.LFE133:
 567              		.section	.text.HAL_SPI_Transmit,"ax",%progbits
 568              		.align	1
 569              		.global	HAL_SPI_Transmit
 570              		.syntax unified
 571              		.thumb
 572              		.thumb_func
 573              		.fpu fpv4-sp-d16
 575              	HAL_SPI_Transmit:
 576              	.LFB134:
 484:Drivers/STM32F4xx_HAL_Driver/Src/stm32f4xx_hal_spi.c **** 
 485:Drivers/STM32F4xx_HAL_Driver/Src/stm32f4xx_hal_spi.c **** #if (USE_HAL_SPI_REGISTER_CALLBACKS == 1U)
 486:Drivers/STM32F4xx_HAL_Driver/Src/stm32f4xx_hal_spi.c **** /**
 487:Drivers/STM32F4xx_HAL_Driver/Src/stm32f4xx_hal_spi.c ****   * @brief  Register a User SPI Callback
 488:Drivers/STM32F4xx_HAL_Driver/Src/stm32f4xx_hal_spi.c ****   *         To be used instead of the weak predefined callback
 489:Drivers/STM32F4xx_HAL_Driver/Src/stm32f4xx_hal_spi.c ****   * @param  hspi Pointer to a SPI_HandleTypeDef structure that contains
 490:Drivers/STM32F4xx_HAL_Driver/Src/stm32f4xx_hal_spi.c ****   *                the configuration information for the specified SPI.
 491:Drivers/STM32F4xx_HAL_Driver/Src/stm32f4xx_hal_spi.c ****   * @param  CallbackID ID of the callback to be registered
 492:Drivers/STM32F4xx_HAL_Driver/Src/stm32f4xx_hal_spi.c ****   * @param  pCallback pointer to the Callback function
 493:Drivers/STM32F4xx_HAL_Driver/Src/stm32f4xx_hal_spi.c ****   * @retval HAL status
 494:Drivers/STM32F4xx_HAL_Driver/Src/stm32f4xx_hal_spi.c ****   */
 495:Drivers/STM32F4xx_HAL_Driver/Src/stm32f4xx_hal_spi.c **** HAL_StatusTypeDef HAL_SPI_RegisterCallback(SPI_HandleTypeDef *hspi, HAL_SPI_CallbackIDTypeDef Callb
 496:Drivers/STM32F4xx_HAL_Driver/Src/stm32f4xx_hal_spi.c ****                                            pSPI_CallbackTypeDef pCallback)
 497:Drivers/STM32F4xx_HAL_Driver/Src/stm32f4xx_hal_spi.c **** {
 498:Drivers/STM32F4xx_HAL_Driver/Src/stm32f4xx_hal_spi.c ****   HAL_StatusTypeDef status = HAL_OK;
 499:Drivers/STM32F4xx_HAL_Driver/Src/stm32f4xx_hal_spi.c **** 
 500:Drivers/STM32F4xx_HAL_Driver/Src/stm32f4xx_hal_spi.c ****   if (pCallback == NULL)
 501:Drivers/STM32F4xx_HAL_Driver/Src/stm32f4xx_hal_spi.c ****   {
 502:Drivers/STM32F4xx_HAL_Driver/Src/stm32f4xx_hal_spi.c ****     /* Update the error code */
 503:Drivers/STM32F4xx_HAL_Driver/Src/stm32f4xx_hal_spi.c ****     hspi->ErrorCode |= HAL_SPI_ERROR_INVALID_CALLBACK;
 504:Drivers/STM32F4xx_HAL_Driver/Src/stm32f4xx_hal_spi.c **** 
 505:Drivers/STM32F4xx_HAL_Driver/Src/stm32f4xx_hal_spi.c ****     return HAL_ERROR;
 506:Drivers/STM32F4xx_HAL_Driver/Src/stm32f4xx_hal_spi.c ****   }
 507:Drivers/STM32F4xx_HAL_Driver/Src/stm32f4xx_hal_spi.c ****   /* Process locked */
 508:Drivers/STM32F4xx_HAL_Driver/Src/stm32f4xx_hal_spi.c ****   __HAL_LOCK(hspi);
 509:Drivers/STM32F4xx_HAL_Driver/Src/stm32f4xx_hal_spi.c **** 
 510:Drivers/STM32F4xx_HAL_Driver/Src/stm32f4xx_hal_spi.c ****   if (HAL_SPI_STATE_READY == hspi->State)
 511:Drivers/STM32F4xx_HAL_Driver/Src/stm32f4xx_hal_spi.c ****   {
 512:Drivers/STM32F4xx_HAL_Driver/Src/stm32f4xx_hal_spi.c ****     switch (CallbackID)
ARM GAS  /tmp/cc9N7Buw.s 			page 20


 513:Drivers/STM32F4xx_HAL_Driver/Src/stm32f4xx_hal_spi.c ****     {
 514:Drivers/STM32F4xx_HAL_Driver/Src/stm32f4xx_hal_spi.c ****       case HAL_SPI_TX_COMPLETE_CB_ID :
 515:Drivers/STM32F4xx_HAL_Driver/Src/stm32f4xx_hal_spi.c ****         hspi->TxCpltCallback = pCallback;
 516:Drivers/STM32F4xx_HAL_Driver/Src/stm32f4xx_hal_spi.c ****         break;
 517:Drivers/STM32F4xx_HAL_Driver/Src/stm32f4xx_hal_spi.c **** 
 518:Drivers/STM32F4xx_HAL_Driver/Src/stm32f4xx_hal_spi.c ****       case HAL_SPI_RX_COMPLETE_CB_ID :
 519:Drivers/STM32F4xx_HAL_Driver/Src/stm32f4xx_hal_spi.c ****         hspi->RxCpltCallback = pCallback;
 520:Drivers/STM32F4xx_HAL_Driver/Src/stm32f4xx_hal_spi.c ****         break;
 521:Drivers/STM32F4xx_HAL_Driver/Src/stm32f4xx_hal_spi.c **** 
 522:Drivers/STM32F4xx_HAL_Driver/Src/stm32f4xx_hal_spi.c ****       case HAL_SPI_TX_RX_COMPLETE_CB_ID :
 523:Drivers/STM32F4xx_HAL_Driver/Src/stm32f4xx_hal_spi.c ****         hspi->TxRxCpltCallback = pCallback;
 524:Drivers/STM32F4xx_HAL_Driver/Src/stm32f4xx_hal_spi.c ****         break;
 525:Drivers/STM32F4xx_HAL_Driver/Src/stm32f4xx_hal_spi.c **** 
 526:Drivers/STM32F4xx_HAL_Driver/Src/stm32f4xx_hal_spi.c ****       case HAL_SPI_TX_HALF_COMPLETE_CB_ID :
 527:Drivers/STM32F4xx_HAL_Driver/Src/stm32f4xx_hal_spi.c ****         hspi->TxHalfCpltCallback = pCallback;
 528:Drivers/STM32F4xx_HAL_Driver/Src/stm32f4xx_hal_spi.c ****         break;
 529:Drivers/STM32F4xx_HAL_Driver/Src/stm32f4xx_hal_spi.c **** 
 530:Drivers/STM32F4xx_HAL_Driver/Src/stm32f4xx_hal_spi.c ****       case HAL_SPI_RX_HALF_COMPLETE_CB_ID :
 531:Drivers/STM32F4xx_HAL_Driver/Src/stm32f4xx_hal_spi.c ****         hspi->RxHalfCpltCallback = pCallback;
 532:Drivers/STM32F4xx_HAL_Driver/Src/stm32f4xx_hal_spi.c ****         break;
 533:Drivers/STM32F4xx_HAL_Driver/Src/stm32f4xx_hal_spi.c **** 
 534:Drivers/STM32F4xx_HAL_Driver/Src/stm32f4xx_hal_spi.c ****       case HAL_SPI_TX_RX_HALF_COMPLETE_CB_ID :
 535:Drivers/STM32F4xx_HAL_Driver/Src/stm32f4xx_hal_spi.c ****         hspi->TxRxHalfCpltCallback = pCallback;
 536:Drivers/STM32F4xx_HAL_Driver/Src/stm32f4xx_hal_spi.c ****         break;
 537:Drivers/STM32F4xx_HAL_Driver/Src/stm32f4xx_hal_spi.c **** 
 538:Drivers/STM32F4xx_HAL_Driver/Src/stm32f4xx_hal_spi.c ****       case HAL_SPI_ERROR_CB_ID :
 539:Drivers/STM32F4xx_HAL_Driver/Src/stm32f4xx_hal_spi.c ****         hspi->ErrorCallback = pCallback;
 540:Drivers/STM32F4xx_HAL_Driver/Src/stm32f4xx_hal_spi.c ****         break;
 541:Drivers/STM32F4xx_HAL_Driver/Src/stm32f4xx_hal_spi.c **** 
 542:Drivers/STM32F4xx_HAL_Driver/Src/stm32f4xx_hal_spi.c ****       case HAL_SPI_ABORT_CB_ID :
 543:Drivers/STM32F4xx_HAL_Driver/Src/stm32f4xx_hal_spi.c ****         hspi->AbortCpltCallback = pCallback;
 544:Drivers/STM32F4xx_HAL_Driver/Src/stm32f4xx_hal_spi.c ****         break;
 545:Drivers/STM32F4xx_HAL_Driver/Src/stm32f4xx_hal_spi.c **** 
 546:Drivers/STM32F4xx_HAL_Driver/Src/stm32f4xx_hal_spi.c ****       case HAL_SPI_MSPINIT_CB_ID :
 547:Drivers/STM32F4xx_HAL_Driver/Src/stm32f4xx_hal_spi.c ****         hspi->MspInitCallback = pCallback;
 548:Drivers/STM32F4xx_HAL_Driver/Src/stm32f4xx_hal_spi.c ****         break;
 549:Drivers/STM32F4xx_HAL_Driver/Src/stm32f4xx_hal_spi.c **** 
 550:Drivers/STM32F4xx_HAL_Driver/Src/stm32f4xx_hal_spi.c ****       case HAL_SPI_MSPDEINIT_CB_ID :
 551:Drivers/STM32F4xx_HAL_Driver/Src/stm32f4xx_hal_spi.c ****         hspi->MspDeInitCallback = pCallback;
 552:Drivers/STM32F4xx_HAL_Driver/Src/stm32f4xx_hal_spi.c ****         break;
 553:Drivers/STM32F4xx_HAL_Driver/Src/stm32f4xx_hal_spi.c **** 
 554:Drivers/STM32F4xx_HAL_Driver/Src/stm32f4xx_hal_spi.c ****       default :
 555:Drivers/STM32F4xx_HAL_Driver/Src/stm32f4xx_hal_spi.c ****         /* Update the error code */
 556:Drivers/STM32F4xx_HAL_Driver/Src/stm32f4xx_hal_spi.c ****         SET_BIT(hspi->ErrorCode, HAL_SPI_ERROR_INVALID_CALLBACK);
 557:Drivers/STM32F4xx_HAL_Driver/Src/stm32f4xx_hal_spi.c **** 
 558:Drivers/STM32F4xx_HAL_Driver/Src/stm32f4xx_hal_spi.c ****         /* Return error status */
 559:Drivers/STM32F4xx_HAL_Driver/Src/stm32f4xx_hal_spi.c ****         status =  HAL_ERROR;
 560:Drivers/STM32F4xx_HAL_Driver/Src/stm32f4xx_hal_spi.c ****         break;
 561:Drivers/STM32F4xx_HAL_Driver/Src/stm32f4xx_hal_spi.c ****     }
 562:Drivers/STM32F4xx_HAL_Driver/Src/stm32f4xx_hal_spi.c ****   }
 563:Drivers/STM32F4xx_HAL_Driver/Src/stm32f4xx_hal_spi.c ****   else if (HAL_SPI_STATE_RESET == hspi->State)
 564:Drivers/STM32F4xx_HAL_Driver/Src/stm32f4xx_hal_spi.c ****   {
 565:Drivers/STM32F4xx_HAL_Driver/Src/stm32f4xx_hal_spi.c ****     switch (CallbackID)
 566:Drivers/STM32F4xx_HAL_Driver/Src/stm32f4xx_hal_spi.c ****     {
 567:Drivers/STM32F4xx_HAL_Driver/Src/stm32f4xx_hal_spi.c ****       case HAL_SPI_MSPINIT_CB_ID :
 568:Drivers/STM32F4xx_HAL_Driver/Src/stm32f4xx_hal_spi.c ****         hspi->MspInitCallback = pCallback;
 569:Drivers/STM32F4xx_HAL_Driver/Src/stm32f4xx_hal_spi.c ****         break;
ARM GAS  /tmp/cc9N7Buw.s 			page 21


 570:Drivers/STM32F4xx_HAL_Driver/Src/stm32f4xx_hal_spi.c **** 
 571:Drivers/STM32F4xx_HAL_Driver/Src/stm32f4xx_hal_spi.c ****       case HAL_SPI_MSPDEINIT_CB_ID :
 572:Drivers/STM32F4xx_HAL_Driver/Src/stm32f4xx_hal_spi.c ****         hspi->MspDeInitCallback = pCallback;
 573:Drivers/STM32F4xx_HAL_Driver/Src/stm32f4xx_hal_spi.c ****         break;
 574:Drivers/STM32F4xx_HAL_Driver/Src/stm32f4xx_hal_spi.c **** 
 575:Drivers/STM32F4xx_HAL_Driver/Src/stm32f4xx_hal_spi.c ****       default :
 576:Drivers/STM32F4xx_HAL_Driver/Src/stm32f4xx_hal_spi.c ****         /* Update the error code */
 577:Drivers/STM32F4xx_HAL_Driver/Src/stm32f4xx_hal_spi.c ****         SET_BIT(hspi->ErrorCode, HAL_SPI_ERROR_INVALID_CALLBACK);
 578:Drivers/STM32F4xx_HAL_Driver/Src/stm32f4xx_hal_spi.c **** 
 579:Drivers/STM32F4xx_HAL_Driver/Src/stm32f4xx_hal_spi.c ****         /* Return error status */
 580:Drivers/STM32F4xx_HAL_Driver/Src/stm32f4xx_hal_spi.c ****         status =  HAL_ERROR;
 581:Drivers/STM32F4xx_HAL_Driver/Src/stm32f4xx_hal_spi.c ****         break;
 582:Drivers/STM32F4xx_HAL_Driver/Src/stm32f4xx_hal_spi.c ****     }
 583:Drivers/STM32F4xx_HAL_Driver/Src/stm32f4xx_hal_spi.c ****   }
 584:Drivers/STM32F4xx_HAL_Driver/Src/stm32f4xx_hal_spi.c ****   else
 585:Drivers/STM32F4xx_HAL_Driver/Src/stm32f4xx_hal_spi.c ****   {
 586:Drivers/STM32F4xx_HAL_Driver/Src/stm32f4xx_hal_spi.c ****     /* Update the error code */
 587:Drivers/STM32F4xx_HAL_Driver/Src/stm32f4xx_hal_spi.c ****     SET_BIT(hspi->ErrorCode, HAL_SPI_ERROR_INVALID_CALLBACK);
 588:Drivers/STM32F4xx_HAL_Driver/Src/stm32f4xx_hal_spi.c **** 
 589:Drivers/STM32F4xx_HAL_Driver/Src/stm32f4xx_hal_spi.c ****     /* Return error status */
 590:Drivers/STM32F4xx_HAL_Driver/Src/stm32f4xx_hal_spi.c ****     status =  HAL_ERROR;
 591:Drivers/STM32F4xx_HAL_Driver/Src/stm32f4xx_hal_spi.c ****   }
 592:Drivers/STM32F4xx_HAL_Driver/Src/stm32f4xx_hal_spi.c **** 
 593:Drivers/STM32F4xx_HAL_Driver/Src/stm32f4xx_hal_spi.c ****   /* Release Lock */
 594:Drivers/STM32F4xx_HAL_Driver/Src/stm32f4xx_hal_spi.c ****   __HAL_UNLOCK(hspi);
 595:Drivers/STM32F4xx_HAL_Driver/Src/stm32f4xx_hal_spi.c ****   return status;
 596:Drivers/STM32F4xx_HAL_Driver/Src/stm32f4xx_hal_spi.c **** }
 597:Drivers/STM32F4xx_HAL_Driver/Src/stm32f4xx_hal_spi.c **** 
 598:Drivers/STM32F4xx_HAL_Driver/Src/stm32f4xx_hal_spi.c **** /**
 599:Drivers/STM32F4xx_HAL_Driver/Src/stm32f4xx_hal_spi.c ****   * @brief  Unregister an SPI Callback
 600:Drivers/STM32F4xx_HAL_Driver/Src/stm32f4xx_hal_spi.c ****   *         SPI callback is redirected to the weak predefined callback
 601:Drivers/STM32F4xx_HAL_Driver/Src/stm32f4xx_hal_spi.c ****   * @param  hspi Pointer to a SPI_HandleTypeDef structure that contains
 602:Drivers/STM32F4xx_HAL_Driver/Src/stm32f4xx_hal_spi.c ****   *                the configuration information for the specified SPI.
 603:Drivers/STM32F4xx_HAL_Driver/Src/stm32f4xx_hal_spi.c ****   * @param  CallbackID ID of the callback to be unregistered
 604:Drivers/STM32F4xx_HAL_Driver/Src/stm32f4xx_hal_spi.c ****   * @retval HAL status
 605:Drivers/STM32F4xx_HAL_Driver/Src/stm32f4xx_hal_spi.c ****   */
 606:Drivers/STM32F4xx_HAL_Driver/Src/stm32f4xx_hal_spi.c **** HAL_StatusTypeDef HAL_SPI_UnRegisterCallback(SPI_HandleTypeDef *hspi, HAL_SPI_CallbackIDTypeDef Cal
 607:Drivers/STM32F4xx_HAL_Driver/Src/stm32f4xx_hal_spi.c **** {
 608:Drivers/STM32F4xx_HAL_Driver/Src/stm32f4xx_hal_spi.c ****   HAL_StatusTypeDef status = HAL_OK;
 609:Drivers/STM32F4xx_HAL_Driver/Src/stm32f4xx_hal_spi.c **** 
 610:Drivers/STM32F4xx_HAL_Driver/Src/stm32f4xx_hal_spi.c ****   /* Process locked */
 611:Drivers/STM32F4xx_HAL_Driver/Src/stm32f4xx_hal_spi.c ****   __HAL_LOCK(hspi);
 612:Drivers/STM32F4xx_HAL_Driver/Src/stm32f4xx_hal_spi.c **** 
 613:Drivers/STM32F4xx_HAL_Driver/Src/stm32f4xx_hal_spi.c ****   if (HAL_SPI_STATE_READY == hspi->State)
 614:Drivers/STM32F4xx_HAL_Driver/Src/stm32f4xx_hal_spi.c ****   {
 615:Drivers/STM32F4xx_HAL_Driver/Src/stm32f4xx_hal_spi.c ****     switch (CallbackID)
 616:Drivers/STM32F4xx_HAL_Driver/Src/stm32f4xx_hal_spi.c ****     {
 617:Drivers/STM32F4xx_HAL_Driver/Src/stm32f4xx_hal_spi.c ****       case HAL_SPI_TX_COMPLETE_CB_ID :
 618:Drivers/STM32F4xx_HAL_Driver/Src/stm32f4xx_hal_spi.c ****         hspi->TxCpltCallback = HAL_SPI_TxCpltCallback;             /* Legacy weak TxCpltCallback   
 619:Drivers/STM32F4xx_HAL_Driver/Src/stm32f4xx_hal_spi.c ****         break;
 620:Drivers/STM32F4xx_HAL_Driver/Src/stm32f4xx_hal_spi.c **** 
 621:Drivers/STM32F4xx_HAL_Driver/Src/stm32f4xx_hal_spi.c ****       case HAL_SPI_RX_COMPLETE_CB_ID :
 622:Drivers/STM32F4xx_HAL_Driver/Src/stm32f4xx_hal_spi.c ****         hspi->RxCpltCallback = HAL_SPI_RxCpltCallback;             /* Legacy weak RxCpltCallback   
 623:Drivers/STM32F4xx_HAL_Driver/Src/stm32f4xx_hal_spi.c ****         break;
 624:Drivers/STM32F4xx_HAL_Driver/Src/stm32f4xx_hal_spi.c **** 
 625:Drivers/STM32F4xx_HAL_Driver/Src/stm32f4xx_hal_spi.c ****       case HAL_SPI_TX_RX_COMPLETE_CB_ID :
 626:Drivers/STM32F4xx_HAL_Driver/Src/stm32f4xx_hal_spi.c ****         hspi->TxRxCpltCallback = HAL_SPI_TxRxCpltCallback;         /* Legacy weak TxRxCpltCallback 
ARM GAS  /tmp/cc9N7Buw.s 			page 22


 627:Drivers/STM32F4xx_HAL_Driver/Src/stm32f4xx_hal_spi.c ****         break;
 628:Drivers/STM32F4xx_HAL_Driver/Src/stm32f4xx_hal_spi.c **** 
 629:Drivers/STM32F4xx_HAL_Driver/Src/stm32f4xx_hal_spi.c ****       case HAL_SPI_TX_HALF_COMPLETE_CB_ID :
 630:Drivers/STM32F4xx_HAL_Driver/Src/stm32f4xx_hal_spi.c ****         hspi->TxHalfCpltCallback = HAL_SPI_TxHalfCpltCallback;     /* Legacy weak TxHalfCpltCallbac
 631:Drivers/STM32F4xx_HAL_Driver/Src/stm32f4xx_hal_spi.c ****         break;
 632:Drivers/STM32F4xx_HAL_Driver/Src/stm32f4xx_hal_spi.c **** 
 633:Drivers/STM32F4xx_HAL_Driver/Src/stm32f4xx_hal_spi.c ****       case HAL_SPI_RX_HALF_COMPLETE_CB_ID :
 634:Drivers/STM32F4xx_HAL_Driver/Src/stm32f4xx_hal_spi.c ****         hspi->RxHalfCpltCallback = HAL_SPI_RxHalfCpltCallback;     /* Legacy weak RxHalfCpltCallbac
 635:Drivers/STM32F4xx_HAL_Driver/Src/stm32f4xx_hal_spi.c ****         break;
 636:Drivers/STM32F4xx_HAL_Driver/Src/stm32f4xx_hal_spi.c **** 
 637:Drivers/STM32F4xx_HAL_Driver/Src/stm32f4xx_hal_spi.c ****       case HAL_SPI_TX_RX_HALF_COMPLETE_CB_ID :
 638:Drivers/STM32F4xx_HAL_Driver/Src/stm32f4xx_hal_spi.c ****         hspi->TxRxHalfCpltCallback = HAL_SPI_TxRxHalfCpltCallback; /* Legacy weak TxRxHalfCpltCallb
 639:Drivers/STM32F4xx_HAL_Driver/Src/stm32f4xx_hal_spi.c ****         break;
 640:Drivers/STM32F4xx_HAL_Driver/Src/stm32f4xx_hal_spi.c **** 
 641:Drivers/STM32F4xx_HAL_Driver/Src/stm32f4xx_hal_spi.c ****       case HAL_SPI_ERROR_CB_ID :
 642:Drivers/STM32F4xx_HAL_Driver/Src/stm32f4xx_hal_spi.c ****         hspi->ErrorCallback = HAL_SPI_ErrorCallback;               /* Legacy weak ErrorCallback    
 643:Drivers/STM32F4xx_HAL_Driver/Src/stm32f4xx_hal_spi.c ****         break;
 644:Drivers/STM32F4xx_HAL_Driver/Src/stm32f4xx_hal_spi.c **** 
 645:Drivers/STM32F4xx_HAL_Driver/Src/stm32f4xx_hal_spi.c ****       case HAL_SPI_ABORT_CB_ID :
 646:Drivers/STM32F4xx_HAL_Driver/Src/stm32f4xx_hal_spi.c ****         hspi->AbortCpltCallback = HAL_SPI_AbortCpltCallback;       /* Legacy weak AbortCpltCallback
 647:Drivers/STM32F4xx_HAL_Driver/Src/stm32f4xx_hal_spi.c ****         break;
 648:Drivers/STM32F4xx_HAL_Driver/Src/stm32f4xx_hal_spi.c **** 
 649:Drivers/STM32F4xx_HAL_Driver/Src/stm32f4xx_hal_spi.c ****       case HAL_SPI_MSPINIT_CB_ID :
 650:Drivers/STM32F4xx_HAL_Driver/Src/stm32f4xx_hal_spi.c ****         hspi->MspInitCallback = HAL_SPI_MspInit;                   /* Legacy weak MspInit          
 651:Drivers/STM32F4xx_HAL_Driver/Src/stm32f4xx_hal_spi.c ****         break;
 652:Drivers/STM32F4xx_HAL_Driver/Src/stm32f4xx_hal_spi.c **** 
 653:Drivers/STM32F4xx_HAL_Driver/Src/stm32f4xx_hal_spi.c ****       case HAL_SPI_MSPDEINIT_CB_ID :
 654:Drivers/STM32F4xx_HAL_Driver/Src/stm32f4xx_hal_spi.c ****         hspi->MspDeInitCallback = HAL_SPI_MspDeInit;               /* Legacy weak MspDeInit        
 655:Drivers/STM32F4xx_HAL_Driver/Src/stm32f4xx_hal_spi.c ****         break;
 656:Drivers/STM32F4xx_HAL_Driver/Src/stm32f4xx_hal_spi.c **** 
 657:Drivers/STM32F4xx_HAL_Driver/Src/stm32f4xx_hal_spi.c ****       default :
 658:Drivers/STM32F4xx_HAL_Driver/Src/stm32f4xx_hal_spi.c ****         /* Update the error code */
 659:Drivers/STM32F4xx_HAL_Driver/Src/stm32f4xx_hal_spi.c ****         SET_BIT(hspi->ErrorCode, HAL_SPI_ERROR_INVALID_CALLBACK);
 660:Drivers/STM32F4xx_HAL_Driver/Src/stm32f4xx_hal_spi.c **** 
 661:Drivers/STM32F4xx_HAL_Driver/Src/stm32f4xx_hal_spi.c ****         /* Return error status */
 662:Drivers/STM32F4xx_HAL_Driver/Src/stm32f4xx_hal_spi.c ****         status =  HAL_ERROR;
 663:Drivers/STM32F4xx_HAL_Driver/Src/stm32f4xx_hal_spi.c ****         break;
 664:Drivers/STM32F4xx_HAL_Driver/Src/stm32f4xx_hal_spi.c ****     }
 665:Drivers/STM32F4xx_HAL_Driver/Src/stm32f4xx_hal_spi.c ****   }
 666:Drivers/STM32F4xx_HAL_Driver/Src/stm32f4xx_hal_spi.c ****   else if (HAL_SPI_STATE_RESET == hspi->State)
 667:Drivers/STM32F4xx_HAL_Driver/Src/stm32f4xx_hal_spi.c ****   {
 668:Drivers/STM32F4xx_HAL_Driver/Src/stm32f4xx_hal_spi.c ****     switch (CallbackID)
 669:Drivers/STM32F4xx_HAL_Driver/Src/stm32f4xx_hal_spi.c ****     {
 670:Drivers/STM32F4xx_HAL_Driver/Src/stm32f4xx_hal_spi.c ****       case HAL_SPI_MSPINIT_CB_ID :
 671:Drivers/STM32F4xx_HAL_Driver/Src/stm32f4xx_hal_spi.c ****         hspi->MspInitCallback = HAL_SPI_MspInit;                   /* Legacy weak MspInit          
 672:Drivers/STM32F4xx_HAL_Driver/Src/stm32f4xx_hal_spi.c ****         break;
 673:Drivers/STM32F4xx_HAL_Driver/Src/stm32f4xx_hal_spi.c **** 
 674:Drivers/STM32F4xx_HAL_Driver/Src/stm32f4xx_hal_spi.c ****       case HAL_SPI_MSPDEINIT_CB_ID :
 675:Drivers/STM32F4xx_HAL_Driver/Src/stm32f4xx_hal_spi.c ****         hspi->MspDeInitCallback = HAL_SPI_MspDeInit;               /* Legacy weak MspDeInit        
 676:Drivers/STM32F4xx_HAL_Driver/Src/stm32f4xx_hal_spi.c ****         break;
 677:Drivers/STM32F4xx_HAL_Driver/Src/stm32f4xx_hal_spi.c **** 
 678:Drivers/STM32F4xx_HAL_Driver/Src/stm32f4xx_hal_spi.c ****       default :
 679:Drivers/STM32F4xx_HAL_Driver/Src/stm32f4xx_hal_spi.c ****         /* Update the error code */
 680:Drivers/STM32F4xx_HAL_Driver/Src/stm32f4xx_hal_spi.c ****         SET_BIT(hspi->ErrorCode, HAL_SPI_ERROR_INVALID_CALLBACK);
 681:Drivers/STM32F4xx_HAL_Driver/Src/stm32f4xx_hal_spi.c **** 
 682:Drivers/STM32F4xx_HAL_Driver/Src/stm32f4xx_hal_spi.c ****         /* Return error status */
 683:Drivers/STM32F4xx_HAL_Driver/Src/stm32f4xx_hal_spi.c ****         status =  HAL_ERROR;
ARM GAS  /tmp/cc9N7Buw.s 			page 23


 684:Drivers/STM32F4xx_HAL_Driver/Src/stm32f4xx_hal_spi.c ****         break;
 685:Drivers/STM32F4xx_HAL_Driver/Src/stm32f4xx_hal_spi.c ****     }
 686:Drivers/STM32F4xx_HAL_Driver/Src/stm32f4xx_hal_spi.c ****   }
 687:Drivers/STM32F4xx_HAL_Driver/Src/stm32f4xx_hal_spi.c ****   else
 688:Drivers/STM32F4xx_HAL_Driver/Src/stm32f4xx_hal_spi.c ****   {
 689:Drivers/STM32F4xx_HAL_Driver/Src/stm32f4xx_hal_spi.c ****     /* Update the error code */
 690:Drivers/STM32F4xx_HAL_Driver/Src/stm32f4xx_hal_spi.c ****     SET_BIT(hspi->ErrorCode, HAL_SPI_ERROR_INVALID_CALLBACK);
 691:Drivers/STM32F4xx_HAL_Driver/Src/stm32f4xx_hal_spi.c **** 
 692:Drivers/STM32F4xx_HAL_Driver/Src/stm32f4xx_hal_spi.c ****     /* Return error status */
 693:Drivers/STM32F4xx_HAL_Driver/Src/stm32f4xx_hal_spi.c ****     status =  HAL_ERROR;
 694:Drivers/STM32F4xx_HAL_Driver/Src/stm32f4xx_hal_spi.c ****   }
 695:Drivers/STM32F4xx_HAL_Driver/Src/stm32f4xx_hal_spi.c **** 
 696:Drivers/STM32F4xx_HAL_Driver/Src/stm32f4xx_hal_spi.c ****   /* Release Lock */
 697:Drivers/STM32F4xx_HAL_Driver/Src/stm32f4xx_hal_spi.c ****   __HAL_UNLOCK(hspi);
 698:Drivers/STM32F4xx_HAL_Driver/Src/stm32f4xx_hal_spi.c ****   return status;
 699:Drivers/STM32F4xx_HAL_Driver/Src/stm32f4xx_hal_spi.c **** }
 700:Drivers/STM32F4xx_HAL_Driver/Src/stm32f4xx_hal_spi.c **** #endif /* USE_HAL_SPI_REGISTER_CALLBACKS */
 701:Drivers/STM32F4xx_HAL_Driver/Src/stm32f4xx_hal_spi.c **** /**
 702:Drivers/STM32F4xx_HAL_Driver/Src/stm32f4xx_hal_spi.c ****   * @}
 703:Drivers/STM32F4xx_HAL_Driver/Src/stm32f4xx_hal_spi.c ****   */
 704:Drivers/STM32F4xx_HAL_Driver/Src/stm32f4xx_hal_spi.c **** 
 705:Drivers/STM32F4xx_HAL_Driver/Src/stm32f4xx_hal_spi.c **** /** @defgroup SPI_Exported_Functions_Group2 IO operation functions
 706:Drivers/STM32F4xx_HAL_Driver/Src/stm32f4xx_hal_spi.c ****   *  @brief   Data transfers functions
 707:Drivers/STM32F4xx_HAL_Driver/Src/stm32f4xx_hal_spi.c ****   *
 708:Drivers/STM32F4xx_HAL_Driver/Src/stm32f4xx_hal_spi.c **** @verbatim
 709:Drivers/STM32F4xx_HAL_Driver/Src/stm32f4xx_hal_spi.c ****   ==============================================================================
 710:Drivers/STM32F4xx_HAL_Driver/Src/stm32f4xx_hal_spi.c ****                       ##### IO operation functions #####
 711:Drivers/STM32F4xx_HAL_Driver/Src/stm32f4xx_hal_spi.c ****  ===============================================================================
 712:Drivers/STM32F4xx_HAL_Driver/Src/stm32f4xx_hal_spi.c ****  [..]
 713:Drivers/STM32F4xx_HAL_Driver/Src/stm32f4xx_hal_spi.c ****     This subsection provides a set of functions allowing to manage the SPI
 714:Drivers/STM32F4xx_HAL_Driver/Src/stm32f4xx_hal_spi.c ****     data transfers.
 715:Drivers/STM32F4xx_HAL_Driver/Src/stm32f4xx_hal_spi.c **** 
 716:Drivers/STM32F4xx_HAL_Driver/Src/stm32f4xx_hal_spi.c ****     [..] The SPI supports master and slave mode :
 717:Drivers/STM32F4xx_HAL_Driver/Src/stm32f4xx_hal_spi.c **** 
 718:Drivers/STM32F4xx_HAL_Driver/Src/stm32f4xx_hal_spi.c ****     (#) There are two modes of transfer:
 719:Drivers/STM32F4xx_HAL_Driver/Src/stm32f4xx_hal_spi.c ****        (++) Blocking mode: The communication is performed in polling mode.
 720:Drivers/STM32F4xx_HAL_Driver/Src/stm32f4xx_hal_spi.c ****             The HAL status of all data processing is returned by the same function
 721:Drivers/STM32F4xx_HAL_Driver/Src/stm32f4xx_hal_spi.c ****             after finishing transfer.
 722:Drivers/STM32F4xx_HAL_Driver/Src/stm32f4xx_hal_spi.c ****        (++) No-Blocking mode: The communication is performed using Interrupts
 723:Drivers/STM32F4xx_HAL_Driver/Src/stm32f4xx_hal_spi.c ****             or DMA, These APIs return the HAL status.
 724:Drivers/STM32F4xx_HAL_Driver/Src/stm32f4xx_hal_spi.c ****             The end of the data processing will be indicated through the
 725:Drivers/STM32F4xx_HAL_Driver/Src/stm32f4xx_hal_spi.c ****             dedicated SPI IRQ when using Interrupt mode or the DMA IRQ when
 726:Drivers/STM32F4xx_HAL_Driver/Src/stm32f4xx_hal_spi.c ****             using DMA mode.
 727:Drivers/STM32F4xx_HAL_Driver/Src/stm32f4xx_hal_spi.c ****             The HAL_SPI_TxCpltCallback(), HAL_SPI_RxCpltCallback() and HAL_SPI_TxRxCpltCallback() u
 728:Drivers/STM32F4xx_HAL_Driver/Src/stm32f4xx_hal_spi.c ****             will be executed respectively at the end of the transmit or Receive process
 729:Drivers/STM32F4xx_HAL_Driver/Src/stm32f4xx_hal_spi.c ****             The HAL_SPI_ErrorCallback()user callback will be executed when a communication error is
 730:Drivers/STM32F4xx_HAL_Driver/Src/stm32f4xx_hal_spi.c **** 
 731:Drivers/STM32F4xx_HAL_Driver/Src/stm32f4xx_hal_spi.c ****     (#) APIs provided for these 2 transfer modes (Blocking mode or Non blocking mode using either I
 732:Drivers/STM32F4xx_HAL_Driver/Src/stm32f4xx_hal_spi.c ****         exist for 1Line (simplex) and 2Lines (full duplex) modes.
 733:Drivers/STM32F4xx_HAL_Driver/Src/stm32f4xx_hal_spi.c **** 
 734:Drivers/STM32F4xx_HAL_Driver/Src/stm32f4xx_hal_spi.c **** @endverbatim
 735:Drivers/STM32F4xx_HAL_Driver/Src/stm32f4xx_hal_spi.c ****   * @{
 736:Drivers/STM32F4xx_HAL_Driver/Src/stm32f4xx_hal_spi.c ****   */
 737:Drivers/STM32F4xx_HAL_Driver/Src/stm32f4xx_hal_spi.c **** 
 738:Drivers/STM32F4xx_HAL_Driver/Src/stm32f4xx_hal_spi.c **** /**
 739:Drivers/STM32F4xx_HAL_Driver/Src/stm32f4xx_hal_spi.c ****   * @brief  Transmit an amount of data in blocking mode.
 740:Drivers/STM32F4xx_HAL_Driver/Src/stm32f4xx_hal_spi.c ****   * @param  hspi pointer to a SPI_HandleTypeDef structure that contains
ARM GAS  /tmp/cc9N7Buw.s 			page 24


 741:Drivers/STM32F4xx_HAL_Driver/Src/stm32f4xx_hal_spi.c ****   *               the configuration information for SPI module.
 742:Drivers/STM32F4xx_HAL_Driver/Src/stm32f4xx_hal_spi.c ****   * @param  pData pointer to data buffer
 743:Drivers/STM32F4xx_HAL_Driver/Src/stm32f4xx_hal_spi.c ****   * @param  Size amount of data to be sent
 744:Drivers/STM32F4xx_HAL_Driver/Src/stm32f4xx_hal_spi.c ****   * @param  Timeout Timeout duration
 745:Drivers/STM32F4xx_HAL_Driver/Src/stm32f4xx_hal_spi.c ****   * @retval HAL status
 746:Drivers/STM32F4xx_HAL_Driver/Src/stm32f4xx_hal_spi.c ****   */
 747:Drivers/STM32F4xx_HAL_Driver/Src/stm32f4xx_hal_spi.c **** HAL_StatusTypeDef HAL_SPI_Transmit(SPI_HandleTypeDef *hspi, uint8_t *pData, uint16_t Size, uint32_t
 748:Drivers/STM32F4xx_HAL_Driver/Src/stm32f4xx_hal_spi.c **** {
 577              		.loc 1 748 1
 578              		.cfi_startproc
 579              		@ args = 0, pretend = 0, frame = 32
 580              		@ frame_needed = 1, uses_anonymous_args = 0
 581 0000 80B5     		push	{r7, lr}
 582              	.LCFI22:
 583              		.cfi_def_cfa_offset 8
 584              		.cfi_offset 7, -8
 585              		.cfi_offset 14, -4
 586 0002 88B0     		sub	sp, sp, #32
 587              	.LCFI23:
 588              		.cfi_def_cfa_offset 40
 589 0004 00AF     		add	r7, sp, #0
 590              	.LCFI24:
 591              		.cfi_def_cfa_register 7
 592 0006 F860     		str	r0, [r7, #12]
 593 0008 B960     		str	r1, [r7, #8]
 594 000a 3B60     		str	r3, [r7]
 595 000c 1346     		mov	r3, r2	@ movhi
 596 000e FB80     		strh	r3, [r7, #6]	@ movhi
 749:Drivers/STM32F4xx_HAL_Driver/Src/stm32f4xx_hal_spi.c ****   uint32_t tickstart;
 750:Drivers/STM32F4xx_HAL_Driver/Src/stm32f4xx_hal_spi.c ****   HAL_StatusTypeDef errorcode = HAL_OK;
 597              		.loc 1 750 21
 598 0010 0023     		movs	r3, #0
 599 0012 FB77     		strb	r3, [r7, #31]
 751:Drivers/STM32F4xx_HAL_Driver/Src/stm32f4xx_hal_spi.c ****   uint16_t initial_TxXferCount;
 752:Drivers/STM32F4xx_HAL_Driver/Src/stm32f4xx_hal_spi.c **** 
 753:Drivers/STM32F4xx_HAL_Driver/Src/stm32f4xx_hal_spi.c ****   /* Check Direction parameter */
 754:Drivers/STM32F4xx_HAL_Driver/Src/stm32f4xx_hal_spi.c ****   assert_param(IS_SPI_DIRECTION_2LINES_OR_1LINE(hspi->Init.Direction));
 600              		.loc 1 754 3
 601 0014 FB68     		ldr	r3, [r7, #12]
 602 0016 9B68     		ldr	r3, [r3, #8]
 603 0018 002B     		cmp	r3, #0
 604 001a 09D0     		beq	.L26
 605              		.loc 1 754 3 is_stmt 0 discriminator 1
 606 001c FB68     		ldr	r3, [r7, #12]
 607 001e 9B68     		ldr	r3, [r3, #8]
 608 0020 B3F5004F 		cmp	r3, #32768
 609 0024 04D0     		beq	.L26
 610              		.loc 1 754 3 discriminator 2
 611 0026 40F2F221 		movw	r1, #754
 612 002a 9648     		ldr	r0, .L54
 613 002c FFF7FEFF 		bl	assert_failed
 614              	.L26:
 755:Drivers/STM32F4xx_HAL_Driver/Src/stm32f4xx_hal_spi.c **** 
 756:Drivers/STM32F4xx_HAL_Driver/Src/stm32f4xx_hal_spi.c ****   /* Process Locked */
 757:Drivers/STM32F4xx_HAL_Driver/Src/stm32f4xx_hal_spi.c ****   __HAL_LOCK(hspi);
 615              		.loc 1 757 3 is_stmt 1
 616 0030 FB68     		ldr	r3, [r7, #12]
ARM GAS  /tmp/cc9N7Buw.s 			page 25


 617 0032 93F85030 		ldrb	r3, [r3, #80]	@ zero_extendqisi2
 618 0036 012B     		cmp	r3, #1
 619 0038 01D1     		bne	.L27
 620              		.loc 1 757 3 is_stmt 0 discriminator 1
 621 003a 0223     		movs	r3, #2
 622 003c 1EE1     		b	.L28
 623              	.L27:
 624              		.loc 1 757 3 discriminator 2
 625 003e FB68     		ldr	r3, [r7, #12]
 626 0040 0122     		movs	r2, #1
 627 0042 83F85020 		strb	r2, [r3, #80]
 758:Drivers/STM32F4xx_HAL_Driver/Src/stm32f4xx_hal_spi.c **** 
 759:Drivers/STM32F4xx_HAL_Driver/Src/stm32f4xx_hal_spi.c ****   /* Init tickstart for timeout management*/
 760:Drivers/STM32F4xx_HAL_Driver/Src/stm32f4xx_hal_spi.c ****   tickstart = HAL_GetTick();
 628              		.loc 1 760 15 is_stmt 1 discriminator 2
 629 0046 FFF7FEFF 		bl	HAL_GetTick
 630 004a B861     		str	r0, [r7, #24]
 761:Drivers/STM32F4xx_HAL_Driver/Src/stm32f4xx_hal_spi.c ****   initial_TxXferCount = Size;
 631              		.loc 1 761 23 discriminator 2
 632 004c FB88     		ldrh	r3, [r7, #6]	@ movhi
 633 004e FB82     		strh	r3, [r7, #22]	@ movhi
 762:Drivers/STM32F4xx_HAL_Driver/Src/stm32f4xx_hal_spi.c **** 
 763:Drivers/STM32F4xx_HAL_Driver/Src/stm32f4xx_hal_spi.c ****   if (hspi->State != HAL_SPI_STATE_READY)
 634              		.loc 1 763 11 discriminator 2
 635 0050 FB68     		ldr	r3, [r7, #12]
 636 0052 93F85130 		ldrb	r3, [r3, #81]
 637 0056 DBB2     		uxtb	r3, r3
 638              		.loc 1 763 6 discriminator 2
 639 0058 012B     		cmp	r3, #1
 640 005a 02D0     		beq	.L29
 764:Drivers/STM32F4xx_HAL_Driver/Src/stm32f4xx_hal_spi.c ****   {
 765:Drivers/STM32F4xx_HAL_Driver/Src/stm32f4xx_hal_spi.c ****     errorcode = HAL_BUSY;
 641              		.loc 1 765 15
 642 005c 0223     		movs	r3, #2
 643 005e FB77     		strb	r3, [r7, #31]
 766:Drivers/STM32F4xx_HAL_Driver/Src/stm32f4xx_hal_spi.c ****     goto error;
 644              		.loc 1 766 5
 645 0060 03E1     		b	.L30
 646              	.L29:
 767:Drivers/STM32F4xx_HAL_Driver/Src/stm32f4xx_hal_spi.c ****   }
 768:Drivers/STM32F4xx_HAL_Driver/Src/stm32f4xx_hal_spi.c **** 
 769:Drivers/STM32F4xx_HAL_Driver/Src/stm32f4xx_hal_spi.c ****   if ((pData == NULL) || (Size == 0U))
 647              		.loc 1 769 6
 648 0062 BB68     		ldr	r3, [r7, #8]
 649 0064 002B     		cmp	r3, #0
 650 0066 02D0     		beq	.L31
 651              		.loc 1 769 23 discriminator 1
 652 0068 FB88     		ldrh	r3, [r7, #6]
 653 006a 002B     		cmp	r3, #0
 654 006c 02D1     		bne	.L32
 655              	.L31:
 770:Drivers/STM32F4xx_HAL_Driver/Src/stm32f4xx_hal_spi.c ****   {
 771:Drivers/STM32F4xx_HAL_Driver/Src/stm32f4xx_hal_spi.c ****     errorcode = HAL_ERROR;
 656              		.loc 1 771 15
 657 006e 0123     		movs	r3, #1
 658 0070 FB77     		strb	r3, [r7, #31]
 772:Drivers/STM32F4xx_HAL_Driver/Src/stm32f4xx_hal_spi.c ****     goto error;
ARM GAS  /tmp/cc9N7Buw.s 			page 26


 659              		.loc 1 772 5
 660 0072 FAE0     		b	.L30
 661              	.L32:
 773:Drivers/STM32F4xx_HAL_Driver/Src/stm32f4xx_hal_spi.c ****   }
 774:Drivers/STM32F4xx_HAL_Driver/Src/stm32f4xx_hal_spi.c **** 
 775:Drivers/STM32F4xx_HAL_Driver/Src/stm32f4xx_hal_spi.c ****   /* Set the transaction information */
 776:Drivers/STM32F4xx_HAL_Driver/Src/stm32f4xx_hal_spi.c ****   hspi->State       = HAL_SPI_STATE_BUSY_TX;
 662              		.loc 1 776 21
 663 0074 FB68     		ldr	r3, [r7, #12]
 664 0076 0322     		movs	r2, #3
 665 0078 83F85120 		strb	r2, [r3, #81]
 777:Drivers/STM32F4xx_HAL_Driver/Src/stm32f4xx_hal_spi.c ****   hspi->ErrorCode   = HAL_SPI_ERROR_NONE;
 666              		.loc 1 777 21
 667 007c FB68     		ldr	r3, [r7, #12]
 668 007e 0022     		movs	r2, #0
 669 0080 5A65     		str	r2, [r3, #84]
 778:Drivers/STM32F4xx_HAL_Driver/Src/stm32f4xx_hal_spi.c ****   hspi->pTxBuffPtr  = (uint8_t *)pData;
 670              		.loc 1 778 21
 671 0082 FB68     		ldr	r3, [r7, #12]
 672 0084 BA68     		ldr	r2, [r7, #8]
 673 0086 1A63     		str	r2, [r3, #48]
 779:Drivers/STM32F4xx_HAL_Driver/Src/stm32f4xx_hal_spi.c ****   hspi->TxXferSize  = Size;
 674              		.loc 1 779 21
 675 0088 FB68     		ldr	r3, [r7, #12]
 676 008a FA88     		ldrh	r2, [r7, #6]	@ movhi
 677 008c 9A86     		strh	r2, [r3, #52]	@ movhi
 780:Drivers/STM32F4xx_HAL_Driver/Src/stm32f4xx_hal_spi.c ****   hspi->TxXferCount = Size;
 678              		.loc 1 780 21
 679 008e FB68     		ldr	r3, [r7, #12]
 680 0090 FA88     		ldrh	r2, [r7, #6]	@ movhi
 681 0092 DA86     		strh	r2, [r3, #54]	@ movhi
 781:Drivers/STM32F4xx_HAL_Driver/Src/stm32f4xx_hal_spi.c **** 
 782:Drivers/STM32F4xx_HAL_Driver/Src/stm32f4xx_hal_spi.c ****   /*Init field not used in handle to zero */
 783:Drivers/STM32F4xx_HAL_Driver/Src/stm32f4xx_hal_spi.c ****   hspi->pRxBuffPtr  = (uint8_t *)NULL;
 682              		.loc 1 783 21
 683 0094 FB68     		ldr	r3, [r7, #12]
 684 0096 0022     		movs	r2, #0
 685 0098 9A63     		str	r2, [r3, #56]
 784:Drivers/STM32F4xx_HAL_Driver/Src/stm32f4xx_hal_spi.c ****   hspi->RxXferSize  = 0U;
 686              		.loc 1 784 21
 687 009a FB68     		ldr	r3, [r7, #12]
 688 009c 0022     		movs	r2, #0
 689 009e 9A87     		strh	r2, [r3, #60]	@ movhi
 785:Drivers/STM32F4xx_HAL_Driver/Src/stm32f4xx_hal_spi.c ****   hspi->RxXferCount = 0U;
 690              		.loc 1 785 21
 691 00a0 FB68     		ldr	r3, [r7, #12]
 692 00a2 0022     		movs	r2, #0
 693 00a4 DA87     		strh	r2, [r3, #62]	@ movhi
 786:Drivers/STM32F4xx_HAL_Driver/Src/stm32f4xx_hal_spi.c ****   hspi->TxISR       = NULL;
 694              		.loc 1 786 21
 695 00a6 FB68     		ldr	r3, [r7, #12]
 696 00a8 0022     		movs	r2, #0
 697 00aa 5A64     		str	r2, [r3, #68]
 787:Drivers/STM32F4xx_HAL_Driver/Src/stm32f4xx_hal_spi.c ****   hspi->RxISR       = NULL;
 698              		.loc 1 787 21
 699 00ac FB68     		ldr	r3, [r7, #12]
 700 00ae 0022     		movs	r2, #0
ARM GAS  /tmp/cc9N7Buw.s 			page 27


 701 00b0 1A64     		str	r2, [r3, #64]
 788:Drivers/STM32F4xx_HAL_Driver/Src/stm32f4xx_hal_spi.c **** 
 789:Drivers/STM32F4xx_HAL_Driver/Src/stm32f4xx_hal_spi.c ****   /* Configure communication direction : 1Line */
 790:Drivers/STM32F4xx_HAL_Driver/Src/stm32f4xx_hal_spi.c ****   if (hspi->Init.Direction == SPI_DIRECTION_1LINE)
 702              		.loc 1 790 17
 703 00b2 FB68     		ldr	r3, [r7, #12]
 704 00b4 9B68     		ldr	r3, [r3, #8]
 705              		.loc 1 790 6
 706 00b6 B3F5004F 		cmp	r3, #32768
 707 00ba 07D1     		bne	.L33
 791:Drivers/STM32F4xx_HAL_Driver/Src/stm32f4xx_hal_spi.c ****   {
 792:Drivers/STM32F4xx_HAL_Driver/Src/stm32f4xx_hal_spi.c ****     SPI_1LINE_TX(hspi);
 708              		.loc 1 792 5
 709 00bc FB68     		ldr	r3, [r7, #12]
 710 00be 1B68     		ldr	r3, [r3]
 711 00c0 1A68     		ldr	r2, [r3]
 712 00c2 FB68     		ldr	r3, [r7, #12]
 713 00c4 1B68     		ldr	r3, [r3]
 714 00c6 42F48042 		orr	r2, r2, #16384
 715 00ca 1A60     		str	r2, [r3]
 716              	.L33:
 793:Drivers/STM32F4xx_HAL_Driver/Src/stm32f4xx_hal_spi.c ****   }
 794:Drivers/STM32F4xx_HAL_Driver/Src/stm32f4xx_hal_spi.c **** 
 795:Drivers/STM32F4xx_HAL_Driver/Src/stm32f4xx_hal_spi.c **** #if (USE_SPI_CRC != 0U)
 796:Drivers/STM32F4xx_HAL_Driver/Src/stm32f4xx_hal_spi.c ****   /* Reset CRC Calculation */
 797:Drivers/STM32F4xx_HAL_Driver/Src/stm32f4xx_hal_spi.c ****   if (hspi->Init.CRCCalculation == SPI_CRCCALCULATION_ENABLE)
 798:Drivers/STM32F4xx_HAL_Driver/Src/stm32f4xx_hal_spi.c ****   {
 799:Drivers/STM32F4xx_HAL_Driver/Src/stm32f4xx_hal_spi.c ****     SPI_RESET_CRC(hspi);
 800:Drivers/STM32F4xx_HAL_Driver/Src/stm32f4xx_hal_spi.c ****   }
 801:Drivers/STM32F4xx_HAL_Driver/Src/stm32f4xx_hal_spi.c **** #endif /* USE_SPI_CRC */
 802:Drivers/STM32F4xx_HAL_Driver/Src/stm32f4xx_hal_spi.c **** 
 803:Drivers/STM32F4xx_HAL_Driver/Src/stm32f4xx_hal_spi.c ****   /* Check if the SPI is already enabled */
 804:Drivers/STM32F4xx_HAL_Driver/Src/stm32f4xx_hal_spi.c ****   if ((hspi->Instance->CR1 & SPI_CR1_SPE) != SPI_CR1_SPE)
 717              		.loc 1 804 12
 718 00cc FB68     		ldr	r3, [r7, #12]
 719 00ce 1B68     		ldr	r3, [r3]
 720              		.loc 1 804 22
 721 00d0 1B68     		ldr	r3, [r3]
 722              		.loc 1 804 28
 723 00d2 03F04003 		and	r3, r3, #64
 724              		.loc 1 804 6
 725 00d6 402B     		cmp	r3, #64
 726 00d8 07D0     		beq	.L34
 805:Drivers/STM32F4xx_HAL_Driver/Src/stm32f4xx_hal_spi.c ****   {
 806:Drivers/STM32F4xx_HAL_Driver/Src/stm32f4xx_hal_spi.c ****     /* Enable SPI peripheral */
 807:Drivers/STM32F4xx_HAL_Driver/Src/stm32f4xx_hal_spi.c ****     __HAL_SPI_ENABLE(hspi);
 727              		.loc 1 807 5
 728 00da FB68     		ldr	r3, [r7, #12]
 729 00dc 1B68     		ldr	r3, [r3]
 730 00de 1A68     		ldr	r2, [r3]
 731 00e0 FB68     		ldr	r3, [r7, #12]
 732 00e2 1B68     		ldr	r3, [r3]
 733 00e4 42F04002 		orr	r2, r2, #64
 734 00e8 1A60     		str	r2, [r3]
 735              	.L34:
 808:Drivers/STM32F4xx_HAL_Driver/Src/stm32f4xx_hal_spi.c ****   }
 809:Drivers/STM32F4xx_HAL_Driver/Src/stm32f4xx_hal_spi.c **** 
ARM GAS  /tmp/cc9N7Buw.s 			page 28


 810:Drivers/STM32F4xx_HAL_Driver/Src/stm32f4xx_hal_spi.c ****   /* Transmit data in 16 Bit mode */
 811:Drivers/STM32F4xx_HAL_Driver/Src/stm32f4xx_hal_spi.c ****   if (hspi->Init.DataSize == SPI_DATASIZE_16BIT)
 736              		.loc 1 811 17
 737 00ea FB68     		ldr	r3, [r7, #12]
 738 00ec DB68     		ldr	r3, [r3, #12]
 739              		.loc 1 811 6
 740 00ee B3F5006F 		cmp	r3, #2048
 741 00f2 4BD1     		bne	.L35
 812:Drivers/STM32F4xx_HAL_Driver/Src/stm32f4xx_hal_spi.c ****   {
 813:Drivers/STM32F4xx_HAL_Driver/Src/stm32f4xx_hal_spi.c ****     if ((hspi->Init.Mode == SPI_MODE_SLAVE) || (initial_TxXferCount == 0x01U))
 742              		.loc 1 813 20
 743 00f4 FB68     		ldr	r3, [r7, #12]
 744 00f6 5B68     		ldr	r3, [r3, #4]
 745              		.loc 1 813 8
 746 00f8 002B     		cmp	r3, #0
 747 00fa 02D0     		beq	.L36
 748              		.loc 1 813 45 discriminator 1
 749 00fc FB8A     		ldrh	r3, [r7, #22]
 750 00fe 012B     		cmp	r3, #1
 751 0100 3ED1     		bne	.L38
 752              	.L36:
 814:Drivers/STM32F4xx_HAL_Driver/Src/stm32f4xx_hal_spi.c ****     {
 815:Drivers/STM32F4xx_HAL_Driver/Src/stm32f4xx_hal_spi.c ****       hspi->Instance->DR = *((uint16_t *)hspi->pTxBuffPtr);
 753              		.loc 1 815 46
 754 0102 FB68     		ldr	r3, [r7, #12]
 755 0104 1B6B     		ldr	r3, [r3, #48]
 756              		.loc 1 815 28
 757 0106 1A88     		ldrh	r2, [r3]
 758              		.loc 1 815 11
 759 0108 FB68     		ldr	r3, [r7, #12]
 760 010a 1B68     		ldr	r3, [r3]
 761              		.loc 1 815 26
 762 010c DA60     		str	r2, [r3, #12]
 816:Drivers/STM32F4xx_HAL_Driver/Src/stm32f4xx_hal_spi.c ****       hspi->pTxBuffPtr += sizeof(uint16_t);
 763              		.loc 1 816 24
 764 010e FB68     		ldr	r3, [r7, #12]
 765 0110 1B6B     		ldr	r3, [r3, #48]
 766 0112 9A1C     		adds	r2, r3, #2
 767 0114 FB68     		ldr	r3, [r7, #12]
 768 0116 1A63     		str	r2, [r3, #48]
 817:Drivers/STM32F4xx_HAL_Driver/Src/stm32f4xx_hal_spi.c ****       hspi->TxXferCount--;
 769              		.loc 1 817 11
 770 0118 FB68     		ldr	r3, [r7, #12]
 771 011a DB8E     		ldrh	r3, [r3, #54]	@ movhi
 772 011c 9BB2     		uxth	r3, r3
 773              		.loc 1 817 24
 774 011e 013B     		subs	r3, r3, #1
 775 0120 9AB2     		uxth	r2, r3
 776 0122 FB68     		ldr	r3, [r7, #12]
 777 0124 DA86     		strh	r2, [r3, #54]	@ movhi
 818:Drivers/STM32F4xx_HAL_Driver/Src/stm32f4xx_hal_spi.c ****     }
 819:Drivers/STM32F4xx_HAL_Driver/Src/stm32f4xx_hal_spi.c ****     /* Transmit data in 16 Bit mode */
 820:Drivers/STM32F4xx_HAL_Driver/Src/stm32f4xx_hal_spi.c ****     while (hspi->TxXferCount > 0U)
 778              		.loc 1 820 11
 779 0126 2BE0     		b	.L38
 780              	.L42:
 821:Drivers/STM32F4xx_HAL_Driver/Src/stm32f4xx_hal_spi.c ****     {
ARM GAS  /tmp/cc9N7Buw.s 			page 29


 822:Drivers/STM32F4xx_HAL_Driver/Src/stm32f4xx_hal_spi.c ****       /* Wait until TXE flag is set to send data */
 823:Drivers/STM32F4xx_HAL_Driver/Src/stm32f4xx_hal_spi.c ****       if (__HAL_SPI_GET_FLAG(hspi, SPI_FLAG_TXE))
 781              		.loc 1 823 11
 782 0128 FB68     		ldr	r3, [r7, #12]
 783 012a 1B68     		ldr	r3, [r3]
 784 012c 9B68     		ldr	r3, [r3, #8]
 785 012e 03F00203 		and	r3, r3, #2
 786              		.loc 1 823 10
 787 0132 022B     		cmp	r3, #2
 788 0134 12D1     		bne	.L39
 824:Drivers/STM32F4xx_HAL_Driver/Src/stm32f4xx_hal_spi.c ****       {
 825:Drivers/STM32F4xx_HAL_Driver/Src/stm32f4xx_hal_spi.c ****         hspi->Instance->DR = *((uint16_t *)hspi->pTxBuffPtr);
 789              		.loc 1 825 48
 790 0136 FB68     		ldr	r3, [r7, #12]
 791 0138 1B6B     		ldr	r3, [r3, #48]
 792              		.loc 1 825 30
 793 013a 1A88     		ldrh	r2, [r3]
 794              		.loc 1 825 13
 795 013c FB68     		ldr	r3, [r7, #12]
 796 013e 1B68     		ldr	r3, [r3]
 797              		.loc 1 825 28
 798 0140 DA60     		str	r2, [r3, #12]
 826:Drivers/STM32F4xx_HAL_Driver/Src/stm32f4xx_hal_spi.c ****         hspi->pTxBuffPtr += sizeof(uint16_t);
 799              		.loc 1 826 26
 800 0142 FB68     		ldr	r3, [r7, #12]
 801 0144 1B6B     		ldr	r3, [r3, #48]
 802 0146 9A1C     		adds	r2, r3, #2
 803 0148 FB68     		ldr	r3, [r7, #12]
 804 014a 1A63     		str	r2, [r3, #48]
 827:Drivers/STM32F4xx_HAL_Driver/Src/stm32f4xx_hal_spi.c ****         hspi->TxXferCount--;
 805              		.loc 1 827 13
 806 014c FB68     		ldr	r3, [r7, #12]
 807 014e DB8E     		ldrh	r3, [r3, #54]	@ movhi
 808 0150 9BB2     		uxth	r3, r3
 809              		.loc 1 827 26
 810 0152 013B     		subs	r3, r3, #1
 811 0154 9AB2     		uxth	r2, r3
 812 0156 FB68     		ldr	r3, [r7, #12]
 813 0158 DA86     		strh	r2, [r3, #54]	@ movhi
 814 015a 11E0     		b	.L38
 815              	.L39:
 828:Drivers/STM32F4xx_HAL_Driver/Src/stm32f4xx_hal_spi.c ****       }
 829:Drivers/STM32F4xx_HAL_Driver/Src/stm32f4xx_hal_spi.c ****       else
 830:Drivers/STM32F4xx_HAL_Driver/Src/stm32f4xx_hal_spi.c ****       {
 831:Drivers/STM32F4xx_HAL_Driver/Src/stm32f4xx_hal_spi.c ****         /* Timeout management */
 832:Drivers/STM32F4xx_HAL_Driver/Src/stm32f4xx_hal_spi.c ****         if ((((HAL_GetTick() - tickstart) >=  Timeout) && (Timeout != HAL_MAX_DELAY)) || (Timeout =
 816              		.loc 1 832 16
 817 015c FFF7FEFF 		bl	HAL_GetTick
 818 0160 0246     		mov	r2, r0
 819              		.loc 1 832 30
 820 0162 BB69     		ldr	r3, [r7, #24]
 821 0164 D31A     		subs	r3, r2, r3
 822              		.loc 1 832 12
 823 0166 3A68     		ldr	r2, [r7]
 824 0168 9A42     		cmp	r2, r3
 825 016a 03D8     		bhi	.L40
 826              		.loc 1 832 56 discriminator 1
ARM GAS  /tmp/cc9N7Buw.s 			page 30


 827 016c 3B68     		ldr	r3, [r7]
 828 016e B3F1FF3F 		cmp	r3, #-1
 829 0172 02D1     		bne	.L41
 830              	.L40:
 831              		.loc 1 832 87 discriminator 3
 832 0174 3B68     		ldr	r3, [r7]
 833 0176 002B     		cmp	r3, #0
 834 0178 02D1     		bne	.L38
 835              	.L41:
 833:Drivers/STM32F4xx_HAL_Driver/Src/stm32f4xx_hal_spi.c ****         {
 834:Drivers/STM32F4xx_HAL_Driver/Src/stm32f4xx_hal_spi.c ****           errorcode = HAL_TIMEOUT;
 836              		.loc 1 834 21
 837 017a 0323     		movs	r3, #3
 838 017c FB77     		strb	r3, [r7, #31]
 835:Drivers/STM32F4xx_HAL_Driver/Src/stm32f4xx_hal_spi.c ****           goto error;
 839              		.loc 1 835 11
 840 017e 74E0     		b	.L30
 841              	.L38:
 820:Drivers/STM32F4xx_HAL_Driver/Src/stm32f4xx_hal_spi.c ****     {
 842              		.loc 1 820 16
 843 0180 FB68     		ldr	r3, [r7, #12]
 844 0182 DB8E     		ldrh	r3, [r3, #54]	@ movhi
 845 0184 9BB2     		uxth	r3, r3
 820:Drivers/STM32F4xx_HAL_Driver/Src/stm32f4xx_hal_spi.c ****     {
 846              		.loc 1 820 11
 847 0186 002B     		cmp	r3, #0
 848 0188 CED1     		bne	.L42
 849 018a 4CE0     		b	.L43
 850              	.L35:
 836:Drivers/STM32F4xx_HAL_Driver/Src/stm32f4xx_hal_spi.c ****         }
 837:Drivers/STM32F4xx_HAL_Driver/Src/stm32f4xx_hal_spi.c ****       }
 838:Drivers/STM32F4xx_HAL_Driver/Src/stm32f4xx_hal_spi.c ****     }
 839:Drivers/STM32F4xx_HAL_Driver/Src/stm32f4xx_hal_spi.c ****   }
 840:Drivers/STM32F4xx_HAL_Driver/Src/stm32f4xx_hal_spi.c ****   /* Transmit data in 8 Bit mode */
 841:Drivers/STM32F4xx_HAL_Driver/Src/stm32f4xx_hal_spi.c ****   else
 842:Drivers/STM32F4xx_HAL_Driver/Src/stm32f4xx_hal_spi.c ****   {
 843:Drivers/STM32F4xx_HAL_Driver/Src/stm32f4xx_hal_spi.c ****     if ((hspi->Init.Mode == SPI_MODE_SLAVE) || (initial_TxXferCount == 0x01U))
 851              		.loc 1 843 20
 852 018c FB68     		ldr	r3, [r7, #12]
 853 018e 5B68     		ldr	r3, [r3, #4]
 854              		.loc 1 843 8
 855 0190 002B     		cmp	r3, #0
 856 0192 02D0     		beq	.L44
 857              		.loc 1 843 45 discriminator 1
 858 0194 FB8A     		ldrh	r3, [r7, #22]
 859 0196 012B     		cmp	r3, #1
 860 0198 40D1     		bne	.L46
 861              	.L44:
 844:Drivers/STM32F4xx_HAL_Driver/Src/stm32f4xx_hal_spi.c ****     {
 845:Drivers/STM32F4xx_HAL_Driver/Src/stm32f4xx_hal_spi.c ****       *((__IO uint8_t *)&hspi->Instance->DR) = (*hspi->pTxBuffPtr);
 862              		.loc 1 845 54
 863 019a FB68     		ldr	r3, [r7, #12]
 864 019c 1A6B     		ldr	r2, [r3, #48]
 865              		.loc 1 845 30
 866 019e FB68     		ldr	r3, [r7, #12]
 867 01a0 1B68     		ldr	r3, [r3]
 868              		.loc 1 845 25
ARM GAS  /tmp/cc9N7Buw.s 			page 31


 869 01a2 0C33     		adds	r3, r3, #12
 870              		.loc 1 845 49
 871 01a4 1278     		ldrb	r2, [r2]	@ zero_extendqisi2
 872              		.loc 1 845 46
 873 01a6 1A70     		strb	r2, [r3]
 846:Drivers/STM32F4xx_HAL_Driver/Src/stm32f4xx_hal_spi.c ****       hspi->pTxBuffPtr += sizeof(uint8_t);
 874              		.loc 1 846 24
 875 01a8 FB68     		ldr	r3, [r7, #12]
 876 01aa 1B6B     		ldr	r3, [r3, #48]
 877 01ac 5A1C     		adds	r2, r3, #1
 878 01ae FB68     		ldr	r3, [r7, #12]
 879 01b0 1A63     		str	r2, [r3, #48]
 847:Drivers/STM32F4xx_HAL_Driver/Src/stm32f4xx_hal_spi.c ****       hspi->TxXferCount--;
 880              		.loc 1 847 11
 881 01b2 FB68     		ldr	r3, [r7, #12]
 882 01b4 DB8E     		ldrh	r3, [r3, #54]	@ movhi
 883 01b6 9BB2     		uxth	r3, r3
 884              		.loc 1 847 24
 885 01b8 013B     		subs	r3, r3, #1
 886 01ba 9AB2     		uxth	r2, r3
 887 01bc FB68     		ldr	r3, [r7, #12]
 888 01be DA86     		strh	r2, [r3, #54]	@ movhi
 848:Drivers/STM32F4xx_HAL_Driver/Src/stm32f4xx_hal_spi.c ****     }
 849:Drivers/STM32F4xx_HAL_Driver/Src/stm32f4xx_hal_spi.c ****     while (hspi->TxXferCount > 0U)
 889              		.loc 1 849 11
 890 01c0 2CE0     		b	.L46
 891              	.L50:
 850:Drivers/STM32F4xx_HAL_Driver/Src/stm32f4xx_hal_spi.c ****     {
 851:Drivers/STM32F4xx_HAL_Driver/Src/stm32f4xx_hal_spi.c ****       /* Wait until TXE flag is set to send data */
 852:Drivers/STM32F4xx_HAL_Driver/Src/stm32f4xx_hal_spi.c ****       if (__HAL_SPI_GET_FLAG(hspi, SPI_FLAG_TXE))
 892              		.loc 1 852 11
 893 01c2 FB68     		ldr	r3, [r7, #12]
 894 01c4 1B68     		ldr	r3, [r3]
 895 01c6 9B68     		ldr	r3, [r3, #8]
 896 01c8 03F00203 		and	r3, r3, #2
 897              		.loc 1 852 10
 898 01cc 022B     		cmp	r3, #2
 899 01ce 13D1     		bne	.L47
 853:Drivers/STM32F4xx_HAL_Driver/Src/stm32f4xx_hal_spi.c ****       {
 854:Drivers/STM32F4xx_HAL_Driver/Src/stm32f4xx_hal_spi.c ****         *((__IO uint8_t *)&hspi->Instance->DR) = (*hspi->pTxBuffPtr);
 900              		.loc 1 854 56
 901 01d0 FB68     		ldr	r3, [r7, #12]
 902 01d2 1A6B     		ldr	r2, [r3, #48]
 903              		.loc 1 854 32
 904 01d4 FB68     		ldr	r3, [r7, #12]
 905 01d6 1B68     		ldr	r3, [r3]
 906              		.loc 1 854 27
 907 01d8 0C33     		adds	r3, r3, #12
 908              		.loc 1 854 51
 909 01da 1278     		ldrb	r2, [r2]	@ zero_extendqisi2
 910              		.loc 1 854 48
 911 01dc 1A70     		strb	r2, [r3]
 855:Drivers/STM32F4xx_HAL_Driver/Src/stm32f4xx_hal_spi.c ****         hspi->pTxBuffPtr += sizeof(uint8_t);
 912              		.loc 1 855 26
 913 01de FB68     		ldr	r3, [r7, #12]
 914 01e0 1B6B     		ldr	r3, [r3, #48]
 915 01e2 5A1C     		adds	r2, r3, #1
ARM GAS  /tmp/cc9N7Buw.s 			page 32


 916 01e4 FB68     		ldr	r3, [r7, #12]
 917 01e6 1A63     		str	r2, [r3, #48]
 856:Drivers/STM32F4xx_HAL_Driver/Src/stm32f4xx_hal_spi.c ****         hspi->TxXferCount--;
 918              		.loc 1 856 13
 919 01e8 FB68     		ldr	r3, [r7, #12]
 920 01ea DB8E     		ldrh	r3, [r3, #54]	@ movhi
 921 01ec 9BB2     		uxth	r3, r3
 922              		.loc 1 856 26
 923 01ee 013B     		subs	r3, r3, #1
 924 01f0 9AB2     		uxth	r2, r3
 925 01f2 FB68     		ldr	r3, [r7, #12]
 926 01f4 DA86     		strh	r2, [r3, #54]	@ movhi
 927 01f6 11E0     		b	.L46
 928              	.L47:
 857:Drivers/STM32F4xx_HAL_Driver/Src/stm32f4xx_hal_spi.c ****       }
 858:Drivers/STM32F4xx_HAL_Driver/Src/stm32f4xx_hal_spi.c ****       else
 859:Drivers/STM32F4xx_HAL_Driver/Src/stm32f4xx_hal_spi.c ****       {
 860:Drivers/STM32F4xx_HAL_Driver/Src/stm32f4xx_hal_spi.c ****         /* Timeout management */
 861:Drivers/STM32F4xx_HAL_Driver/Src/stm32f4xx_hal_spi.c ****         if ((((HAL_GetTick() - tickstart) >=  Timeout) && (Timeout != HAL_MAX_DELAY)) || (Timeout =
 929              		.loc 1 861 16
 930 01f8 FFF7FEFF 		bl	HAL_GetTick
 931 01fc 0246     		mov	r2, r0
 932              		.loc 1 861 30
 933 01fe BB69     		ldr	r3, [r7, #24]
 934 0200 D31A     		subs	r3, r2, r3
 935              		.loc 1 861 12
 936 0202 3A68     		ldr	r2, [r7]
 937 0204 9A42     		cmp	r2, r3
 938 0206 03D8     		bhi	.L48
 939              		.loc 1 861 56 discriminator 1
 940 0208 3B68     		ldr	r3, [r7]
 941 020a B3F1FF3F 		cmp	r3, #-1
 942 020e 02D1     		bne	.L49
 943              	.L48:
 944              		.loc 1 861 87 discriminator 3
 945 0210 3B68     		ldr	r3, [r7]
 946 0212 002B     		cmp	r3, #0
 947 0214 02D1     		bne	.L46
 948              	.L49:
 862:Drivers/STM32F4xx_HAL_Driver/Src/stm32f4xx_hal_spi.c ****         {
 863:Drivers/STM32F4xx_HAL_Driver/Src/stm32f4xx_hal_spi.c ****           errorcode = HAL_TIMEOUT;
 949              		.loc 1 863 21
 950 0216 0323     		movs	r3, #3
 951 0218 FB77     		strb	r3, [r7, #31]
 864:Drivers/STM32F4xx_HAL_Driver/Src/stm32f4xx_hal_spi.c ****           goto error;
 952              		.loc 1 864 11
 953 021a 26E0     		b	.L30
 954              	.L46:
 849:Drivers/STM32F4xx_HAL_Driver/Src/stm32f4xx_hal_spi.c ****     {
 955              		.loc 1 849 16
 956 021c FB68     		ldr	r3, [r7, #12]
 957 021e DB8E     		ldrh	r3, [r3, #54]	@ movhi
 958 0220 9BB2     		uxth	r3, r3
 849:Drivers/STM32F4xx_HAL_Driver/Src/stm32f4xx_hal_spi.c ****     {
 959              		.loc 1 849 11
 960 0222 002B     		cmp	r3, #0
 961 0224 CDD1     		bne	.L50
ARM GAS  /tmp/cc9N7Buw.s 			page 33


 962              	.L43:
 865:Drivers/STM32F4xx_HAL_Driver/Src/stm32f4xx_hal_spi.c ****         }
 866:Drivers/STM32F4xx_HAL_Driver/Src/stm32f4xx_hal_spi.c ****       }
 867:Drivers/STM32F4xx_HAL_Driver/Src/stm32f4xx_hal_spi.c ****     }
 868:Drivers/STM32F4xx_HAL_Driver/Src/stm32f4xx_hal_spi.c ****   }
 869:Drivers/STM32F4xx_HAL_Driver/Src/stm32f4xx_hal_spi.c **** #if (USE_SPI_CRC != 0U)
 870:Drivers/STM32F4xx_HAL_Driver/Src/stm32f4xx_hal_spi.c ****   /* Enable CRC Transmission */
 871:Drivers/STM32F4xx_HAL_Driver/Src/stm32f4xx_hal_spi.c ****   if (hspi->Init.CRCCalculation == SPI_CRCCALCULATION_ENABLE)
 872:Drivers/STM32F4xx_HAL_Driver/Src/stm32f4xx_hal_spi.c ****   {
 873:Drivers/STM32F4xx_HAL_Driver/Src/stm32f4xx_hal_spi.c ****     SET_BIT(hspi->Instance->CR1, SPI_CR1_CRCNEXT);
 874:Drivers/STM32F4xx_HAL_Driver/Src/stm32f4xx_hal_spi.c ****   }
 875:Drivers/STM32F4xx_HAL_Driver/Src/stm32f4xx_hal_spi.c **** #endif /* USE_SPI_CRC */
 876:Drivers/STM32F4xx_HAL_Driver/Src/stm32f4xx_hal_spi.c **** 
 877:Drivers/STM32F4xx_HAL_Driver/Src/stm32f4xx_hal_spi.c ****   /* Check the end of the transaction */
 878:Drivers/STM32F4xx_HAL_Driver/Src/stm32f4xx_hal_spi.c ****   if (SPI_EndRxTxTransaction(hspi, Timeout, tickstart) != HAL_OK)
 963              		.loc 1 878 7
 964 0226 BA69     		ldr	r2, [r7, #24]
 965 0228 3968     		ldr	r1, [r7]
 966 022a F868     		ldr	r0, [r7, #12]
 967 022c FFF7FEFF 		bl	SPI_EndRxTxTransaction
 968 0230 0346     		mov	r3, r0
 969              		.loc 1 878 6
 970 0232 002B     		cmp	r3, #0
 971 0234 02D0     		beq	.L51
 879:Drivers/STM32F4xx_HAL_Driver/Src/stm32f4xx_hal_spi.c ****   {
 880:Drivers/STM32F4xx_HAL_Driver/Src/stm32f4xx_hal_spi.c ****     hspi->ErrorCode = HAL_SPI_ERROR_FLAG;
 972              		.loc 1 880 21
 973 0236 FB68     		ldr	r3, [r7, #12]
 974 0238 2022     		movs	r2, #32
 975 023a 5A65     		str	r2, [r3, #84]
 976              	.L51:
 881:Drivers/STM32F4xx_HAL_Driver/Src/stm32f4xx_hal_spi.c ****   }
 882:Drivers/STM32F4xx_HAL_Driver/Src/stm32f4xx_hal_spi.c **** 
 883:Drivers/STM32F4xx_HAL_Driver/Src/stm32f4xx_hal_spi.c ****   /* Clear overrun flag in 2 Lines communication mode because received is not read */
 884:Drivers/STM32F4xx_HAL_Driver/Src/stm32f4xx_hal_spi.c ****   if (hspi->Init.Direction == SPI_DIRECTION_2LINES)
 977              		.loc 1 884 17
 978 023c FB68     		ldr	r3, [r7, #12]
 979 023e 9B68     		ldr	r3, [r3, #8]
 980              		.loc 1 884 6
 981 0240 002B     		cmp	r3, #0
 982 0242 0AD1     		bne	.L52
 983              	.LBB2:
 885:Drivers/STM32F4xx_HAL_Driver/Src/stm32f4xx_hal_spi.c ****   {
 886:Drivers/STM32F4xx_HAL_Driver/Src/stm32f4xx_hal_spi.c ****     __HAL_SPI_CLEAR_OVRFLAG(hspi);
 984              		.loc 1 886 5
 985 0244 0023     		movs	r3, #0
 986 0246 3B61     		str	r3, [r7, #16]
 987 0248 FB68     		ldr	r3, [r7, #12]
 988 024a 1B68     		ldr	r3, [r3]
 989 024c DB68     		ldr	r3, [r3, #12]
 990 024e 3B61     		str	r3, [r7, #16]
 991 0250 FB68     		ldr	r3, [r7, #12]
 992 0252 1B68     		ldr	r3, [r3]
 993 0254 9B68     		ldr	r3, [r3, #8]
 994 0256 3B61     		str	r3, [r7, #16]
 995 0258 3B69     		ldr	r3, [r7, #16]
 996              	.L52:
ARM GAS  /tmp/cc9N7Buw.s 			page 34


 997              	.LBE2:
 887:Drivers/STM32F4xx_HAL_Driver/Src/stm32f4xx_hal_spi.c ****   }
 888:Drivers/STM32F4xx_HAL_Driver/Src/stm32f4xx_hal_spi.c **** 
 889:Drivers/STM32F4xx_HAL_Driver/Src/stm32f4xx_hal_spi.c ****   if (hspi->ErrorCode != HAL_SPI_ERROR_NONE)
 998              		.loc 1 889 11
 999 025a FB68     		ldr	r3, [r7, #12]
 1000 025c 5B6D     		ldr	r3, [r3, #84]
 1001              		.loc 1 889 6
 1002 025e 002B     		cmp	r3, #0
 1003 0260 02D0     		beq	.L53
 890:Drivers/STM32F4xx_HAL_Driver/Src/stm32f4xx_hal_spi.c ****   {
 891:Drivers/STM32F4xx_HAL_Driver/Src/stm32f4xx_hal_spi.c ****     errorcode = HAL_ERROR;
 1004              		.loc 1 891 15
 1005 0262 0123     		movs	r3, #1
 1006 0264 FB77     		strb	r3, [r7, #31]
 1007 0266 00E0     		b	.L30
 1008              	.L53:
 892:Drivers/STM32F4xx_HAL_Driver/Src/stm32f4xx_hal_spi.c ****   }
 893:Drivers/STM32F4xx_HAL_Driver/Src/stm32f4xx_hal_spi.c **** 
 894:Drivers/STM32F4xx_HAL_Driver/Src/stm32f4xx_hal_spi.c **** error:
 1009              		.loc 1 894 1
 1010 0268 00BF     		nop
 1011              	.L30:
 895:Drivers/STM32F4xx_HAL_Driver/Src/stm32f4xx_hal_spi.c ****   hspi->State = HAL_SPI_STATE_READY;
 1012              		.loc 1 895 15
 1013 026a FB68     		ldr	r3, [r7, #12]
 1014 026c 0122     		movs	r2, #1
 1015 026e 83F85120 		strb	r2, [r3, #81]
 896:Drivers/STM32F4xx_HAL_Driver/Src/stm32f4xx_hal_spi.c ****   /* Process Unlocked */
 897:Drivers/STM32F4xx_HAL_Driver/Src/stm32f4xx_hal_spi.c ****   __HAL_UNLOCK(hspi);
 1016              		.loc 1 897 3
 1017 0272 FB68     		ldr	r3, [r7, #12]
 1018 0274 0022     		movs	r2, #0
 1019 0276 83F85020 		strb	r2, [r3, #80]
 898:Drivers/STM32F4xx_HAL_Driver/Src/stm32f4xx_hal_spi.c ****   return errorcode;
 1020              		.loc 1 898 10
 1021 027a FB7F     		ldrb	r3, [r7, #31]	@ zero_extendqisi2
 1022              	.L28:
 899:Drivers/STM32F4xx_HAL_Driver/Src/stm32f4xx_hal_spi.c **** }
 1023              		.loc 1 899 1
 1024 027c 1846     		mov	r0, r3
 1025 027e 2037     		adds	r7, r7, #32
 1026              	.LCFI25:
 1027              		.cfi_def_cfa_offset 8
 1028 0280 BD46     		mov	sp, r7
 1029              	.LCFI26:
 1030              		.cfi_def_cfa_register 13
 1031              		@ sp needed
 1032 0282 80BD     		pop	{r7, pc}
 1033              	.L55:
 1034              		.align	2
 1035              	.L54:
 1036 0284 00000000 		.word	.LC0
 1037              		.cfi_endproc
 1038              	.LFE134:
 1040              		.section	.text.HAL_SPI_Receive,"ax",%progbits
 1041              		.align	1
ARM GAS  /tmp/cc9N7Buw.s 			page 35


 1042              		.global	HAL_SPI_Receive
 1043              		.syntax unified
 1044              		.thumb
 1045              		.thumb_func
 1046              		.fpu fpv4-sp-d16
 1048              	HAL_SPI_Receive:
 1049              	.LFB135:
 900:Drivers/STM32F4xx_HAL_Driver/Src/stm32f4xx_hal_spi.c **** 
 901:Drivers/STM32F4xx_HAL_Driver/Src/stm32f4xx_hal_spi.c **** /**
 902:Drivers/STM32F4xx_HAL_Driver/Src/stm32f4xx_hal_spi.c ****   * @brief  Receive an amount of data in blocking mode.
 903:Drivers/STM32F4xx_HAL_Driver/Src/stm32f4xx_hal_spi.c ****   * @param  hspi pointer to a SPI_HandleTypeDef structure that contains
 904:Drivers/STM32F4xx_HAL_Driver/Src/stm32f4xx_hal_spi.c ****   *               the configuration information for SPI module.
 905:Drivers/STM32F4xx_HAL_Driver/Src/stm32f4xx_hal_spi.c ****   * @param  pData pointer to data buffer
 906:Drivers/STM32F4xx_HAL_Driver/Src/stm32f4xx_hal_spi.c ****   * @param  Size amount of data to be received
 907:Drivers/STM32F4xx_HAL_Driver/Src/stm32f4xx_hal_spi.c ****   * @param  Timeout Timeout duration
 908:Drivers/STM32F4xx_HAL_Driver/Src/stm32f4xx_hal_spi.c ****   * @retval HAL status
 909:Drivers/STM32F4xx_HAL_Driver/Src/stm32f4xx_hal_spi.c ****   */
 910:Drivers/STM32F4xx_HAL_Driver/Src/stm32f4xx_hal_spi.c **** HAL_StatusTypeDef HAL_SPI_Receive(SPI_HandleTypeDef *hspi, uint8_t *pData, uint16_t Size, uint32_t 
 911:Drivers/STM32F4xx_HAL_Driver/Src/stm32f4xx_hal_spi.c **** {
 1050              		.loc 1 911 1
 1051              		.cfi_startproc
 1052              		@ args = 0, pretend = 0, frame = 24
 1053              		@ frame_needed = 1, uses_anonymous_args = 0
 1054 0000 80B5     		push	{r7, lr}
 1055              	.LCFI27:
 1056              		.cfi_def_cfa_offset 8
 1057              		.cfi_offset 7, -8
 1058              		.cfi_offset 14, -4
 1059 0002 88B0     		sub	sp, sp, #32
 1060              	.LCFI28:
 1061              		.cfi_def_cfa_offset 40
 1062 0004 02AF     		add	r7, sp, #8
 1063              	.LCFI29:
 1064              		.cfi_def_cfa 7, 32
 1065 0006 F860     		str	r0, [r7, #12]
 1066 0008 B960     		str	r1, [r7, #8]
 1067 000a 3B60     		str	r3, [r7]
 1068 000c 1346     		mov	r3, r2	@ movhi
 1069 000e FB80     		strh	r3, [r7, #6]	@ movhi
 912:Drivers/STM32F4xx_HAL_Driver/Src/stm32f4xx_hal_spi.c ****   uint32_t tickstart;
 913:Drivers/STM32F4xx_HAL_Driver/Src/stm32f4xx_hal_spi.c ****   HAL_StatusTypeDef errorcode = HAL_OK;
 1070              		.loc 1 913 21
 1071 0010 0023     		movs	r3, #0
 1072 0012 FB75     		strb	r3, [r7, #23]
 914:Drivers/STM32F4xx_HAL_Driver/Src/stm32f4xx_hal_spi.c **** 
 915:Drivers/STM32F4xx_HAL_Driver/Src/stm32f4xx_hal_spi.c ****   if ((hspi->Init.Mode == SPI_MODE_MASTER) && (hspi->Init.Direction == SPI_DIRECTION_2LINES))
 1073              		.loc 1 915 18
 1074 0014 FB68     		ldr	r3, [r7, #12]
 1075 0016 5B68     		ldr	r3, [r3, #4]
 1076              		.loc 1 915 6
 1077 0018 B3F5827F 		cmp	r3, #260
 1078 001c 12D1     		bne	.L57
 1079              		.loc 1 915 58 discriminator 1
 1080 001e FB68     		ldr	r3, [r7, #12]
 1081 0020 9B68     		ldr	r3, [r3, #8]
 1082              		.loc 1 915 44 discriminator 1
 1083 0022 002B     		cmp	r3, #0
ARM GAS  /tmp/cc9N7Buw.s 			page 36


 1084 0024 0ED1     		bne	.L57
 916:Drivers/STM32F4xx_HAL_Driver/Src/stm32f4xx_hal_spi.c ****   {
 917:Drivers/STM32F4xx_HAL_Driver/Src/stm32f4xx_hal_spi.c ****     hspi->State = HAL_SPI_STATE_BUSY_RX;
 1085              		.loc 1 917 17
 1086 0026 FB68     		ldr	r3, [r7, #12]
 1087 0028 0422     		movs	r2, #4
 1088 002a 83F85120 		strb	r2, [r3, #81]
 918:Drivers/STM32F4xx_HAL_Driver/Src/stm32f4xx_hal_spi.c ****     /* Call transmit-receive function to send Dummy data on Tx line and generate clock on CLK line 
 919:Drivers/STM32F4xx_HAL_Driver/Src/stm32f4xx_hal_spi.c ****     return HAL_SPI_TransmitReceive(hspi, pData, pData, Size, Timeout);
 1089              		.loc 1 919 12
 1090 002e FA88     		ldrh	r2, [r7, #6]
 1091 0030 3B68     		ldr	r3, [r7]
 1092 0032 0093     		str	r3, [sp]
 1093 0034 1346     		mov	r3, r2
 1094 0036 BA68     		ldr	r2, [r7, #8]
 1095 0038 B968     		ldr	r1, [r7, #8]
 1096 003a F868     		ldr	r0, [r7, #12]
 1097 003c FFF7FEFF 		bl	HAL_SPI_TransmitReceive
 1098 0040 0346     		mov	r3, r0
 1099 0042 E2E0     		b	.L58
 1100              	.L57:
 920:Drivers/STM32F4xx_HAL_Driver/Src/stm32f4xx_hal_spi.c ****   }
 921:Drivers/STM32F4xx_HAL_Driver/Src/stm32f4xx_hal_spi.c **** 
 922:Drivers/STM32F4xx_HAL_Driver/Src/stm32f4xx_hal_spi.c ****   /* Process Locked */
 923:Drivers/STM32F4xx_HAL_Driver/Src/stm32f4xx_hal_spi.c ****   __HAL_LOCK(hspi);
 1101              		.loc 1 923 3
 1102 0044 FB68     		ldr	r3, [r7, #12]
 1103 0046 93F85030 		ldrb	r3, [r3, #80]	@ zero_extendqisi2
 1104 004a 012B     		cmp	r3, #1
 1105 004c 01D1     		bne	.L59
 1106              		.loc 1 923 3 is_stmt 0 discriminator 1
 1107 004e 0223     		movs	r3, #2
 1108 0050 DBE0     		b	.L58
 1109              	.L59:
 1110              		.loc 1 923 3 discriminator 2
 1111 0052 FB68     		ldr	r3, [r7, #12]
 1112 0054 0122     		movs	r2, #1
 1113 0056 83F85020 		strb	r2, [r3, #80]
 924:Drivers/STM32F4xx_HAL_Driver/Src/stm32f4xx_hal_spi.c **** 
 925:Drivers/STM32F4xx_HAL_Driver/Src/stm32f4xx_hal_spi.c ****   /* Init tickstart for timeout management*/
 926:Drivers/STM32F4xx_HAL_Driver/Src/stm32f4xx_hal_spi.c ****   tickstart = HAL_GetTick();
 1114              		.loc 1 926 15 is_stmt 1 discriminator 2
 1115 005a FFF7FEFF 		bl	HAL_GetTick
 1116 005e 3861     		str	r0, [r7, #16]
 927:Drivers/STM32F4xx_HAL_Driver/Src/stm32f4xx_hal_spi.c **** 
 928:Drivers/STM32F4xx_HAL_Driver/Src/stm32f4xx_hal_spi.c ****   if (hspi->State != HAL_SPI_STATE_READY)
 1117              		.loc 1 928 11 discriminator 2
 1118 0060 FB68     		ldr	r3, [r7, #12]
 1119 0062 93F85130 		ldrb	r3, [r3, #81]
 1120 0066 DBB2     		uxtb	r3, r3
 1121              		.loc 1 928 6 discriminator 2
 1122 0068 012B     		cmp	r3, #1
 1123 006a 02D0     		beq	.L60
 929:Drivers/STM32F4xx_HAL_Driver/Src/stm32f4xx_hal_spi.c ****   {
 930:Drivers/STM32F4xx_HAL_Driver/Src/stm32f4xx_hal_spi.c ****     errorcode = HAL_BUSY;
 1124              		.loc 1 930 15
 1125 006c 0223     		movs	r3, #2
ARM GAS  /tmp/cc9N7Buw.s 			page 37


 1126 006e FB75     		strb	r3, [r7, #23]
 931:Drivers/STM32F4xx_HAL_Driver/Src/stm32f4xx_hal_spi.c ****     goto error;
 1127              		.loc 1 931 5
 1128 0070 C2E0     		b	.L61
 1129              	.L60:
 932:Drivers/STM32F4xx_HAL_Driver/Src/stm32f4xx_hal_spi.c ****   }
 933:Drivers/STM32F4xx_HAL_Driver/Src/stm32f4xx_hal_spi.c **** 
 934:Drivers/STM32F4xx_HAL_Driver/Src/stm32f4xx_hal_spi.c ****   if ((pData == NULL) || (Size == 0U))
 1130              		.loc 1 934 6
 1131 0072 BB68     		ldr	r3, [r7, #8]
 1132 0074 002B     		cmp	r3, #0
 1133 0076 02D0     		beq	.L62
 1134              		.loc 1 934 23 discriminator 1
 1135 0078 FB88     		ldrh	r3, [r7, #6]
 1136 007a 002B     		cmp	r3, #0
 1137 007c 02D1     		bne	.L63
 1138              	.L62:
 935:Drivers/STM32F4xx_HAL_Driver/Src/stm32f4xx_hal_spi.c ****   {
 936:Drivers/STM32F4xx_HAL_Driver/Src/stm32f4xx_hal_spi.c ****     errorcode = HAL_ERROR;
 1139              		.loc 1 936 15
 1140 007e 0123     		movs	r3, #1
 1141 0080 FB75     		strb	r3, [r7, #23]
 937:Drivers/STM32F4xx_HAL_Driver/Src/stm32f4xx_hal_spi.c ****     goto error;
 1142              		.loc 1 937 5
 1143 0082 B9E0     		b	.L61
 1144              	.L63:
 938:Drivers/STM32F4xx_HAL_Driver/Src/stm32f4xx_hal_spi.c ****   }
 939:Drivers/STM32F4xx_HAL_Driver/Src/stm32f4xx_hal_spi.c **** 
 940:Drivers/STM32F4xx_HAL_Driver/Src/stm32f4xx_hal_spi.c ****   /* Set the transaction information */
 941:Drivers/STM32F4xx_HAL_Driver/Src/stm32f4xx_hal_spi.c ****   hspi->State       = HAL_SPI_STATE_BUSY_RX;
 1145              		.loc 1 941 21
 1146 0084 FB68     		ldr	r3, [r7, #12]
 1147 0086 0422     		movs	r2, #4
 1148 0088 83F85120 		strb	r2, [r3, #81]
 942:Drivers/STM32F4xx_HAL_Driver/Src/stm32f4xx_hal_spi.c ****   hspi->ErrorCode   = HAL_SPI_ERROR_NONE;
 1149              		.loc 1 942 21
 1150 008c FB68     		ldr	r3, [r7, #12]
 1151 008e 0022     		movs	r2, #0
 1152 0090 5A65     		str	r2, [r3, #84]
 943:Drivers/STM32F4xx_HAL_Driver/Src/stm32f4xx_hal_spi.c ****   hspi->pRxBuffPtr  = (uint8_t *)pData;
 1153              		.loc 1 943 21
 1154 0092 FB68     		ldr	r3, [r7, #12]
 1155 0094 BA68     		ldr	r2, [r7, #8]
 1156 0096 9A63     		str	r2, [r3, #56]
 944:Drivers/STM32F4xx_HAL_Driver/Src/stm32f4xx_hal_spi.c ****   hspi->RxXferSize  = Size;
 1157              		.loc 1 944 21
 1158 0098 FB68     		ldr	r3, [r7, #12]
 1159 009a FA88     		ldrh	r2, [r7, #6]	@ movhi
 1160 009c 9A87     		strh	r2, [r3, #60]	@ movhi
 945:Drivers/STM32F4xx_HAL_Driver/Src/stm32f4xx_hal_spi.c ****   hspi->RxXferCount = Size;
 1161              		.loc 1 945 21
 1162 009e FB68     		ldr	r3, [r7, #12]
 1163 00a0 FA88     		ldrh	r2, [r7, #6]	@ movhi
 1164 00a2 DA87     		strh	r2, [r3, #62]	@ movhi
 946:Drivers/STM32F4xx_HAL_Driver/Src/stm32f4xx_hal_spi.c **** 
 947:Drivers/STM32F4xx_HAL_Driver/Src/stm32f4xx_hal_spi.c ****   /*Init field not used in handle to zero */
 948:Drivers/STM32F4xx_HAL_Driver/Src/stm32f4xx_hal_spi.c ****   hspi->pTxBuffPtr  = (uint8_t *)NULL;
ARM GAS  /tmp/cc9N7Buw.s 			page 38


 1165              		.loc 1 948 21
 1166 00a4 FB68     		ldr	r3, [r7, #12]
 1167 00a6 0022     		movs	r2, #0
 1168 00a8 1A63     		str	r2, [r3, #48]
 949:Drivers/STM32F4xx_HAL_Driver/Src/stm32f4xx_hal_spi.c ****   hspi->TxXferSize  = 0U;
 1169              		.loc 1 949 21
 1170 00aa FB68     		ldr	r3, [r7, #12]
 1171 00ac 0022     		movs	r2, #0
 1172 00ae 9A86     		strh	r2, [r3, #52]	@ movhi
 950:Drivers/STM32F4xx_HAL_Driver/Src/stm32f4xx_hal_spi.c ****   hspi->TxXferCount = 0U;
 1173              		.loc 1 950 21
 1174 00b0 FB68     		ldr	r3, [r7, #12]
 1175 00b2 0022     		movs	r2, #0
 1176 00b4 DA86     		strh	r2, [r3, #54]	@ movhi
 951:Drivers/STM32F4xx_HAL_Driver/Src/stm32f4xx_hal_spi.c ****   hspi->RxISR       = NULL;
 1177              		.loc 1 951 21
 1178 00b6 FB68     		ldr	r3, [r7, #12]
 1179 00b8 0022     		movs	r2, #0
 1180 00ba 1A64     		str	r2, [r3, #64]
 952:Drivers/STM32F4xx_HAL_Driver/Src/stm32f4xx_hal_spi.c ****   hspi->TxISR       = NULL;
 1181              		.loc 1 952 21
 1182 00bc FB68     		ldr	r3, [r7, #12]
 1183 00be 0022     		movs	r2, #0
 1184 00c0 5A64     		str	r2, [r3, #68]
 953:Drivers/STM32F4xx_HAL_Driver/Src/stm32f4xx_hal_spi.c **** 
 954:Drivers/STM32F4xx_HAL_Driver/Src/stm32f4xx_hal_spi.c **** #if (USE_SPI_CRC != 0U)
 955:Drivers/STM32F4xx_HAL_Driver/Src/stm32f4xx_hal_spi.c ****   /* Reset CRC Calculation */
 956:Drivers/STM32F4xx_HAL_Driver/Src/stm32f4xx_hal_spi.c ****   if (hspi->Init.CRCCalculation == SPI_CRCCALCULATION_ENABLE)
 957:Drivers/STM32F4xx_HAL_Driver/Src/stm32f4xx_hal_spi.c ****   {
 958:Drivers/STM32F4xx_HAL_Driver/Src/stm32f4xx_hal_spi.c ****     SPI_RESET_CRC(hspi);
 959:Drivers/STM32F4xx_HAL_Driver/Src/stm32f4xx_hal_spi.c ****     /* this is done to handle the CRCNEXT before the latest data */
 960:Drivers/STM32F4xx_HAL_Driver/Src/stm32f4xx_hal_spi.c ****     hspi->RxXferCount--;
 961:Drivers/STM32F4xx_HAL_Driver/Src/stm32f4xx_hal_spi.c ****   }
 962:Drivers/STM32F4xx_HAL_Driver/Src/stm32f4xx_hal_spi.c **** #endif /* USE_SPI_CRC */
 963:Drivers/STM32F4xx_HAL_Driver/Src/stm32f4xx_hal_spi.c **** 
 964:Drivers/STM32F4xx_HAL_Driver/Src/stm32f4xx_hal_spi.c ****   /* Configure communication direction: 1Line */
 965:Drivers/STM32F4xx_HAL_Driver/Src/stm32f4xx_hal_spi.c ****   if (hspi->Init.Direction == SPI_DIRECTION_1LINE)
 1185              		.loc 1 965 17
 1186 00c2 FB68     		ldr	r3, [r7, #12]
 1187 00c4 9B68     		ldr	r3, [r3, #8]
 1188              		.loc 1 965 6
 1189 00c6 B3F5004F 		cmp	r3, #32768
 1190 00ca 07D1     		bne	.L64
 966:Drivers/STM32F4xx_HAL_Driver/Src/stm32f4xx_hal_spi.c ****   {
 967:Drivers/STM32F4xx_HAL_Driver/Src/stm32f4xx_hal_spi.c ****     SPI_1LINE_RX(hspi);
 1191              		.loc 1 967 5
 1192 00cc FB68     		ldr	r3, [r7, #12]
 1193 00ce 1B68     		ldr	r3, [r3]
 1194 00d0 1A68     		ldr	r2, [r3]
 1195 00d2 FB68     		ldr	r3, [r7, #12]
 1196 00d4 1B68     		ldr	r3, [r3]
 1197 00d6 22F48042 		bic	r2, r2, #16384
 1198 00da 1A60     		str	r2, [r3]
 1199              	.L64:
 968:Drivers/STM32F4xx_HAL_Driver/Src/stm32f4xx_hal_spi.c ****   }
 969:Drivers/STM32F4xx_HAL_Driver/Src/stm32f4xx_hal_spi.c **** 
 970:Drivers/STM32F4xx_HAL_Driver/Src/stm32f4xx_hal_spi.c ****   /* Check if the SPI is already enabled */
ARM GAS  /tmp/cc9N7Buw.s 			page 39


 971:Drivers/STM32F4xx_HAL_Driver/Src/stm32f4xx_hal_spi.c ****   if ((hspi->Instance->CR1 & SPI_CR1_SPE) != SPI_CR1_SPE)
 1200              		.loc 1 971 12
 1201 00dc FB68     		ldr	r3, [r7, #12]
 1202 00de 1B68     		ldr	r3, [r3]
 1203              		.loc 1 971 22
 1204 00e0 1B68     		ldr	r3, [r3]
 1205              		.loc 1 971 28
 1206 00e2 03F04003 		and	r3, r3, #64
 1207              		.loc 1 971 6
 1208 00e6 402B     		cmp	r3, #64
 1209 00e8 07D0     		beq	.L65
 972:Drivers/STM32F4xx_HAL_Driver/Src/stm32f4xx_hal_spi.c ****   {
 973:Drivers/STM32F4xx_HAL_Driver/Src/stm32f4xx_hal_spi.c ****     /* Enable SPI peripheral */
 974:Drivers/STM32F4xx_HAL_Driver/Src/stm32f4xx_hal_spi.c ****     __HAL_SPI_ENABLE(hspi);
 1210              		.loc 1 974 5
 1211 00ea FB68     		ldr	r3, [r7, #12]
 1212 00ec 1B68     		ldr	r3, [r3]
 1213 00ee 1A68     		ldr	r2, [r3]
 1214 00f0 FB68     		ldr	r3, [r7, #12]
 1215 00f2 1B68     		ldr	r3, [r3]
 1216 00f4 42F04002 		orr	r2, r2, #64
 1217 00f8 1A60     		str	r2, [r3]
 1218              	.L65:
 975:Drivers/STM32F4xx_HAL_Driver/Src/stm32f4xx_hal_spi.c ****   }
 976:Drivers/STM32F4xx_HAL_Driver/Src/stm32f4xx_hal_spi.c **** 
 977:Drivers/STM32F4xx_HAL_Driver/Src/stm32f4xx_hal_spi.c ****   /* Receive data in 8 Bit mode */
 978:Drivers/STM32F4xx_HAL_Driver/Src/stm32f4xx_hal_spi.c ****   if (hspi->Init.DataSize == SPI_DATASIZE_8BIT)
 1219              		.loc 1 978 17
 1220 00fa FB68     		ldr	r3, [r7, #12]
 1221 00fc DB68     		ldr	r3, [r3, #12]
 1222              		.loc 1 978 6
 1223 00fe 002B     		cmp	r3, #0
 1224 0100 62D1     		bne	.L73
 979:Drivers/STM32F4xx_HAL_Driver/Src/stm32f4xx_hal_spi.c ****   {
 980:Drivers/STM32F4xx_HAL_Driver/Src/stm32f4xx_hal_spi.c ****     /* Transfer loop */
 981:Drivers/STM32F4xx_HAL_Driver/Src/stm32f4xx_hal_spi.c ****     while (hspi->RxXferCount > 0U)
 1225              		.loc 1 981 11
 1226 0102 2EE0     		b	.L67
 1227              	.L71:
 982:Drivers/STM32F4xx_HAL_Driver/Src/stm32f4xx_hal_spi.c ****     {
 983:Drivers/STM32F4xx_HAL_Driver/Src/stm32f4xx_hal_spi.c ****       /* Check the RXNE flag */
 984:Drivers/STM32F4xx_HAL_Driver/Src/stm32f4xx_hal_spi.c ****       if (__HAL_SPI_GET_FLAG(hspi, SPI_FLAG_RXNE))
 1228              		.loc 1 984 11
 1229 0104 FB68     		ldr	r3, [r7, #12]
 1230 0106 1B68     		ldr	r3, [r3]
 1231 0108 9B68     		ldr	r3, [r3, #8]
 1232 010a 03F00103 		and	r3, r3, #1
 1233              		.loc 1 984 10
 1234 010e 012B     		cmp	r3, #1
 1235 0110 15D1     		bne	.L68
 985:Drivers/STM32F4xx_HAL_Driver/Src/stm32f4xx_hal_spi.c ****       {
 986:Drivers/STM32F4xx_HAL_Driver/Src/stm32f4xx_hal_spi.c ****         /* read the received data */
 987:Drivers/STM32F4xx_HAL_Driver/Src/stm32f4xx_hal_spi.c ****         (* (uint8_t *)hspi->pRxBuffPtr) = *(__IO uint8_t *)&hspi->Instance->DR;
 1236              		.loc 1 987 65
 1237 0112 FB68     		ldr	r3, [r7, #12]
 1238 0114 1B68     		ldr	r3, [r3]
 1239              		.loc 1 987 60
ARM GAS  /tmp/cc9N7Buw.s 			page 40


 1240 0116 03F10C02 		add	r2, r3, #12
 1241              		.loc 1 987 27
 1242 011a FB68     		ldr	r3, [r7, #12]
 1243 011c 9B6B     		ldr	r3, [r3, #56]
 1244              		.loc 1 987 43
 1245 011e 1278     		ldrb	r2, [r2]
 1246 0120 D2B2     		uxtb	r2, r2
 1247              		.loc 1 987 41
 1248 0122 1A70     		strb	r2, [r3]
 988:Drivers/STM32F4xx_HAL_Driver/Src/stm32f4xx_hal_spi.c ****         hspi->pRxBuffPtr += sizeof(uint8_t);
 1249              		.loc 1 988 26
 1250 0124 FB68     		ldr	r3, [r7, #12]
 1251 0126 9B6B     		ldr	r3, [r3, #56]
 1252 0128 5A1C     		adds	r2, r3, #1
 1253 012a FB68     		ldr	r3, [r7, #12]
 1254 012c 9A63     		str	r2, [r3, #56]
 989:Drivers/STM32F4xx_HAL_Driver/Src/stm32f4xx_hal_spi.c ****         hspi->RxXferCount--;
 1255              		.loc 1 989 13
 1256 012e FB68     		ldr	r3, [r7, #12]
 1257 0130 DB8F     		ldrh	r3, [r3, #62]	@ movhi
 1258 0132 9BB2     		uxth	r3, r3
 1259              		.loc 1 989 26
 1260 0134 013B     		subs	r3, r3, #1
 1261 0136 9AB2     		uxth	r2, r3
 1262 0138 FB68     		ldr	r3, [r7, #12]
 1263 013a DA87     		strh	r2, [r3, #62]	@ movhi
 1264 013c 11E0     		b	.L67
 1265              	.L68:
 990:Drivers/STM32F4xx_HAL_Driver/Src/stm32f4xx_hal_spi.c ****       }
 991:Drivers/STM32F4xx_HAL_Driver/Src/stm32f4xx_hal_spi.c ****       else
 992:Drivers/STM32F4xx_HAL_Driver/Src/stm32f4xx_hal_spi.c ****       {
 993:Drivers/STM32F4xx_HAL_Driver/Src/stm32f4xx_hal_spi.c ****         /* Timeout management */
 994:Drivers/STM32F4xx_HAL_Driver/Src/stm32f4xx_hal_spi.c ****         if ((((HAL_GetTick() - tickstart) >=  Timeout) && (Timeout != HAL_MAX_DELAY)) || (Timeout =
 1266              		.loc 1 994 16
 1267 013e FFF7FEFF 		bl	HAL_GetTick
 1268 0142 0246     		mov	r2, r0
 1269              		.loc 1 994 30
 1270 0144 3B69     		ldr	r3, [r7, #16]
 1271 0146 D31A     		subs	r3, r2, r3
 1272              		.loc 1 994 12
 1273 0148 3A68     		ldr	r2, [r7]
 1274 014a 9A42     		cmp	r2, r3
 1275 014c 03D8     		bhi	.L69
 1276              		.loc 1 994 56 discriminator 1
 1277 014e 3B68     		ldr	r3, [r7]
 1278 0150 B3F1FF3F 		cmp	r3, #-1
 1279 0154 02D1     		bne	.L70
 1280              	.L69:
 1281              		.loc 1 994 87 discriminator 3
 1282 0156 3B68     		ldr	r3, [r7]
 1283 0158 002B     		cmp	r3, #0
 1284 015a 02D1     		bne	.L67
 1285              	.L70:
 995:Drivers/STM32F4xx_HAL_Driver/Src/stm32f4xx_hal_spi.c ****         {
 996:Drivers/STM32F4xx_HAL_Driver/Src/stm32f4xx_hal_spi.c ****           errorcode = HAL_TIMEOUT;
 1286              		.loc 1 996 21
 1287 015c 0323     		movs	r3, #3
ARM GAS  /tmp/cc9N7Buw.s 			page 41


 1288 015e FB75     		strb	r3, [r7, #23]
 997:Drivers/STM32F4xx_HAL_Driver/Src/stm32f4xx_hal_spi.c ****           goto error;
 1289              		.loc 1 997 11
 1290 0160 4AE0     		b	.L61
 1291              	.L67:
 981:Drivers/STM32F4xx_HAL_Driver/Src/stm32f4xx_hal_spi.c ****     {
 1292              		.loc 1 981 16
 1293 0162 FB68     		ldr	r3, [r7, #12]
 1294 0164 DB8F     		ldrh	r3, [r3, #62]	@ movhi
 1295 0166 9BB2     		uxth	r3, r3
 981:Drivers/STM32F4xx_HAL_Driver/Src/stm32f4xx_hal_spi.c ****     {
 1296              		.loc 1 981 11
 1297 0168 002B     		cmp	r3, #0
 1298 016a CBD1     		bne	.L71
 1299 016c 31E0     		b	.L72
 1300              	.L77:
 998:Drivers/STM32F4xx_HAL_Driver/Src/stm32f4xx_hal_spi.c ****         }
 999:Drivers/STM32F4xx_HAL_Driver/Src/stm32f4xx_hal_spi.c ****       }
1000:Drivers/STM32F4xx_HAL_Driver/Src/stm32f4xx_hal_spi.c ****     }
1001:Drivers/STM32F4xx_HAL_Driver/Src/stm32f4xx_hal_spi.c ****   }
1002:Drivers/STM32F4xx_HAL_Driver/Src/stm32f4xx_hal_spi.c ****   else
1003:Drivers/STM32F4xx_HAL_Driver/Src/stm32f4xx_hal_spi.c ****   {
1004:Drivers/STM32F4xx_HAL_Driver/Src/stm32f4xx_hal_spi.c ****     /* Transfer loop */
1005:Drivers/STM32F4xx_HAL_Driver/Src/stm32f4xx_hal_spi.c ****     while (hspi->RxXferCount > 0U)
1006:Drivers/STM32F4xx_HAL_Driver/Src/stm32f4xx_hal_spi.c ****     {
1007:Drivers/STM32F4xx_HAL_Driver/Src/stm32f4xx_hal_spi.c ****       /* Check the RXNE flag */
1008:Drivers/STM32F4xx_HAL_Driver/Src/stm32f4xx_hal_spi.c ****       if (__HAL_SPI_GET_FLAG(hspi, SPI_FLAG_RXNE))
 1301              		.loc 1 1008 11
 1302 016e FB68     		ldr	r3, [r7, #12]
 1303 0170 1B68     		ldr	r3, [r3]
 1304 0172 9B68     		ldr	r3, [r3, #8]
 1305 0174 03F00103 		and	r3, r3, #1
 1306              		.loc 1 1008 10
 1307 0178 012B     		cmp	r3, #1
 1308 017a 13D1     		bne	.L74
1009:Drivers/STM32F4xx_HAL_Driver/Src/stm32f4xx_hal_spi.c ****       {
1010:Drivers/STM32F4xx_HAL_Driver/Src/stm32f4xx_hal_spi.c ****         *((uint16_t *)hspi->pRxBuffPtr) = (uint16_t)hspi->Instance->DR;
 1309              		.loc 1 1010 57
 1310 017c FB68     		ldr	r3, [r7, #12]
 1311 017e 1B68     		ldr	r3, [r3]
 1312              		.loc 1 1010 67
 1313 0180 DA68     		ldr	r2, [r3, #12]
 1314              		.loc 1 1010 27
 1315 0182 FB68     		ldr	r3, [r7, #12]
 1316 0184 9B6B     		ldr	r3, [r3, #56]
 1317              		.loc 1 1010 43
 1318 0186 92B2     		uxth	r2, r2
 1319              		.loc 1 1010 41
 1320 0188 1A80     		strh	r2, [r3]	@ movhi
1011:Drivers/STM32F4xx_HAL_Driver/Src/stm32f4xx_hal_spi.c ****         hspi->pRxBuffPtr += sizeof(uint16_t);
 1321              		.loc 1 1011 26
 1322 018a FB68     		ldr	r3, [r7, #12]
 1323 018c 9B6B     		ldr	r3, [r3, #56]
 1324 018e 9A1C     		adds	r2, r3, #2
 1325 0190 FB68     		ldr	r3, [r7, #12]
 1326 0192 9A63     		str	r2, [r3, #56]
1012:Drivers/STM32F4xx_HAL_Driver/Src/stm32f4xx_hal_spi.c ****         hspi->RxXferCount--;
ARM GAS  /tmp/cc9N7Buw.s 			page 42


 1327              		.loc 1 1012 13
 1328 0194 FB68     		ldr	r3, [r7, #12]
 1329 0196 DB8F     		ldrh	r3, [r3, #62]	@ movhi
 1330 0198 9BB2     		uxth	r3, r3
 1331              		.loc 1 1012 26
 1332 019a 013B     		subs	r3, r3, #1
 1333 019c 9AB2     		uxth	r2, r3
 1334 019e FB68     		ldr	r3, [r7, #12]
 1335 01a0 DA87     		strh	r2, [r3, #62]	@ movhi
 1336 01a2 11E0     		b	.L73
 1337              	.L74:
1013:Drivers/STM32F4xx_HAL_Driver/Src/stm32f4xx_hal_spi.c ****       }
1014:Drivers/STM32F4xx_HAL_Driver/Src/stm32f4xx_hal_spi.c ****       else
1015:Drivers/STM32F4xx_HAL_Driver/Src/stm32f4xx_hal_spi.c ****       {
1016:Drivers/STM32F4xx_HAL_Driver/Src/stm32f4xx_hal_spi.c ****         /* Timeout management */
1017:Drivers/STM32F4xx_HAL_Driver/Src/stm32f4xx_hal_spi.c ****         if ((((HAL_GetTick() - tickstart) >=  Timeout) && (Timeout != HAL_MAX_DELAY)) || (Timeout =
 1338              		.loc 1 1017 16
 1339 01a4 FFF7FEFF 		bl	HAL_GetTick
 1340 01a8 0246     		mov	r2, r0
 1341              		.loc 1 1017 30
 1342 01aa 3B69     		ldr	r3, [r7, #16]
 1343 01ac D31A     		subs	r3, r2, r3
 1344              		.loc 1 1017 12
 1345 01ae 3A68     		ldr	r2, [r7]
 1346 01b0 9A42     		cmp	r2, r3
 1347 01b2 03D8     		bhi	.L75
 1348              		.loc 1 1017 56 discriminator 1
 1349 01b4 3B68     		ldr	r3, [r7]
 1350 01b6 B3F1FF3F 		cmp	r3, #-1
 1351 01ba 02D1     		bne	.L76
 1352              	.L75:
 1353              		.loc 1 1017 87 discriminator 3
 1354 01bc 3B68     		ldr	r3, [r7]
 1355 01be 002B     		cmp	r3, #0
 1356 01c0 02D1     		bne	.L73
 1357              	.L76:
1018:Drivers/STM32F4xx_HAL_Driver/Src/stm32f4xx_hal_spi.c ****         {
1019:Drivers/STM32F4xx_HAL_Driver/Src/stm32f4xx_hal_spi.c ****           errorcode = HAL_TIMEOUT;
 1358              		.loc 1 1019 21
 1359 01c2 0323     		movs	r3, #3
 1360 01c4 FB75     		strb	r3, [r7, #23]
1020:Drivers/STM32F4xx_HAL_Driver/Src/stm32f4xx_hal_spi.c ****           goto error;
 1361              		.loc 1 1020 11
 1362 01c6 17E0     		b	.L61
 1363              	.L73:
1005:Drivers/STM32F4xx_HAL_Driver/Src/stm32f4xx_hal_spi.c ****     {
 1364              		.loc 1 1005 16
 1365 01c8 FB68     		ldr	r3, [r7, #12]
 1366 01ca DB8F     		ldrh	r3, [r3, #62]	@ movhi
 1367 01cc 9BB2     		uxth	r3, r3
1005:Drivers/STM32F4xx_HAL_Driver/Src/stm32f4xx_hal_spi.c ****     {
 1368              		.loc 1 1005 11
 1369 01ce 002B     		cmp	r3, #0
 1370 01d0 CDD1     		bne	.L77
 1371              	.L72:
1021:Drivers/STM32F4xx_HAL_Driver/Src/stm32f4xx_hal_spi.c ****         }
1022:Drivers/STM32F4xx_HAL_Driver/Src/stm32f4xx_hal_spi.c ****       }
ARM GAS  /tmp/cc9N7Buw.s 			page 43


1023:Drivers/STM32F4xx_HAL_Driver/Src/stm32f4xx_hal_spi.c ****     }
1024:Drivers/STM32F4xx_HAL_Driver/Src/stm32f4xx_hal_spi.c ****   }
1025:Drivers/STM32F4xx_HAL_Driver/Src/stm32f4xx_hal_spi.c **** 
1026:Drivers/STM32F4xx_HAL_Driver/Src/stm32f4xx_hal_spi.c **** #if (USE_SPI_CRC != 0U)
1027:Drivers/STM32F4xx_HAL_Driver/Src/stm32f4xx_hal_spi.c ****   /* Handle the CRC Transmission */
1028:Drivers/STM32F4xx_HAL_Driver/Src/stm32f4xx_hal_spi.c ****   if (hspi->Init.CRCCalculation == SPI_CRCCALCULATION_ENABLE)
1029:Drivers/STM32F4xx_HAL_Driver/Src/stm32f4xx_hal_spi.c ****   {
1030:Drivers/STM32F4xx_HAL_Driver/Src/stm32f4xx_hal_spi.c ****     /* freeze the CRC before the latest data */
1031:Drivers/STM32F4xx_HAL_Driver/Src/stm32f4xx_hal_spi.c ****     SET_BIT(hspi->Instance->CR1, SPI_CR1_CRCNEXT);
1032:Drivers/STM32F4xx_HAL_Driver/Src/stm32f4xx_hal_spi.c **** 
1033:Drivers/STM32F4xx_HAL_Driver/Src/stm32f4xx_hal_spi.c ****     /* Read the latest data */
1034:Drivers/STM32F4xx_HAL_Driver/Src/stm32f4xx_hal_spi.c ****     if (SPI_WaitFlagStateUntilTimeout(hspi, SPI_FLAG_RXNE, SET, Timeout, tickstart) != HAL_OK)
1035:Drivers/STM32F4xx_HAL_Driver/Src/stm32f4xx_hal_spi.c ****     {
1036:Drivers/STM32F4xx_HAL_Driver/Src/stm32f4xx_hal_spi.c ****       /* the latest data has not been received */
1037:Drivers/STM32F4xx_HAL_Driver/Src/stm32f4xx_hal_spi.c ****       errorcode = HAL_TIMEOUT;
1038:Drivers/STM32F4xx_HAL_Driver/Src/stm32f4xx_hal_spi.c ****       goto error;
1039:Drivers/STM32F4xx_HAL_Driver/Src/stm32f4xx_hal_spi.c ****     }
1040:Drivers/STM32F4xx_HAL_Driver/Src/stm32f4xx_hal_spi.c **** 
1041:Drivers/STM32F4xx_HAL_Driver/Src/stm32f4xx_hal_spi.c ****     /* Receive last data in 16 Bit mode */
1042:Drivers/STM32F4xx_HAL_Driver/Src/stm32f4xx_hal_spi.c ****     if (hspi->Init.DataSize == SPI_DATASIZE_16BIT)
1043:Drivers/STM32F4xx_HAL_Driver/Src/stm32f4xx_hal_spi.c ****     {
1044:Drivers/STM32F4xx_HAL_Driver/Src/stm32f4xx_hal_spi.c ****       *((uint16_t *)hspi->pRxBuffPtr) = (uint16_t)hspi->Instance->DR;
1045:Drivers/STM32F4xx_HAL_Driver/Src/stm32f4xx_hal_spi.c ****     }
1046:Drivers/STM32F4xx_HAL_Driver/Src/stm32f4xx_hal_spi.c ****     /* Receive last data in 8 Bit mode */
1047:Drivers/STM32F4xx_HAL_Driver/Src/stm32f4xx_hal_spi.c ****     else
1048:Drivers/STM32F4xx_HAL_Driver/Src/stm32f4xx_hal_spi.c ****     {
1049:Drivers/STM32F4xx_HAL_Driver/Src/stm32f4xx_hal_spi.c ****       (*(uint8_t *)hspi->pRxBuffPtr) = *(__IO uint8_t *)&hspi->Instance->DR;
1050:Drivers/STM32F4xx_HAL_Driver/Src/stm32f4xx_hal_spi.c ****     }
1051:Drivers/STM32F4xx_HAL_Driver/Src/stm32f4xx_hal_spi.c **** 
1052:Drivers/STM32F4xx_HAL_Driver/Src/stm32f4xx_hal_spi.c ****     /* Wait the CRC data */
1053:Drivers/STM32F4xx_HAL_Driver/Src/stm32f4xx_hal_spi.c ****     if (SPI_WaitFlagStateUntilTimeout(hspi, SPI_FLAG_RXNE, SET, Timeout, tickstart) != HAL_OK)
1054:Drivers/STM32F4xx_HAL_Driver/Src/stm32f4xx_hal_spi.c ****     {
1055:Drivers/STM32F4xx_HAL_Driver/Src/stm32f4xx_hal_spi.c ****       SET_BIT(hspi->ErrorCode, HAL_SPI_ERROR_CRC);
1056:Drivers/STM32F4xx_HAL_Driver/Src/stm32f4xx_hal_spi.c ****       errorcode = HAL_TIMEOUT;
1057:Drivers/STM32F4xx_HAL_Driver/Src/stm32f4xx_hal_spi.c ****       goto error;
1058:Drivers/STM32F4xx_HAL_Driver/Src/stm32f4xx_hal_spi.c ****     }
1059:Drivers/STM32F4xx_HAL_Driver/Src/stm32f4xx_hal_spi.c **** 
1060:Drivers/STM32F4xx_HAL_Driver/Src/stm32f4xx_hal_spi.c ****     /* Read CRC to Flush DR and RXNE flag */
1061:Drivers/STM32F4xx_HAL_Driver/Src/stm32f4xx_hal_spi.c ****     READ_REG(hspi->Instance->DR);
1062:Drivers/STM32F4xx_HAL_Driver/Src/stm32f4xx_hal_spi.c ****   }
1063:Drivers/STM32F4xx_HAL_Driver/Src/stm32f4xx_hal_spi.c **** #endif /* USE_SPI_CRC */
1064:Drivers/STM32F4xx_HAL_Driver/Src/stm32f4xx_hal_spi.c **** 
1065:Drivers/STM32F4xx_HAL_Driver/Src/stm32f4xx_hal_spi.c ****   /* Check the end of the transaction */
1066:Drivers/STM32F4xx_HAL_Driver/Src/stm32f4xx_hal_spi.c ****   if (SPI_EndRxTransaction(hspi, Timeout, tickstart) != HAL_OK)
 1372              		.loc 1 1066 7
 1373 01d2 3A69     		ldr	r2, [r7, #16]
 1374 01d4 3968     		ldr	r1, [r7]
 1375 01d6 F868     		ldr	r0, [r7, #12]
 1376 01d8 FFF7FEFF 		bl	SPI_EndRxTransaction
 1377 01dc 0346     		mov	r3, r0
 1378              		.loc 1 1066 6
 1379 01de 002B     		cmp	r3, #0
 1380 01e0 02D0     		beq	.L78
1067:Drivers/STM32F4xx_HAL_Driver/Src/stm32f4xx_hal_spi.c ****   {
1068:Drivers/STM32F4xx_HAL_Driver/Src/stm32f4xx_hal_spi.c ****     hspi->ErrorCode = HAL_SPI_ERROR_FLAG;
 1381              		.loc 1 1068 21
 1382 01e2 FB68     		ldr	r3, [r7, #12]
ARM GAS  /tmp/cc9N7Buw.s 			page 44


 1383 01e4 2022     		movs	r2, #32
 1384 01e6 5A65     		str	r2, [r3, #84]
 1385              	.L78:
1069:Drivers/STM32F4xx_HAL_Driver/Src/stm32f4xx_hal_spi.c ****   }
1070:Drivers/STM32F4xx_HAL_Driver/Src/stm32f4xx_hal_spi.c **** 
1071:Drivers/STM32F4xx_HAL_Driver/Src/stm32f4xx_hal_spi.c **** #if (USE_SPI_CRC != 0U)
1072:Drivers/STM32F4xx_HAL_Driver/Src/stm32f4xx_hal_spi.c ****   /* Check if CRC error occurred */
1073:Drivers/STM32F4xx_HAL_Driver/Src/stm32f4xx_hal_spi.c ****   if (__HAL_SPI_GET_FLAG(hspi, SPI_FLAG_CRCERR))
1074:Drivers/STM32F4xx_HAL_Driver/Src/stm32f4xx_hal_spi.c ****   {
1075:Drivers/STM32F4xx_HAL_Driver/Src/stm32f4xx_hal_spi.c ****     SET_BIT(hspi->ErrorCode, HAL_SPI_ERROR_CRC);
1076:Drivers/STM32F4xx_HAL_Driver/Src/stm32f4xx_hal_spi.c ****     __HAL_SPI_CLEAR_CRCERRFLAG(hspi);
1077:Drivers/STM32F4xx_HAL_Driver/Src/stm32f4xx_hal_spi.c ****   }
1078:Drivers/STM32F4xx_HAL_Driver/Src/stm32f4xx_hal_spi.c **** #endif /* USE_SPI_CRC */
1079:Drivers/STM32F4xx_HAL_Driver/Src/stm32f4xx_hal_spi.c **** 
1080:Drivers/STM32F4xx_HAL_Driver/Src/stm32f4xx_hal_spi.c ****   if (hspi->ErrorCode != HAL_SPI_ERROR_NONE)
 1386              		.loc 1 1080 11
 1387 01e8 FB68     		ldr	r3, [r7, #12]
 1388 01ea 5B6D     		ldr	r3, [r3, #84]
 1389              		.loc 1 1080 6
 1390 01ec 002B     		cmp	r3, #0
 1391 01ee 02D0     		beq	.L79
1081:Drivers/STM32F4xx_HAL_Driver/Src/stm32f4xx_hal_spi.c ****   {
1082:Drivers/STM32F4xx_HAL_Driver/Src/stm32f4xx_hal_spi.c ****     errorcode = HAL_ERROR;
 1392              		.loc 1 1082 15
 1393 01f0 0123     		movs	r3, #1
 1394 01f2 FB75     		strb	r3, [r7, #23]
 1395 01f4 00E0     		b	.L61
 1396              	.L79:
1083:Drivers/STM32F4xx_HAL_Driver/Src/stm32f4xx_hal_spi.c ****   }
1084:Drivers/STM32F4xx_HAL_Driver/Src/stm32f4xx_hal_spi.c **** 
1085:Drivers/STM32F4xx_HAL_Driver/Src/stm32f4xx_hal_spi.c **** error :
 1397              		.loc 1 1085 1
 1398 01f6 00BF     		nop
 1399              	.L61:
1086:Drivers/STM32F4xx_HAL_Driver/Src/stm32f4xx_hal_spi.c ****   hspi->State = HAL_SPI_STATE_READY;
 1400              		.loc 1 1086 15
 1401 01f8 FB68     		ldr	r3, [r7, #12]
 1402 01fa 0122     		movs	r2, #1
 1403 01fc 83F85120 		strb	r2, [r3, #81]
1087:Drivers/STM32F4xx_HAL_Driver/Src/stm32f4xx_hal_spi.c ****   __HAL_UNLOCK(hspi);
 1404              		.loc 1 1087 3
 1405 0200 FB68     		ldr	r3, [r7, #12]
 1406 0202 0022     		movs	r2, #0
 1407 0204 83F85020 		strb	r2, [r3, #80]
1088:Drivers/STM32F4xx_HAL_Driver/Src/stm32f4xx_hal_spi.c ****   return errorcode;
 1408              		.loc 1 1088 10
 1409 0208 FB7D     		ldrb	r3, [r7, #23]	@ zero_extendqisi2
 1410              	.L58:
1089:Drivers/STM32F4xx_HAL_Driver/Src/stm32f4xx_hal_spi.c **** }
 1411              		.loc 1 1089 1
 1412 020a 1846     		mov	r0, r3
 1413 020c 1837     		adds	r7, r7, #24
 1414              	.LCFI30:
 1415              		.cfi_def_cfa_offset 8
 1416 020e BD46     		mov	sp, r7
 1417              	.LCFI31:
 1418              		.cfi_def_cfa_register 13
ARM GAS  /tmp/cc9N7Buw.s 			page 45


 1419              		@ sp needed
 1420 0210 80BD     		pop	{r7, pc}
 1421              		.cfi_endproc
 1422              	.LFE135:
 1424              		.section	.text.HAL_SPI_TransmitReceive,"ax",%progbits
 1425              		.align	1
 1426              		.global	HAL_SPI_TransmitReceive
 1427              		.syntax unified
 1428              		.thumb
 1429              		.thumb_func
 1430              		.fpu fpv4-sp-d16
 1432              	HAL_SPI_TransmitReceive:
 1433              	.LFB136:
1090:Drivers/STM32F4xx_HAL_Driver/Src/stm32f4xx_hal_spi.c **** 
1091:Drivers/STM32F4xx_HAL_Driver/Src/stm32f4xx_hal_spi.c **** /**
1092:Drivers/STM32F4xx_HAL_Driver/Src/stm32f4xx_hal_spi.c ****   * @brief  Transmit and Receive an amount of data in blocking mode.
1093:Drivers/STM32F4xx_HAL_Driver/Src/stm32f4xx_hal_spi.c ****   * @param  hspi pointer to a SPI_HandleTypeDef structure that contains
1094:Drivers/STM32F4xx_HAL_Driver/Src/stm32f4xx_hal_spi.c ****   *               the configuration information for SPI module.
1095:Drivers/STM32F4xx_HAL_Driver/Src/stm32f4xx_hal_spi.c ****   * @param  pTxData pointer to transmission data buffer
1096:Drivers/STM32F4xx_HAL_Driver/Src/stm32f4xx_hal_spi.c ****   * @param  pRxData pointer to reception data buffer
1097:Drivers/STM32F4xx_HAL_Driver/Src/stm32f4xx_hal_spi.c ****   * @param  Size amount of data to be sent and received
1098:Drivers/STM32F4xx_HAL_Driver/Src/stm32f4xx_hal_spi.c ****   * @param  Timeout Timeout duration
1099:Drivers/STM32F4xx_HAL_Driver/Src/stm32f4xx_hal_spi.c ****   * @retval HAL status
1100:Drivers/STM32F4xx_HAL_Driver/Src/stm32f4xx_hal_spi.c ****   */
1101:Drivers/STM32F4xx_HAL_Driver/Src/stm32f4xx_hal_spi.c **** HAL_StatusTypeDef HAL_SPI_TransmitReceive(SPI_HandleTypeDef *hspi, uint8_t *pTxData, uint8_t *pRxDa
1102:Drivers/STM32F4xx_HAL_Driver/Src/stm32f4xx_hal_spi.c ****                                           uint32_t Timeout)
1103:Drivers/STM32F4xx_HAL_Driver/Src/stm32f4xx_hal_spi.c **** {
 1434              		.loc 1 1103 1
 1435              		.cfi_startproc
 1436              		@ args = 4, pretend = 0, frame = 48
 1437              		@ frame_needed = 1, uses_anonymous_args = 0
 1438 0000 80B5     		push	{r7, lr}
 1439              	.LCFI32:
 1440              		.cfi_def_cfa_offset 8
 1441              		.cfi_offset 7, -8
 1442              		.cfi_offset 14, -4
 1443 0002 8CB0     		sub	sp, sp, #48
 1444              	.LCFI33:
 1445              		.cfi_def_cfa_offset 56
 1446 0004 00AF     		add	r7, sp, #0
 1447              	.LCFI34:
 1448              		.cfi_def_cfa_register 7
 1449 0006 F860     		str	r0, [r7, #12]
 1450 0008 B960     		str	r1, [r7, #8]
 1451 000a 7A60     		str	r2, [r7, #4]
 1452 000c 7B80     		strh	r3, [r7, #2]	@ movhi
1104:Drivers/STM32F4xx_HAL_Driver/Src/stm32f4xx_hal_spi.c ****   uint16_t             initial_TxXferCount;
1105:Drivers/STM32F4xx_HAL_Driver/Src/stm32f4xx_hal_spi.c ****   uint32_t             tmp_mode;
1106:Drivers/STM32F4xx_HAL_Driver/Src/stm32f4xx_hal_spi.c ****   HAL_SPI_StateTypeDef tmp_state;
1107:Drivers/STM32F4xx_HAL_Driver/Src/stm32f4xx_hal_spi.c ****   uint32_t             tickstart;
1108:Drivers/STM32F4xx_HAL_Driver/Src/stm32f4xx_hal_spi.c **** 
1109:Drivers/STM32F4xx_HAL_Driver/Src/stm32f4xx_hal_spi.c ****   /* Variable used to alternate Rx and Tx during transfer */
1110:Drivers/STM32F4xx_HAL_Driver/Src/stm32f4xx_hal_spi.c ****   uint32_t             txallowed = 1U;
 1453              		.loc 1 1110 24
 1454 000e 0123     		movs	r3, #1
 1455 0010 FB62     		str	r3, [r7, #44]
1111:Drivers/STM32F4xx_HAL_Driver/Src/stm32f4xx_hal_spi.c ****   HAL_StatusTypeDef    errorcode = HAL_OK;
ARM GAS  /tmp/cc9N7Buw.s 			page 46


 1456              		.loc 1 1111 24
 1457 0012 0023     		movs	r3, #0
 1458 0014 87F82B30 		strb	r3, [r7, #43]
1112:Drivers/STM32F4xx_HAL_Driver/Src/stm32f4xx_hal_spi.c **** 
1113:Drivers/STM32F4xx_HAL_Driver/Src/stm32f4xx_hal_spi.c ****   /* Check Direction parameter */
1114:Drivers/STM32F4xx_HAL_Driver/Src/stm32f4xx_hal_spi.c ****   assert_param(IS_SPI_DIRECTION_2LINES(hspi->Init.Direction));
 1459              		.loc 1 1114 3
 1460 0018 FB68     		ldr	r3, [r7, #12]
 1461 001a 9B68     		ldr	r3, [r3, #8]
 1462 001c 002B     		cmp	r3, #0
 1463 001e 04D0     		beq	.L81
 1464              		.loc 1 1114 3 is_stmt 0 discriminator 1
 1465 0020 40F25A41 		movw	r1, #1114
 1466 0024 8448     		ldr	r0, .L109
 1467 0026 FFF7FEFF 		bl	assert_failed
 1468              	.L81:
1115:Drivers/STM32F4xx_HAL_Driver/Src/stm32f4xx_hal_spi.c **** 
1116:Drivers/STM32F4xx_HAL_Driver/Src/stm32f4xx_hal_spi.c ****   /* Process Locked */
1117:Drivers/STM32F4xx_HAL_Driver/Src/stm32f4xx_hal_spi.c ****   __HAL_LOCK(hspi);
 1469              		.loc 1 1117 3 is_stmt 1
 1470 002a FB68     		ldr	r3, [r7, #12]
 1471 002c 93F85030 		ldrb	r3, [r3, #80]	@ zero_extendqisi2
 1472 0030 012B     		cmp	r3, #1
 1473 0032 01D1     		bne	.L82
 1474              		.loc 1 1117 3 is_stmt 0 discriminator 1
 1475 0034 0223     		movs	r3, #2
 1476 0036 8DE1     		b	.L83
 1477              	.L82:
 1478              		.loc 1 1117 3 discriminator 2
 1479 0038 FB68     		ldr	r3, [r7, #12]
 1480 003a 0122     		movs	r2, #1
 1481 003c 83F85020 		strb	r2, [r3, #80]
1118:Drivers/STM32F4xx_HAL_Driver/Src/stm32f4xx_hal_spi.c **** 
1119:Drivers/STM32F4xx_HAL_Driver/Src/stm32f4xx_hal_spi.c ****   /* Init tickstart for timeout management*/
1120:Drivers/STM32F4xx_HAL_Driver/Src/stm32f4xx_hal_spi.c ****   tickstart = HAL_GetTick();
 1482              		.loc 1 1120 15 is_stmt 1 discriminator 2
 1483 0040 FFF7FEFF 		bl	HAL_GetTick
 1484 0044 7862     		str	r0, [r7, #36]
1121:Drivers/STM32F4xx_HAL_Driver/Src/stm32f4xx_hal_spi.c **** 
1122:Drivers/STM32F4xx_HAL_Driver/Src/stm32f4xx_hal_spi.c ****   /* Init temporary variables */
1123:Drivers/STM32F4xx_HAL_Driver/Src/stm32f4xx_hal_spi.c ****   tmp_state           = hspi->State;
 1485              		.loc 1 1123 23 discriminator 2
 1486 0046 FB68     		ldr	r3, [r7, #12]
 1487 0048 93F85130 		ldrb	r3, [r3, #81]
 1488 004c 87F82330 		strb	r3, [r7, #35]
1124:Drivers/STM32F4xx_HAL_Driver/Src/stm32f4xx_hal_spi.c ****   tmp_mode            = hspi->Init.Mode;
 1489              		.loc 1 1124 23 discriminator 2
 1490 0050 FB68     		ldr	r3, [r7, #12]
 1491 0052 5B68     		ldr	r3, [r3, #4]
 1492 0054 FB61     		str	r3, [r7, #28]
1125:Drivers/STM32F4xx_HAL_Driver/Src/stm32f4xx_hal_spi.c ****   initial_TxXferCount = Size;
 1493              		.loc 1 1125 23 discriminator 2
 1494 0056 7B88     		ldrh	r3, [r7, #2]	@ movhi
 1495 0058 7B83     		strh	r3, [r7, #26]	@ movhi
1126:Drivers/STM32F4xx_HAL_Driver/Src/stm32f4xx_hal_spi.c **** 
1127:Drivers/STM32F4xx_HAL_Driver/Src/stm32f4xx_hal_spi.c ****   if (!((tmp_state == HAL_SPI_STATE_READY) || \
 1496              		.loc 1 1127 6 discriminator 2
ARM GAS  /tmp/cc9N7Buw.s 			page 47


 1497 005a 97F82330 		ldrb	r3, [r7, #35]	@ zero_extendqisi2
 1498 005e 012B     		cmp	r3, #1
 1499 0060 0FD0     		beq	.L84
 1500              		.loc 1 1127 7 discriminator 1
 1501 0062 FB69     		ldr	r3, [r7, #28]
 1502 0064 B3F5827F 		cmp	r3, #260
 1503 0068 07D1     		bne	.L85
1128:Drivers/STM32F4xx_HAL_Driver/Src/stm32f4xx_hal_spi.c ****         ((tmp_mode == SPI_MODE_MASTER) && (hspi->Init.Direction == SPI_DIRECTION_2LINES) && (tmp_st
 1504              		.loc 1 1128 54
 1505 006a FB68     		ldr	r3, [r7, #12]
 1506 006c 9B68     		ldr	r3, [r3, #8]
 1507              		.loc 1 1128 40
 1508 006e 002B     		cmp	r3, #0
 1509 0070 03D1     		bne	.L85
 1510              		.loc 1 1128 90 discriminator 1
 1511 0072 97F82330 		ldrb	r3, [r7, #35]	@ zero_extendqisi2
 1512 0076 042B     		cmp	r3, #4
 1513 0078 03D0     		beq	.L84
 1514              	.L85:
1129:Drivers/STM32F4xx_HAL_Driver/Src/stm32f4xx_hal_spi.c ****   {
1130:Drivers/STM32F4xx_HAL_Driver/Src/stm32f4xx_hal_spi.c ****     errorcode = HAL_BUSY;
 1515              		.loc 1 1130 15
 1516 007a 0223     		movs	r3, #2
 1517 007c 87F82B30 		strb	r3, [r7, #43]
1131:Drivers/STM32F4xx_HAL_Driver/Src/stm32f4xx_hal_spi.c ****     goto error;
 1518              		.loc 1 1131 5
 1519 0080 5EE1     		b	.L86
 1520              	.L84:
1132:Drivers/STM32F4xx_HAL_Driver/Src/stm32f4xx_hal_spi.c ****   }
1133:Drivers/STM32F4xx_HAL_Driver/Src/stm32f4xx_hal_spi.c **** 
1134:Drivers/STM32F4xx_HAL_Driver/Src/stm32f4xx_hal_spi.c ****   if ((pTxData == NULL) || (pRxData == NULL) || (Size == 0U))
 1521              		.loc 1 1134 6
 1522 0082 BB68     		ldr	r3, [r7, #8]
 1523 0084 002B     		cmp	r3, #0
 1524 0086 05D0     		beq	.L87
 1525              		.loc 1 1134 25 discriminator 1
 1526 0088 7B68     		ldr	r3, [r7, #4]
 1527 008a 002B     		cmp	r3, #0
 1528 008c 02D0     		beq	.L87
 1529              		.loc 1 1134 46 discriminator 2
 1530 008e 7B88     		ldrh	r3, [r7, #2]
 1531 0090 002B     		cmp	r3, #0
 1532 0092 03D1     		bne	.L88
 1533              	.L87:
1135:Drivers/STM32F4xx_HAL_Driver/Src/stm32f4xx_hal_spi.c ****   {
1136:Drivers/STM32F4xx_HAL_Driver/Src/stm32f4xx_hal_spi.c ****     errorcode = HAL_ERROR;
 1534              		.loc 1 1136 15
 1535 0094 0123     		movs	r3, #1
 1536 0096 87F82B30 		strb	r3, [r7, #43]
1137:Drivers/STM32F4xx_HAL_Driver/Src/stm32f4xx_hal_spi.c ****     goto error;
 1537              		.loc 1 1137 5
 1538 009a 51E1     		b	.L86
 1539              	.L88:
1138:Drivers/STM32F4xx_HAL_Driver/Src/stm32f4xx_hal_spi.c ****   }
1139:Drivers/STM32F4xx_HAL_Driver/Src/stm32f4xx_hal_spi.c **** 
1140:Drivers/STM32F4xx_HAL_Driver/Src/stm32f4xx_hal_spi.c ****   /* Don't overwrite in case of HAL_SPI_STATE_BUSY_RX */
1141:Drivers/STM32F4xx_HAL_Driver/Src/stm32f4xx_hal_spi.c ****   if (hspi->State != HAL_SPI_STATE_BUSY_RX)
ARM GAS  /tmp/cc9N7Buw.s 			page 48


 1540              		.loc 1 1141 11
 1541 009c FB68     		ldr	r3, [r7, #12]
 1542 009e 93F85130 		ldrb	r3, [r3, #81]
 1543 00a2 DBB2     		uxtb	r3, r3
 1544              		.loc 1 1141 6
 1545 00a4 042B     		cmp	r3, #4
 1546 00a6 03D0     		beq	.L89
1142:Drivers/STM32F4xx_HAL_Driver/Src/stm32f4xx_hal_spi.c ****   {
1143:Drivers/STM32F4xx_HAL_Driver/Src/stm32f4xx_hal_spi.c ****     hspi->State = HAL_SPI_STATE_BUSY_TX_RX;
 1547              		.loc 1 1143 17
 1548 00a8 FB68     		ldr	r3, [r7, #12]
 1549 00aa 0522     		movs	r2, #5
 1550 00ac 83F85120 		strb	r2, [r3, #81]
 1551              	.L89:
1144:Drivers/STM32F4xx_HAL_Driver/Src/stm32f4xx_hal_spi.c ****   }
1145:Drivers/STM32F4xx_HAL_Driver/Src/stm32f4xx_hal_spi.c **** 
1146:Drivers/STM32F4xx_HAL_Driver/Src/stm32f4xx_hal_spi.c ****   /* Set the transaction information */
1147:Drivers/STM32F4xx_HAL_Driver/Src/stm32f4xx_hal_spi.c ****   hspi->ErrorCode   = HAL_SPI_ERROR_NONE;
 1552              		.loc 1 1147 21
 1553 00b0 FB68     		ldr	r3, [r7, #12]
 1554 00b2 0022     		movs	r2, #0
 1555 00b4 5A65     		str	r2, [r3, #84]
1148:Drivers/STM32F4xx_HAL_Driver/Src/stm32f4xx_hal_spi.c ****   hspi->pRxBuffPtr  = (uint8_t *)pRxData;
 1556              		.loc 1 1148 21
 1557 00b6 FB68     		ldr	r3, [r7, #12]
 1558 00b8 7A68     		ldr	r2, [r7, #4]
 1559 00ba 9A63     		str	r2, [r3, #56]
1149:Drivers/STM32F4xx_HAL_Driver/Src/stm32f4xx_hal_spi.c ****   hspi->RxXferCount = Size;
 1560              		.loc 1 1149 21
 1561 00bc FB68     		ldr	r3, [r7, #12]
 1562 00be 7A88     		ldrh	r2, [r7, #2]	@ movhi
 1563 00c0 DA87     		strh	r2, [r3, #62]	@ movhi
1150:Drivers/STM32F4xx_HAL_Driver/Src/stm32f4xx_hal_spi.c ****   hspi->RxXferSize  = Size;
 1564              		.loc 1 1150 21
 1565 00c2 FB68     		ldr	r3, [r7, #12]
 1566 00c4 7A88     		ldrh	r2, [r7, #2]	@ movhi
 1567 00c6 9A87     		strh	r2, [r3, #60]	@ movhi
1151:Drivers/STM32F4xx_HAL_Driver/Src/stm32f4xx_hal_spi.c ****   hspi->pTxBuffPtr  = (uint8_t *)pTxData;
 1568              		.loc 1 1151 21
 1569 00c8 FB68     		ldr	r3, [r7, #12]
 1570 00ca BA68     		ldr	r2, [r7, #8]
 1571 00cc 1A63     		str	r2, [r3, #48]
1152:Drivers/STM32F4xx_HAL_Driver/Src/stm32f4xx_hal_spi.c ****   hspi->TxXferCount = Size;
 1572              		.loc 1 1152 21
 1573 00ce FB68     		ldr	r3, [r7, #12]
 1574 00d0 7A88     		ldrh	r2, [r7, #2]	@ movhi
 1575 00d2 DA86     		strh	r2, [r3, #54]	@ movhi
1153:Drivers/STM32F4xx_HAL_Driver/Src/stm32f4xx_hal_spi.c ****   hspi->TxXferSize  = Size;
 1576              		.loc 1 1153 21
 1577 00d4 FB68     		ldr	r3, [r7, #12]
 1578 00d6 7A88     		ldrh	r2, [r7, #2]	@ movhi
 1579 00d8 9A86     		strh	r2, [r3, #52]	@ movhi
1154:Drivers/STM32F4xx_HAL_Driver/Src/stm32f4xx_hal_spi.c **** 
1155:Drivers/STM32F4xx_HAL_Driver/Src/stm32f4xx_hal_spi.c ****   /*Init field not used in handle to zero */
1156:Drivers/STM32F4xx_HAL_Driver/Src/stm32f4xx_hal_spi.c ****   hspi->RxISR       = NULL;
 1580              		.loc 1 1156 21
 1581 00da FB68     		ldr	r3, [r7, #12]
ARM GAS  /tmp/cc9N7Buw.s 			page 49


 1582 00dc 0022     		movs	r2, #0
 1583 00de 1A64     		str	r2, [r3, #64]
1157:Drivers/STM32F4xx_HAL_Driver/Src/stm32f4xx_hal_spi.c ****   hspi->TxISR       = NULL;
 1584              		.loc 1 1157 21
 1585 00e0 FB68     		ldr	r3, [r7, #12]
 1586 00e2 0022     		movs	r2, #0
 1587 00e4 5A64     		str	r2, [r3, #68]
1158:Drivers/STM32F4xx_HAL_Driver/Src/stm32f4xx_hal_spi.c **** 
1159:Drivers/STM32F4xx_HAL_Driver/Src/stm32f4xx_hal_spi.c **** #if (USE_SPI_CRC != 0U)
1160:Drivers/STM32F4xx_HAL_Driver/Src/stm32f4xx_hal_spi.c ****   /* Reset CRC Calculation */
1161:Drivers/STM32F4xx_HAL_Driver/Src/stm32f4xx_hal_spi.c ****   if (hspi->Init.CRCCalculation == SPI_CRCCALCULATION_ENABLE)
1162:Drivers/STM32F4xx_HAL_Driver/Src/stm32f4xx_hal_spi.c ****   {
1163:Drivers/STM32F4xx_HAL_Driver/Src/stm32f4xx_hal_spi.c ****     SPI_RESET_CRC(hspi);
1164:Drivers/STM32F4xx_HAL_Driver/Src/stm32f4xx_hal_spi.c ****   }
1165:Drivers/STM32F4xx_HAL_Driver/Src/stm32f4xx_hal_spi.c **** #endif /* USE_SPI_CRC */
1166:Drivers/STM32F4xx_HAL_Driver/Src/stm32f4xx_hal_spi.c **** 
1167:Drivers/STM32F4xx_HAL_Driver/Src/stm32f4xx_hal_spi.c ****   /* Check if the SPI is already enabled */
1168:Drivers/STM32F4xx_HAL_Driver/Src/stm32f4xx_hal_spi.c ****   if ((hspi->Instance->CR1 & SPI_CR1_SPE) != SPI_CR1_SPE)
 1588              		.loc 1 1168 12
 1589 00e6 FB68     		ldr	r3, [r7, #12]
 1590 00e8 1B68     		ldr	r3, [r3]
 1591              		.loc 1 1168 22
 1592 00ea 1B68     		ldr	r3, [r3]
 1593              		.loc 1 1168 28
 1594 00ec 03F04003 		and	r3, r3, #64
 1595              		.loc 1 1168 6
 1596 00f0 402B     		cmp	r3, #64
 1597 00f2 07D0     		beq	.L90
1169:Drivers/STM32F4xx_HAL_Driver/Src/stm32f4xx_hal_spi.c ****   {
1170:Drivers/STM32F4xx_HAL_Driver/Src/stm32f4xx_hal_spi.c ****     /* Enable SPI peripheral */
1171:Drivers/STM32F4xx_HAL_Driver/Src/stm32f4xx_hal_spi.c ****     __HAL_SPI_ENABLE(hspi);
 1598              		.loc 1 1171 5
 1599 00f4 FB68     		ldr	r3, [r7, #12]
 1600 00f6 1B68     		ldr	r3, [r3]
 1601 00f8 1A68     		ldr	r2, [r3]
 1602 00fa FB68     		ldr	r3, [r7, #12]
 1603 00fc 1B68     		ldr	r3, [r3]
 1604 00fe 42F04002 		orr	r2, r2, #64
 1605 0102 1A60     		str	r2, [r3]
 1606              	.L90:
1172:Drivers/STM32F4xx_HAL_Driver/Src/stm32f4xx_hal_spi.c ****   }
1173:Drivers/STM32F4xx_HAL_Driver/Src/stm32f4xx_hal_spi.c **** 
1174:Drivers/STM32F4xx_HAL_Driver/Src/stm32f4xx_hal_spi.c ****   /* Transmit and Receive data in 16 Bit mode */
1175:Drivers/STM32F4xx_HAL_Driver/Src/stm32f4xx_hal_spi.c ****   if (hspi->Init.DataSize == SPI_DATASIZE_16BIT)
 1607              		.loc 1 1175 17
 1608 0104 FB68     		ldr	r3, [r7, #12]
 1609 0106 DB68     		ldr	r3, [r3, #12]
 1610              		.loc 1 1175 6
 1611 0108 B3F5006F 		cmp	r3, #2048
 1612 010c 78D1     		bne	.L91
1176:Drivers/STM32F4xx_HAL_Driver/Src/stm32f4xx_hal_spi.c ****   {
1177:Drivers/STM32F4xx_HAL_Driver/Src/stm32f4xx_hal_spi.c ****     if ((hspi->Init.Mode == SPI_MODE_SLAVE) || (initial_TxXferCount == 0x01U))
 1613              		.loc 1 1177 20
 1614 010e FB68     		ldr	r3, [r7, #12]
 1615 0110 5B68     		ldr	r3, [r3, #4]
 1616              		.loc 1 1177 8
 1617 0112 002B     		cmp	r3, #0
ARM GAS  /tmp/cc9N7Buw.s 			page 50


 1618 0114 02D0     		beq	.L92
 1619              		.loc 1 1177 45 discriminator 1
 1620 0116 7B8B     		ldrh	r3, [r7, #26]
 1621 0118 012B     		cmp	r3, #1
 1622 011a 66D1     		bne	.L94
 1623              	.L92:
1178:Drivers/STM32F4xx_HAL_Driver/Src/stm32f4xx_hal_spi.c ****     {
1179:Drivers/STM32F4xx_HAL_Driver/Src/stm32f4xx_hal_spi.c ****       hspi->Instance->DR = *((uint16_t *)hspi->pTxBuffPtr);
 1624              		.loc 1 1179 46
 1625 011c FB68     		ldr	r3, [r7, #12]
 1626 011e 1B6B     		ldr	r3, [r3, #48]
 1627              		.loc 1 1179 28
 1628 0120 1A88     		ldrh	r2, [r3]
 1629              		.loc 1 1179 11
 1630 0122 FB68     		ldr	r3, [r7, #12]
 1631 0124 1B68     		ldr	r3, [r3]
 1632              		.loc 1 1179 26
 1633 0126 DA60     		str	r2, [r3, #12]
1180:Drivers/STM32F4xx_HAL_Driver/Src/stm32f4xx_hal_spi.c ****       hspi->pTxBuffPtr += sizeof(uint16_t);
 1634              		.loc 1 1180 24
 1635 0128 FB68     		ldr	r3, [r7, #12]
 1636 012a 1B6B     		ldr	r3, [r3, #48]
 1637 012c 9A1C     		adds	r2, r3, #2
 1638 012e FB68     		ldr	r3, [r7, #12]
 1639 0130 1A63     		str	r2, [r3, #48]
1181:Drivers/STM32F4xx_HAL_Driver/Src/stm32f4xx_hal_spi.c ****       hspi->TxXferCount--;
 1640              		.loc 1 1181 11
 1641 0132 FB68     		ldr	r3, [r7, #12]
 1642 0134 DB8E     		ldrh	r3, [r3, #54]	@ movhi
 1643 0136 9BB2     		uxth	r3, r3
 1644              		.loc 1 1181 24
 1645 0138 013B     		subs	r3, r3, #1
 1646 013a 9AB2     		uxth	r2, r3
 1647 013c FB68     		ldr	r3, [r7, #12]
 1648 013e DA86     		strh	r2, [r3, #54]	@ movhi
1182:Drivers/STM32F4xx_HAL_Driver/Src/stm32f4xx_hal_spi.c ****     }
1183:Drivers/STM32F4xx_HAL_Driver/Src/stm32f4xx_hal_spi.c ****     while ((hspi->TxXferCount > 0U) || (hspi->RxXferCount > 0U))
 1649              		.loc 1 1183 11
 1650 0140 53E0     		b	.L94
 1651              	.L97:
1184:Drivers/STM32F4xx_HAL_Driver/Src/stm32f4xx_hal_spi.c ****     {
1185:Drivers/STM32F4xx_HAL_Driver/Src/stm32f4xx_hal_spi.c ****       /* Check TXE flag */
1186:Drivers/STM32F4xx_HAL_Driver/Src/stm32f4xx_hal_spi.c ****       if ((__HAL_SPI_GET_FLAG(hspi, SPI_FLAG_TXE)) && (hspi->TxXferCount > 0U) && (txallowed == 1U)
 1652              		.loc 1 1186 12
 1653 0142 FB68     		ldr	r3, [r7, #12]
 1654 0144 1B68     		ldr	r3, [r3]
 1655 0146 9B68     		ldr	r3, [r3, #8]
 1656 0148 03F00203 		and	r3, r3, #2
 1657              		.loc 1 1186 10
 1658 014c 022B     		cmp	r3, #2
 1659 014e 1BD1     		bne	.L95
 1660              		.loc 1 1186 60 discriminator 1
 1661 0150 FB68     		ldr	r3, [r7, #12]
 1662 0152 DB8E     		ldrh	r3, [r3, #54]	@ movhi
 1663 0154 9BB2     		uxth	r3, r3
 1664              		.loc 1 1186 52 discriminator 1
 1665 0156 002B     		cmp	r3, #0
ARM GAS  /tmp/cc9N7Buw.s 			page 51


 1666 0158 16D0     		beq	.L95
 1667              		.loc 1 1186 80 discriminator 2
 1668 015a FB6A     		ldr	r3, [r7, #44]
 1669 015c 012B     		cmp	r3, #1
 1670 015e 13D1     		bne	.L95
1187:Drivers/STM32F4xx_HAL_Driver/Src/stm32f4xx_hal_spi.c ****       {
1188:Drivers/STM32F4xx_HAL_Driver/Src/stm32f4xx_hal_spi.c ****         hspi->Instance->DR = *((uint16_t *)hspi->pTxBuffPtr);
 1671              		.loc 1 1188 48
 1672 0160 FB68     		ldr	r3, [r7, #12]
 1673 0162 1B6B     		ldr	r3, [r3, #48]
 1674              		.loc 1 1188 30
 1675 0164 1A88     		ldrh	r2, [r3]
 1676              		.loc 1 1188 13
 1677 0166 FB68     		ldr	r3, [r7, #12]
 1678 0168 1B68     		ldr	r3, [r3]
 1679              		.loc 1 1188 28
 1680 016a DA60     		str	r2, [r3, #12]
1189:Drivers/STM32F4xx_HAL_Driver/Src/stm32f4xx_hal_spi.c ****         hspi->pTxBuffPtr += sizeof(uint16_t);
 1681              		.loc 1 1189 26
 1682 016c FB68     		ldr	r3, [r7, #12]
 1683 016e 1B6B     		ldr	r3, [r3, #48]
 1684 0170 9A1C     		adds	r2, r3, #2
 1685 0172 FB68     		ldr	r3, [r7, #12]
 1686 0174 1A63     		str	r2, [r3, #48]
1190:Drivers/STM32F4xx_HAL_Driver/Src/stm32f4xx_hal_spi.c ****         hspi->TxXferCount--;
 1687              		.loc 1 1190 13
 1688 0176 FB68     		ldr	r3, [r7, #12]
 1689 0178 DB8E     		ldrh	r3, [r3, #54]	@ movhi
 1690 017a 9BB2     		uxth	r3, r3
 1691              		.loc 1 1190 26
 1692 017c 013B     		subs	r3, r3, #1
 1693 017e 9AB2     		uxth	r2, r3
 1694 0180 FB68     		ldr	r3, [r7, #12]
 1695 0182 DA86     		strh	r2, [r3, #54]	@ movhi
1191:Drivers/STM32F4xx_HAL_Driver/Src/stm32f4xx_hal_spi.c ****         /* Next Data is a reception (Rx). Tx not allowed */
1192:Drivers/STM32F4xx_HAL_Driver/Src/stm32f4xx_hal_spi.c ****         txallowed = 0U;
 1696              		.loc 1 1192 19
 1697 0184 0023     		movs	r3, #0
 1698 0186 FB62     		str	r3, [r7, #44]
 1699              	.L95:
1193:Drivers/STM32F4xx_HAL_Driver/Src/stm32f4xx_hal_spi.c **** 
1194:Drivers/STM32F4xx_HAL_Driver/Src/stm32f4xx_hal_spi.c **** #if (USE_SPI_CRC != 0U)
1195:Drivers/STM32F4xx_HAL_Driver/Src/stm32f4xx_hal_spi.c ****         /* Enable CRC Transmission */
1196:Drivers/STM32F4xx_HAL_Driver/Src/stm32f4xx_hal_spi.c ****         if ((hspi->TxXferCount == 0U) && (hspi->Init.CRCCalculation == SPI_CRCCALCULATION_ENABLE))
1197:Drivers/STM32F4xx_HAL_Driver/Src/stm32f4xx_hal_spi.c ****         {
1198:Drivers/STM32F4xx_HAL_Driver/Src/stm32f4xx_hal_spi.c ****           SET_BIT(hspi->Instance->CR1, SPI_CR1_CRCNEXT);
1199:Drivers/STM32F4xx_HAL_Driver/Src/stm32f4xx_hal_spi.c ****         }
1200:Drivers/STM32F4xx_HAL_Driver/Src/stm32f4xx_hal_spi.c **** #endif /* USE_SPI_CRC */
1201:Drivers/STM32F4xx_HAL_Driver/Src/stm32f4xx_hal_spi.c ****       }
1202:Drivers/STM32F4xx_HAL_Driver/Src/stm32f4xx_hal_spi.c **** 
1203:Drivers/STM32F4xx_HAL_Driver/Src/stm32f4xx_hal_spi.c ****       /* Check RXNE flag */
1204:Drivers/STM32F4xx_HAL_Driver/Src/stm32f4xx_hal_spi.c ****       if ((__HAL_SPI_GET_FLAG(hspi, SPI_FLAG_RXNE)) && (hspi->RxXferCount > 0U))
 1700              		.loc 1 1204 12
 1701 0188 FB68     		ldr	r3, [r7, #12]
 1702 018a 1B68     		ldr	r3, [r3]
 1703 018c 9B68     		ldr	r3, [r3, #8]
 1704 018e 03F00103 		and	r3, r3, #1
ARM GAS  /tmp/cc9N7Buw.s 			page 52


 1705              		.loc 1 1204 10
 1706 0192 012B     		cmp	r3, #1
 1707 0194 19D1     		bne	.L96
 1708              		.loc 1 1204 61 discriminator 1
 1709 0196 FB68     		ldr	r3, [r7, #12]
 1710 0198 DB8F     		ldrh	r3, [r3, #62]	@ movhi
 1711 019a 9BB2     		uxth	r3, r3
 1712              		.loc 1 1204 53 discriminator 1
 1713 019c 002B     		cmp	r3, #0
 1714 019e 14D0     		beq	.L96
1205:Drivers/STM32F4xx_HAL_Driver/Src/stm32f4xx_hal_spi.c ****       {
1206:Drivers/STM32F4xx_HAL_Driver/Src/stm32f4xx_hal_spi.c ****         *((uint16_t *)hspi->pRxBuffPtr) = (uint16_t)hspi->Instance->DR;
 1715              		.loc 1 1206 57
 1716 01a0 FB68     		ldr	r3, [r7, #12]
 1717 01a2 1B68     		ldr	r3, [r3]
 1718              		.loc 1 1206 67
 1719 01a4 DA68     		ldr	r2, [r3, #12]
 1720              		.loc 1 1206 27
 1721 01a6 FB68     		ldr	r3, [r7, #12]
 1722 01a8 9B6B     		ldr	r3, [r3, #56]
 1723              		.loc 1 1206 43
 1724 01aa 92B2     		uxth	r2, r2
 1725              		.loc 1 1206 41
 1726 01ac 1A80     		strh	r2, [r3]	@ movhi
1207:Drivers/STM32F4xx_HAL_Driver/Src/stm32f4xx_hal_spi.c ****         hspi->pRxBuffPtr += sizeof(uint16_t);
 1727              		.loc 1 1207 26
 1728 01ae FB68     		ldr	r3, [r7, #12]
 1729 01b0 9B6B     		ldr	r3, [r3, #56]
 1730 01b2 9A1C     		adds	r2, r3, #2
 1731 01b4 FB68     		ldr	r3, [r7, #12]
 1732 01b6 9A63     		str	r2, [r3, #56]
1208:Drivers/STM32F4xx_HAL_Driver/Src/stm32f4xx_hal_spi.c ****         hspi->RxXferCount--;
 1733              		.loc 1 1208 13
 1734 01b8 FB68     		ldr	r3, [r7, #12]
 1735 01ba DB8F     		ldrh	r3, [r3, #62]	@ movhi
 1736 01bc 9BB2     		uxth	r3, r3
 1737              		.loc 1 1208 26
 1738 01be 013B     		subs	r3, r3, #1
 1739 01c0 9AB2     		uxth	r2, r3
 1740 01c2 FB68     		ldr	r3, [r7, #12]
 1741 01c4 DA87     		strh	r2, [r3, #62]	@ movhi
1209:Drivers/STM32F4xx_HAL_Driver/Src/stm32f4xx_hal_spi.c ****         /* Next Data is a Transmission (Tx). Tx is allowed */
1210:Drivers/STM32F4xx_HAL_Driver/Src/stm32f4xx_hal_spi.c ****         txallowed = 1U;
 1742              		.loc 1 1210 19
 1743 01c6 0123     		movs	r3, #1
 1744 01c8 FB62     		str	r3, [r7, #44]
 1745              	.L96:
1211:Drivers/STM32F4xx_HAL_Driver/Src/stm32f4xx_hal_spi.c ****       }
1212:Drivers/STM32F4xx_HAL_Driver/Src/stm32f4xx_hal_spi.c ****       if (((HAL_GetTick() - tickstart) >=  Timeout) && (Timeout != HAL_MAX_DELAY))
 1746              		.loc 1 1212 13
 1747 01ca FFF7FEFF 		bl	HAL_GetTick
 1748 01ce 0246     		mov	r2, r0
 1749              		.loc 1 1212 27
 1750 01d0 7B6A     		ldr	r3, [r7, #36]
 1751 01d2 D31A     		subs	r3, r2, r3
 1752              		.loc 1 1212 10
 1753 01d4 BA6B     		ldr	r2, [r7, #56]
ARM GAS  /tmp/cc9N7Buw.s 			page 53


 1754 01d6 9A42     		cmp	r2, r3
 1755 01d8 07D8     		bhi	.L94
 1756              		.loc 1 1212 53 discriminator 1
 1757 01da BB6B     		ldr	r3, [r7, #56]
 1758 01dc B3F1FF3F 		cmp	r3, #-1
 1759 01e0 03D0     		beq	.L94
1213:Drivers/STM32F4xx_HAL_Driver/Src/stm32f4xx_hal_spi.c ****       {
1214:Drivers/STM32F4xx_HAL_Driver/Src/stm32f4xx_hal_spi.c ****         errorcode = HAL_TIMEOUT;
 1760              		.loc 1 1214 19
 1761 01e2 0323     		movs	r3, #3
 1762 01e4 87F82B30 		strb	r3, [r7, #43]
1215:Drivers/STM32F4xx_HAL_Driver/Src/stm32f4xx_hal_spi.c ****         goto error;
 1763              		.loc 1 1215 9
 1764 01e8 AAE0     		b	.L86
 1765              	.L94:
1183:Drivers/STM32F4xx_HAL_Driver/Src/stm32f4xx_hal_spi.c ****     {
 1766              		.loc 1 1183 17
 1767 01ea FB68     		ldr	r3, [r7, #12]
 1768 01ec DB8E     		ldrh	r3, [r3, #54]	@ movhi
 1769 01ee 9BB2     		uxth	r3, r3
1183:Drivers/STM32F4xx_HAL_Driver/Src/stm32f4xx_hal_spi.c ****     {
 1770              		.loc 1 1183 11
 1771 01f0 002B     		cmp	r3, #0
 1772 01f2 A6D1     		bne	.L97
1183:Drivers/STM32F4xx_HAL_Driver/Src/stm32f4xx_hal_spi.c ****     {
 1773              		.loc 1 1183 45 discriminator 1
 1774 01f4 FB68     		ldr	r3, [r7, #12]
 1775 01f6 DB8F     		ldrh	r3, [r3, #62]	@ movhi
 1776 01f8 9BB2     		uxth	r3, r3
1183:Drivers/STM32F4xx_HAL_Driver/Src/stm32f4xx_hal_spi.c ****     {
 1777              		.loc 1 1183 37 discriminator 1
 1778 01fa 002B     		cmp	r3, #0
 1779 01fc A1D1     		bne	.L97
 1780 01fe 7FE0     		b	.L98
 1781              	.L91:
1216:Drivers/STM32F4xx_HAL_Driver/Src/stm32f4xx_hal_spi.c ****       }
1217:Drivers/STM32F4xx_HAL_Driver/Src/stm32f4xx_hal_spi.c ****     }
1218:Drivers/STM32F4xx_HAL_Driver/Src/stm32f4xx_hal_spi.c ****   }
1219:Drivers/STM32F4xx_HAL_Driver/Src/stm32f4xx_hal_spi.c ****   /* Transmit and Receive data in 8 Bit mode */
1220:Drivers/STM32F4xx_HAL_Driver/Src/stm32f4xx_hal_spi.c ****   else
1221:Drivers/STM32F4xx_HAL_Driver/Src/stm32f4xx_hal_spi.c ****   {
1222:Drivers/STM32F4xx_HAL_Driver/Src/stm32f4xx_hal_spi.c ****     if ((hspi->Init.Mode == SPI_MODE_SLAVE) || (initial_TxXferCount == 0x01U))
 1782              		.loc 1 1222 20
 1783 0200 FB68     		ldr	r3, [r7, #12]
 1784 0202 5B68     		ldr	r3, [r3, #4]
 1785              		.loc 1 1222 8
 1786 0204 002B     		cmp	r3, #0
 1787 0206 02D0     		beq	.L99
 1788              		.loc 1 1222 45 discriminator 1
 1789 0208 7B8B     		ldrh	r3, [r7, #26]
 1790 020a 012B     		cmp	r3, #1
 1791 020c 6ED1     		bne	.L101
 1792              	.L99:
1223:Drivers/STM32F4xx_HAL_Driver/Src/stm32f4xx_hal_spi.c ****     {
1224:Drivers/STM32F4xx_HAL_Driver/Src/stm32f4xx_hal_spi.c ****       *((__IO uint8_t *)&hspi->Instance->DR) = (*hspi->pTxBuffPtr);
 1793              		.loc 1 1224 54
 1794 020e FB68     		ldr	r3, [r7, #12]
ARM GAS  /tmp/cc9N7Buw.s 			page 54


 1795 0210 1A6B     		ldr	r2, [r3, #48]
 1796              		.loc 1 1224 30
 1797 0212 FB68     		ldr	r3, [r7, #12]
 1798 0214 1B68     		ldr	r3, [r3]
 1799              		.loc 1 1224 25
 1800 0216 0C33     		adds	r3, r3, #12
 1801              		.loc 1 1224 49
 1802 0218 1278     		ldrb	r2, [r2]	@ zero_extendqisi2
 1803              		.loc 1 1224 46
 1804 021a 1A70     		strb	r2, [r3]
1225:Drivers/STM32F4xx_HAL_Driver/Src/stm32f4xx_hal_spi.c ****       hspi->pTxBuffPtr += sizeof(uint8_t);
 1805              		.loc 1 1225 24
 1806 021c FB68     		ldr	r3, [r7, #12]
 1807 021e 1B6B     		ldr	r3, [r3, #48]
 1808 0220 5A1C     		adds	r2, r3, #1
 1809 0222 FB68     		ldr	r3, [r7, #12]
 1810 0224 1A63     		str	r2, [r3, #48]
1226:Drivers/STM32F4xx_HAL_Driver/Src/stm32f4xx_hal_spi.c ****       hspi->TxXferCount--;
 1811              		.loc 1 1226 11
 1812 0226 FB68     		ldr	r3, [r7, #12]
 1813 0228 DB8E     		ldrh	r3, [r3, #54]	@ movhi
 1814 022a 9BB2     		uxth	r3, r3
 1815              		.loc 1 1226 24
 1816 022c 013B     		subs	r3, r3, #1
 1817 022e 9AB2     		uxth	r2, r3
 1818 0230 FB68     		ldr	r3, [r7, #12]
 1819 0232 DA86     		strh	r2, [r3, #54]	@ movhi
1227:Drivers/STM32F4xx_HAL_Driver/Src/stm32f4xx_hal_spi.c ****     }
1228:Drivers/STM32F4xx_HAL_Driver/Src/stm32f4xx_hal_spi.c ****     while ((hspi->TxXferCount > 0U) || (hspi->RxXferCount > 0U))
 1820              		.loc 1 1228 11
 1821 0234 5AE0     		b	.L101
 1822              	.L110:
 1823 0236 00BF     		.align	2
 1824              	.L109:
 1825 0238 00000000 		.word	.LC0
 1826              	.L106:
1229:Drivers/STM32F4xx_HAL_Driver/Src/stm32f4xx_hal_spi.c ****     {
1230:Drivers/STM32F4xx_HAL_Driver/Src/stm32f4xx_hal_spi.c ****       /* Check TXE flag */
1231:Drivers/STM32F4xx_HAL_Driver/Src/stm32f4xx_hal_spi.c ****       if ((__HAL_SPI_GET_FLAG(hspi, SPI_FLAG_TXE)) && (hspi->TxXferCount > 0U) && (txallowed == 1U)
 1827              		.loc 1 1231 12
 1828 023c FB68     		ldr	r3, [r7, #12]
 1829 023e 1B68     		ldr	r3, [r3]
 1830 0240 9B68     		ldr	r3, [r3, #8]
 1831 0242 03F00203 		and	r3, r3, #2
 1832              		.loc 1 1231 10
 1833 0246 022B     		cmp	r3, #2
 1834 0248 1CD1     		bne	.L102
 1835              		.loc 1 1231 60 discriminator 1
 1836 024a FB68     		ldr	r3, [r7, #12]
 1837 024c DB8E     		ldrh	r3, [r3, #54]	@ movhi
 1838 024e 9BB2     		uxth	r3, r3
 1839              		.loc 1 1231 52 discriminator 1
 1840 0250 002B     		cmp	r3, #0
 1841 0252 17D0     		beq	.L102
 1842              		.loc 1 1231 80 discriminator 2
 1843 0254 FB6A     		ldr	r3, [r7, #44]
 1844 0256 012B     		cmp	r3, #1
ARM GAS  /tmp/cc9N7Buw.s 			page 55


 1845 0258 14D1     		bne	.L102
1232:Drivers/STM32F4xx_HAL_Driver/Src/stm32f4xx_hal_spi.c ****       {
1233:Drivers/STM32F4xx_HAL_Driver/Src/stm32f4xx_hal_spi.c ****         *(__IO uint8_t *)&hspi->Instance->DR = (*hspi->pTxBuffPtr);
 1846              		.loc 1 1233 54
 1847 025a FB68     		ldr	r3, [r7, #12]
 1848 025c 1A6B     		ldr	r2, [r3, #48]
 1849              		.loc 1 1233 31
 1850 025e FB68     		ldr	r3, [r7, #12]
 1851 0260 1B68     		ldr	r3, [r3]
 1852              		.loc 1 1233 26
 1853 0262 0C33     		adds	r3, r3, #12
 1854              		.loc 1 1233 49
 1855 0264 1278     		ldrb	r2, [r2]	@ zero_extendqisi2
 1856              		.loc 1 1233 46
 1857 0266 1A70     		strb	r2, [r3]
1234:Drivers/STM32F4xx_HAL_Driver/Src/stm32f4xx_hal_spi.c ****         hspi->pTxBuffPtr++;
 1858              		.loc 1 1234 13
 1859 0268 FB68     		ldr	r3, [r7, #12]
 1860 026a 1B6B     		ldr	r3, [r3, #48]
 1861              		.loc 1 1234 25
 1862 026c 5A1C     		adds	r2, r3, #1
 1863 026e FB68     		ldr	r3, [r7, #12]
 1864 0270 1A63     		str	r2, [r3, #48]
1235:Drivers/STM32F4xx_HAL_Driver/Src/stm32f4xx_hal_spi.c ****         hspi->TxXferCount--;
 1865              		.loc 1 1235 13
 1866 0272 FB68     		ldr	r3, [r7, #12]
 1867 0274 DB8E     		ldrh	r3, [r3, #54]	@ movhi
 1868 0276 9BB2     		uxth	r3, r3
 1869              		.loc 1 1235 26
 1870 0278 013B     		subs	r3, r3, #1
 1871 027a 9AB2     		uxth	r2, r3
 1872 027c FB68     		ldr	r3, [r7, #12]
 1873 027e DA86     		strh	r2, [r3, #54]	@ movhi
1236:Drivers/STM32F4xx_HAL_Driver/Src/stm32f4xx_hal_spi.c ****         /* Next Data is a reception (Rx). Tx not allowed */
1237:Drivers/STM32F4xx_HAL_Driver/Src/stm32f4xx_hal_spi.c ****         txallowed = 0U;
 1874              		.loc 1 1237 19
 1875 0280 0023     		movs	r3, #0
 1876 0282 FB62     		str	r3, [r7, #44]
 1877              	.L102:
1238:Drivers/STM32F4xx_HAL_Driver/Src/stm32f4xx_hal_spi.c **** 
1239:Drivers/STM32F4xx_HAL_Driver/Src/stm32f4xx_hal_spi.c **** #if (USE_SPI_CRC != 0U)
1240:Drivers/STM32F4xx_HAL_Driver/Src/stm32f4xx_hal_spi.c ****         /* Enable CRC Transmission */
1241:Drivers/STM32F4xx_HAL_Driver/Src/stm32f4xx_hal_spi.c ****         if ((hspi->TxXferCount == 0U) && (hspi->Init.CRCCalculation == SPI_CRCCALCULATION_ENABLE))
1242:Drivers/STM32F4xx_HAL_Driver/Src/stm32f4xx_hal_spi.c ****         {
1243:Drivers/STM32F4xx_HAL_Driver/Src/stm32f4xx_hal_spi.c ****           SET_BIT(hspi->Instance->CR1, SPI_CR1_CRCNEXT);
1244:Drivers/STM32F4xx_HAL_Driver/Src/stm32f4xx_hal_spi.c ****         }
1245:Drivers/STM32F4xx_HAL_Driver/Src/stm32f4xx_hal_spi.c **** #endif /* USE_SPI_CRC */
1246:Drivers/STM32F4xx_HAL_Driver/Src/stm32f4xx_hal_spi.c ****       }
1247:Drivers/STM32F4xx_HAL_Driver/Src/stm32f4xx_hal_spi.c **** 
1248:Drivers/STM32F4xx_HAL_Driver/Src/stm32f4xx_hal_spi.c ****       /* Wait until RXNE flag is reset */
1249:Drivers/STM32F4xx_HAL_Driver/Src/stm32f4xx_hal_spi.c ****       if ((__HAL_SPI_GET_FLAG(hspi, SPI_FLAG_RXNE)) && (hspi->RxXferCount > 0U))
 1878              		.loc 1 1249 12
 1879 0284 FB68     		ldr	r3, [r7, #12]
 1880 0286 1B68     		ldr	r3, [r3]
 1881 0288 9B68     		ldr	r3, [r3, #8]
 1882 028a 03F00103 		and	r3, r3, #1
 1883              		.loc 1 1249 10
ARM GAS  /tmp/cc9N7Buw.s 			page 56


 1884 028e 012B     		cmp	r3, #1
 1885 0290 19D1     		bne	.L103
 1886              		.loc 1 1249 61 discriminator 1
 1887 0292 FB68     		ldr	r3, [r7, #12]
 1888 0294 DB8F     		ldrh	r3, [r3, #62]	@ movhi
 1889 0296 9BB2     		uxth	r3, r3
 1890              		.loc 1 1249 53 discriminator 1
 1891 0298 002B     		cmp	r3, #0
 1892 029a 14D0     		beq	.L103
1250:Drivers/STM32F4xx_HAL_Driver/Src/stm32f4xx_hal_spi.c ****       {
1251:Drivers/STM32F4xx_HAL_Driver/Src/stm32f4xx_hal_spi.c ****         (*(uint8_t *)hspi->pRxBuffPtr) = hspi->Instance->DR;
 1893              		.loc 1 1251 46
 1894 029c FB68     		ldr	r3, [r7, #12]
 1895 029e 1B68     		ldr	r3, [r3]
 1896              		.loc 1 1251 56
 1897 02a0 DA68     		ldr	r2, [r3, #12]
 1898              		.loc 1 1251 26
 1899 02a2 FB68     		ldr	r3, [r7, #12]
 1900 02a4 9B6B     		ldr	r3, [r3, #56]
 1901              		.loc 1 1251 40
 1902 02a6 D2B2     		uxtb	r2, r2
 1903 02a8 1A70     		strb	r2, [r3]
1252:Drivers/STM32F4xx_HAL_Driver/Src/stm32f4xx_hal_spi.c ****         hspi->pRxBuffPtr++;
 1904              		.loc 1 1252 13
 1905 02aa FB68     		ldr	r3, [r7, #12]
 1906 02ac 9B6B     		ldr	r3, [r3, #56]
 1907              		.loc 1 1252 25
 1908 02ae 5A1C     		adds	r2, r3, #1
 1909 02b0 FB68     		ldr	r3, [r7, #12]
 1910 02b2 9A63     		str	r2, [r3, #56]
1253:Drivers/STM32F4xx_HAL_Driver/Src/stm32f4xx_hal_spi.c ****         hspi->RxXferCount--;
 1911              		.loc 1 1253 13
 1912 02b4 FB68     		ldr	r3, [r7, #12]
 1913 02b6 DB8F     		ldrh	r3, [r3, #62]	@ movhi
 1914 02b8 9BB2     		uxth	r3, r3
 1915              		.loc 1 1253 26
 1916 02ba 013B     		subs	r3, r3, #1
 1917 02bc 9AB2     		uxth	r2, r3
 1918 02be FB68     		ldr	r3, [r7, #12]
 1919 02c0 DA87     		strh	r2, [r3, #62]	@ movhi
1254:Drivers/STM32F4xx_HAL_Driver/Src/stm32f4xx_hal_spi.c ****         /* Next Data is a Transmission (Tx). Tx is allowed */
1255:Drivers/STM32F4xx_HAL_Driver/Src/stm32f4xx_hal_spi.c ****         txallowed = 1U;
 1920              		.loc 1 1255 19
 1921 02c2 0123     		movs	r3, #1
 1922 02c4 FB62     		str	r3, [r7, #44]
 1923              	.L103:
1256:Drivers/STM32F4xx_HAL_Driver/Src/stm32f4xx_hal_spi.c ****       }
1257:Drivers/STM32F4xx_HAL_Driver/Src/stm32f4xx_hal_spi.c ****       if ((((HAL_GetTick() - tickstart) >=  Timeout) && ((Timeout != HAL_MAX_DELAY))) || (Timeout =
 1924              		.loc 1 1257 14
 1925 02c6 FFF7FEFF 		bl	HAL_GetTick
 1926 02ca 0246     		mov	r2, r0
 1927              		.loc 1 1257 28
 1928 02cc 7B6A     		ldr	r3, [r7, #36]
 1929 02ce D31A     		subs	r3, r2, r3
 1930              		.loc 1 1257 10
 1931 02d0 BA6B     		ldr	r2, [r7, #56]
 1932 02d2 9A42     		cmp	r2, r3
ARM GAS  /tmp/cc9N7Buw.s 			page 57


 1933 02d4 03D8     		bhi	.L104
 1934              		.loc 1 1257 54 discriminator 1
 1935 02d6 BB6B     		ldr	r3, [r7, #56]
 1936 02d8 B3F1FF3F 		cmp	r3, #-1
 1937 02dc 02D1     		bne	.L105
 1938              	.L104:
 1939              		.loc 1 1257 87 discriminator 3
 1940 02de BB6B     		ldr	r3, [r7, #56]
 1941 02e0 002B     		cmp	r3, #0
 1942 02e2 03D1     		bne	.L101
 1943              	.L105:
1258:Drivers/STM32F4xx_HAL_Driver/Src/stm32f4xx_hal_spi.c ****       {
1259:Drivers/STM32F4xx_HAL_Driver/Src/stm32f4xx_hal_spi.c ****         errorcode = HAL_TIMEOUT;
 1944              		.loc 1 1259 19
 1945 02e4 0323     		movs	r3, #3
 1946 02e6 87F82B30 		strb	r3, [r7, #43]
1260:Drivers/STM32F4xx_HAL_Driver/Src/stm32f4xx_hal_spi.c ****         goto error;
 1947              		.loc 1 1260 9
 1948 02ea 29E0     		b	.L86
 1949              	.L101:
1228:Drivers/STM32F4xx_HAL_Driver/Src/stm32f4xx_hal_spi.c ****     {
 1950              		.loc 1 1228 17
 1951 02ec FB68     		ldr	r3, [r7, #12]
 1952 02ee DB8E     		ldrh	r3, [r3, #54]	@ movhi
 1953 02f0 9BB2     		uxth	r3, r3
1228:Drivers/STM32F4xx_HAL_Driver/Src/stm32f4xx_hal_spi.c ****     {
 1954              		.loc 1 1228 11
 1955 02f2 002B     		cmp	r3, #0
 1956 02f4 A2D1     		bne	.L106
1228:Drivers/STM32F4xx_HAL_Driver/Src/stm32f4xx_hal_spi.c ****     {
 1957              		.loc 1 1228 45 discriminator 1
 1958 02f6 FB68     		ldr	r3, [r7, #12]
 1959 02f8 DB8F     		ldrh	r3, [r3, #62]	@ movhi
 1960 02fa 9BB2     		uxth	r3, r3
1228:Drivers/STM32F4xx_HAL_Driver/Src/stm32f4xx_hal_spi.c ****     {
 1961              		.loc 1 1228 37 discriminator 1
 1962 02fc 002B     		cmp	r3, #0
 1963 02fe 9DD1     		bne	.L106
 1964              	.L98:
1261:Drivers/STM32F4xx_HAL_Driver/Src/stm32f4xx_hal_spi.c ****       }
1262:Drivers/STM32F4xx_HAL_Driver/Src/stm32f4xx_hal_spi.c ****     }
1263:Drivers/STM32F4xx_HAL_Driver/Src/stm32f4xx_hal_spi.c ****   }
1264:Drivers/STM32F4xx_HAL_Driver/Src/stm32f4xx_hal_spi.c **** 
1265:Drivers/STM32F4xx_HAL_Driver/Src/stm32f4xx_hal_spi.c **** #if (USE_SPI_CRC != 0U)
1266:Drivers/STM32F4xx_HAL_Driver/Src/stm32f4xx_hal_spi.c ****   /* Read CRC from DR to close CRC calculation process */
1267:Drivers/STM32F4xx_HAL_Driver/Src/stm32f4xx_hal_spi.c ****   if (hspi->Init.CRCCalculation == SPI_CRCCALCULATION_ENABLE)
1268:Drivers/STM32F4xx_HAL_Driver/Src/stm32f4xx_hal_spi.c ****   {
1269:Drivers/STM32F4xx_HAL_Driver/Src/stm32f4xx_hal_spi.c ****     /* Wait until TXE flag */
1270:Drivers/STM32F4xx_HAL_Driver/Src/stm32f4xx_hal_spi.c ****     if (SPI_WaitFlagStateUntilTimeout(hspi, SPI_FLAG_RXNE, SET, Timeout, tickstart) != HAL_OK)
1271:Drivers/STM32F4xx_HAL_Driver/Src/stm32f4xx_hal_spi.c ****     {
1272:Drivers/STM32F4xx_HAL_Driver/Src/stm32f4xx_hal_spi.c ****       /* Error on the CRC reception */
1273:Drivers/STM32F4xx_HAL_Driver/Src/stm32f4xx_hal_spi.c ****       SET_BIT(hspi->ErrorCode, HAL_SPI_ERROR_CRC);
1274:Drivers/STM32F4xx_HAL_Driver/Src/stm32f4xx_hal_spi.c ****       errorcode = HAL_TIMEOUT;
1275:Drivers/STM32F4xx_HAL_Driver/Src/stm32f4xx_hal_spi.c ****       goto error;
1276:Drivers/STM32F4xx_HAL_Driver/Src/stm32f4xx_hal_spi.c ****     }
1277:Drivers/STM32F4xx_HAL_Driver/Src/stm32f4xx_hal_spi.c ****     /* Read CRC */
1278:Drivers/STM32F4xx_HAL_Driver/Src/stm32f4xx_hal_spi.c ****     READ_REG(hspi->Instance->DR);
ARM GAS  /tmp/cc9N7Buw.s 			page 58


1279:Drivers/STM32F4xx_HAL_Driver/Src/stm32f4xx_hal_spi.c ****   }
1280:Drivers/STM32F4xx_HAL_Driver/Src/stm32f4xx_hal_spi.c **** 
1281:Drivers/STM32F4xx_HAL_Driver/Src/stm32f4xx_hal_spi.c ****   /* Check if CRC error occurred */
1282:Drivers/STM32F4xx_HAL_Driver/Src/stm32f4xx_hal_spi.c ****   if (__HAL_SPI_GET_FLAG(hspi, SPI_FLAG_CRCERR))
1283:Drivers/STM32F4xx_HAL_Driver/Src/stm32f4xx_hal_spi.c ****   {
1284:Drivers/STM32F4xx_HAL_Driver/Src/stm32f4xx_hal_spi.c ****     SET_BIT(hspi->ErrorCode, HAL_SPI_ERROR_CRC);
1285:Drivers/STM32F4xx_HAL_Driver/Src/stm32f4xx_hal_spi.c ****     /* Clear CRC Flag */
1286:Drivers/STM32F4xx_HAL_Driver/Src/stm32f4xx_hal_spi.c ****     __HAL_SPI_CLEAR_CRCERRFLAG(hspi);
1287:Drivers/STM32F4xx_HAL_Driver/Src/stm32f4xx_hal_spi.c **** 
1288:Drivers/STM32F4xx_HAL_Driver/Src/stm32f4xx_hal_spi.c ****     errorcode = HAL_ERROR;
1289:Drivers/STM32F4xx_HAL_Driver/Src/stm32f4xx_hal_spi.c ****   }
1290:Drivers/STM32F4xx_HAL_Driver/Src/stm32f4xx_hal_spi.c **** #endif /* USE_SPI_CRC */
1291:Drivers/STM32F4xx_HAL_Driver/Src/stm32f4xx_hal_spi.c **** 
1292:Drivers/STM32F4xx_HAL_Driver/Src/stm32f4xx_hal_spi.c ****   /* Check the end of the transaction */
1293:Drivers/STM32F4xx_HAL_Driver/Src/stm32f4xx_hal_spi.c ****   if (SPI_EndRxTxTransaction(hspi, Timeout, tickstart) != HAL_OK)
 1965              		.loc 1 1293 7
 1966 0300 7A6A     		ldr	r2, [r7, #36]
 1967 0302 B96B     		ldr	r1, [r7, #56]
 1968 0304 F868     		ldr	r0, [r7, #12]
 1969 0306 FFF7FEFF 		bl	SPI_EndRxTxTransaction
 1970 030a 0346     		mov	r3, r0
 1971              		.loc 1 1293 6
 1972 030c 002B     		cmp	r3, #0
 1973 030e 06D0     		beq	.L107
1294:Drivers/STM32F4xx_HAL_Driver/Src/stm32f4xx_hal_spi.c ****   {
1295:Drivers/STM32F4xx_HAL_Driver/Src/stm32f4xx_hal_spi.c ****     errorcode = HAL_ERROR;
 1974              		.loc 1 1295 15
 1975 0310 0123     		movs	r3, #1
 1976 0312 87F82B30 		strb	r3, [r7, #43]
1296:Drivers/STM32F4xx_HAL_Driver/Src/stm32f4xx_hal_spi.c ****     hspi->ErrorCode = HAL_SPI_ERROR_FLAG;
 1977              		.loc 1 1296 21
 1978 0316 FB68     		ldr	r3, [r7, #12]
 1979 0318 2022     		movs	r2, #32
 1980 031a 5A65     		str	r2, [r3, #84]
1297:Drivers/STM32F4xx_HAL_Driver/Src/stm32f4xx_hal_spi.c ****     goto error;
 1981              		.loc 1 1297 5
 1982 031c 10E0     		b	.L86
 1983              	.L107:
1298:Drivers/STM32F4xx_HAL_Driver/Src/stm32f4xx_hal_spi.c ****   }
1299:Drivers/STM32F4xx_HAL_Driver/Src/stm32f4xx_hal_spi.c **** 
1300:Drivers/STM32F4xx_HAL_Driver/Src/stm32f4xx_hal_spi.c ****   /* Clear overrun flag in 2 Lines communication mode because received is not read */
1301:Drivers/STM32F4xx_HAL_Driver/Src/stm32f4xx_hal_spi.c ****   if (hspi->Init.Direction == SPI_DIRECTION_2LINES)
 1984              		.loc 1 1301 17
 1985 031e FB68     		ldr	r3, [r7, #12]
 1986 0320 9B68     		ldr	r3, [r3, #8]
 1987              		.loc 1 1301 6
 1988 0322 002B     		cmp	r3, #0
 1989 0324 0BD1     		bne	.L108
 1990              	.LBB3:
1302:Drivers/STM32F4xx_HAL_Driver/Src/stm32f4xx_hal_spi.c ****   {
1303:Drivers/STM32F4xx_HAL_Driver/Src/stm32f4xx_hal_spi.c ****     __HAL_SPI_CLEAR_OVRFLAG(hspi);
 1991              		.loc 1 1303 5
 1992 0326 0023     		movs	r3, #0
 1993 0328 7B61     		str	r3, [r7, #20]
 1994 032a FB68     		ldr	r3, [r7, #12]
 1995 032c 1B68     		ldr	r3, [r3]
 1996 032e DB68     		ldr	r3, [r3, #12]
ARM GAS  /tmp/cc9N7Buw.s 			page 59


 1997 0330 7B61     		str	r3, [r7, #20]
 1998 0332 FB68     		ldr	r3, [r7, #12]
 1999 0334 1B68     		ldr	r3, [r3]
 2000 0336 9B68     		ldr	r3, [r3, #8]
 2001 0338 7B61     		str	r3, [r7, #20]
 2002 033a 7B69     		ldr	r3, [r7, #20]
 2003 033c 00E0     		b	.L86
 2004              	.L108:
 2005              	.LBE3:
1304:Drivers/STM32F4xx_HAL_Driver/Src/stm32f4xx_hal_spi.c ****   }
1305:Drivers/STM32F4xx_HAL_Driver/Src/stm32f4xx_hal_spi.c **** 
1306:Drivers/STM32F4xx_HAL_Driver/Src/stm32f4xx_hal_spi.c **** error :
 2006              		.loc 1 1306 1
 2007 033e 00BF     		nop
 2008              	.L86:
1307:Drivers/STM32F4xx_HAL_Driver/Src/stm32f4xx_hal_spi.c ****   hspi->State = HAL_SPI_STATE_READY;
 2009              		.loc 1 1307 15
 2010 0340 FB68     		ldr	r3, [r7, #12]
 2011 0342 0122     		movs	r2, #1
 2012 0344 83F85120 		strb	r2, [r3, #81]
1308:Drivers/STM32F4xx_HAL_Driver/Src/stm32f4xx_hal_spi.c ****   __HAL_UNLOCK(hspi);
 2013              		.loc 1 1308 3
 2014 0348 FB68     		ldr	r3, [r7, #12]
 2015 034a 0022     		movs	r2, #0
 2016 034c 83F85020 		strb	r2, [r3, #80]
1309:Drivers/STM32F4xx_HAL_Driver/Src/stm32f4xx_hal_spi.c ****   return errorcode;
 2017              		.loc 1 1309 10
 2018 0350 97F82B30 		ldrb	r3, [r7, #43]	@ zero_extendqisi2
 2019              	.L83:
1310:Drivers/STM32F4xx_HAL_Driver/Src/stm32f4xx_hal_spi.c **** }
 2020              		.loc 1 1310 1
 2021 0354 1846     		mov	r0, r3
 2022 0356 3037     		adds	r7, r7, #48
 2023              	.LCFI35:
 2024              		.cfi_def_cfa_offset 8
 2025 0358 BD46     		mov	sp, r7
 2026              	.LCFI36:
 2027              		.cfi_def_cfa_register 13
 2028              		@ sp needed
 2029 035a 80BD     		pop	{r7, pc}
 2030              		.cfi_endproc
 2031              	.LFE136:
 2033              		.section	.text.HAL_SPI_Transmit_IT,"ax",%progbits
 2034              		.align	1
 2035              		.global	HAL_SPI_Transmit_IT
 2036              		.syntax unified
 2037              		.thumb
 2038              		.thumb_func
 2039              		.fpu fpv4-sp-d16
 2041              	HAL_SPI_Transmit_IT:
 2042              	.LFB137:
1311:Drivers/STM32F4xx_HAL_Driver/Src/stm32f4xx_hal_spi.c **** 
1312:Drivers/STM32F4xx_HAL_Driver/Src/stm32f4xx_hal_spi.c **** /**
1313:Drivers/STM32F4xx_HAL_Driver/Src/stm32f4xx_hal_spi.c ****   * @brief  Transmit an amount of data in non-blocking mode with Interrupt.
1314:Drivers/STM32F4xx_HAL_Driver/Src/stm32f4xx_hal_spi.c ****   * @param  hspi pointer to a SPI_HandleTypeDef structure that contains
1315:Drivers/STM32F4xx_HAL_Driver/Src/stm32f4xx_hal_spi.c ****   *               the configuration information for SPI module.
1316:Drivers/STM32F4xx_HAL_Driver/Src/stm32f4xx_hal_spi.c ****   * @param  pData pointer to data buffer
ARM GAS  /tmp/cc9N7Buw.s 			page 60


1317:Drivers/STM32F4xx_HAL_Driver/Src/stm32f4xx_hal_spi.c ****   * @param  Size amount of data to be sent
1318:Drivers/STM32F4xx_HAL_Driver/Src/stm32f4xx_hal_spi.c ****   * @retval HAL status
1319:Drivers/STM32F4xx_HAL_Driver/Src/stm32f4xx_hal_spi.c ****   */
1320:Drivers/STM32F4xx_HAL_Driver/Src/stm32f4xx_hal_spi.c **** HAL_StatusTypeDef HAL_SPI_Transmit_IT(SPI_HandleTypeDef *hspi, uint8_t *pData, uint16_t Size)
1321:Drivers/STM32F4xx_HAL_Driver/Src/stm32f4xx_hal_spi.c **** {
 2043              		.loc 1 1321 1
 2044              		.cfi_startproc
 2045              		@ args = 0, pretend = 0, frame = 24
 2046              		@ frame_needed = 1, uses_anonymous_args = 0
 2047 0000 80B5     		push	{r7, lr}
 2048              	.LCFI37:
 2049              		.cfi_def_cfa_offset 8
 2050              		.cfi_offset 7, -8
 2051              		.cfi_offset 14, -4
 2052 0002 86B0     		sub	sp, sp, #24
 2053              	.LCFI38:
 2054              		.cfi_def_cfa_offset 32
 2055 0004 00AF     		add	r7, sp, #0
 2056              	.LCFI39:
 2057              		.cfi_def_cfa_register 7
 2058 0006 F860     		str	r0, [r7, #12]
 2059 0008 B960     		str	r1, [r7, #8]
 2060 000a 1346     		mov	r3, r2
 2061 000c FB80     		strh	r3, [r7, #6]	@ movhi
1322:Drivers/STM32F4xx_HAL_Driver/Src/stm32f4xx_hal_spi.c ****   HAL_StatusTypeDef errorcode = HAL_OK;
 2062              		.loc 1 1322 21
 2063 000e 0023     		movs	r3, #0
 2064 0010 FB75     		strb	r3, [r7, #23]
1323:Drivers/STM32F4xx_HAL_Driver/Src/stm32f4xx_hal_spi.c **** 
1324:Drivers/STM32F4xx_HAL_Driver/Src/stm32f4xx_hal_spi.c ****   /* Check Direction parameter */
1325:Drivers/STM32F4xx_HAL_Driver/Src/stm32f4xx_hal_spi.c ****   assert_param(IS_SPI_DIRECTION_2LINES_OR_1LINE(hspi->Init.Direction));
 2065              		.loc 1 1325 3
 2066 0012 FB68     		ldr	r3, [r7, #12]
 2067 0014 9B68     		ldr	r3, [r3, #8]
 2068 0016 002B     		cmp	r3, #0
 2069 0018 09D0     		beq	.L112
 2070              		.loc 1 1325 3 is_stmt 0 discriminator 1
 2071 001a FB68     		ldr	r3, [r7, #12]
 2072 001c 9B68     		ldr	r3, [r3, #8]
 2073 001e B3F5004F 		cmp	r3, #32768
 2074 0022 04D0     		beq	.L112
 2075              		.loc 1 1325 3 discriminator 2
 2076 0024 40F22D51 		movw	r1, #1325
 2077 0028 3A48     		ldr	r0, .L123
 2078 002a FFF7FEFF 		bl	assert_failed
 2079              	.L112:
1326:Drivers/STM32F4xx_HAL_Driver/Src/stm32f4xx_hal_spi.c **** 
1327:Drivers/STM32F4xx_HAL_Driver/Src/stm32f4xx_hal_spi.c ****   /* Process Locked */
1328:Drivers/STM32F4xx_HAL_Driver/Src/stm32f4xx_hal_spi.c ****   __HAL_LOCK(hspi);
 2080              		.loc 1 1328 3 is_stmt 1
 2081 002e FB68     		ldr	r3, [r7, #12]
 2082 0030 93F85030 		ldrb	r3, [r3, #80]	@ zero_extendqisi2
 2083 0034 012B     		cmp	r3, #1
 2084 0036 01D1     		bne	.L113
 2085              		.loc 1 1328 3 is_stmt 0 discriminator 1
 2086 0038 0223     		movs	r3, #2
 2087 003a 67E0     		b	.L114
ARM GAS  /tmp/cc9N7Buw.s 			page 61


 2088              	.L113:
 2089              		.loc 1 1328 3 discriminator 2
 2090 003c FB68     		ldr	r3, [r7, #12]
 2091 003e 0122     		movs	r2, #1
 2092 0040 83F85020 		strb	r2, [r3, #80]
1329:Drivers/STM32F4xx_HAL_Driver/Src/stm32f4xx_hal_spi.c **** 
1330:Drivers/STM32F4xx_HAL_Driver/Src/stm32f4xx_hal_spi.c ****   if ((pData == NULL) || (Size == 0U))
 2093              		.loc 1 1330 6 is_stmt 1 discriminator 2
 2094 0044 BB68     		ldr	r3, [r7, #8]
 2095 0046 002B     		cmp	r3, #0
 2096 0048 02D0     		beq	.L115
 2097              		.loc 1 1330 23 discriminator 1
 2098 004a FB88     		ldrh	r3, [r7, #6]
 2099 004c 002B     		cmp	r3, #0
 2100 004e 02D1     		bne	.L116
 2101              	.L115:
1331:Drivers/STM32F4xx_HAL_Driver/Src/stm32f4xx_hal_spi.c ****   {
1332:Drivers/STM32F4xx_HAL_Driver/Src/stm32f4xx_hal_spi.c ****     errorcode = HAL_ERROR;
 2102              		.loc 1 1332 15
 2103 0050 0123     		movs	r3, #1
 2104 0052 FB75     		strb	r3, [r7, #23]
1333:Drivers/STM32F4xx_HAL_Driver/Src/stm32f4xx_hal_spi.c ****     goto error;
 2105              		.loc 1 1333 5
 2106 0054 55E0     		b	.L117
 2107              	.L116:
1334:Drivers/STM32F4xx_HAL_Driver/Src/stm32f4xx_hal_spi.c ****   }
1335:Drivers/STM32F4xx_HAL_Driver/Src/stm32f4xx_hal_spi.c **** 
1336:Drivers/STM32F4xx_HAL_Driver/Src/stm32f4xx_hal_spi.c ****   if (hspi->State != HAL_SPI_STATE_READY)
 2108              		.loc 1 1336 11
 2109 0056 FB68     		ldr	r3, [r7, #12]
 2110 0058 93F85130 		ldrb	r3, [r3, #81]
 2111 005c DBB2     		uxtb	r3, r3
 2112              		.loc 1 1336 6
 2113 005e 012B     		cmp	r3, #1
 2114 0060 02D0     		beq	.L118
1337:Drivers/STM32F4xx_HAL_Driver/Src/stm32f4xx_hal_spi.c ****   {
1338:Drivers/STM32F4xx_HAL_Driver/Src/stm32f4xx_hal_spi.c ****     errorcode = HAL_BUSY;
 2115              		.loc 1 1338 15
 2116 0062 0223     		movs	r3, #2
 2117 0064 FB75     		strb	r3, [r7, #23]
1339:Drivers/STM32F4xx_HAL_Driver/Src/stm32f4xx_hal_spi.c ****     goto error;
 2118              		.loc 1 1339 5
 2119 0066 4CE0     		b	.L117
 2120              	.L118:
1340:Drivers/STM32F4xx_HAL_Driver/Src/stm32f4xx_hal_spi.c ****   }
1341:Drivers/STM32F4xx_HAL_Driver/Src/stm32f4xx_hal_spi.c **** 
1342:Drivers/STM32F4xx_HAL_Driver/Src/stm32f4xx_hal_spi.c ****   /* Set the transaction information */
1343:Drivers/STM32F4xx_HAL_Driver/Src/stm32f4xx_hal_spi.c ****   hspi->State       = HAL_SPI_STATE_BUSY_TX;
 2121              		.loc 1 1343 21
 2122 0068 FB68     		ldr	r3, [r7, #12]
 2123 006a 0322     		movs	r2, #3
 2124 006c 83F85120 		strb	r2, [r3, #81]
1344:Drivers/STM32F4xx_HAL_Driver/Src/stm32f4xx_hal_spi.c ****   hspi->ErrorCode   = HAL_SPI_ERROR_NONE;
 2125              		.loc 1 1344 21
 2126 0070 FB68     		ldr	r3, [r7, #12]
 2127 0072 0022     		movs	r2, #0
 2128 0074 5A65     		str	r2, [r3, #84]
ARM GAS  /tmp/cc9N7Buw.s 			page 62


1345:Drivers/STM32F4xx_HAL_Driver/Src/stm32f4xx_hal_spi.c ****   hspi->pTxBuffPtr  = (uint8_t *)pData;
 2129              		.loc 1 1345 21
 2130 0076 FB68     		ldr	r3, [r7, #12]
 2131 0078 BA68     		ldr	r2, [r7, #8]
 2132 007a 1A63     		str	r2, [r3, #48]
1346:Drivers/STM32F4xx_HAL_Driver/Src/stm32f4xx_hal_spi.c ****   hspi->TxXferSize  = Size;
 2133              		.loc 1 1346 21
 2134 007c FB68     		ldr	r3, [r7, #12]
 2135 007e FA88     		ldrh	r2, [r7, #6]	@ movhi
 2136 0080 9A86     		strh	r2, [r3, #52]	@ movhi
1347:Drivers/STM32F4xx_HAL_Driver/Src/stm32f4xx_hal_spi.c ****   hspi->TxXferCount = Size;
 2137              		.loc 1 1347 21
 2138 0082 FB68     		ldr	r3, [r7, #12]
 2139 0084 FA88     		ldrh	r2, [r7, #6]	@ movhi
 2140 0086 DA86     		strh	r2, [r3, #54]	@ movhi
1348:Drivers/STM32F4xx_HAL_Driver/Src/stm32f4xx_hal_spi.c **** 
1349:Drivers/STM32F4xx_HAL_Driver/Src/stm32f4xx_hal_spi.c ****   /* Init field not used in handle to zero */
1350:Drivers/STM32F4xx_HAL_Driver/Src/stm32f4xx_hal_spi.c ****   hspi->pRxBuffPtr  = (uint8_t *)NULL;
 2141              		.loc 1 1350 21
 2142 0088 FB68     		ldr	r3, [r7, #12]
 2143 008a 0022     		movs	r2, #0
 2144 008c 9A63     		str	r2, [r3, #56]
1351:Drivers/STM32F4xx_HAL_Driver/Src/stm32f4xx_hal_spi.c ****   hspi->RxXferSize  = 0U;
 2145              		.loc 1 1351 21
 2146 008e FB68     		ldr	r3, [r7, #12]
 2147 0090 0022     		movs	r2, #0
 2148 0092 9A87     		strh	r2, [r3, #60]	@ movhi
1352:Drivers/STM32F4xx_HAL_Driver/Src/stm32f4xx_hal_spi.c ****   hspi->RxXferCount = 0U;
 2149              		.loc 1 1352 21
 2150 0094 FB68     		ldr	r3, [r7, #12]
 2151 0096 0022     		movs	r2, #0
 2152 0098 DA87     		strh	r2, [r3, #62]	@ movhi
1353:Drivers/STM32F4xx_HAL_Driver/Src/stm32f4xx_hal_spi.c ****   hspi->RxISR       = NULL;
 2153              		.loc 1 1353 21
 2154 009a FB68     		ldr	r3, [r7, #12]
 2155 009c 0022     		movs	r2, #0
 2156 009e 1A64     		str	r2, [r3, #64]
1354:Drivers/STM32F4xx_HAL_Driver/Src/stm32f4xx_hal_spi.c **** 
1355:Drivers/STM32F4xx_HAL_Driver/Src/stm32f4xx_hal_spi.c ****   /* Set the function for IT treatment */
1356:Drivers/STM32F4xx_HAL_Driver/Src/stm32f4xx_hal_spi.c ****   if (hspi->Init.DataSize > SPI_DATASIZE_8BIT)
 2157              		.loc 1 1356 17
 2158 00a0 FB68     		ldr	r3, [r7, #12]
 2159 00a2 DB68     		ldr	r3, [r3, #12]
 2160              		.loc 1 1356 6
 2161 00a4 002B     		cmp	r3, #0
 2162 00a6 03D0     		beq	.L119
1357:Drivers/STM32F4xx_HAL_Driver/Src/stm32f4xx_hal_spi.c ****   {
1358:Drivers/STM32F4xx_HAL_Driver/Src/stm32f4xx_hal_spi.c ****     hspi->TxISR = SPI_TxISR_16BIT;
 2163              		.loc 1 1358 17
 2164 00a8 FB68     		ldr	r3, [r7, #12]
 2165 00aa 1B4A     		ldr	r2, .L123+4
 2166 00ac 5A64     		str	r2, [r3, #68]
 2167 00ae 02E0     		b	.L120
 2168              	.L119:
1359:Drivers/STM32F4xx_HAL_Driver/Src/stm32f4xx_hal_spi.c ****   }
1360:Drivers/STM32F4xx_HAL_Driver/Src/stm32f4xx_hal_spi.c ****   else
1361:Drivers/STM32F4xx_HAL_Driver/Src/stm32f4xx_hal_spi.c ****   {
ARM GAS  /tmp/cc9N7Buw.s 			page 63


1362:Drivers/STM32F4xx_HAL_Driver/Src/stm32f4xx_hal_spi.c ****     hspi->TxISR = SPI_TxISR_8BIT;
 2169              		.loc 1 1362 17
 2170 00b0 FB68     		ldr	r3, [r7, #12]
 2171 00b2 1A4A     		ldr	r2, .L123+8
 2172 00b4 5A64     		str	r2, [r3, #68]
 2173              	.L120:
1363:Drivers/STM32F4xx_HAL_Driver/Src/stm32f4xx_hal_spi.c ****   }
1364:Drivers/STM32F4xx_HAL_Driver/Src/stm32f4xx_hal_spi.c **** 
1365:Drivers/STM32F4xx_HAL_Driver/Src/stm32f4xx_hal_spi.c ****   /* Configure communication direction : 1Line */
1366:Drivers/STM32F4xx_HAL_Driver/Src/stm32f4xx_hal_spi.c ****   if (hspi->Init.Direction == SPI_DIRECTION_1LINE)
 2174              		.loc 1 1366 17
 2175 00b6 FB68     		ldr	r3, [r7, #12]
 2176 00b8 9B68     		ldr	r3, [r3, #8]
 2177              		.loc 1 1366 6
 2178 00ba B3F5004F 		cmp	r3, #32768
 2179 00be 07D1     		bne	.L121
1367:Drivers/STM32F4xx_HAL_Driver/Src/stm32f4xx_hal_spi.c ****   {
1368:Drivers/STM32F4xx_HAL_Driver/Src/stm32f4xx_hal_spi.c ****     SPI_1LINE_TX(hspi);
 2180              		.loc 1 1368 5
 2181 00c0 FB68     		ldr	r3, [r7, #12]
 2182 00c2 1B68     		ldr	r3, [r3]
 2183 00c4 1A68     		ldr	r2, [r3]
 2184 00c6 FB68     		ldr	r3, [r7, #12]
 2185 00c8 1B68     		ldr	r3, [r3]
 2186 00ca 42F48042 		orr	r2, r2, #16384
 2187 00ce 1A60     		str	r2, [r3]
 2188              	.L121:
1369:Drivers/STM32F4xx_HAL_Driver/Src/stm32f4xx_hal_spi.c ****   }
1370:Drivers/STM32F4xx_HAL_Driver/Src/stm32f4xx_hal_spi.c **** 
1371:Drivers/STM32F4xx_HAL_Driver/Src/stm32f4xx_hal_spi.c **** #if (USE_SPI_CRC != 0U)
1372:Drivers/STM32F4xx_HAL_Driver/Src/stm32f4xx_hal_spi.c ****   /* Reset CRC Calculation */
1373:Drivers/STM32F4xx_HAL_Driver/Src/stm32f4xx_hal_spi.c ****   if (hspi->Init.CRCCalculation == SPI_CRCCALCULATION_ENABLE)
1374:Drivers/STM32F4xx_HAL_Driver/Src/stm32f4xx_hal_spi.c ****   {
1375:Drivers/STM32F4xx_HAL_Driver/Src/stm32f4xx_hal_spi.c ****     SPI_RESET_CRC(hspi);
1376:Drivers/STM32F4xx_HAL_Driver/Src/stm32f4xx_hal_spi.c ****   }
1377:Drivers/STM32F4xx_HAL_Driver/Src/stm32f4xx_hal_spi.c **** #endif /* USE_SPI_CRC */
1378:Drivers/STM32F4xx_HAL_Driver/Src/stm32f4xx_hal_spi.c **** 
1379:Drivers/STM32F4xx_HAL_Driver/Src/stm32f4xx_hal_spi.c ****   /* Enable TXE and ERR interrupt */
1380:Drivers/STM32F4xx_HAL_Driver/Src/stm32f4xx_hal_spi.c ****   __HAL_SPI_ENABLE_IT(hspi, (SPI_IT_TXE | SPI_IT_ERR));
 2189              		.loc 1 1380 3
 2190 00d0 FB68     		ldr	r3, [r7, #12]
 2191 00d2 1B68     		ldr	r3, [r3]
 2192 00d4 5A68     		ldr	r2, [r3, #4]
 2193 00d6 FB68     		ldr	r3, [r7, #12]
 2194 00d8 1B68     		ldr	r3, [r3]
 2195 00da 42F0A002 		orr	r2, r2, #160
 2196 00de 5A60     		str	r2, [r3, #4]
1381:Drivers/STM32F4xx_HAL_Driver/Src/stm32f4xx_hal_spi.c **** 
1382:Drivers/STM32F4xx_HAL_Driver/Src/stm32f4xx_hal_spi.c **** 
1383:Drivers/STM32F4xx_HAL_Driver/Src/stm32f4xx_hal_spi.c ****   /* Check if the SPI is already enabled */
1384:Drivers/STM32F4xx_HAL_Driver/Src/stm32f4xx_hal_spi.c ****   if ((hspi->Instance->CR1 & SPI_CR1_SPE) != SPI_CR1_SPE)
 2197              		.loc 1 1384 12
 2198 00e0 FB68     		ldr	r3, [r7, #12]
 2199 00e2 1B68     		ldr	r3, [r3]
 2200              		.loc 1 1384 22
 2201 00e4 1B68     		ldr	r3, [r3]
 2202              		.loc 1 1384 28
ARM GAS  /tmp/cc9N7Buw.s 			page 64


 2203 00e6 03F04003 		and	r3, r3, #64
 2204              		.loc 1 1384 6
 2205 00ea 402B     		cmp	r3, #64
 2206 00ec 08D0     		beq	.L122
1385:Drivers/STM32F4xx_HAL_Driver/Src/stm32f4xx_hal_spi.c ****   {
1386:Drivers/STM32F4xx_HAL_Driver/Src/stm32f4xx_hal_spi.c ****     /* Enable SPI peripheral */
1387:Drivers/STM32F4xx_HAL_Driver/Src/stm32f4xx_hal_spi.c ****     __HAL_SPI_ENABLE(hspi);
 2207              		.loc 1 1387 5
 2208 00ee FB68     		ldr	r3, [r7, #12]
 2209 00f0 1B68     		ldr	r3, [r3]
 2210 00f2 1A68     		ldr	r2, [r3]
 2211 00f4 FB68     		ldr	r3, [r7, #12]
 2212 00f6 1B68     		ldr	r3, [r3]
 2213 00f8 42F04002 		orr	r2, r2, #64
 2214 00fc 1A60     		str	r2, [r3]
 2215 00fe 00E0     		b	.L117
 2216              	.L122:
1388:Drivers/STM32F4xx_HAL_Driver/Src/stm32f4xx_hal_spi.c ****   }
1389:Drivers/STM32F4xx_HAL_Driver/Src/stm32f4xx_hal_spi.c **** 
1390:Drivers/STM32F4xx_HAL_Driver/Src/stm32f4xx_hal_spi.c **** error :
 2217              		.loc 1 1390 1
 2218 0100 00BF     		nop
 2219              	.L117:
1391:Drivers/STM32F4xx_HAL_Driver/Src/stm32f4xx_hal_spi.c ****   __HAL_UNLOCK(hspi);
 2220              		.loc 1 1391 3
 2221 0102 FB68     		ldr	r3, [r7, #12]
 2222 0104 0022     		movs	r2, #0
 2223 0106 83F85020 		strb	r2, [r3, #80]
1392:Drivers/STM32F4xx_HAL_Driver/Src/stm32f4xx_hal_spi.c ****   return errorcode;
 2224              		.loc 1 1392 10
 2225 010a FB7D     		ldrb	r3, [r7, #23]	@ zero_extendqisi2
 2226              	.L114:
1393:Drivers/STM32F4xx_HAL_Driver/Src/stm32f4xx_hal_spi.c **** }
 2227              		.loc 1 1393 1
 2228 010c 1846     		mov	r0, r3
 2229 010e 1837     		adds	r7, r7, #24
 2230              	.LCFI40:
 2231              		.cfi_def_cfa_offset 8
 2232 0110 BD46     		mov	sp, r7
 2233              	.LCFI41:
 2234              		.cfi_def_cfa_register 13
 2235              		@ sp needed
 2236 0112 80BD     		pop	{r7, pc}
 2237              	.L124:
 2238              		.align	2
 2239              	.L123:
 2240 0114 00000000 		.word	.LC0
 2241 0118 00000000 		.word	SPI_TxISR_16BIT
 2242 011c 00000000 		.word	SPI_TxISR_8BIT
 2243              		.cfi_endproc
 2244              	.LFE137:
 2246              		.section	.text.HAL_SPI_Receive_IT,"ax",%progbits
 2247              		.align	1
 2248              		.global	HAL_SPI_Receive_IT
 2249              		.syntax unified
 2250              		.thumb
 2251              		.thumb_func
ARM GAS  /tmp/cc9N7Buw.s 			page 65


 2252              		.fpu fpv4-sp-d16
 2254              	HAL_SPI_Receive_IT:
 2255              	.LFB138:
1394:Drivers/STM32F4xx_HAL_Driver/Src/stm32f4xx_hal_spi.c **** 
1395:Drivers/STM32F4xx_HAL_Driver/Src/stm32f4xx_hal_spi.c **** /**
1396:Drivers/STM32F4xx_HAL_Driver/Src/stm32f4xx_hal_spi.c ****   * @brief  Receive an amount of data in non-blocking mode with Interrupt.
1397:Drivers/STM32F4xx_HAL_Driver/Src/stm32f4xx_hal_spi.c ****   * @param  hspi pointer to a SPI_HandleTypeDef structure that contains
1398:Drivers/STM32F4xx_HAL_Driver/Src/stm32f4xx_hal_spi.c ****   *               the configuration information for SPI module.
1399:Drivers/STM32F4xx_HAL_Driver/Src/stm32f4xx_hal_spi.c ****   * @param  pData pointer to data buffer
1400:Drivers/STM32F4xx_HAL_Driver/Src/stm32f4xx_hal_spi.c ****   * @param  Size amount of data to be sent
1401:Drivers/STM32F4xx_HAL_Driver/Src/stm32f4xx_hal_spi.c ****   * @retval HAL status
1402:Drivers/STM32F4xx_HAL_Driver/Src/stm32f4xx_hal_spi.c ****   */
1403:Drivers/STM32F4xx_HAL_Driver/Src/stm32f4xx_hal_spi.c **** HAL_StatusTypeDef HAL_SPI_Receive_IT(SPI_HandleTypeDef *hspi, uint8_t *pData, uint16_t Size)
1404:Drivers/STM32F4xx_HAL_Driver/Src/stm32f4xx_hal_spi.c **** {
 2256              		.loc 1 1404 1
 2257              		.cfi_startproc
 2258              		@ args = 0, pretend = 0, frame = 24
 2259              		@ frame_needed = 1, uses_anonymous_args = 0
 2260 0000 80B5     		push	{r7, lr}
 2261              	.LCFI42:
 2262              		.cfi_def_cfa_offset 8
 2263              		.cfi_offset 7, -8
 2264              		.cfi_offset 14, -4
 2265 0002 86B0     		sub	sp, sp, #24
 2266              	.LCFI43:
 2267              		.cfi_def_cfa_offset 32
 2268 0004 00AF     		add	r7, sp, #0
 2269              	.LCFI44:
 2270              		.cfi_def_cfa_register 7
 2271 0006 F860     		str	r0, [r7, #12]
 2272 0008 B960     		str	r1, [r7, #8]
 2273 000a 1346     		mov	r3, r2
 2274 000c FB80     		strh	r3, [r7, #6]	@ movhi
1405:Drivers/STM32F4xx_HAL_Driver/Src/stm32f4xx_hal_spi.c ****   HAL_StatusTypeDef errorcode = HAL_OK;
 2275              		.loc 1 1405 21
 2276 000e 0023     		movs	r3, #0
 2277 0010 FB75     		strb	r3, [r7, #23]
1406:Drivers/STM32F4xx_HAL_Driver/Src/stm32f4xx_hal_spi.c **** 
1407:Drivers/STM32F4xx_HAL_Driver/Src/stm32f4xx_hal_spi.c ****   if ((hspi->Init.Direction == SPI_DIRECTION_2LINES) && (hspi->Init.Mode == SPI_MODE_MASTER))
 2278              		.loc 1 1407 18
 2279 0012 FB68     		ldr	r3, [r7, #12]
 2280 0014 9B68     		ldr	r3, [r3, #8]
 2281              		.loc 1 1407 6
 2282 0016 002B     		cmp	r3, #0
 2283 0018 10D1     		bne	.L126
 2284              		.loc 1 1407 68 discriminator 1
 2285 001a FB68     		ldr	r3, [r7, #12]
 2286 001c 5B68     		ldr	r3, [r3, #4]
 2287              		.loc 1 1407 54 discriminator 1
 2288 001e B3F5827F 		cmp	r3, #260
 2289 0022 0BD1     		bne	.L126
1408:Drivers/STM32F4xx_HAL_Driver/Src/stm32f4xx_hal_spi.c ****   {
1409:Drivers/STM32F4xx_HAL_Driver/Src/stm32f4xx_hal_spi.c ****     hspi->State = HAL_SPI_STATE_BUSY_RX;
 2290              		.loc 1 1409 17
 2291 0024 FB68     		ldr	r3, [r7, #12]
 2292 0026 0422     		movs	r2, #4
 2293 0028 83F85120 		strb	r2, [r3, #81]
ARM GAS  /tmp/cc9N7Buw.s 			page 66


1410:Drivers/STM32F4xx_HAL_Driver/Src/stm32f4xx_hal_spi.c ****     /* Call transmit-receive function to send Dummy data on Tx line and generate clock on CLK line 
1411:Drivers/STM32F4xx_HAL_Driver/Src/stm32f4xx_hal_spi.c ****     return HAL_SPI_TransmitReceive_IT(hspi, pData, pData, Size);
 2294              		.loc 1 1411 12
 2295 002c FB88     		ldrh	r3, [r7, #6]
 2296 002e BA68     		ldr	r2, [r7, #8]
 2297 0030 B968     		ldr	r1, [r7, #8]
 2298 0032 F868     		ldr	r0, [r7, #12]
 2299 0034 FFF7FEFF 		bl	HAL_SPI_TransmitReceive_IT
 2300 0038 0346     		mov	r3, r0
 2301 003a 6EE0     		b	.L127
 2302              	.L126:
1412:Drivers/STM32F4xx_HAL_Driver/Src/stm32f4xx_hal_spi.c ****   }
1413:Drivers/STM32F4xx_HAL_Driver/Src/stm32f4xx_hal_spi.c **** 
1414:Drivers/STM32F4xx_HAL_Driver/Src/stm32f4xx_hal_spi.c ****   /* Process Locked */
1415:Drivers/STM32F4xx_HAL_Driver/Src/stm32f4xx_hal_spi.c ****   __HAL_LOCK(hspi);
 2303              		.loc 1 1415 3
 2304 003c FB68     		ldr	r3, [r7, #12]
 2305 003e 93F85030 		ldrb	r3, [r3, #80]	@ zero_extendqisi2
 2306 0042 012B     		cmp	r3, #1
 2307 0044 01D1     		bne	.L128
 2308              		.loc 1 1415 3 is_stmt 0 discriminator 1
 2309 0046 0223     		movs	r3, #2
 2310 0048 67E0     		b	.L127
 2311              	.L128:
 2312              		.loc 1 1415 3 discriminator 2
 2313 004a FB68     		ldr	r3, [r7, #12]
 2314 004c 0122     		movs	r2, #1
 2315 004e 83F85020 		strb	r2, [r3, #80]
1416:Drivers/STM32F4xx_HAL_Driver/Src/stm32f4xx_hal_spi.c **** 
1417:Drivers/STM32F4xx_HAL_Driver/Src/stm32f4xx_hal_spi.c ****   if (hspi->State != HAL_SPI_STATE_READY)
 2316              		.loc 1 1417 11 is_stmt 1 discriminator 2
 2317 0052 FB68     		ldr	r3, [r7, #12]
 2318 0054 93F85130 		ldrb	r3, [r3, #81]
 2319 0058 DBB2     		uxtb	r3, r3
 2320              		.loc 1 1417 6 discriminator 2
 2321 005a 012B     		cmp	r3, #1
 2322 005c 02D0     		beq	.L129
1418:Drivers/STM32F4xx_HAL_Driver/Src/stm32f4xx_hal_spi.c ****   {
1419:Drivers/STM32F4xx_HAL_Driver/Src/stm32f4xx_hal_spi.c ****     errorcode = HAL_BUSY;
 2323              		.loc 1 1419 15
 2324 005e 0223     		movs	r3, #2
 2325 0060 FB75     		strb	r3, [r7, #23]
1420:Drivers/STM32F4xx_HAL_Driver/Src/stm32f4xx_hal_spi.c ****     goto error;
 2326              		.loc 1 1420 5
 2327 0062 55E0     		b	.L130
 2328              	.L129:
1421:Drivers/STM32F4xx_HAL_Driver/Src/stm32f4xx_hal_spi.c ****   }
1422:Drivers/STM32F4xx_HAL_Driver/Src/stm32f4xx_hal_spi.c **** 
1423:Drivers/STM32F4xx_HAL_Driver/Src/stm32f4xx_hal_spi.c ****   if ((pData == NULL) || (Size == 0U))
 2329              		.loc 1 1423 6
 2330 0064 BB68     		ldr	r3, [r7, #8]
 2331 0066 002B     		cmp	r3, #0
 2332 0068 02D0     		beq	.L131
 2333              		.loc 1 1423 23 discriminator 1
 2334 006a FB88     		ldrh	r3, [r7, #6]
 2335 006c 002B     		cmp	r3, #0
 2336 006e 02D1     		bne	.L132
ARM GAS  /tmp/cc9N7Buw.s 			page 67


 2337              	.L131:
1424:Drivers/STM32F4xx_HAL_Driver/Src/stm32f4xx_hal_spi.c ****   {
1425:Drivers/STM32F4xx_HAL_Driver/Src/stm32f4xx_hal_spi.c ****     errorcode = HAL_ERROR;
 2338              		.loc 1 1425 15
 2339 0070 0123     		movs	r3, #1
 2340 0072 FB75     		strb	r3, [r7, #23]
1426:Drivers/STM32F4xx_HAL_Driver/Src/stm32f4xx_hal_spi.c ****     goto error;
 2341              		.loc 1 1426 5
 2342 0074 4CE0     		b	.L130
 2343              	.L132:
1427:Drivers/STM32F4xx_HAL_Driver/Src/stm32f4xx_hal_spi.c ****   }
1428:Drivers/STM32F4xx_HAL_Driver/Src/stm32f4xx_hal_spi.c **** 
1429:Drivers/STM32F4xx_HAL_Driver/Src/stm32f4xx_hal_spi.c ****   /* Set the transaction information */
1430:Drivers/STM32F4xx_HAL_Driver/Src/stm32f4xx_hal_spi.c ****   hspi->State       = HAL_SPI_STATE_BUSY_RX;
 2344              		.loc 1 1430 21
 2345 0076 FB68     		ldr	r3, [r7, #12]
 2346 0078 0422     		movs	r2, #4
 2347 007a 83F85120 		strb	r2, [r3, #81]
1431:Drivers/STM32F4xx_HAL_Driver/Src/stm32f4xx_hal_spi.c ****   hspi->ErrorCode   = HAL_SPI_ERROR_NONE;
 2348              		.loc 1 1431 21
 2349 007e FB68     		ldr	r3, [r7, #12]
 2350 0080 0022     		movs	r2, #0
 2351 0082 5A65     		str	r2, [r3, #84]
1432:Drivers/STM32F4xx_HAL_Driver/Src/stm32f4xx_hal_spi.c ****   hspi->pRxBuffPtr  = (uint8_t *)pData;
 2352              		.loc 1 1432 21
 2353 0084 FB68     		ldr	r3, [r7, #12]
 2354 0086 BA68     		ldr	r2, [r7, #8]
 2355 0088 9A63     		str	r2, [r3, #56]
1433:Drivers/STM32F4xx_HAL_Driver/Src/stm32f4xx_hal_spi.c ****   hspi->RxXferSize  = Size;
 2356              		.loc 1 1433 21
 2357 008a FB68     		ldr	r3, [r7, #12]
 2358 008c FA88     		ldrh	r2, [r7, #6]	@ movhi
 2359 008e 9A87     		strh	r2, [r3, #60]	@ movhi
1434:Drivers/STM32F4xx_HAL_Driver/Src/stm32f4xx_hal_spi.c ****   hspi->RxXferCount = Size;
 2360              		.loc 1 1434 21
 2361 0090 FB68     		ldr	r3, [r7, #12]
 2362 0092 FA88     		ldrh	r2, [r7, #6]	@ movhi
 2363 0094 DA87     		strh	r2, [r3, #62]	@ movhi
1435:Drivers/STM32F4xx_HAL_Driver/Src/stm32f4xx_hal_spi.c **** 
1436:Drivers/STM32F4xx_HAL_Driver/Src/stm32f4xx_hal_spi.c ****   /* Init field not used in handle to zero */
1437:Drivers/STM32F4xx_HAL_Driver/Src/stm32f4xx_hal_spi.c ****   hspi->pTxBuffPtr  = (uint8_t *)NULL;
 2364              		.loc 1 1437 21
 2365 0096 FB68     		ldr	r3, [r7, #12]
 2366 0098 0022     		movs	r2, #0
 2367 009a 1A63     		str	r2, [r3, #48]
1438:Drivers/STM32F4xx_HAL_Driver/Src/stm32f4xx_hal_spi.c ****   hspi->TxXferSize  = 0U;
 2368              		.loc 1 1438 21
 2369 009c FB68     		ldr	r3, [r7, #12]
 2370 009e 0022     		movs	r2, #0
 2371 00a0 9A86     		strh	r2, [r3, #52]	@ movhi
1439:Drivers/STM32F4xx_HAL_Driver/Src/stm32f4xx_hal_spi.c ****   hspi->TxXferCount = 0U;
 2372              		.loc 1 1439 21
 2373 00a2 FB68     		ldr	r3, [r7, #12]
 2374 00a4 0022     		movs	r2, #0
 2375 00a6 DA86     		strh	r2, [r3, #54]	@ movhi
1440:Drivers/STM32F4xx_HAL_Driver/Src/stm32f4xx_hal_spi.c ****   hspi->TxISR       = NULL;
 2376              		.loc 1 1440 21
ARM GAS  /tmp/cc9N7Buw.s 			page 68


 2377 00a8 FB68     		ldr	r3, [r7, #12]
 2378 00aa 0022     		movs	r2, #0
 2379 00ac 5A64     		str	r2, [r3, #68]
1441:Drivers/STM32F4xx_HAL_Driver/Src/stm32f4xx_hal_spi.c **** 
1442:Drivers/STM32F4xx_HAL_Driver/Src/stm32f4xx_hal_spi.c ****   /* Set the function for IT treatment */
1443:Drivers/STM32F4xx_HAL_Driver/Src/stm32f4xx_hal_spi.c ****   if (hspi->Init.DataSize > SPI_DATASIZE_8BIT)
 2380              		.loc 1 1443 17
 2381 00ae FB68     		ldr	r3, [r7, #12]
 2382 00b0 DB68     		ldr	r3, [r3, #12]
 2383              		.loc 1 1443 6
 2384 00b2 002B     		cmp	r3, #0
 2385 00b4 03D0     		beq	.L133
1444:Drivers/STM32F4xx_HAL_Driver/Src/stm32f4xx_hal_spi.c ****   {
1445:Drivers/STM32F4xx_HAL_Driver/Src/stm32f4xx_hal_spi.c ****     hspi->RxISR = SPI_RxISR_16BIT;
 2386              		.loc 1 1445 17
 2387 00b6 FB68     		ldr	r3, [r7, #12]
 2388 00b8 1A4A     		ldr	r2, .L137
 2389 00ba 1A64     		str	r2, [r3, #64]
 2390 00bc 02E0     		b	.L134
 2391              	.L133:
1446:Drivers/STM32F4xx_HAL_Driver/Src/stm32f4xx_hal_spi.c ****   }
1447:Drivers/STM32F4xx_HAL_Driver/Src/stm32f4xx_hal_spi.c ****   else
1448:Drivers/STM32F4xx_HAL_Driver/Src/stm32f4xx_hal_spi.c ****   {
1449:Drivers/STM32F4xx_HAL_Driver/Src/stm32f4xx_hal_spi.c ****     hspi->RxISR = SPI_RxISR_8BIT;
 2392              		.loc 1 1449 17
 2393 00be FB68     		ldr	r3, [r7, #12]
 2394 00c0 194A     		ldr	r2, .L137+4
 2395 00c2 1A64     		str	r2, [r3, #64]
 2396              	.L134:
1450:Drivers/STM32F4xx_HAL_Driver/Src/stm32f4xx_hal_spi.c ****   }
1451:Drivers/STM32F4xx_HAL_Driver/Src/stm32f4xx_hal_spi.c **** 
1452:Drivers/STM32F4xx_HAL_Driver/Src/stm32f4xx_hal_spi.c ****   /* Configure communication direction : 1Line */
1453:Drivers/STM32F4xx_HAL_Driver/Src/stm32f4xx_hal_spi.c ****   if (hspi->Init.Direction == SPI_DIRECTION_1LINE)
 2397              		.loc 1 1453 17
 2398 00c4 FB68     		ldr	r3, [r7, #12]
 2399 00c6 9B68     		ldr	r3, [r3, #8]
 2400              		.loc 1 1453 6
 2401 00c8 B3F5004F 		cmp	r3, #32768
 2402 00cc 07D1     		bne	.L135
1454:Drivers/STM32F4xx_HAL_Driver/Src/stm32f4xx_hal_spi.c ****   {
1455:Drivers/STM32F4xx_HAL_Driver/Src/stm32f4xx_hal_spi.c ****     SPI_1LINE_RX(hspi);
 2403              		.loc 1 1455 5
 2404 00ce FB68     		ldr	r3, [r7, #12]
 2405 00d0 1B68     		ldr	r3, [r3]
 2406 00d2 1A68     		ldr	r2, [r3]
 2407 00d4 FB68     		ldr	r3, [r7, #12]
 2408 00d6 1B68     		ldr	r3, [r3]
 2409 00d8 22F48042 		bic	r2, r2, #16384
 2410 00dc 1A60     		str	r2, [r3]
 2411              	.L135:
1456:Drivers/STM32F4xx_HAL_Driver/Src/stm32f4xx_hal_spi.c ****   }
1457:Drivers/STM32F4xx_HAL_Driver/Src/stm32f4xx_hal_spi.c **** 
1458:Drivers/STM32F4xx_HAL_Driver/Src/stm32f4xx_hal_spi.c **** #if (USE_SPI_CRC != 0U)
1459:Drivers/STM32F4xx_HAL_Driver/Src/stm32f4xx_hal_spi.c ****   /* Reset CRC Calculation */
1460:Drivers/STM32F4xx_HAL_Driver/Src/stm32f4xx_hal_spi.c ****   if (hspi->Init.CRCCalculation == SPI_CRCCALCULATION_ENABLE)
1461:Drivers/STM32F4xx_HAL_Driver/Src/stm32f4xx_hal_spi.c ****   {
1462:Drivers/STM32F4xx_HAL_Driver/Src/stm32f4xx_hal_spi.c ****     SPI_RESET_CRC(hspi);
ARM GAS  /tmp/cc9N7Buw.s 			page 69


1463:Drivers/STM32F4xx_HAL_Driver/Src/stm32f4xx_hal_spi.c ****   }
1464:Drivers/STM32F4xx_HAL_Driver/Src/stm32f4xx_hal_spi.c **** #endif /* USE_SPI_CRC */
1465:Drivers/STM32F4xx_HAL_Driver/Src/stm32f4xx_hal_spi.c **** 
1466:Drivers/STM32F4xx_HAL_Driver/Src/stm32f4xx_hal_spi.c ****   /* Enable TXE and ERR interrupt */
1467:Drivers/STM32F4xx_HAL_Driver/Src/stm32f4xx_hal_spi.c ****   __HAL_SPI_ENABLE_IT(hspi, (SPI_IT_RXNE | SPI_IT_ERR));
 2412              		.loc 1 1467 3
 2413 00de FB68     		ldr	r3, [r7, #12]
 2414 00e0 1B68     		ldr	r3, [r3]
 2415 00e2 5A68     		ldr	r2, [r3, #4]
 2416 00e4 FB68     		ldr	r3, [r7, #12]
 2417 00e6 1B68     		ldr	r3, [r3]
 2418 00e8 42F06002 		orr	r2, r2, #96
 2419 00ec 5A60     		str	r2, [r3, #4]
1468:Drivers/STM32F4xx_HAL_Driver/Src/stm32f4xx_hal_spi.c **** 
1469:Drivers/STM32F4xx_HAL_Driver/Src/stm32f4xx_hal_spi.c ****   /* Note : The SPI must be enabled after unlocking current process
1470:Drivers/STM32F4xx_HAL_Driver/Src/stm32f4xx_hal_spi.c ****             to avoid the risk of SPI interrupt handle execution before current
1471:Drivers/STM32F4xx_HAL_Driver/Src/stm32f4xx_hal_spi.c ****             process unlock */
1472:Drivers/STM32F4xx_HAL_Driver/Src/stm32f4xx_hal_spi.c **** 
1473:Drivers/STM32F4xx_HAL_Driver/Src/stm32f4xx_hal_spi.c ****   /* Check if the SPI is already enabled */
1474:Drivers/STM32F4xx_HAL_Driver/Src/stm32f4xx_hal_spi.c ****   if ((hspi->Instance->CR1 & SPI_CR1_SPE) != SPI_CR1_SPE)
 2420              		.loc 1 1474 12
 2421 00ee FB68     		ldr	r3, [r7, #12]
 2422 00f0 1B68     		ldr	r3, [r3]
 2423              		.loc 1 1474 22
 2424 00f2 1B68     		ldr	r3, [r3]
 2425              		.loc 1 1474 28
 2426 00f4 03F04003 		and	r3, r3, #64
 2427              		.loc 1 1474 6
 2428 00f8 402B     		cmp	r3, #64
 2429 00fa 08D0     		beq	.L136
1475:Drivers/STM32F4xx_HAL_Driver/Src/stm32f4xx_hal_spi.c ****   {
1476:Drivers/STM32F4xx_HAL_Driver/Src/stm32f4xx_hal_spi.c ****     /* Enable SPI peripheral */
1477:Drivers/STM32F4xx_HAL_Driver/Src/stm32f4xx_hal_spi.c ****     __HAL_SPI_ENABLE(hspi);
 2430              		.loc 1 1477 5
 2431 00fc FB68     		ldr	r3, [r7, #12]
 2432 00fe 1B68     		ldr	r3, [r3]
 2433 0100 1A68     		ldr	r2, [r3]
 2434 0102 FB68     		ldr	r3, [r7, #12]
 2435 0104 1B68     		ldr	r3, [r3]
 2436 0106 42F04002 		orr	r2, r2, #64
 2437 010a 1A60     		str	r2, [r3]
 2438 010c 00E0     		b	.L130
 2439              	.L136:
1478:Drivers/STM32F4xx_HAL_Driver/Src/stm32f4xx_hal_spi.c ****   }
1479:Drivers/STM32F4xx_HAL_Driver/Src/stm32f4xx_hal_spi.c **** 
1480:Drivers/STM32F4xx_HAL_Driver/Src/stm32f4xx_hal_spi.c **** error :
 2440              		.loc 1 1480 1
 2441 010e 00BF     		nop
 2442              	.L130:
1481:Drivers/STM32F4xx_HAL_Driver/Src/stm32f4xx_hal_spi.c ****   /* Process Unlocked */
1482:Drivers/STM32F4xx_HAL_Driver/Src/stm32f4xx_hal_spi.c ****   __HAL_UNLOCK(hspi);
 2443              		.loc 1 1482 3
 2444 0110 FB68     		ldr	r3, [r7, #12]
 2445 0112 0022     		movs	r2, #0
 2446 0114 83F85020 		strb	r2, [r3, #80]
1483:Drivers/STM32F4xx_HAL_Driver/Src/stm32f4xx_hal_spi.c ****   return errorcode;
 2447              		.loc 1 1483 10
ARM GAS  /tmp/cc9N7Buw.s 			page 70


 2448 0118 FB7D     		ldrb	r3, [r7, #23]	@ zero_extendqisi2
 2449              	.L127:
1484:Drivers/STM32F4xx_HAL_Driver/Src/stm32f4xx_hal_spi.c **** }
 2450              		.loc 1 1484 1
 2451 011a 1846     		mov	r0, r3
 2452 011c 1837     		adds	r7, r7, #24
 2453              	.LCFI45:
 2454              		.cfi_def_cfa_offset 8
 2455 011e BD46     		mov	sp, r7
 2456              	.LCFI46:
 2457              		.cfi_def_cfa_register 13
 2458              		@ sp needed
 2459 0120 80BD     		pop	{r7, pc}
 2460              	.L138:
 2461 0122 00BF     		.align	2
 2462              	.L137:
 2463 0124 00000000 		.word	SPI_RxISR_16BIT
 2464 0128 00000000 		.word	SPI_RxISR_8BIT
 2465              		.cfi_endproc
 2466              	.LFE138:
 2468              		.section	.text.HAL_SPI_TransmitReceive_IT,"ax",%progbits
 2469              		.align	1
 2470              		.global	HAL_SPI_TransmitReceive_IT
 2471              		.syntax unified
 2472              		.thumb
 2473              		.thumb_func
 2474              		.fpu fpv4-sp-d16
 2476              	HAL_SPI_TransmitReceive_IT:
 2477              	.LFB139:
1485:Drivers/STM32F4xx_HAL_Driver/Src/stm32f4xx_hal_spi.c **** 
1486:Drivers/STM32F4xx_HAL_Driver/Src/stm32f4xx_hal_spi.c **** /**
1487:Drivers/STM32F4xx_HAL_Driver/Src/stm32f4xx_hal_spi.c ****   * @brief  Transmit and Receive an amount of data in non-blocking mode with Interrupt.
1488:Drivers/STM32F4xx_HAL_Driver/Src/stm32f4xx_hal_spi.c ****   * @param  hspi pointer to a SPI_HandleTypeDef structure that contains
1489:Drivers/STM32F4xx_HAL_Driver/Src/stm32f4xx_hal_spi.c ****   *               the configuration information for SPI module.
1490:Drivers/STM32F4xx_HAL_Driver/Src/stm32f4xx_hal_spi.c ****   * @param  pTxData pointer to transmission data buffer
1491:Drivers/STM32F4xx_HAL_Driver/Src/stm32f4xx_hal_spi.c ****   * @param  pRxData pointer to reception data buffer
1492:Drivers/STM32F4xx_HAL_Driver/Src/stm32f4xx_hal_spi.c ****   * @param  Size amount of data to be sent and received
1493:Drivers/STM32F4xx_HAL_Driver/Src/stm32f4xx_hal_spi.c ****   * @retval HAL status
1494:Drivers/STM32F4xx_HAL_Driver/Src/stm32f4xx_hal_spi.c ****   */
1495:Drivers/STM32F4xx_HAL_Driver/Src/stm32f4xx_hal_spi.c **** HAL_StatusTypeDef HAL_SPI_TransmitReceive_IT(SPI_HandleTypeDef *hspi, uint8_t *pTxData, uint8_t *pR
1496:Drivers/STM32F4xx_HAL_Driver/Src/stm32f4xx_hal_spi.c **** {
 2478              		.loc 1 1496 1
 2479              		.cfi_startproc
 2480              		@ args = 0, pretend = 0, frame = 24
 2481              		@ frame_needed = 1, uses_anonymous_args = 0
 2482 0000 80B5     		push	{r7, lr}
 2483              	.LCFI47:
 2484              		.cfi_def_cfa_offset 8
 2485              		.cfi_offset 7, -8
 2486              		.cfi_offset 14, -4
 2487 0002 86B0     		sub	sp, sp, #24
 2488              	.LCFI48:
 2489              		.cfi_def_cfa_offset 32
 2490 0004 00AF     		add	r7, sp, #0
 2491              	.LCFI49:
 2492              		.cfi_def_cfa_register 7
 2493 0006 F860     		str	r0, [r7, #12]
ARM GAS  /tmp/cc9N7Buw.s 			page 71


 2494 0008 B960     		str	r1, [r7, #8]
 2495 000a 7A60     		str	r2, [r7, #4]
 2496 000c 7B80     		strh	r3, [r7, #2]	@ movhi
1497:Drivers/STM32F4xx_HAL_Driver/Src/stm32f4xx_hal_spi.c ****   uint32_t             tmp_mode;
1498:Drivers/STM32F4xx_HAL_Driver/Src/stm32f4xx_hal_spi.c ****   HAL_SPI_StateTypeDef tmp_state;
1499:Drivers/STM32F4xx_HAL_Driver/Src/stm32f4xx_hal_spi.c ****   HAL_StatusTypeDef    errorcode = HAL_OK;
 2497              		.loc 1 1499 24
 2498 000e 0023     		movs	r3, #0
 2499 0010 FB75     		strb	r3, [r7, #23]
1500:Drivers/STM32F4xx_HAL_Driver/Src/stm32f4xx_hal_spi.c **** 
1501:Drivers/STM32F4xx_HAL_Driver/Src/stm32f4xx_hal_spi.c ****   /* Check Direction parameter */
1502:Drivers/STM32F4xx_HAL_Driver/Src/stm32f4xx_hal_spi.c ****   assert_param(IS_SPI_DIRECTION_2LINES(hspi->Init.Direction));
 2500              		.loc 1 1502 3
 2501 0012 FB68     		ldr	r3, [r7, #12]
 2502 0014 9B68     		ldr	r3, [r3, #8]
 2503 0016 002B     		cmp	r3, #0
 2504 0018 04D0     		beq	.L140
 2505              		.loc 1 1502 3 is_stmt 0 discriminator 1
 2506 001a 40F2DE51 		movw	r1, #1502
 2507 001e 4248     		ldr	r0, .L152
 2508 0020 FFF7FEFF 		bl	assert_failed
 2509              	.L140:
1503:Drivers/STM32F4xx_HAL_Driver/Src/stm32f4xx_hal_spi.c **** 
1504:Drivers/STM32F4xx_HAL_Driver/Src/stm32f4xx_hal_spi.c ****   /* Process locked */
1505:Drivers/STM32F4xx_HAL_Driver/Src/stm32f4xx_hal_spi.c ****   __HAL_LOCK(hspi);
 2510              		.loc 1 1505 3 is_stmt 1
 2511 0024 FB68     		ldr	r3, [r7, #12]
 2512 0026 93F85030 		ldrb	r3, [r3, #80]	@ zero_extendqisi2
 2513 002a 012B     		cmp	r3, #1
 2514 002c 01D1     		bne	.L141
 2515              		.loc 1 1505 3 is_stmt 0 discriminator 1
 2516 002e 0223     		movs	r3, #2
 2517 0030 75E0     		b	.L142
 2518              	.L141:
 2519              		.loc 1 1505 3 discriminator 2
 2520 0032 FB68     		ldr	r3, [r7, #12]
 2521 0034 0122     		movs	r2, #1
 2522 0036 83F85020 		strb	r2, [r3, #80]
1506:Drivers/STM32F4xx_HAL_Driver/Src/stm32f4xx_hal_spi.c **** 
1507:Drivers/STM32F4xx_HAL_Driver/Src/stm32f4xx_hal_spi.c ****   /* Init temporary variables */
1508:Drivers/STM32F4xx_HAL_Driver/Src/stm32f4xx_hal_spi.c ****   tmp_state           = hspi->State;
 2523              		.loc 1 1508 23 is_stmt 1 discriminator 2
 2524 003a FB68     		ldr	r3, [r7, #12]
 2525 003c 93F85130 		ldrb	r3, [r3, #81]
 2526 0040 BB75     		strb	r3, [r7, #22]
1509:Drivers/STM32F4xx_HAL_Driver/Src/stm32f4xx_hal_spi.c ****   tmp_mode            = hspi->Init.Mode;
 2527              		.loc 1 1509 23 discriminator 2
 2528 0042 FB68     		ldr	r3, [r7, #12]
 2529 0044 5B68     		ldr	r3, [r3, #4]
 2530 0046 3B61     		str	r3, [r7, #16]
1510:Drivers/STM32F4xx_HAL_Driver/Src/stm32f4xx_hal_spi.c **** 
1511:Drivers/STM32F4xx_HAL_Driver/Src/stm32f4xx_hal_spi.c ****   if (!((tmp_state == HAL_SPI_STATE_READY) || \
 2531              		.loc 1 1511 6 discriminator 2
 2532 0048 BB7D     		ldrb	r3, [r7, #22]	@ zero_extendqisi2
 2533 004a 012B     		cmp	r3, #1
 2534 004c 0DD0     		beq	.L143
 2535              		.loc 1 1511 7 discriminator 1
ARM GAS  /tmp/cc9N7Buw.s 			page 72


 2536 004e 3B69     		ldr	r3, [r7, #16]
 2537 0050 B3F5827F 		cmp	r3, #260
 2538 0054 06D1     		bne	.L144
1512:Drivers/STM32F4xx_HAL_Driver/Src/stm32f4xx_hal_spi.c ****         ((tmp_mode == SPI_MODE_MASTER) && (hspi->Init.Direction == SPI_DIRECTION_2LINES) && (tmp_st
 2539              		.loc 1 1512 54
 2540 0056 FB68     		ldr	r3, [r7, #12]
 2541 0058 9B68     		ldr	r3, [r3, #8]
 2542              		.loc 1 1512 40
 2543 005a 002B     		cmp	r3, #0
 2544 005c 02D1     		bne	.L144
 2545              		.loc 1 1512 90 discriminator 1
 2546 005e BB7D     		ldrb	r3, [r7, #22]	@ zero_extendqisi2
 2547 0060 042B     		cmp	r3, #4
 2548 0062 02D0     		beq	.L143
 2549              	.L144:
1513:Drivers/STM32F4xx_HAL_Driver/Src/stm32f4xx_hal_spi.c ****   {
1514:Drivers/STM32F4xx_HAL_Driver/Src/stm32f4xx_hal_spi.c ****     errorcode = HAL_BUSY;
 2550              		.loc 1 1514 15
 2551 0064 0223     		movs	r3, #2
 2552 0066 FB75     		strb	r3, [r7, #23]
1515:Drivers/STM32F4xx_HAL_Driver/Src/stm32f4xx_hal_spi.c ****     goto error;
 2553              		.loc 1 1515 5
 2554 0068 54E0     		b	.L145
 2555              	.L143:
1516:Drivers/STM32F4xx_HAL_Driver/Src/stm32f4xx_hal_spi.c ****   }
1517:Drivers/STM32F4xx_HAL_Driver/Src/stm32f4xx_hal_spi.c **** 
1518:Drivers/STM32F4xx_HAL_Driver/Src/stm32f4xx_hal_spi.c ****   if ((pTxData == NULL) || (pRxData == NULL) || (Size == 0U))
 2556              		.loc 1 1518 6
 2557 006a BB68     		ldr	r3, [r7, #8]
 2558 006c 002B     		cmp	r3, #0
 2559 006e 05D0     		beq	.L146
 2560              		.loc 1 1518 25 discriminator 1
 2561 0070 7B68     		ldr	r3, [r7, #4]
 2562 0072 002B     		cmp	r3, #0
 2563 0074 02D0     		beq	.L146
 2564              		.loc 1 1518 46 discriminator 2
 2565 0076 7B88     		ldrh	r3, [r7, #2]
 2566 0078 002B     		cmp	r3, #0
 2567 007a 02D1     		bne	.L147
 2568              	.L146:
1519:Drivers/STM32F4xx_HAL_Driver/Src/stm32f4xx_hal_spi.c ****   {
1520:Drivers/STM32F4xx_HAL_Driver/Src/stm32f4xx_hal_spi.c ****     errorcode = HAL_ERROR;
 2569              		.loc 1 1520 15
 2570 007c 0123     		movs	r3, #1
 2571 007e FB75     		strb	r3, [r7, #23]
1521:Drivers/STM32F4xx_HAL_Driver/Src/stm32f4xx_hal_spi.c ****     goto error;
 2572              		.loc 1 1521 5
 2573 0080 48E0     		b	.L145
 2574              	.L147:
1522:Drivers/STM32F4xx_HAL_Driver/Src/stm32f4xx_hal_spi.c ****   }
1523:Drivers/STM32F4xx_HAL_Driver/Src/stm32f4xx_hal_spi.c **** 
1524:Drivers/STM32F4xx_HAL_Driver/Src/stm32f4xx_hal_spi.c ****   /* Don't overwrite in case of HAL_SPI_STATE_BUSY_RX */
1525:Drivers/STM32F4xx_HAL_Driver/Src/stm32f4xx_hal_spi.c ****   if (hspi->State != HAL_SPI_STATE_BUSY_RX)
 2575              		.loc 1 1525 11
 2576 0082 FB68     		ldr	r3, [r7, #12]
 2577 0084 93F85130 		ldrb	r3, [r3, #81]
 2578 0088 DBB2     		uxtb	r3, r3
ARM GAS  /tmp/cc9N7Buw.s 			page 73


 2579              		.loc 1 1525 6
 2580 008a 042B     		cmp	r3, #4
 2581 008c 03D0     		beq	.L148
1526:Drivers/STM32F4xx_HAL_Driver/Src/stm32f4xx_hal_spi.c ****   {
1527:Drivers/STM32F4xx_HAL_Driver/Src/stm32f4xx_hal_spi.c ****     hspi->State = HAL_SPI_STATE_BUSY_TX_RX;
 2582              		.loc 1 1527 17
 2583 008e FB68     		ldr	r3, [r7, #12]
 2584 0090 0522     		movs	r2, #5
 2585 0092 83F85120 		strb	r2, [r3, #81]
 2586              	.L148:
1528:Drivers/STM32F4xx_HAL_Driver/Src/stm32f4xx_hal_spi.c ****   }
1529:Drivers/STM32F4xx_HAL_Driver/Src/stm32f4xx_hal_spi.c **** 
1530:Drivers/STM32F4xx_HAL_Driver/Src/stm32f4xx_hal_spi.c ****   /* Set the transaction information */
1531:Drivers/STM32F4xx_HAL_Driver/Src/stm32f4xx_hal_spi.c ****   hspi->ErrorCode   = HAL_SPI_ERROR_NONE;
 2587              		.loc 1 1531 21
 2588 0096 FB68     		ldr	r3, [r7, #12]
 2589 0098 0022     		movs	r2, #0
 2590 009a 5A65     		str	r2, [r3, #84]
1532:Drivers/STM32F4xx_HAL_Driver/Src/stm32f4xx_hal_spi.c ****   hspi->pTxBuffPtr  = (uint8_t *)pTxData;
 2591              		.loc 1 1532 21
 2592 009c FB68     		ldr	r3, [r7, #12]
 2593 009e BA68     		ldr	r2, [r7, #8]
 2594 00a0 1A63     		str	r2, [r3, #48]
1533:Drivers/STM32F4xx_HAL_Driver/Src/stm32f4xx_hal_spi.c ****   hspi->TxXferSize  = Size;
 2595              		.loc 1 1533 21
 2596 00a2 FB68     		ldr	r3, [r7, #12]
 2597 00a4 7A88     		ldrh	r2, [r7, #2]	@ movhi
 2598 00a6 9A86     		strh	r2, [r3, #52]	@ movhi
1534:Drivers/STM32F4xx_HAL_Driver/Src/stm32f4xx_hal_spi.c ****   hspi->TxXferCount = Size;
 2599              		.loc 1 1534 21
 2600 00a8 FB68     		ldr	r3, [r7, #12]
 2601 00aa 7A88     		ldrh	r2, [r7, #2]	@ movhi
 2602 00ac DA86     		strh	r2, [r3, #54]	@ movhi
1535:Drivers/STM32F4xx_HAL_Driver/Src/stm32f4xx_hal_spi.c ****   hspi->pRxBuffPtr  = (uint8_t *)pRxData;
 2603              		.loc 1 1535 21
 2604 00ae FB68     		ldr	r3, [r7, #12]
 2605 00b0 7A68     		ldr	r2, [r7, #4]
 2606 00b2 9A63     		str	r2, [r3, #56]
1536:Drivers/STM32F4xx_HAL_Driver/Src/stm32f4xx_hal_spi.c ****   hspi->RxXferSize  = Size;
 2607              		.loc 1 1536 21
 2608 00b4 FB68     		ldr	r3, [r7, #12]
